ARM GAS  C:\Users\7636~1\AppData\Local\Temp\ccloz7r5.s 			page 1


   1              		.cpu cortex-m4
   2              		.arch armv7e-m
   3              		.fpu fpv4-sp-d16
   4              		.eabi_attribute 27, 1
   5              		.eabi_attribute 28, 1
   6              		.eabi_attribute 20, 1
   7              		.eabi_attribute 21, 1
   8              		.eabi_attribute 23, 3
   9              		.eabi_attribute 24, 1
  10              		.eabi_attribute 25, 1
  11              		.eabi_attribute 26, 1
  12              		.eabi_attribute 30, 1
  13              		.eabi_attribute 34, 1
  14              		.eabi_attribute 18, 4
  15              		.file	"ComplexMathFunctions.c"
  16              		.text
  17              	.Ltext0:
  18              		.cfi_sections	.debug_frame
  19              		.section	.text.arm_cmplx_conj_f32,"ax",%progbits
  20              		.align	1
  21              		.global	arm_cmplx_conj_f32
  22              		.syntax unified
  23              		.thumb
  24              		.thumb_func
  26              	arm_cmplx_conj_f32:
  27              	.LVL0:
  28              	.LFB120:
  29              		.file 1 "Middlewares/Third_Party/ARM_CMSIS/CMSIS/DSP/Source/ComplexMathFunctions/arm_cmplx_conj_f3
   1:Middlewares/Third_Party/ARM_CMSIS/CMSIS/DSP/Source/ComplexMathFunctions/arm_cmplx_conj_f32.c **** /* ----------------------------------------------------------------------
   2:Middlewares/Third_Party/ARM_CMSIS/CMSIS/DSP/Source/ComplexMathFunctions/arm_cmplx_conj_f32.c ****  * Project:      CMSIS DSP Library
   3:Middlewares/Third_Party/ARM_CMSIS/CMSIS/DSP/Source/ComplexMathFunctions/arm_cmplx_conj_f32.c ****  * Title:        arm_cmplx_conj_f32.c
   4:Middlewares/Third_Party/ARM_CMSIS/CMSIS/DSP/Source/ComplexMathFunctions/arm_cmplx_conj_f32.c ****  * Description:  Floating-point complex conjugate
   5:Middlewares/Third_Party/ARM_CMSIS/CMSIS/DSP/Source/ComplexMathFunctions/arm_cmplx_conj_f32.c ****  *
   6:Middlewares/Third_Party/ARM_CMSIS/CMSIS/DSP/Source/ComplexMathFunctions/arm_cmplx_conj_f32.c ****  * $Date:        23 April 2021
   7:Middlewares/Third_Party/ARM_CMSIS/CMSIS/DSP/Source/ComplexMathFunctions/arm_cmplx_conj_f32.c ****  * $Revision:    V1.9.0
   8:Middlewares/Third_Party/ARM_CMSIS/CMSIS/DSP/Source/ComplexMathFunctions/arm_cmplx_conj_f32.c ****  *
   9:Middlewares/Third_Party/ARM_CMSIS/CMSIS/DSP/Source/ComplexMathFunctions/arm_cmplx_conj_f32.c ****  * Target Processor: Cortex-M and Cortex-A cores
  10:Middlewares/Third_Party/ARM_CMSIS/CMSIS/DSP/Source/ComplexMathFunctions/arm_cmplx_conj_f32.c ****  * -------------------------------------------------------------------- */
  11:Middlewares/Third_Party/ARM_CMSIS/CMSIS/DSP/Source/ComplexMathFunctions/arm_cmplx_conj_f32.c **** /*
  12:Middlewares/Third_Party/ARM_CMSIS/CMSIS/DSP/Source/ComplexMathFunctions/arm_cmplx_conj_f32.c ****  * Copyright (C) 2010-2021 ARM Limited or its affiliates. All rights reserved.
  13:Middlewares/Third_Party/ARM_CMSIS/CMSIS/DSP/Source/ComplexMathFunctions/arm_cmplx_conj_f32.c ****  *
  14:Middlewares/Third_Party/ARM_CMSIS/CMSIS/DSP/Source/ComplexMathFunctions/arm_cmplx_conj_f32.c ****  * SPDX-License-Identifier: Apache-2.0
  15:Middlewares/Third_Party/ARM_CMSIS/CMSIS/DSP/Source/ComplexMathFunctions/arm_cmplx_conj_f32.c ****  *
  16:Middlewares/Third_Party/ARM_CMSIS/CMSIS/DSP/Source/ComplexMathFunctions/arm_cmplx_conj_f32.c ****  * Licensed under the Apache License, Version 2.0 (the License); you may
  17:Middlewares/Third_Party/ARM_CMSIS/CMSIS/DSP/Source/ComplexMathFunctions/arm_cmplx_conj_f32.c ****  * not use this file except in compliance with the License.
  18:Middlewares/Third_Party/ARM_CMSIS/CMSIS/DSP/Source/ComplexMathFunctions/arm_cmplx_conj_f32.c ****  * You may obtain a copy of the License at
  19:Middlewares/Third_Party/ARM_CMSIS/CMSIS/DSP/Source/ComplexMathFunctions/arm_cmplx_conj_f32.c ****  *
  20:Middlewares/Third_Party/ARM_CMSIS/CMSIS/DSP/Source/ComplexMathFunctions/arm_cmplx_conj_f32.c ****  * www.apache.org/licenses/LICENSE-2.0
  21:Middlewares/Third_Party/ARM_CMSIS/CMSIS/DSP/Source/ComplexMathFunctions/arm_cmplx_conj_f32.c ****  *
  22:Middlewares/Third_Party/ARM_CMSIS/CMSIS/DSP/Source/ComplexMathFunctions/arm_cmplx_conj_f32.c ****  * Unless required by applicable law or agreed to in writing, software
  23:Middlewares/Third_Party/ARM_CMSIS/CMSIS/DSP/Source/ComplexMathFunctions/arm_cmplx_conj_f32.c ****  * distributed under the License is distributed on an AS IS BASIS, WITHOUT
  24:Middlewares/Third_Party/ARM_CMSIS/CMSIS/DSP/Source/ComplexMathFunctions/arm_cmplx_conj_f32.c ****  * WARRANTIES OR CONDITIONS OF ANY KIND, either express or implied.
  25:Middlewares/Third_Party/ARM_CMSIS/CMSIS/DSP/Source/ComplexMathFunctions/arm_cmplx_conj_f32.c ****  * See the License for the specific language governing permissions and
  26:Middlewares/Third_Party/ARM_CMSIS/CMSIS/DSP/Source/ComplexMathFunctions/arm_cmplx_conj_f32.c ****  * limitations under the License.
  27:Middlewares/Third_Party/ARM_CMSIS/CMSIS/DSP/Source/ComplexMathFunctions/arm_cmplx_conj_f32.c ****  */
  28:Middlewares/Third_Party/ARM_CMSIS/CMSIS/DSP/Source/ComplexMathFunctions/arm_cmplx_conj_f32.c **** 
  29:Middlewares/Third_Party/ARM_CMSIS/CMSIS/DSP/Source/ComplexMathFunctions/arm_cmplx_conj_f32.c **** #include "dsp/complex_math_functions.h"
ARM GAS  C:\Users\7636~1\AppData\Local\Temp\ccloz7r5.s 			page 2


  30:Middlewares/Third_Party/ARM_CMSIS/CMSIS/DSP/Source/ComplexMathFunctions/arm_cmplx_conj_f32.c **** 
  31:Middlewares/Third_Party/ARM_CMSIS/CMSIS/DSP/Source/ComplexMathFunctions/arm_cmplx_conj_f32.c **** /**
  32:Middlewares/Third_Party/ARM_CMSIS/CMSIS/DSP/Source/ComplexMathFunctions/arm_cmplx_conj_f32.c ****   @ingroup groupCmplxMath
  33:Middlewares/Third_Party/ARM_CMSIS/CMSIS/DSP/Source/ComplexMathFunctions/arm_cmplx_conj_f32.c ****  */
  34:Middlewares/Third_Party/ARM_CMSIS/CMSIS/DSP/Source/ComplexMathFunctions/arm_cmplx_conj_f32.c **** 
  35:Middlewares/Third_Party/ARM_CMSIS/CMSIS/DSP/Source/ComplexMathFunctions/arm_cmplx_conj_f32.c **** /**
  36:Middlewares/Third_Party/ARM_CMSIS/CMSIS/DSP/Source/ComplexMathFunctions/arm_cmplx_conj_f32.c ****   @defgroup cmplx_conj Complex Conjugate
  37:Middlewares/Third_Party/ARM_CMSIS/CMSIS/DSP/Source/ComplexMathFunctions/arm_cmplx_conj_f32.c **** 
  38:Middlewares/Third_Party/ARM_CMSIS/CMSIS/DSP/Source/ComplexMathFunctions/arm_cmplx_conj_f32.c ****   Conjugates the elements of a complex data vector.
  39:Middlewares/Third_Party/ARM_CMSIS/CMSIS/DSP/Source/ComplexMathFunctions/arm_cmplx_conj_f32.c **** 
  40:Middlewares/Third_Party/ARM_CMSIS/CMSIS/DSP/Source/ComplexMathFunctions/arm_cmplx_conj_f32.c ****   The <code>pSrc</code> points to the source data and
  41:Middlewares/Third_Party/ARM_CMSIS/CMSIS/DSP/Source/ComplexMathFunctions/arm_cmplx_conj_f32.c ****   <code>pDst</code> points to the destination data where the result should be written.
  42:Middlewares/Third_Party/ARM_CMSIS/CMSIS/DSP/Source/ComplexMathFunctions/arm_cmplx_conj_f32.c ****   <code>numSamples</code> specifies the number of complex samples
  43:Middlewares/Third_Party/ARM_CMSIS/CMSIS/DSP/Source/ComplexMathFunctions/arm_cmplx_conj_f32.c ****   and the data in each array is stored in an interleaved fashion
  44:Middlewares/Third_Party/ARM_CMSIS/CMSIS/DSP/Source/ComplexMathFunctions/arm_cmplx_conj_f32.c ****   (real, imag, real, imag, ...).
  45:Middlewares/Third_Party/ARM_CMSIS/CMSIS/DSP/Source/ComplexMathFunctions/arm_cmplx_conj_f32.c ****   Each array has a total of <code>2*numSamples</code> values.
  46:Middlewares/Third_Party/ARM_CMSIS/CMSIS/DSP/Source/ComplexMathFunctions/arm_cmplx_conj_f32.c **** 
  47:Middlewares/Third_Party/ARM_CMSIS/CMSIS/DSP/Source/ComplexMathFunctions/arm_cmplx_conj_f32.c ****   The underlying algorithm is used:
  48:Middlewares/Third_Party/ARM_CMSIS/CMSIS/DSP/Source/ComplexMathFunctions/arm_cmplx_conj_f32.c ****   <pre>
  49:Middlewares/Third_Party/ARM_CMSIS/CMSIS/DSP/Source/ComplexMathFunctions/arm_cmplx_conj_f32.c ****   for (n = 0; n < numSamples; n++) {
  50:Middlewares/Third_Party/ARM_CMSIS/CMSIS/DSP/Source/ComplexMathFunctions/arm_cmplx_conj_f32.c ****       pDst[(2*n)  ] =  pSrc[(2*n)  ];    // real part
  51:Middlewares/Third_Party/ARM_CMSIS/CMSIS/DSP/Source/ComplexMathFunctions/arm_cmplx_conj_f32.c ****       pDst[(2*n)+1] = -pSrc[(2*n)+1];    // imag part
  52:Middlewares/Third_Party/ARM_CMSIS/CMSIS/DSP/Source/ComplexMathFunctions/arm_cmplx_conj_f32.c ****   }
  53:Middlewares/Third_Party/ARM_CMSIS/CMSIS/DSP/Source/ComplexMathFunctions/arm_cmplx_conj_f32.c ****   </pre>
  54:Middlewares/Third_Party/ARM_CMSIS/CMSIS/DSP/Source/ComplexMathFunctions/arm_cmplx_conj_f32.c **** 
  55:Middlewares/Third_Party/ARM_CMSIS/CMSIS/DSP/Source/ComplexMathFunctions/arm_cmplx_conj_f32.c ****   There are separate functions for floating-point, Q15, and Q31 data types.
  56:Middlewares/Third_Party/ARM_CMSIS/CMSIS/DSP/Source/ComplexMathFunctions/arm_cmplx_conj_f32.c ****  */
  57:Middlewares/Third_Party/ARM_CMSIS/CMSIS/DSP/Source/ComplexMathFunctions/arm_cmplx_conj_f32.c **** 
  58:Middlewares/Third_Party/ARM_CMSIS/CMSIS/DSP/Source/ComplexMathFunctions/arm_cmplx_conj_f32.c **** /**
  59:Middlewares/Third_Party/ARM_CMSIS/CMSIS/DSP/Source/ComplexMathFunctions/arm_cmplx_conj_f32.c ****   @addtogroup cmplx_conj
  60:Middlewares/Third_Party/ARM_CMSIS/CMSIS/DSP/Source/ComplexMathFunctions/arm_cmplx_conj_f32.c ****   @{
  61:Middlewares/Third_Party/ARM_CMSIS/CMSIS/DSP/Source/ComplexMathFunctions/arm_cmplx_conj_f32.c ****  */
  62:Middlewares/Third_Party/ARM_CMSIS/CMSIS/DSP/Source/ComplexMathFunctions/arm_cmplx_conj_f32.c **** 
  63:Middlewares/Third_Party/ARM_CMSIS/CMSIS/DSP/Source/ComplexMathFunctions/arm_cmplx_conj_f32.c **** /**
  64:Middlewares/Third_Party/ARM_CMSIS/CMSIS/DSP/Source/ComplexMathFunctions/arm_cmplx_conj_f32.c ****   @brief         Floating-point complex conjugate.
  65:Middlewares/Third_Party/ARM_CMSIS/CMSIS/DSP/Source/ComplexMathFunctions/arm_cmplx_conj_f32.c ****   @param[in]     pSrc        points to the input vector
  66:Middlewares/Third_Party/ARM_CMSIS/CMSIS/DSP/Source/ComplexMathFunctions/arm_cmplx_conj_f32.c ****   @param[out]    pDst        points to the output vector
  67:Middlewares/Third_Party/ARM_CMSIS/CMSIS/DSP/Source/ComplexMathFunctions/arm_cmplx_conj_f32.c ****   @param[in]     numSamples  number of samples in each vector
  68:Middlewares/Third_Party/ARM_CMSIS/CMSIS/DSP/Source/ComplexMathFunctions/arm_cmplx_conj_f32.c ****   @return        none
  69:Middlewares/Third_Party/ARM_CMSIS/CMSIS/DSP/Source/ComplexMathFunctions/arm_cmplx_conj_f32.c ****  */
  70:Middlewares/Third_Party/ARM_CMSIS/CMSIS/DSP/Source/ComplexMathFunctions/arm_cmplx_conj_f32.c **** 
  71:Middlewares/Third_Party/ARM_CMSIS/CMSIS/DSP/Source/ComplexMathFunctions/arm_cmplx_conj_f32.c **** #if defined(ARM_MATH_MVEF) && !defined(ARM_MATH_AUTOVECTORIZE)
  72:Middlewares/Third_Party/ARM_CMSIS/CMSIS/DSP/Source/ComplexMathFunctions/arm_cmplx_conj_f32.c **** 
  73:Middlewares/Third_Party/ARM_CMSIS/CMSIS/DSP/Source/ComplexMathFunctions/arm_cmplx_conj_f32.c **** void arm_cmplx_conj_f32(
  74:Middlewares/Third_Party/ARM_CMSIS/CMSIS/DSP/Source/ComplexMathFunctions/arm_cmplx_conj_f32.c ****     const float32_t * pSrc,
  75:Middlewares/Third_Party/ARM_CMSIS/CMSIS/DSP/Source/ComplexMathFunctions/arm_cmplx_conj_f32.c ****     float32_t * pDst,
  76:Middlewares/Third_Party/ARM_CMSIS/CMSIS/DSP/Source/ComplexMathFunctions/arm_cmplx_conj_f32.c ****     uint32_t numSamples)
  77:Middlewares/Third_Party/ARM_CMSIS/CMSIS/DSP/Source/ComplexMathFunctions/arm_cmplx_conj_f32.c **** {
  78:Middlewares/Third_Party/ARM_CMSIS/CMSIS/DSP/Source/ComplexMathFunctions/arm_cmplx_conj_f32.c ****     static const float32_t cmplx_conj_sign[4] = { 1.0f, -1.0f, 1.0f, -1.0f };
  79:Middlewares/Third_Party/ARM_CMSIS/CMSIS/DSP/Source/ComplexMathFunctions/arm_cmplx_conj_f32.c ****     uint32_t blockSize = numSamples * CMPLX_DIM;   /* loop counters */
  80:Middlewares/Third_Party/ARM_CMSIS/CMSIS/DSP/Source/ComplexMathFunctions/arm_cmplx_conj_f32.c ****     uint32_t blkCnt;
  81:Middlewares/Third_Party/ARM_CMSIS/CMSIS/DSP/Source/ComplexMathFunctions/arm_cmplx_conj_f32.c ****     f32x4_t vecSrc;
  82:Middlewares/Third_Party/ARM_CMSIS/CMSIS/DSP/Source/ComplexMathFunctions/arm_cmplx_conj_f32.c ****     f32x4_t vecSign;
  83:Middlewares/Third_Party/ARM_CMSIS/CMSIS/DSP/Source/ComplexMathFunctions/arm_cmplx_conj_f32.c **** 
  84:Middlewares/Third_Party/ARM_CMSIS/CMSIS/DSP/Source/ComplexMathFunctions/arm_cmplx_conj_f32.c ****     /*
  85:Middlewares/Third_Party/ARM_CMSIS/CMSIS/DSP/Source/ComplexMathFunctions/arm_cmplx_conj_f32.c ****      * load sign vector
  86:Middlewares/Third_Party/ARM_CMSIS/CMSIS/DSP/Source/ComplexMathFunctions/arm_cmplx_conj_f32.c ****      */
ARM GAS  C:\Users\7636~1\AppData\Local\Temp\ccloz7r5.s 			page 3


  87:Middlewares/Third_Party/ARM_CMSIS/CMSIS/DSP/Source/ComplexMathFunctions/arm_cmplx_conj_f32.c ****     vecSign = *(f32x4_t *) cmplx_conj_sign;
  88:Middlewares/Third_Party/ARM_CMSIS/CMSIS/DSP/Source/ComplexMathFunctions/arm_cmplx_conj_f32.c **** 
  89:Middlewares/Third_Party/ARM_CMSIS/CMSIS/DSP/Source/ComplexMathFunctions/arm_cmplx_conj_f32.c ****     /* Compute 4 real samples at a time */
  90:Middlewares/Third_Party/ARM_CMSIS/CMSIS/DSP/Source/ComplexMathFunctions/arm_cmplx_conj_f32.c ****     blkCnt = blockSize >> 2U;
  91:Middlewares/Third_Party/ARM_CMSIS/CMSIS/DSP/Source/ComplexMathFunctions/arm_cmplx_conj_f32.c **** 
  92:Middlewares/Third_Party/ARM_CMSIS/CMSIS/DSP/Source/ComplexMathFunctions/arm_cmplx_conj_f32.c ****     while (blkCnt > 0U)
  93:Middlewares/Third_Party/ARM_CMSIS/CMSIS/DSP/Source/ComplexMathFunctions/arm_cmplx_conj_f32.c ****     {
  94:Middlewares/Third_Party/ARM_CMSIS/CMSIS/DSP/Source/ComplexMathFunctions/arm_cmplx_conj_f32.c ****         vecSrc = vld1q(pSrc);
  95:Middlewares/Third_Party/ARM_CMSIS/CMSIS/DSP/Source/ComplexMathFunctions/arm_cmplx_conj_f32.c ****         vst1q(pDst,vmulq(vecSrc, vecSign));
  96:Middlewares/Third_Party/ARM_CMSIS/CMSIS/DSP/Source/ComplexMathFunctions/arm_cmplx_conj_f32.c ****         /*
  97:Middlewares/Third_Party/ARM_CMSIS/CMSIS/DSP/Source/ComplexMathFunctions/arm_cmplx_conj_f32.c ****          * Decrement the blkCnt loop counter
  98:Middlewares/Third_Party/ARM_CMSIS/CMSIS/DSP/Source/ComplexMathFunctions/arm_cmplx_conj_f32.c ****          * Advance vector source and destination pointers
  99:Middlewares/Third_Party/ARM_CMSIS/CMSIS/DSP/Source/ComplexMathFunctions/arm_cmplx_conj_f32.c ****          */
 100:Middlewares/Third_Party/ARM_CMSIS/CMSIS/DSP/Source/ComplexMathFunctions/arm_cmplx_conj_f32.c ****         pSrc += 4;
 101:Middlewares/Third_Party/ARM_CMSIS/CMSIS/DSP/Source/ComplexMathFunctions/arm_cmplx_conj_f32.c ****         pDst += 4;
 102:Middlewares/Third_Party/ARM_CMSIS/CMSIS/DSP/Source/ComplexMathFunctions/arm_cmplx_conj_f32.c ****         blkCnt--;
 103:Middlewares/Third_Party/ARM_CMSIS/CMSIS/DSP/Source/ComplexMathFunctions/arm_cmplx_conj_f32.c ****     }
 104:Middlewares/Third_Party/ARM_CMSIS/CMSIS/DSP/Source/ComplexMathFunctions/arm_cmplx_conj_f32.c **** 
 105:Middlewares/Third_Party/ARM_CMSIS/CMSIS/DSP/Source/ComplexMathFunctions/arm_cmplx_conj_f32.c ****      /* Tail */
 106:Middlewares/Third_Party/ARM_CMSIS/CMSIS/DSP/Source/ComplexMathFunctions/arm_cmplx_conj_f32.c ****     blkCnt = (blockSize & 0x3) >> 1;
 107:Middlewares/Third_Party/ARM_CMSIS/CMSIS/DSP/Source/ComplexMathFunctions/arm_cmplx_conj_f32.c **** 
 108:Middlewares/Third_Party/ARM_CMSIS/CMSIS/DSP/Source/ComplexMathFunctions/arm_cmplx_conj_f32.c ****     while (blkCnt > 0U)
 109:Middlewares/Third_Party/ARM_CMSIS/CMSIS/DSP/Source/ComplexMathFunctions/arm_cmplx_conj_f32.c ****     {
 110:Middlewares/Third_Party/ARM_CMSIS/CMSIS/DSP/Source/ComplexMathFunctions/arm_cmplx_conj_f32.c ****       /* C[0] + jC[1] = A[0]+ j(-1)A[1] */
 111:Middlewares/Third_Party/ARM_CMSIS/CMSIS/DSP/Source/ComplexMathFunctions/arm_cmplx_conj_f32.c ****   
 112:Middlewares/Third_Party/ARM_CMSIS/CMSIS/DSP/Source/ComplexMathFunctions/arm_cmplx_conj_f32.c ****       /* Calculate Complex Conjugate and store result in destination buffer. */
 113:Middlewares/Third_Party/ARM_CMSIS/CMSIS/DSP/Source/ComplexMathFunctions/arm_cmplx_conj_f32.c ****       *pDst++ =  *pSrc++;
 114:Middlewares/Third_Party/ARM_CMSIS/CMSIS/DSP/Source/ComplexMathFunctions/arm_cmplx_conj_f32.c ****       *pDst++ = -*pSrc++;
 115:Middlewares/Third_Party/ARM_CMSIS/CMSIS/DSP/Source/ComplexMathFunctions/arm_cmplx_conj_f32.c ****   
 116:Middlewares/Third_Party/ARM_CMSIS/CMSIS/DSP/Source/ComplexMathFunctions/arm_cmplx_conj_f32.c ****       /* Decrement loop counter */
 117:Middlewares/Third_Party/ARM_CMSIS/CMSIS/DSP/Source/ComplexMathFunctions/arm_cmplx_conj_f32.c ****       blkCnt--;
 118:Middlewares/Third_Party/ARM_CMSIS/CMSIS/DSP/Source/ComplexMathFunctions/arm_cmplx_conj_f32.c ****     }
 119:Middlewares/Third_Party/ARM_CMSIS/CMSIS/DSP/Source/ComplexMathFunctions/arm_cmplx_conj_f32.c **** 
 120:Middlewares/Third_Party/ARM_CMSIS/CMSIS/DSP/Source/ComplexMathFunctions/arm_cmplx_conj_f32.c **** }
 121:Middlewares/Third_Party/ARM_CMSIS/CMSIS/DSP/Source/ComplexMathFunctions/arm_cmplx_conj_f32.c **** 
 122:Middlewares/Third_Party/ARM_CMSIS/CMSIS/DSP/Source/ComplexMathFunctions/arm_cmplx_conj_f32.c **** #else
 123:Middlewares/Third_Party/ARM_CMSIS/CMSIS/DSP/Source/ComplexMathFunctions/arm_cmplx_conj_f32.c **** void arm_cmplx_conj_f32(
 124:Middlewares/Third_Party/ARM_CMSIS/CMSIS/DSP/Source/ComplexMathFunctions/arm_cmplx_conj_f32.c ****   const float32_t * pSrc,
 125:Middlewares/Third_Party/ARM_CMSIS/CMSIS/DSP/Source/ComplexMathFunctions/arm_cmplx_conj_f32.c ****         float32_t * pDst,
 126:Middlewares/Third_Party/ARM_CMSIS/CMSIS/DSP/Source/ComplexMathFunctions/arm_cmplx_conj_f32.c ****         uint32_t numSamples)
 127:Middlewares/Third_Party/ARM_CMSIS/CMSIS/DSP/Source/ComplexMathFunctions/arm_cmplx_conj_f32.c **** {
  30              		.loc 1 127 1 view -0
  31              		.cfi_startproc
  32              		@ args = 0, pretend = 0, frame = 0
  33              		@ frame_needed = 0, uses_anonymous_args = 0
 128:Middlewares/Third_Party/ARM_CMSIS/CMSIS/DSP/Source/ComplexMathFunctions/arm_cmplx_conj_f32.c ****         uint32_t blkCnt;                               /* Loop counter */
  34              		.loc 1 128 9 view .LVU1
 129:Middlewares/Third_Party/ARM_CMSIS/CMSIS/DSP/Source/ComplexMathFunctions/arm_cmplx_conj_f32.c **** 
 130:Middlewares/Third_Party/ARM_CMSIS/CMSIS/DSP/Source/ComplexMathFunctions/arm_cmplx_conj_f32.c **** #if defined(ARM_MATH_NEON) && !defined(ARM_MATH_AUTOVECTORIZE)
 131:Middlewares/Third_Party/ARM_CMSIS/CMSIS/DSP/Source/ComplexMathFunctions/arm_cmplx_conj_f32.c ****    float32x4_t zero;
 132:Middlewares/Third_Party/ARM_CMSIS/CMSIS/DSP/Source/ComplexMathFunctions/arm_cmplx_conj_f32.c ****    float32x4x2_t vec;
 133:Middlewares/Third_Party/ARM_CMSIS/CMSIS/DSP/Source/ComplexMathFunctions/arm_cmplx_conj_f32.c **** 
 134:Middlewares/Third_Party/ARM_CMSIS/CMSIS/DSP/Source/ComplexMathFunctions/arm_cmplx_conj_f32.c ****    zero = vdupq_n_f32(0.0f);
 135:Middlewares/Third_Party/ARM_CMSIS/CMSIS/DSP/Source/ComplexMathFunctions/arm_cmplx_conj_f32.c **** 
 136:Middlewares/Third_Party/ARM_CMSIS/CMSIS/DSP/Source/ComplexMathFunctions/arm_cmplx_conj_f32.c ****    /* Compute 4 outputs at a time */
 137:Middlewares/Third_Party/ARM_CMSIS/CMSIS/DSP/Source/ComplexMathFunctions/arm_cmplx_conj_f32.c ****    blkCnt = numSamples >> 2U;
 138:Middlewares/Third_Party/ARM_CMSIS/CMSIS/DSP/Source/ComplexMathFunctions/arm_cmplx_conj_f32.c **** 
ARM GAS  C:\Users\7636~1\AppData\Local\Temp\ccloz7r5.s 			page 4


 139:Middlewares/Third_Party/ARM_CMSIS/CMSIS/DSP/Source/ComplexMathFunctions/arm_cmplx_conj_f32.c ****    while (blkCnt > 0U)
 140:Middlewares/Third_Party/ARM_CMSIS/CMSIS/DSP/Source/ComplexMathFunctions/arm_cmplx_conj_f32.c ****    {
 141:Middlewares/Third_Party/ARM_CMSIS/CMSIS/DSP/Source/ComplexMathFunctions/arm_cmplx_conj_f32.c ****      /* C[0]+jC[1] = A[0]+(-1)*jA[1] */
 142:Middlewares/Third_Party/ARM_CMSIS/CMSIS/DSP/Source/ComplexMathFunctions/arm_cmplx_conj_f32.c ****      /* Calculate Complex Conjugate and then store the results in the destination buffer. */
 143:Middlewares/Third_Party/ARM_CMSIS/CMSIS/DSP/Source/ComplexMathFunctions/arm_cmplx_conj_f32.c ****      vec = vld2q_f32(pSrc);
 144:Middlewares/Third_Party/ARM_CMSIS/CMSIS/DSP/Source/ComplexMathFunctions/arm_cmplx_conj_f32.c ****      vec.val[1] = vsubq_f32(zero,vec.val[1]);
 145:Middlewares/Third_Party/ARM_CMSIS/CMSIS/DSP/Source/ComplexMathFunctions/arm_cmplx_conj_f32.c ****      vst2q_f32(pDst,vec);
 146:Middlewares/Third_Party/ARM_CMSIS/CMSIS/DSP/Source/ComplexMathFunctions/arm_cmplx_conj_f32.c **** 
 147:Middlewares/Third_Party/ARM_CMSIS/CMSIS/DSP/Source/ComplexMathFunctions/arm_cmplx_conj_f32.c ****      /* Increment pointers */
 148:Middlewares/Third_Party/ARM_CMSIS/CMSIS/DSP/Source/ComplexMathFunctions/arm_cmplx_conj_f32.c ****      pSrc += 8;
 149:Middlewares/Third_Party/ARM_CMSIS/CMSIS/DSP/Source/ComplexMathFunctions/arm_cmplx_conj_f32.c ****      pDst += 8;
 150:Middlewares/Third_Party/ARM_CMSIS/CMSIS/DSP/Source/ComplexMathFunctions/arm_cmplx_conj_f32.c ****         
 151:Middlewares/Third_Party/ARM_CMSIS/CMSIS/DSP/Source/ComplexMathFunctions/arm_cmplx_conj_f32.c ****      /* Decrement the loop counter */
 152:Middlewares/Third_Party/ARM_CMSIS/CMSIS/DSP/Source/ComplexMathFunctions/arm_cmplx_conj_f32.c ****      blkCnt--;
 153:Middlewares/Third_Party/ARM_CMSIS/CMSIS/DSP/Source/ComplexMathFunctions/arm_cmplx_conj_f32.c ****    }
 154:Middlewares/Third_Party/ARM_CMSIS/CMSIS/DSP/Source/ComplexMathFunctions/arm_cmplx_conj_f32.c **** 
 155:Middlewares/Third_Party/ARM_CMSIS/CMSIS/DSP/Source/ComplexMathFunctions/arm_cmplx_conj_f32.c ****    /* Tail */
 156:Middlewares/Third_Party/ARM_CMSIS/CMSIS/DSP/Source/ComplexMathFunctions/arm_cmplx_conj_f32.c ****    blkCnt = numSamples & 0x3;
 157:Middlewares/Third_Party/ARM_CMSIS/CMSIS/DSP/Source/ComplexMathFunctions/arm_cmplx_conj_f32.c **** 
 158:Middlewares/Third_Party/ARM_CMSIS/CMSIS/DSP/Source/ComplexMathFunctions/arm_cmplx_conj_f32.c **** #else
 159:Middlewares/Third_Party/ARM_CMSIS/CMSIS/DSP/Source/ComplexMathFunctions/arm_cmplx_conj_f32.c **** #if defined (ARM_MATH_LOOPUNROLL) && !defined(ARM_MATH_AUTOVECTORIZE)
 160:Middlewares/Third_Party/ARM_CMSIS/CMSIS/DSP/Source/ComplexMathFunctions/arm_cmplx_conj_f32.c **** 
 161:Middlewares/Third_Party/ARM_CMSIS/CMSIS/DSP/Source/ComplexMathFunctions/arm_cmplx_conj_f32.c ****   /* Loop unrolling: Compute 4 outputs at a time */
 162:Middlewares/Third_Party/ARM_CMSIS/CMSIS/DSP/Source/ComplexMathFunctions/arm_cmplx_conj_f32.c ****   blkCnt = numSamples >> 2U;
 163:Middlewares/Third_Party/ARM_CMSIS/CMSIS/DSP/Source/ComplexMathFunctions/arm_cmplx_conj_f32.c **** 
 164:Middlewares/Third_Party/ARM_CMSIS/CMSIS/DSP/Source/ComplexMathFunctions/arm_cmplx_conj_f32.c ****   while (blkCnt > 0U)
 165:Middlewares/Third_Party/ARM_CMSIS/CMSIS/DSP/Source/ComplexMathFunctions/arm_cmplx_conj_f32.c ****   {
 166:Middlewares/Third_Party/ARM_CMSIS/CMSIS/DSP/Source/ComplexMathFunctions/arm_cmplx_conj_f32.c ****     /* C[0] + jC[1] = A[0]+ j(-1)A[1] */
 167:Middlewares/Third_Party/ARM_CMSIS/CMSIS/DSP/Source/ComplexMathFunctions/arm_cmplx_conj_f32.c **** 
 168:Middlewares/Third_Party/ARM_CMSIS/CMSIS/DSP/Source/ComplexMathFunctions/arm_cmplx_conj_f32.c ****     /* Calculate Complex Conjugate and store result in destination buffer. */
 169:Middlewares/Third_Party/ARM_CMSIS/CMSIS/DSP/Source/ComplexMathFunctions/arm_cmplx_conj_f32.c ****     *pDst++ =  *pSrc++;
 170:Middlewares/Third_Party/ARM_CMSIS/CMSIS/DSP/Source/ComplexMathFunctions/arm_cmplx_conj_f32.c ****     *pDst++ = -*pSrc++;
 171:Middlewares/Third_Party/ARM_CMSIS/CMSIS/DSP/Source/ComplexMathFunctions/arm_cmplx_conj_f32.c **** 
 172:Middlewares/Third_Party/ARM_CMSIS/CMSIS/DSP/Source/ComplexMathFunctions/arm_cmplx_conj_f32.c ****     *pDst++ =  *pSrc++;
 173:Middlewares/Third_Party/ARM_CMSIS/CMSIS/DSP/Source/ComplexMathFunctions/arm_cmplx_conj_f32.c ****     *pDst++ = -*pSrc++;
 174:Middlewares/Third_Party/ARM_CMSIS/CMSIS/DSP/Source/ComplexMathFunctions/arm_cmplx_conj_f32.c **** 
 175:Middlewares/Third_Party/ARM_CMSIS/CMSIS/DSP/Source/ComplexMathFunctions/arm_cmplx_conj_f32.c ****     *pDst++ =  *pSrc++;
 176:Middlewares/Third_Party/ARM_CMSIS/CMSIS/DSP/Source/ComplexMathFunctions/arm_cmplx_conj_f32.c ****     *pDst++ = -*pSrc++;
 177:Middlewares/Third_Party/ARM_CMSIS/CMSIS/DSP/Source/ComplexMathFunctions/arm_cmplx_conj_f32.c **** 
 178:Middlewares/Third_Party/ARM_CMSIS/CMSIS/DSP/Source/ComplexMathFunctions/arm_cmplx_conj_f32.c ****     *pDst++ =  *pSrc++;
 179:Middlewares/Third_Party/ARM_CMSIS/CMSIS/DSP/Source/ComplexMathFunctions/arm_cmplx_conj_f32.c ****     *pDst++ = -*pSrc++;
 180:Middlewares/Third_Party/ARM_CMSIS/CMSIS/DSP/Source/ComplexMathFunctions/arm_cmplx_conj_f32.c **** 
 181:Middlewares/Third_Party/ARM_CMSIS/CMSIS/DSP/Source/ComplexMathFunctions/arm_cmplx_conj_f32.c ****     /* Decrement loop counter */
 182:Middlewares/Third_Party/ARM_CMSIS/CMSIS/DSP/Source/ComplexMathFunctions/arm_cmplx_conj_f32.c ****     blkCnt--;
 183:Middlewares/Third_Party/ARM_CMSIS/CMSIS/DSP/Source/ComplexMathFunctions/arm_cmplx_conj_f32.c ****   }
 184:Middlewares/Third_Party/ARM_CMSIS/CMSIS/DSP/Source/ComplexMathFunctions/arm_cmplx_conj_f32.c **** 
 185:Middlewares/Third_Party/ARM_CMSIS/CMSIS/DSP/Source/ComplexMathFunctions/arm_cmplx_conj_f32.c ****   /* Loop unrolling: Compute remaining outputs */
 186:Middlewares/Third_Party/ARM_CMSIS/CMSIS/DSP/Source/ComplexMathFunctions/arm_cmplx_conj_f32.c ****   blkCnt = numSamples % 0x4U;
 187:Middlewares/Third_Party/ARM_CMSIS/CMSIS/DSP/Source/ComplexMathFunctions/arm_cmplx_conj_f32.c **** 
 188:Middlewares/Third_Party/ARM_CMSIS/CMSIS/DSP/Source/ComplexMathFunctions/arm_cmplx_conj_f32.c **** #else
 189:Middlewares/Third_Party/ARM_CMSIS/CMSIS/DSP/Source/ComplexMathFunctions/arm_cmplx_conj_f32.c **** 
 190:Middlewares/Third_Party/ARM_CMSIS/CMSIS/DSP/Source/ComplexMathFunctions/arm_cmplx_conj_f32.c ****   /* Initialize blkCnt with number of samples */
 191:Middlewares/Third_Party/ARM_CMSIS/CMSIS/DSP/Source/ComplexMathFunctions/arm_cmplx_conj_f32.c ****   blkCnt = numSamples;
  35              		.loc 1 191 3 view .LVU2
 192:Middlewares/Third_Party/ARM_CMSIS/CMSIS/DSP/Source/ComplexMathFunctions/arm_cmplx_conj_f32.c **** 
 193:Middlewares/Third_Party/ARM_CMSIS/CMSIS/DSP/Source/ComplexMathFunctions/arm_cmplx_conj_f32.c **** #endif /* #if defined (ARM_MATH_LOOPUNROLL) */
 194:Middlewares/Third_Party/ARM_CMSIS/CMSIS/DSP/Source/ComplexMathFunctions/arm_cmplx_conj_f32.c **** #endif /* #if defined (ARM_MATH_NEON) */
ARM GAS  C:\Users\7636~1\AppData\Local\Temp\ccloz7r5.s 			page 5


 195:Middlewares/Third_Party/ARM_CMSIS/CMSIS/DSP/Source/ComplexMathFunctions/arm_cmplx_conj_f32.c **** 
 196:Middlewares/Third_Party/ARM_CMSIS/CMSIS/DSP/Source/ComplexMathFunctions/arm_cmplx_conj_f32.c ****   while (blkCnt > 0U)
  36              		.loc 1 196 3 view .LVU3
  37              		.loc 1 196 9 view .LVU4
  38 0000 9AB1     		cbz	r2, .L7
 127:Middlewares/Third_Party/ARM_CMSIS/CMSIS/DSP/Source/ComplexMathFunctions/arm_cmplx_conj_f32.c ****         uint32_t blkCnt;                               /* Loop counter */
  39              		.loc 1 127 1 is_stmt 0 view .LVU5
  40 0002 00B5     		push	{lr}
  41              	.LCFI0:
  42              		.cfi_def_cfa_offset 4
  43              		.cfi_offset 14, -4
  44              	.LVL1:
  45              	.L3:
 197:Middlewares/Third_Party/ARM_CMSIS/CMSIS/DSP/Source/ComplexMathFunctions/arm_cmplx_conj_f32.c ****   {
 198:Middlewares/Third_Party/ARM_CMSIS/CMSIS/DSP/Source/ComplexMathFunctions/arm_cmplx_conj_f32.c ****     /* C[0] + jC[1] = A[0]+ j(-1)A[1] */
 199:Middlewares/Third_Party/ARM_CMSIS/CMSIS/DSP/Source/ComplexMathFunctions/arm_cmplx_conj_f32.c **** 
 200:Middlewares/Third_Party/ARM_CMSIS/CMSIS/DSP/Source/ComplexMathFunctions/arm_cmplx_conj_f32.c ****     /* Calculate Complex Conjugate and store result in destination buffer. */
 201:Middlewares/Third_Party/ARM_CMSIS/CMSIS/DSP/Source/ComplexMathFunctions/arm_cmplx_conj_f32.c ****     *pDst++ =  *pSrc++;
  46              		.loc 1 201 5 is_stmt 1 view .LVU6
  47              		.loc 1 201 16 is_stmt 0 view .LVU7
  48 0004 0346     		mov	r3, r0
  49 0006 53F808EB 		ldr	lr, [r3], #8	@ float
  50              		.loc 1 201 13 view .LVU8
  51 000a 8C46     		mov	ip, r1
  52 000c 4CF808EB 		str	lr, [ip], #8	@ float
 202:Middlewares/Third_Party/ARM_CMSIS/CMSIS/DSP/Source/ComplexMathFunctions/arm_cmplx_conj_f32.c ****     *pDst++ = -*pSrc++;
  53              		.loc 1 202 5 is_stmt 1 view .LVU9
  54              	.LVL2:
  55              		.loc 1 202 16 is_stmt 0 view .LVU10
  56 0010 D0ED017A 		vldr.32	s15, [r0, #4]
  57              	.LVL3:
  58              		.loc 1 202 15 view .LVU11
  59 0014 F1EE677A 		vneg.f32	s15, s15
  60              		.loc 1 202 13 view .LVU12
  61 0018 C1ED017A 		vstr.32	s15, [r1, #4]
 203:Middlewares/Third_Party/ARM_CMSIS/CMSIS/DSP/Source/ComplexMathFunctions/arm_cmplx_conj_f32.c **** 
 204:Middlewares/Third_Party/ARM_CMSIS/CMSIS/DSP/Source/ComplexMathFunctions/arm_cmplx_conj_f32.c ****     /* Decrement loop counter */
 205:Middlewares/Third_Party/ARM_CMSIS/CMSIS/DSP/Source/ComplexMathFunctions/arm_cmplx_conj_f32.c ****     blkCnt--;
  62              		.loc 1 205 5 is_stmt 1 view .LVU13
  63              		.loc 1 205 11 is_stmt 0 view .LVU14
  64 001c 013A     		subs	r2, r2, #1
  65              	.LVL4:
 202:Middlewares/Third_Party/ARM_CMSIS/CMSIS/DSP/Source/ComplexMathFunctions/arm_cmplx_conj_f32.c ****     *pDst++ = -*pSrc++;
  66              		.loc 1 202 10 view .LVU15
  67 001e 6146     		mov	r1, ip
 202:Middlewares/Third_Party/ARM_CMSIS/CMSIS/DSP/Source/ComplexMathFunctions/arm_cmplx_conj_f32.c ****     *pDst++ = -*pSrc++;
  68              		.loc 1 202 21 view .LVU16
  69 0020 1846     		mov	r0, r3
 196:Middlewares/Third_Party/ARM_CMSIS/CMSIS/DSP/Source/ComplexMathFunctions/arm_cmplx_conj_f32.c ****   {
  70              		.loc 1 196 9 is_stmt 1 view .LVU17
  71 0022 002A     		cmp	r2, #0
  72 0024 EED1     		bne	.L3
 206:Middlewares/Third_Party/ARM_CMSIS/CMSIS/DSP/Source/ComplexMathFunctions/arm_cmplx_conj_f32.c ****   }
 207:Middlewares/Third_Party/ARM_CMSIS/CMSIS/DSP/Source/ComplexMathFunctions/arm_cmplx_conj_f32.c **** 
 208:Middlewares/Third_Party/ARM_CMSIS/CMSIS/DSP/Source/ComplexMathFunctions/arm_cmplx_conj_f32.c **** }
  73              		.loc 1 208 1 is_stmt 0 view .LVU18
  74 0026 5DF804FB 		ldr	pc, [sp], #4
ARM GAS  C:\Users\7636~1\AppData\Local\Temp\ccloz7r5.s 			page 6


  75              	.LVL5:
  76              	.L7:
  77              	.LCFI1:
  78              		.cfi_def_cfa_offset 0
  79              		.cfi_restore 14
  80              		.loc 1 208 1 view .LVU19
  81 002a 7047     		bx	lr
  82              		.cfi_endproc
  83              	.LFE120:
  85              		.section	.text.arm_cmplx_conj_q15,"ax",%progbits
  86              		.align	1
  87              		.global	arm_cmplx_conj_q15
  88              		.syntax unified
  89              		.thumb
  90              		.thumb_func
  92              	arm_cmplx_conj_q15:
  93              	.LVL6:
  94              	.LFB121:
  95              		.file 2 "Middlewares/Third_Party/ARM_CMSIS/CMSIS/DSP/Source/ComplexMathFunctions/arm_cmplx_conj_q1
   1:Middlewares/Third_Party/ARM_CMSIS/CMSIS/DSP/Source/ComplexMathFunctions/arm_cmplx_conj_q15.c **** /* ----------------------------------------------------------------------
   2:Middlewares/Third_Party/ARM_CMSIS/CMSIS/DSP/Source/ComplexMathFunctions/arm_cmplx_conj_q15.c ****  * Project:      CMSIS DSP Library
   3:Middlewares/Third_Party/ARM_CMSIS/CMSIS/DSP/Source/ComplexMathFunctions/arm_cmplx_conj_q15.c ****  * Title:        arm_cmplx_conj_q15.c
   4:Middlewares/Third_Party/ARM_CMSIS/CMSIS/DSP/Source/ComplexMathFunctions/arm_cmplx_conj_q15.c ****  * Description:  Q15 complex conjugate
   5:Middlewares/Third_Party/ARM_CMSIS/CMSIS/DSP/Source/ComplexMathFunctions/arm_cmplx_conj_q15.c ****  *
   6:Middlewares/Third_Party/ARM_CMSIS/CMSIS/DSP/Source/ComplexMathFunctions/arm_cmplx_conj_q15.c ****  * $Date:        23 April 2021
   7:Middlewares/Third_Party/ARM_CMSIS/CMSIS/DSP/Source/ComplexMathFunctions/arm_cmplx_conj_q15.c ****  * $Revision:    V1.9.0
   8:Middlewares/Third_Party/ARM_CMSIS/CMSIS/DSP/Source/ComplexMathFunctions/arm_cmplx_conj_q15.c ****  *
   9:Middlewares/Third_Party/ARM_CMSIS/CMSIS/DSP/Source/ComplexMathFunctions/arm_cmplx_conj_q15.c ****  * Target Processor: Cortex-M and Cortex-A cores
  10:Middlewares/Third_Party/ARM_CMSIS/CMSIS/DSP/Source/ComplexMathFunctions/arm_cmplx_conj_q15.c ****  * -------------------------------------------------------------------- */
  11:Middlewares/Third_Party/ARM_CMSIS/CMSIS/DSP/Source/ComplexMathFunctions/arm_cmplx_conj_q15.c **** /*
  12:Middlewares/Third_Party/ARM_CMSIS/CMSIS/DSP/Source/ComplexMathFunctions/arm_cmplx_conj_q15.c ****  * Copyright (C) 2010-2021 ARM Limited or its affiliates. All rights reserved.
  13:Middlewares/Third_Party/ARM_CMSIS/CMSIS/DSP/Source/ComplexMathFunctions/arm_cmplx_conj_q15.c ****  *
  14:Middlewares/Third_Party/ARM_CMSIS/CMSIS/DSP/Source/ComplexMathFunctions/arm_cmplx_conj_q15.c ****  * SPDX-License-Identifier: Apache-2.0
  15:Middlewares/Third_Party/ARM_CMSIS/CMSIS/DSP/Source/ComplexMathFunctions/arm_cmplx_conj_q15.c ****  *
  16:Middlewares/Third_Party/ARM_CMSIS/CMSIS/DSP/Source/ComplexMathFunctions/arm_cmplx_conj_q15.c ****  * Licensed under the Apache License, Version 2.0 (the License); you may
  17:Middlewares/Third_Party/ARM_CMSIS/CMSIS/DSP/Source/ComplexMathFunctions/arm_cmplx_conj_q15.c ****  * not use this file except in compliance with the License.
  18:Middlewares/Third_Party/ARM_CMSIS/CMSIS/DSP/Source/ComplexMathFunctions/arm_cmplx_conj_q15.c ****  * You may obtain a copy of the License at
  19:Middlewares/Third_Party/ARM_CMSIS/CMSIS/DSP/Source/ComplexMathFunctions/arm_cmplx_conj_q15.c ****  *
  20:Middlewares/Third_Party/ARM_CMSIS/CMSIS/DSP/Source/ComplexMathFunctions/arm_cmplx_conj_q15.c ****  * www.apache.org/licenses/LICENSE-2.0
  21:Middlewares/Third_Party/ARM_CMSIS/CMSIS/DSP/Source/ComplexMathFunctions/arm_cmplx_conj_q15.c ****  *
  22:Middlewares/Third_Party/ARM_CMSIS/CMSIS/DSP/Source/ComplexMathFunctions/arm_cmplx_conj_q15.c ****  * Unless required by applicable law or agreed to in writing, software
  23:Middlewares/Third_Party/ARM_CMSIS/CMSIS/DSP/Source/ComplexMathFunctions/arm_cmplx_conj_q15.c ****  * distributed under the License is distributed on an AS IS BASIS, WITHOUT
  24:Middlewares/Third_Party/ARM_CMSIS/CMSIS/DSP/Source/ComplexMathFunctions/arm_cmplx_conj_q15.c ****  * WARRANTIES OR CONDITIONS OF ANY KIND, either express or implied.
  25:Middlewares/Third_Party/ARM_CMSIS/CMSIS/DSP/Source/ComplexMathFunctions/arm_cmplx_conj_q15.c ****  * See the License for the specific language governing permissions and
  26:Middlewares/Third_Party/ARM_CMSIS/CMSIS/DSP/Source/ComplexMathFunctions/arm_cmplx_conj_q15.c ****  * limitations under the License.
  27:Middlewares/Third_Party/ARM_CMSIS/CMSIS/DSP/Source/ComplexMathFunctions/arm_cmplx_conj_q15.c ****  */
  28:Middlewares/Third_Party/ARM_CMSIS/CMSIS/DSP/Source/ComplexMathFunctions/arm_cmplx_conj_q15.c **** 
  29:Middlewares/Third_Party/ARM_CMSIS/CMSIS/DSP/Source/ComplexMathFunctions/arm_cmplx_conj_q15.c **** #include "dsp/complex_math_functions.h"
  30:Middlewares/Third_Party/ARM_CMSIS/CMSIS/DSP/Source/ComplexMathFunctions/arm_cmplx_conj_q15.c **** 
  31:Middlewares/Third_Party/ARM_CMSIS/CMSIS/DSP/Source/ComplexMathFunctions/arm_cmplx_conj_q15.c **** /**
  32:Middlewares/Third_Party/ARM_CMSIS/CMSIS/DSP/Source/ComplexMathFunctions/arm_cmplx_conj_q15.c ****   @ingroup groupCmplxMath
  33:Middlewares/Third_Party/ARM_CMSIS/CMSIS/DSP/Source/ComplexMathFunctions/arm_cmplx_conj_q15.c ****  */
  34:Middlewares/Third_Party/ARM_CMSIS/CMSIS/DSP/Source/ComplexMathFunctions/arm_cmplx_conj_q15.c **** 
  35:Middlewares/Third_Party/ARM_CMSIS/CMSIS/DSP/Source/ComplexMathFunctions/arm_cmplx_conj_q15.c **** /**
  36:Middlewares/Third_Party/ARM_CMSIS/CMSIS/DSP/Source/ComplexMathFunctions/arm_cmplx_conj_q15.c ****   @addtogroup cmplx_conj
  37:Middlewares/Third_Party/ARM_CMSIS/CMSIS/DSP/Source/ComplexMathFunctions/arm_cmplx_conj_q15.c ****   @{
  38:Middlewares/Third_Party/ARM_CMSIS/CMSIS/DSP/Source/ComplexMathFunctions/arm_cmplx_conj_q15.c ****  */
ARM GAS  C:\Users\7636~1\AppData\Local\Temp\ccloz7r5.s 			page 7


  39:Middlewares/Third_Party/ARM_CMSIS/CMSIS/DSP/Source/ComplexMathFunctions/arm_cmplx_conj_q15.c **** 
  40:Middlewares/Third_Party/ARM_CMSIS/CMSIS/DSP/Source/ComplexMathFunctions/arm_cmplx_conj_q15.c **** /**
  41:Middlewares/Third_Party/ARM_CMSIS/CMSIS/DSP/Source/ComplexMathFunctions/arm_cmplx_conj_q15.c ****   @brief         Q15 complex conjugate.
  42:Middlewares/Third_Party/ARM_CMSIS/CMSIS/DSP/Source/ComplexMathFunctions/arm_cmplx_conj_q15.c ****   @param[in]     pSrc        points to the input vector
  43:Middlewares/Third_Party/ARM_CMSIS/CMSIS/DSP/Source/ComplexMathFunctions/arm_cmplx_conj_q15.c ****   @param[out]    pDst        points to the output vector
  44:Middlewares/Third_Party/ARM_CMSIS/CMSIS/DSP/Source/ComplexMathFunctions/arm_cmplx_conj_q15.c ****   @param[in]     numSamples  number of samples in each vector
  45:Middlewares/Third_Party/ARM_CMSIS/CMSIS/DSP/Source/ComplexMathFunctions/arm_cmplx_conj_q15.c ****   @return        none
  46:Middlewares/Third_Party/ARM_CMSIS/CMSIS/DSP/Source/ComplexMathFunctions/arm_cmplx_conj_q15.c **** 
  47:Middlewares/Third_Party/ARM_CMSIS/CMSIS/DSP/Source/ComplexMathFunctions/arm_cmplx_conj_q15.c ****   @par           Scaling and Overflow Behavior
  48:Middlewares/Third_Party/ARM_CMSIS/CMSIS/DSP/Source/ComplexMathFunctions/arm_cmplx_conj_q15.c ****                    The function uses saturating arithmetic.
  49:Middlewares/Third_Party/ARM_CMSIS/CMSIS/DSP/Source/ComplexMathFunctions/arm_cmplx_conj_q15.c ****                    The Q15 value -1 (0x8000) is saturated to the maximum allowable positive value 0
  50:Middlewares/Third_Party/ARM_CMSIS/CMSIS/DSP/Source/ComplexMathFunctions/arm_cmplx_conj_q15.c ****  */
  51:Middlewares/Third_Party/ARM_CMSIS/CMSIS/DSP/Source/ComplexMathFunctions/arm_cmplx_conj_q15.c **** 
  52:Middlewares/Third_Party/ARM_CMSIS/CMSIS/DSP/Source/ComplexMathFunctions/arm_cmplx_conj_q15.c **** 
  53:Middlewares/Third_Party/ARM_CMSIS/CMSIS/DSP/Source/ComplexMathFunctions/arm_cmplx_conj_q15.c **** #if defined(ARM_MATH_MVEI) && !defined(ARM_MATH_AUTOVECTORIZE)
  54:Middlewares/Third_Party/ARM_CMSIS/CMSIS/DSP/Source/ComplexMathFunctions/arm_cmplx_conj_q15.c **** void arm_cmplx_conj_q15(
  55:Middlewares/Third_Party/ARM_CMSIS/CMSIS/DSP/Source/ComplexMathFunctions/arm_cmplx_conj_q15.c ****   const q15_t * pSrc,
  56:Middlewares/Third_Party/ARM_CMSIS/CMSIS/DSP/Source/ComplexMathFunctions/arm_cmplx_conj_q15.c ****         q15_t * pDst,
  57:Middlewares/Third_Party/ARM_CMSIS/CMSIS/DSP/Source/ComplexMathFunctions/arm_cmplx_conj_q15.c ****         uint32_t numSamples)
  58:Middlewares/Third_Party/ARM_CMSIS/CMSIS/DSP/Source/ComplexMathFunctions/arm_cmplx_conj_q15.c **** {
  59:Middlewares/Third_Party/ARM_CMSIS/CMSIS/DSP/Source/ComplexMathFunctions/arm_cmplx_conj_q15.c ****     uint32_t blockSize = numSamples * CMPLX_DIM;   /* loop counters */
  60:Middlewares/Third_Party/ARM_CMSIS/CMSIS/DSP/Source/ComplexMathFunctions/arm_cmplx_conj_q15.c ****     uint32_t blkCnt;
  61:Middlewares/Third_Party/ARM_CMSIS/CMSIS/DSP/Source/ComplexMathFunctions/arm_cmplx_conj_q15.c ****     q31_t in1; 
  62:Middlewares/Third_Party/ARM_CMSIS/CMSIS/DSP/Source/ComplexMathFunctions/arm_cmplx_conj_q15.c **** 
  63:Middlewares/Third_Party/ARM_CMSIS/CMSIS/DSP/Source/ComplexMathFunctions/arm_cmplx_conj_q15.c ****     q15x8x2_t vecSrc;
  64:Middlewares/Third_Party/ARM_CMSIS/CMSIS/DSP/Source/ComplexMathFunctions/arm_cmplx_conj_q15.c ****     q15x8_t zero;
  65:Middlewares/Third_Party/ARM_CMSIS/CMSIS/DSP/Source/ComplexMathFunctions/arm_cmplx_conj_q15.c **** 
  66:Middlewares/Third_Party/ARM_CMSIS/CMSIS/DSP/Source/ComplexMathFunctions/arm_cmplx_conj_q15.c ****     zero = vdupq_n_s16(0);
  67:Middlewares/Third_Party/ARM_CMSIS/CMSIS/DSP/Source/ComplexMathFunctions/arm_cmplx_conj_q15.c **** 
  68:Middlewares/Third_Party/ARM_CMSIS/CMSIS/DSP/Source/ComplexMathFunctions/arm_cmplx_conj_q15.c ****     /* Compute 8 real samples at a time */
  69:Middlewares/Third_Party/ARM_CMSIS/CMSIS/DSP/Source/ComplexMathFunctions/arm_cmplx_conj_q15.c ****     blkCnt = blockSize >> 4U;
  70:Middlewares/Third_Party/ARM_CMSIS/CMSIS/DSP/Source/ComplexMathFunctions/arm_cmplx_conj_q15.c ****     while (blkCnt > 0U)
  71:Middlewares/Third_Party/ARM_CMSIS/CMSIS/DSP/Source/ComplexMathFunctions/arm_cmplx_conj_q15.c ****     {
  72:Middlewares/Third_Party/ARM_CMSIS/CMSIS/DSP/Source/ComplexMathFunctions/arm_cmplx_conj_q15.c ****         vecSrc = vld2q(pSrc);
  73:Middlewares/Third_Party/ARM_CMSIS/CMSIS/DSP/Source/ComplexMathFunctions/arm_cmplx_conj_q15.c ****         vecSrc.val[1] = vqsubq(zero, vecSrc.val[1]);
  74:Middlewares/Third_Party/ARM_CMSIS/CMSIS/DSP/Source/ComplexMathFunctions/arm_cmplx_conj_q15.c ****         vst2q(pDst,vecSrc);
  75:Middlewares/Third_Party/ARM_CMSIS/CMSIS/DSP/Source/ComplexMathFunctions/arm_cmplx_conj_q15.c ****         /*
  76:Middlewares/Third_Party/ARM_CMSIS/CMSIS/DSP/Source/ComplexMathFunctions/arm_cmplx_conj_q15.c ****          * Decrement the blkCnt loop counter
  77:Middlewares/Third_Party/ARM_CMSIS/CMSIS/DSP/Source/ComplexMathFunctions/arm_cmplx_conj_q15.c ****          * Advance vector source and destination pointers
  78:Middlewares/Third_Party/ARM_CMSIS/CMSIS/DSP/Source/ComplexMathFunctions/arm_cmplx_conj_q15.c ****          */
  79:Middlewares/Third_Party/ARM_CMSIS/CMSIS/DSP/Source/ComplexMathFunctions/arm_cmplx_conj_q15.c ****         pSrc += 16;
  80:Middlewares/Third_Party/ARM_CMSIS/CMSIS/DSP/Source/ComplexMathFunctions/arm_cmplx_conj_q15.c ****         pDst += 16;
  81:Middlewares/Third_Party/ARM_CMSIS/CMSIS/DSP/Source/ComplexMathFunctions/arm_cmplx_conj_q15.c ****         blkCnt --;
  82:Middlewares/Third_Party/ARM_CMSIS/CMSIS/DSP/Source/ComplexMathFunctions/arm_cmplx_conj_q15.c ****     }
  83:Middlewares/Third_Party/ARM_CMSIS/CMSIS/DSP/Source/ComplexMathFunctions/arm_cmplx_conj_q15.c ****     
  84:Middlewares/Third_Party/ARM_CMSIS/CMSIS/DSP/Source/ComplexMathFunctions/arm_cmplx_conj_q15.c ****      /* Tail */
  85:Middlewares/Third_Party/ARM_CMSIS/CMSIS/DSP/Source/ComplexMathFunctions/arm_cmplx_conj_q15.c ****     blkCnt = (blockSize & 0xF) >> 1;
  86:Middlewares/Third_Party/ARM_CMSIS/CMSIS/DSP/Source/ComplexMathFunctions/arm_cmplx_conj_q15.c **** 
  87:Middlewares/Third_Party/ARM_CMSIS/CMSIS/DSP/Source/ComplexMathFunctions/arm_cmplx_conj_q15.c ****     while (blkCnt > 0U)
  88:Middlewares/Third_Party/ARM_CMSIS/CMSIS/DSP/Source/ComplexMathFunctions/arm_cmplx_conj_q15.c ****     {
  89:Middlewares/Third_Party/ARM_CMSIS/CMSIS/DSP/Source/ComplexMathFunctions/arm_cmplx_conj_q15.c ****       /* C[0] + jC[1] = A[0]+ j(-1)A[1] */
  90:Middlewares/Third_Party/ARM_CMSIS/CMSIS/DSP/Source/ComplexMathFunctions/arm_cmplx_conj_q15.c ****   
  91:Middlewares/Third_Party/ARM_CMSIS/CMSIS/DSP/Source/ComplexMathFunctions/arm_cmplx_conj_q15.c ****       /* Calculate Complex Conjugate and store result in destination buffer. */
  92:Middlewares/Third_Party/ARM_CMSIS/CMSIS/DSP/Source/ComplexMathFunctions/arm_cmplx_conj_q15.c ****       *pDst++ =  *pSrc++;
  93:Middlewares/Third_Party/ARM_CMSIS/CMSIS/DSP/Source/ComplexMathFunctions/arm_cmplx_conj_q15.c ****       in1 = *pSrc++;
  94:Middlewares/Third_Party/ARM_CMSIS/CMSIS/DSP/Source/ComplexMathFunctions/arm_cmplx_conj_q15.c ****       *pDst++ = __SSAT(-in1, 16);
  95:Middlewares/Third_Party/ARM_CMSIS/CMSIS/DSP/Source/ComplexMathFunctions/arm_cmplx_conj_q15.c ****   
ARM GAS  C:\Users\7636~1\AppData\Local\Temp\ccloz7r5.s 			page 8


  96:Middlewares/Third_Party/ARM_CMSIS/CMSIS/DSP/Source/ComplexMathFunctions/arm_cmplx_conj_q15.c ****       /* Decrement loop counter */
  97:Middlewares/Third_Party/ARM_CMSIS/CMSIS/DSP/Source/ComplexMathFunctions/arm_cmplx_conj_q15.c ****       blkCnt--;
  98:Middlewares/Third_Party/ARM_CMSIS/CMSIS/DSP/Source/ComplexMathFunctions/arm_cmplx_conj_q15.c ****     }
  99:Middlewares/Third_Party/ARM_CMSIS/CMSIS/DSP/Source/ComplexMathFunctions/arm_cmplx_conj_q15.c **** }
 100:Middlewares/Third_Party/ARM_CMSIS/CMSIS/DSP/Source/ComplexMathFunctions/arm_cmplx_conj_q15.c **** #else
 101:Middlewares/Third_Party/ARM_CMSIS/CMSIS/DSP/Source/ComplexMathFunctions/arm_cmplx_conj_q15.c **** void arm_cmplx_conj_q15(
 102:Middlewares/Third_Party/ARM_CMSIS/CMSIS/DSP/Source/ComplexMathFunctions/arm_cmplx_conj_q15.c ****   const q15_t * pSrc,
 103:Middlewares/Third_Party/ARM_CMSIS/CMSIS/DSP/Source/ComplexMathFunctions/arm_cmplx_conj_q15.c ****         q15_t * pDst,
 104:Middlewares/Third_Party/ARM_CMSIS/CMSIS/DSP/Source/ComplexMathFunctions/arm_cmplx_conj_q15.c ****         uint32_t numSamples)
 105:Middlewares/Third_Party/ARM_CMSIS/CMSIS/DSP/Source/ComplexMathFunctions/arm_cmplx_conj_q15.c **** {
  96              		.loc 2 105 1 is_stmt 1 view -0
  97              		.cfi_startproc
  98              		@ args = 0, pretend = 0, frame = 0
  99              		@ frame_needed = 0, uses_anonymous_args = 0
 106:Middlewares/Third_Party/ARM_CMSIS/CMSIS/DSP/Source/ComplexMathFunctions/arm_cmplx_conj_q15.c ****         uint32_t blkCnt;                               /* Loop counter */
 100              		.loc 2 106 9 view .LVU21
 107:Middlewares/Third_Party/ARM_CMSIS/CMSIS/DSP/Source/ComplexMathFunctions/arm_cmplx_conj_q15.c ****         q31_t in1;                                     /* Temporary input variable */
 101              		.loc 2 107 9 view .LVU22
 108:Middlewares/Third_Party/ARM_CMSIS/CMSIS/DSP/Source/ComplexMathFunctions/arm_cmplx_conj_q15.c **** 
 109:Middlewares/Third_Party/ARM_CMSIS/CMSIS/DSP/Source/ComplexMathFunctions/arm_cmplx_conj_q15.c **** #if defined (ARM_MATH_LOOPUNROLL) && defined (ARM_MATH_DSP)
 110:Middlewares/Third_Party/ARM_CMSIS/CMSIS/DSP/Source/ComplexMathFunctions/arm_cmplx_conj_q15.c ****         q31_t in2, in3, in4;                           /* Temporary input variables */
 111:Middlewares/Third_Party/ARM_CMSIS/CMSIS/DSP/Source/ComplexMathFunctions/arm_cmplx_conj_q15.c **** #endif
 112:Middlewares/Third_Party/ARM_CMSIS/CMSIS/DSP/Source/ComplexMathFunctions/arm_cmplx_conj_q15.c **** 
 113:Middlewares/Third_Party/ARM_CMSIS/CMSIS/DSP/Source/ComplexMathFunctions/arm_cmplx_conj_q15.c **** 
 114:Middlewares/Third_Party/ARM_CMSIS/CMSIS/DSP/Source/ComplexMathFunctions/arm_cmplx_conj_q15.c **** #if defined (ARM_MATH_LOOPUNROLL)
 115:Middlewares/Third_Party/ARM_CMSIS/CMSIS/DSP/Source/ComplexMathFunctions/arm_cmplx_conj_q15.c **** 
 116:Middlewares/Third_Party/ARM_CMSIS/CMSIS/DSP/Source/ComplexMathFunctions/arm_cmplx_conj_q15.c ****   /* Loop unrolling: Compute 4 outputs at a time */
 117:Middlewares/Third_Party/ARM_CMSIS/CMSIS/DSP/Source/ComplexMathFunctions/arm_cmplx_conj_q15.c ****   blkCnt = numSamples >> 2U;
 118:Middlewares/Third_Party/ARM_CMSIS/CMSIS/DSP/Source/ComplexMathFunctions/arm_cmplx_conj_q15.c **** 
 119:Middlewares/Third_Party/ARM_CMSIS/CMSIS/DSP/Source/ComplexMathFunctions/arm_cmplx_conj_q15.c ****   while (blkCnt > 0U)
 120:Middlewares/Third_Party/ARM_CMSIS/CMSIS/DSP/Source/ComplexMathFunctions/arm_cmplx_conj_q15.c ****   {
 121:Middlewares/Third_Party/ARM_CMSIS/CMSIS/DSP/Source/ComplexMathFunctions/arm_cmplx_conj_q15.c ****     /* C[0] + jC[1] = A[0]+ j(-1)A[1] */
 122:Middlewares/Third_Party/ARM_CMSIS/CMSIS/DSP/Source/ComplexMathFunctions/arm_cmplx_conj_q15.c **** 
 123:Middlewares/Third_Party/ARM_CMSIS/CMSIS/DSP/Source/ComplexMathFunctions/arm_cmplx_conj_q15.c ****     /* Calculate Complex Conjugate and store result in destination buffer. */
 124:Middlewares/Third_Party/ARM_CMSIS/CMSIS/DSP/Source/ComplexMathFunctions/arm_cmplx_conj_q15.c **** 
 125:Middlewares/Third_Party/ARM_CMSIS/CMSIS/DSP/Source/ComplexMathFunctions/arm_cmplx_conj_q15.c ****     #if defined (ARM_MATH_DSP)
 126:Middlewares/Third_Party/ARM_CMSIS/CMSIS/DSP/Source/ComplexMathFunctions/arm_cmplx_conj_q15.c ****     in1 = read_q15x2_ia ((q15_t **) &pSrc);
 127:Middlewares/Third_Party/ARM_CMSIS/CMSIS/DSP/Source/ComplexMathFunctions/arm_cmplx_conj_q15.c ****     in2 = read_q15x2_ia ((q15_t **) &pSrc);
 128:Middlewares/Third_Party/ARM_CMSIS/CMSIS/DSP/Source/ComplexMathFunctions/arm_cmplx_conj_q15.c ****     in3 = read_q15x2_ia ((q15_t **) &pSrc);
 129:Middlewares/Third_Party/ARM_CMSIS/CMSIS/DSP/Source/ComplexMathFunctions/arm_cmplx_conj_q15.c ****     in4 = read_q15x2_ia ((q15_t **) &pSrc);
 130:Middlewares/Third_Party/ARM_CMSIS/CMSIS/DSP/Source/ComplexMathFunctions/arm_cmplx_conj_q15.c **** 
 131:Middlewares/Third_Party/ARM_CMSIS/CMSIS/DSP/Source/ComplexMathFunctions/arm_cmplx_conj_q15.c **** #ifndef ARM_MATH_BIG_ENDIAN
 132:Middlewares/Third_Party/ARM_CMSIS/CMSIS/DSP/Source/ComplexMathFunctions/arm_cmplx_conj_q15.c ****     in1 = __QASX(0, in1);
 133:Middlewares/Third_Party/ARM_CMSIS/CMSIS/DSP/Source/ComplexMathFunctions/arm_cmplx_conj_q15.c ****     in2 = __QASX(0, in2);
 134:Middlewares/Third_Party/ARM_CMSIS/CMSIS/DSP/Source/ComplexMathFunctions/arm_cmplx_conj_q15.c ****     in3 = __QASX(0, in3);
 135:Middlewares/Third_Party/ARM_CMSIS/CMSIS/DSP/Source/ComplexMathFunctions/arm_cmplx_conj_q15.c ****     in4 = __QASX(0, in4);
 136:Middlewares/Third_Party/ARM_CMSIS/CMSIS/DSP/Source/ComplexMathFunctions/arm_cmplx_conj_q15.c **** #else
 137:Middlewares/Third_Party/ARM_CMSIS/CMSIS/DSP/Source/ComplexMathFunctions/arm_cmplx_conj_q15.c ****     in1 = __QSAX(0, in1);
 138:Middlewares/Third_Party/ARM_CMSIS/CMSIS/DSP/Source/ComplexMathFunctions/arm_cmplx_conj_q15.c ****     in2 = __QSAX(0, in2);
 139:Middlewares/Third_Party/ARM_CMSIS/CMSIS/DSP/Source/ComplexMathFunctions/arm_cmplx_conj_q15.c ****     in3 = __QSAX(0, in3);
 140:Middlewares/Third_Party/ARM_CMSIS/CMSIS/DSP/Source/ComplexMathFunctions/arm_cmplx_conj_q15.c ****     in4 = __QSAX(0, in4);
 141:Middlewares/Third_Party/ARM_CMSIS/CMSIS/DSP/Source/ComplexMathFunctions/arm_cmplx_conj_q15.c **** #endif /* #ifndef ARM_MATH_BIG_ENDIAN */
 142:Middlewares/Third_Party/ARM_CMSIS/CMSIS/DSP/Source/ComplexMathFunctions/arm_cmplx_conj_q15.c **** 
 143:Middlewares/Third_Party/ARM_CMSIS/CMSIS/DSP/Source/ComplexMathFunctions/arm_cmplx_conj_q15.c ****     in1 = ((uint32_t) in1 >> 16) | ((uint32_t) in1 << 16);
 144:Middlewares/Third_Party/ARM_CMSIS/CMSIS/DSP/Source/ComplexMathFunctions/arm_cmplx_conj_q15.c ****     in2 = ((uint32_t) in2 >> 16) | ((uint32_t) in2 << 16);
 145:Middlewares/Third_Party/ARM_CMSIS/CMSIS/DSP/Source/ComplexMathFunctions/arm_cmplx_conj_q15.c ****     in3 = ((uint32_t) in3 >> 16) | ((uint32_t) in3 << 16);
 146:Middlewares/Third_Party/ARM_CMSIS/CMSIS/DSP/Source/ComplexMathFunctions/arm_cmplx_conj_q15.c ****     in4 = ((uint32_t) in4 >> 16) | ((uint32_t) in4 << 16);
ARM GAS  C:\Users\7636~1\AppData\Local\Temp\ccloz7r5.s 			page 9


 147:Middlewares/Third_Party/ARM_CMSIS/CMSIS/DSP/Source/ComplexMathFunctions/arm_cmplx_conj_q15.c **** 
 148:Middlewares/Third_Party/ARM_CMSIS/CMSIS/DSP/Source/ComplexMathFunctions/arm_cmplx_conj_q15.c ****     write_q15x2_ia (&pDst, in1);
 149:Middlewares/Third_Party/ARM_CMSIS/CMSIS/DSP/Source/ComplexMathFunctions/arm_cmplx_conj_q15.c ****     write_q15x2_ia (&pDst, in2);
 150:Middlewares/Third_Party/ARM_CMSIS/CMSIS/DSP/Source/ComplexMathFunctions/arm_cmplx_conj_q15.c ****     write_q15x2_ia (&pDst, in3);
 151:Middlewares/Third_Party/ARM_CMSIS/CMSIS/DSP/Source/ComplexMathFunctions/arm_cmplx_conj_q15.c ****     write_q15x2_ia (&pDst, in4);
 152:Middlewares/Third_Party/ARM_CMSIS/CMSIS/DSP/Source/ComplexMathFunctions/arm_cmplx_conj_q15.c **** #else
 153:Middlewares/Third_Party/ARM_CMSIS/CMSIS/DSP/Source/ComplexMathFunctions/arm_cmplx_conj_q15.c ****     *pDst++ =  *pSrc++;
 154:Middlewares/Third_Party/ARM_CMSIS/CMSIS/DSP/Source/ComplexMathFunctions/arm_cmplx_conj_q15.c ****     in1 = *pSrc++;
 155:Middlewares/Third_Party/ARM_CMSIS/CMSIS/DSP/Source/ComplexMathFunctions/arm_cmplx_conj_q15.c ****     *pDst++ = (in1 == (q15_t) 0x8000) ? (q15_t) 0x7fff : -in1;
 156:Middlewares/Third_Party/ARM_CMSIS/CMSIS/DSP/Source/ComplexMathFunctions/arm_cmplx_conj_q15.c **** 
 157:Middlewares/Third_Party/ARM_CMSIS/CMSIS/DSP/Source/ComplexMathFunctions/arm_cmplx_conj_q15.c ****     *pDst++ =  *pSrc++;
 158:Middlewares/Third_Party/ARM_CMSIS/CMSIS/DSP/Source/ComplexMathFunctions/arm_cmplx_conj_q15.c ****     in1 = *pSrc++;
 159:Middlewares/Third_Party/ARM_CMSIS/CMSIS/DSP/Source/ComplexMathFunctions/arm_cmplx_conj_q15.c ****     *pDst++ = (in1 == (q15_t) 0x8000) ? (q15_t) 0x7fff : -in1;
 160:Middlewares/Third_Party/ARM_CMSIS/CMSIS/DSP/Source/ComplexMathFunctions/arm_cmplx_conj_q15.c **** 
 161:Middlewares/Third_Party/ARM_CMSIS/CMSIS/DSP/Source/ComplexMathFunctions/arm_cmplx_conj_q15.c ****     *pDst++ =  *pSrc++;
 162:Middlewares/Third_Party/ARM_CMSIS/CMSIS/DSP/Source/ComplexMathFunctions/arm_cmplx_conj_q15.c ****     in1 = *pSrc++;
 163:Middlewares/Third_Party/ARM_CMSIS/CMSIS/DSP/Source/ComplexMathFunctions/arm_cmplx_conj_q15.c ****     *pDst++ = (in1 == (q15_t) 0x8000) ? (q15_t) 0x7fff : -in1;
 164:Middlewares/Third_Party/ARM_CMSIS/CMSIS/DSP/Source/ComplexMathFunctions/arm_cmplx_conj_q15.c **** 
 165:Middlewares/Third_Party/ARM_CMSIS/CMSIS/DSP/Source/ComplexMathFunctions/arm_cmplx_conj_q15.c ****     *pDst++ =  *pSrc++;
 166:Middlewares/Third_Party/ARM_CMSIS/CMSIS/DSP/Source/ComplexMathFunctions/arm_cmplx_conj_q15.c ****     in1 = *pSrc++;
 167:Middlewares/Third_Party/ARM_CMSIS/CMSIS/DSP/Source/ComplexMathFunctions/arm_cmplx_conj_q15.c ****     *pDst++ = (in1 == (q15_t) 0x8000) ? (q15_t) 0x7fff : -in1;
 168:Middlewares/Third_Party/ARM_CMSIS/CMSIS/DSP/Source/ComplexMathFunctions/arm_cmplx_conj_q15.c **** 
 169:Middlewares/Third_Party/ARM_CMSIS/CMSIS/DSP/Source/ComplexMathFunctions/arm_cmplx_conj_q15.c **** #endif /* #if defined (ARM_MATH_DSP) */
 170:Middlewares/Third_Party/ARM_CMSIS/CMSIS/DSP/Source/ComplexMathFunctions/arm_cmplx_conj_q15.c **** 
 171:Middlewares/Third_Party/ARM_CMSIS/CMSIS/DSP/Source/ComplexMathFunctions/arm_cmplx_conj_q15.c ****     /* Decrement loop counter */
 172:Middlewares/Third_Party/ARM_CMSIS/CMSIS/DSP/Source/ComplexMathFunctions/arm_cmplx_conj_q15.c ****     blkCnt--;
 173:Middlewares/Third_Party/ARM_CMSIS/CMSIS/DSP/Source/ComplexMathFunctions/arm_cmplx_conj_q15.c ****   }
 174:Middlewares/Third_Party/ARM_CMSIS/CMSIS/DSP/Source/ComplexMathFunctions/arm_cmplx_conj_q15.c **** 
 175:Middlewares/Third_Party/ARM_CMSIS/CMSIS/DSP/Source/ComplexMathFunctions/arm_cmplx_conj_q15.c ****   /* Loop unrolling: Compute remaining outputs */
 176:Middlewares/Third_Party/ARM_CMSIS/CMSIS/DSP/Source/ComplexMathFunctions/arm_cmplx_conj_q15.c ****   blkCnt = numSamples % 0x4U;
 177:Middlewares/Third_Party/ARM_CMSIS/CMSIS/DSP/Source/ComplexMathFunctions/arm_cmplx_conj_q15.c **** 
 178:Middlewares/Third_Party/ARM_CMSIS/CMSIS/DSP/Source/ComplexMathFunctions/arm_cmplx_conj_q15.c **** #else
 179:Middlewares/Third_Party/ARM_CMSIS/CMSIS/DSP/Source/ComplexMathFunctions/arm_cmplx_conj_q15.c **** 
 180:Middlewares/Third_Party/ARM_CMSIS/CMSIS/DSP/Source/ComplexMathFunctions/arm_cmplx_conj_q15.c ****   /* Initialize blkCnt with number of samples */
 181:Middlewares/Third_Party/ARM_CMSIS/CMSIS/DSP/Source/ComplexMathFunctions/arm_cmplx_conj_q15.c ****   blkCnt = numSamples;
 102              		.loc 2 181 3 view .LVU23
 182:Middlewares/Third_Party/ARM_CMSIS/CMSIS/DSP/Source/ComplexMathFunctions/arm_cmplx_conj_q15.c **** 
 183:Middlewares/Third_Party/ARM_CMSIS/CMSIS/DSP/Source/ComplexMathFunctions/arm_cmplx_conj_q15.c **** #endif /* #if defined (ARM_MATH_LOOPUNROLL) */
 184:Middlewares/Third_Party/ARM_CMSIS/CMSIS/DSP/Source/ComplexMathFunctions/arm_cmplx_conj_q15.c **** 
 185:Middlewares/Third_Party/ARM_CMSIS/CMSIS/DSP/Source/ComplexMathFunctions/arm_cmplx_conj_q15.c ****   while (blkCnt > 0U)
 103              		.loc 2 185 3 view .LVU24
 104              		.loc 2 185 9 view .LVU25
 105 0000 9AB1     		cbz	r2, .L14
 105:Middlewares/Third_Party/ARM_CMSIS/CMSIS/DSP/Source/ComplexMathFunctions/arm_cmplx_conj_q15.c ****         uint32_t blkCnt;                               /* Loop counter */
 106              		.loc 2 105 1 is_stmt 0 view .LVU26
 107 0002 00B5     		push	{lr}
 108              	.LCFI2:
 109              		.cfi_def_cfa_offset 4
 110              		.cfi_offset 14, -4
 111              	.LVL7:
 112              	.L10:
 186:Middlewares/Third_Party/ARM_CMSIS/CMSIS/DSP/Source/ComplexMathFunctions/arm_cmplx_conj_q15.c ****   {
 187:Middlewares/Third_Party/ARM_CMSIS/CMSIS/DSP/Source/ComplexMathFunctions/arm_cmplx_conj_q15.c ****     /* C[0] + jC[1] = A[0]+ j(-1)A[1] */
 188:Middlewares/Third_Party/ARM_CMSIS/CMSIS/DSP/Source/ComplexMathFunctions/arm_cmplx_conj_q15.c **** 
 189:Middlewares/Third_Party/ARM_CMSIS/CMSIS/DSP/Source/ComplexMathFunctions/arm_cmplx_conj_q15.c ****     /* Calculate Complex Conjugate and store result in destination buffer. */
 190:Middlewares/Third_Party/ARM_CMSIS/CMSIS/DSP/Source/ComplexMathFunctions/arm_cmplx_conj_q15.c ****     *pDst++ =  *pSrc++;
 113              		.loc 2 190 5 is_stmt 1 view .LVU27
ARM GAS  C:\Users\7636~1\AppData\Local\Temp\ccloz7r5.s 			page 10


 114              		.loc 2 190 16 is_stmt 0 view .LVU28
 115 0004 8446     		mov	ip, r0
 116 0006 3CF9043B 		ldrsh	r3, [ip], #4
 117              		.loc 2 190 13 view .LVU29
 118 000a 8E46     		mov	lr, r1
 119 000c 2EF8043B 		strh	r3, [lr], #4	@ movhi
 191:Middlewares/Third_Party/ARM_CMSIS/CMSIS/DSP/Source/ComplexMathFunctions/arm_cmplx_conj_q15.c ****     in1 = *pSrc++;
 120              		.loc 2 191 5 is_stmt 1 view .LVU30
 121              	.LVL8:
 122              		.loc 2 191 11 is_stmt 0 view .LVU31
 123 0010 B0F90230 		ldrsh	r3, [r0, #2]
 124              	.LVL9:
 192:Middlewares/Third_Party/ARM_CMSIS/CMSIS/DSP/Source/ComplexMathFunctions/arm_cmplx_conj_q15.c **** #if defined (ARM_MATH_DSP)
 193:Middlewares/Third_Party/ARM_CMSIS/CMSIS/DSP/Source/ComplexMathFunctions/arm_cmplx_conj_q15.c ****     *pDst++ = __SSAT(-in1, 16);
 125              		.loc 2 193 5 is_stmt 1 view .LVU32
 126              	.LBB14:
 127              		.loc 2 193 15 view .LVU33
 128 0014 5B42     		rsbs	r3, r3, #0
 129              	.LVL10:
 130              		.loc 2 193 15 view .LVU34
 131              		.syntax unified
 132              	@ 193 "Middlewares/Third_Party/ARM_CMSIS/CMSIS/DSP/Source/ComplexMathFunctions/arm_cmplx_conj_q15.c
 133 0016 03F30F03 		ssat r3, #16, r3
 134              	@ 0 "" 2
 135              	.LVL11:
 136              		.loc 2 193 15 view .LVU35
 137              		.loc 2 193 15 is_stmt 0 view .LVU36
 138              		.thumb
 139              		.syntax unified
 140              	.LBE14:
 141              		.loc 2 193 13 view .LVU37
 142 001a 4B80     		strh	r3, [r1, #2]	@ movhi
 143              	.LVL12:
 194:Middlewares/Third_Party/ARM_CMSIS/CMSIS/DSP/Source/ComplexMathFunctions/arm_cmplx_conj_q15.c **** #else
 195:Middlewares/Third_Party/ARM_CMSIS/CMSIS/DSP/Source/ComplexMathFunctions/arm_cmplx_conj_q15.c ****     *pDst++ = (in1 == (q15_t) 0x8000) ? (q15_t) 0x7fff : -in1;
 196:Middlewares/Third_Party/ARM_CMSIS/CMSIS/DSP/Source/ComplexMathFunctions/arm_cmplx_conj_q15.c **** #endif
 197:Middlewares/Third_Party/ARM_CMSIS/CMSIS/DSP/Source/ComplexMathFunctions/arm_cmplx_conj_q15.c **** 
 198:Middlewares/Third_Party/ARM_CMSIS/CMSIS/DSP/Source/ComplexMathFunctions/arm_cmplx_conj_q15.c ****     /* Decrement loop counter */
 199:Middlewares/Third_Party/ARM_CMSIS/CMSIS/DSP/Source/ComplexMathFunctions/arm_cmplx_conj_q15.c ****     blkCnt--;
 144              		.loc 2 199 5 is_stmt 1 view .LVU38
 145              		.loc 2 199 11 is_stmt 0 view .LVU39
 146 001c 013A     		subs	r2, r2, #1
 147              	.LVL13:
 193:Middlewares/Third_Party/ARM_CMSIS/CMSIS/DSP/Source/ComplexMathFunctions/arm_cmplx_conj_q15.c **** #else
 148              		.loc 2 193 10 view .LVU40
 149 001e 7146     		mov	r1, lr
 191:Middlewares/Third_Party/ARM_CMSIS/CMSIS/DSP/Source/ComplexMathFunctions/arm_cmplx_conj_q15.c **** #if defined (ARM_MATH_DSP)
 150              		.loc 2 191 16 view .LVU41
 151 0020 6046     		mov	r0, ip
 185:Middlewares/Third_Party/ARM_CMSIS/CMSIS/DSP/Source/ComplexMathFunctions/arm_cmplx_conj_q15.c ****   {
 152              		.loc 2 185 9 is_stmt 1 view .LVU42
 153 0022 002A     		cmp	r2, #0
 154 0024 EED1     		bne	.L10
 200:Middlewares/Third_Party/ARM_CMSIS/CMSIS/DSP/Source/ComplexMathFunctions/arm_cmplx_conj_q15.c ****   }
 201:Middlewares/Third_Party/ARM_CMSIS/CMSIS/DSP/Source/ComplexMathFunctions/arm_cmplx_conj_q15.c **** 
 202:Middlewares/Third_Party/ARM_CMSIS/CMSIS/DSP/Source/ComplexMathFunctions/arm_cmplx_conj_q15.c **** }
 155              		.loc 2 202 1 is_stmt 0 view .LVU43
ARM GAS  C:\Users\7636~1\AppData\Local\Temp\ccloz7r5.s 			page 11


 156 0026 5DF804FB 		ldr	pc, [sp], #4
 157              	.LVL14:
 158              	.L14:
 159              	.LCFI3:
 160              		.cfi_def_cfa_offset 0
 161              		.cfi_restore 14
 162              		.loc 2 202 1 view .LVU44
 163 002a 7047     		bx	lr
 164              		.cfi_endproc
 165              	.LFE121:
 167              		.section	.text.arm_cmplx_conj_q31,"ax",%progbits
 168              		.align	1
 169              		.global	arm_cmplx_conj_q31
 170              		.syntax unified
 171              		.thumb
 172              		.thumb_func
 174              	arm_cmplx_conj_q31:
 175              	.LVL15:
 176              	.LFB122:
 177              		.file 3 "Middlewares/Third_Party/ARM_CMSIS/CMSIS/DSP/Source/ComplexMathFunctions/arm_cmplx_conj_q3
   1:Middlewares/Third_Party/ARM_CMSIS/CMSIS/DSP/Source/ComplexMathFunctions/arm_cmplx_conj_q31.c **** /* ----------------------------------------------------------------------
   2:Middlewares/Third_Party/ARM_CMSIS/CMSIS/DSP/Source/ComplexMathFunctions/arm_cmplx_conj_q31.c ****  * Project:      CMSIS DSP Library
   3:Middlewares/Third_Party/ARM_CMSIS/CMSIS/DSP/Source/ComplexMathFunctions/arm_cmplx_conj_q31.c ****  * Title:        arm_cmplx_conj_q31.c
   4:Middlewares/Third_Party/ARM_CMSIS/CMSIS/DSP/Source/ComplexMathFunctions/arm_cmplx_conj_q31.c ****  * Description:  Q31 complex conjugate
   5:Middlewares/Third_Party/ARM_CMSIS/CMSIS/DSP/Source/ComplexMathFunctions/arm_cmplx_conj_q31.c ****  *
   6:Middlewares/Third_Party/ARM_CMSIS/CMSIS/DSP/Source/ComplexMathFunctions/arm_cmplx_conj_q31.c ****  * $Date:        23 April 2021
   7:Middlewares/Third_Party/ARM_CMSIS/CMSIS/DSP/Source/ComplexMathFunctions/arm_cmplx_conj_q31.c ****  * $Revision:    V1.9.0
   8:Middlewares/Third_Party/ARM_CMSIS/CMSIS/DSP/Source/ComplexMathFunctions/arm_cmplx_conj_q31.c ****  *
   9:Middlewares/Third_Party/ARM_CMSIS/CMSIS/DSP/Source/ComplexMathFunctions/arm_cmplx_conj_q31.c ****  * Target Processor: Cortex-M and Cortex-A cores
  10:Middlewares/Third_Party/ARM_CMSIS/CMSIS/DSP/Source/ComplexMathFunctions/arm_cmplx_conj_q31.c ****  * -------------------------------------------------------------------- */
  11:Middlewares/Third_Party/ARM_CMSIS/CMSIS/DSP/Source/ComplexMathFunctions/arm_cmplx_conj_q31.c **** /*
  12:Middlewares/Third_Party/ARM_CMSIS/CMSIS/DSP/Source/ComplexMathFunctions/arm_cmplx_conj_q31.c ****  * Copyright (C) 2010-2021 ARM Limited or its affiliates. All rights reserved.
  13:Middlewares/Third_Party/ARM_CMSIS/CMSIS/DSP/Source/ComplexMathFunctions/arm_cmplx_conj_q31.c ****  *
  14:Middlewares/Third_Party/ARM_CMSIS/CMSIS/DSP/Source/ComplexMathFunctions/arm_cmplx_conj_q31.c ****  * SPDX-License-Identifier: Apache-2.0
  15:Middlewares/Third_Party/ARM_CMSIS/CMSIS/DSP/Source/ComplexMathFunctions/arm_cmplx_conj_q31.c ****  *
  16:Middlewares/Third_Party/ARM_CMSIS/CMSIS/DSP/Source/ComplexMathFunctions/arm_cmplx_conj_q31.c ****  * Licensed under the Apache License, Version 2.0 (the License); you may
  17:Middlewares/Third_Party/ARM_CMSIS/CMSIS/DSP/Source/ComplexMathFunctions/arm_cmplx_conj_q31.c ****  * not use this file except in compliance with the License.
  18:Middlewares/Third_Party/ARM_CMSIS/CMSIS/DSP/Source/ComplexMathFunctions/arm_cmplx_conj_q31.c ****  * You may obtain a copy of the License at
  19:Middlewares/Third_Party/ARM_CMSIS/CMSIS/DSP/Source/ComplexMathFunctions/arm_cmplx_conj_q31.c ****  *
  20:Middlewares/Third_Party/ARM_CMSIS/CMSIS/DSP/Source/ComplexMathFunctions/arm_cmplx_conj_q31.c ****  * www.apache.org/licenses/LICENSE-2.0
  21:Middlewares/Third_Party/ARM_CMSIS/CMSIS/DSP/Source/ComplexMathFunctions/arm_cmplx_conj_q31.c ****  *
  22:Middlewares/Third_Party/ARM_CMSIS/CMSIS/DSP/Source/ComplexMathFunctions/arm_cmplx_conj_q31.c ****  * Unless required by applicable law or agreed to in writing, software
  23:Middlewares/Third_Party/ARM_CMSIS/CMSIS/DSP/Source/ComplexMathFunctions/arm_cmplx_conj_q31.c ****  * distributed under the License is distributed on an AS IS BASIS, WITHOUT
  24:Middlewares/Third_Party/ARM_CMSIS/CMSIS/DSP/Source/ComplexMathFunctions/arm_cmplx_conj_q31.c ****  * WARRANTIES OR CONDITIONS OF ANY KIND, either express or implied.
  25:Middlewares/Third_Party/ARM_CMSIS/CMSIS/DSP/Source/ComplexMathFunctions/arm_cmplx_conj_q31.c ****  * See the License for the specific language governing permissions and
  26:Middlewares/Third_Party/ARM_CMSIS/CMSIS/DSP/Source/ComplexMathFunctions/arm_cmplx_conj_q31.c ****  * limitations under the License.
  27:Middlewares/Third_Party/ARM_CMSIS/CMSIS/DSP/Source/ComplexMathFunctions/arm_cmplx_conj_q31.c ****  */
  28:Middlewares/Third_Party/ARM_CMSIS/CMSIS/DSP/Source/ComplexMathFunctions/arm_cmplx_conj_q31.c **** 
  29:Middlewares/Third_Party/ARM_CMSIS/CMSIS/DSP/Source/ComplexMathFunctions/arm_cmplx_conj_q31.c **** #include "dsp/complex_math_functions.h"
  30:Middlewares/Third_Party/ARM_CMSIS/CMSIS/DSP/Source/ComplexMathFunctions/arm_cmplx_conj_q31.c **** 
  31:Middlewares/Third_Party/ARM_CMSIS/CMSIS/DSP/Source/ComplexMathFunctions/arm_cmplx_conj_q31.c **** /**
  32:Middlewares/Third_Party/ARM_CMSIS/CMSIS/DSP/Source/ComplexMathFunctions/arm_cmplx_conj_q31.c ****   @ingroup groupCmplxMath
  33:Middlewares/Third_Party/ARM_CMSIS/CMSIS/DSP/Source/ComplexMathFunctions/arm_cmplx_conj_q31.c ****  */
  34:Middlewares/Third_Party/ARM_CMSIS/CMSIS/DSP/Source/ComplexMathFunctions/arm_cmplx_conj_q31.c **** 
  35:Middlewares/Third_Party/ARM_CMSIS/CMSIS/DSP/Source/ComplexMathFunctions/arm_cmplx_conj_q31.c **** /**
  36:Middlewares/Third_Party/ARM_CMSIS/CMSIS/DSP/Source/ComplexMathFunctions/arm_cmplx_conj_q31.c ****   @addtogroup cmplx_conj
  37:Middlewares/Third_Party/ARM_CMSIS/CMSIS/DSP/Source/ComplexMathFunctions/arm_cmplx_conj_q31.c ****   @{
ARM GAS  C:\Users\7636~1\AppData\Local\Temp\ccloz7r5.s 			page 12


  38:Middlewares/Third_Party/ARM_CMSIS/CMSIS/DSP/Source/ComplexMathFunctions/arm_cmplx_conj_q31.c ****  */
  39:Middlewares/Third_Party/ARM_CMSIS/CMSIS/DSP/Source/ComplexMathFunctions/arm_cmplx_conj_q31.c **** 
  40:Middlewares/Third_Party/ARM_CMSIS/CMSIS/DSP/Source/ComplexMathFunctions/arm_cmplx_conj_q31.c **** /**
  41:Middlewares/Third_Party/ARM_CMSIS/CMSIS/DSP/Source/ComplexMathFunctions/arm_cmplx_conj_q31.c ****   @brief         Q31 complex conjugate.
  42:Middlewares/Third_Party/ARM_CMSIS/CMSIS/DSP/Source/ComplexMathFunctions/arm_cmplx_conj_q31.c ****   @param[in]     pSrc        points to the input vector
  43:Middlewares/Third_Party/ARM_CMSIS/CMSIS/DSP/Source/ComplexMathFunctions/arm_cmplx_conj_q31.c ****   @param[out]    pDst        points to the output vector
  44:Middlewares/Third_Party/ARM_CMSIS/CMSIS/DSP/Source/ComplexMathFunctions/arm_cmplx_conj_q31.c ****   @param[in]     numSamples  number of samples in each vector
  45:Middlewares/Third_Party/ARM_CMSIS/CMSIS/DSP/Source/ComplexMathFunctions/arm_cmplx_conj_q31.c ****   @return        none
  46:Middlewares/Third_Party/ARM_CMSIS/CMSIS/DSP/Source/ComplexMathFunctions/arm_cmplx_conj_q31.c **** 
  47:Middlewares/Third_Party/ARM_CMSIS/CMSIS/DSP/Source/ComplexMathFunctions/arm_cmplx_conj_q31.c ****   @par           Scaling and Overflow Behavior
  48:Middlewares/Third_Party/ARM_CMSIS/CMSIS/DSP/Source/ComplexMathFunctions/arm_cmplx_conj_q31.c ****                    The function uses saturating arithmetic.
  49:Middlewares/Third_Party/ARM_CMSIS/CMSIS/DSP/Source/ComplexMathFunctions/arm_cmplx_conj_q31.c ****                    The Q31 value -1 (0x80000000) is saturated to the maximum allowable positive val
  50:Middlewares/Third_Party/ARM_CMSIS/CMSIS/DSP/Source/ComplexMathFunctions/arm_cmplx_conj_q31.c ****  */
  51:Middlewares/Third_Party/ARM_CMSIS/CMSIS/DSP/Source/ComplexMathFunctions/arm_cmplx_conj_q31.c **** 
  52:Middlewares/Third_Party/ARM_CMSIS/CMSIS/DSP/Source/ComplexMathFunctions/arm_cmplx_conj_q31.c **** #if defined(ARM_MATH_MVEI) && !defined(ARM_MATH_AUTOVECTORIZE)
  53:Middlewares/Third_Party/ARM_CMSIS/CMSIS/DSP/Source/ComplexMathFunctions/arm_cmplx_conj_q31.c **** 
  54:Middlewares/Third_Party/ARM_CMSIS/CMSIS/DSP/Source/ComplexMathFunctions/arm_cmplx_conj_q31.c **** void arm_cmplx_conj_q31(
  55:Middlewares/Third_Party/ARM_CMSIS/CMSIS/DSP/Source/ComplexMathFunctions/arm_cmplx_conj_q31.c ****   const q31_t * pSrc,
  56:Middlewares/Third_Party/ARM_CMSIS/CMSIS/DSP/Source/ComplexMathFunctions/arm_cmplx_conj_q31.c ****         q31_t * pDst,
  57:Middlewares/Third_Party/ARM_CMSIS/CMSIS/DSP/Source/ComplexMathFunctions/arm_cmplx_conj_q31.c ****         uint32_t numSamples)
  58:Middlewares/Third_Party/ARM_CMSIS/CMSIS/DSP/Source/ComplexMathFunctions/arm_cmplx_conj_q31.c **** {
  59:Middlewares/Third_Party/ARM_CMSIS/CMSIS/DSP/Source/ComplexMathFunctions/arm_cmplx_conj_q31.c **** 
  60:Middlewares/Third_Party/ARM_CMSIS/CMSIS/DSP/Source/ComplexMathFunctions/arm_cmplx_conj_q31.c ****     uint32_t blockSize = numSamples * CMPLX_DIM;   /* loop counters */
  61:Middlewares/Third_Party/ARM_CMSIS/CMSIS/DSP/Source/ComplexMathFunctions/arm_cmplx_conj_q31.c ****     uint32_t blkCnt;
  62:Middlewares/Third_Party/ARM_CMSIS/CMSIS/DSP/Source/ComplexMathFunctions/arm_cmplx_conj_q31.c ****     q31x4x2_t vecSrc;
  63:Middlewares/Third_Party/ARM_CMSIS/CMSIS/DSP/Source/ComplexMathFunctions/arm_cmplx_conj_q31.c ****     q31_t in;                                      /* Temporary input variable */
  64:Middlewares/Third_Party/ARM_CMSIS/CMSIS/DSP/Source/ComplexMathFunctions/arm_cmplx_conj_q31.c ****     q31x4_t zero;
  65:Middlewares/Third_Party/ARM_CMSIS/CMSIS/DSP/Source/ComplexMathFunctions/arm_cmplx_conj_q31.c **** 
  66:Middlewares/Third_Party/ARM_CMSIS/CMSIS/DSP/Source/ComplexMathFunctions/arm_cmplx_conj_q31.c ****     zero = vdupq_n_s32(0);
  67:Middlewares/Third_Party/ARM_CMSIS/CMSIS/DSP/Source/ComplexMathFunctions/arm_cmplx_conj_q31.c **** 
  68:Middlewares/Third_Party/ARM_CMSIS/CMSIS/DSP/Source/ComplexMathFunctions/arm_cmplx_conj_q31.c ****    
  69:Middlewares/Third_Party/ARM_CMSIS/CMSIS/DSP/Source/ComplexMathFunctions/arm_cmplx_conj_q31.c ****     /* Compute 4 real samples at a time */
  70:Middlewares/Third_Party/ARM_CMSIS/CMSIS/DSP/Source/ComplexMathFunctions/arm_cmplx_conj_q31.c ****     blkCnt = blockSize >> 3U;
  71:Middlewares/Third_Party/ARM_CMSIS/CMSIS/DSP/Source/ComplexMathFunctions/arm_cmplx_conj_q31.c **** 
  72:Middlewares/Third_Party/ARM_CMSIS/CMSIS/DSP/Source/ComplexMathFunctions/arm_cmplx_conj_q31.c ****     while (blkCnt > 0U)
  73:Middlewares/Third_Party/ARM_CMSIS/CMSIS/DSP/Source/ComplexMathFunctions/arm_cmplx_conj_q31.c ****     {
  74:Middlewares/Third_Party/ARM_CMSIS/CMSIS/DSP/Source/ComplexMathFunctions/arm_cmplx_conj_q31.c **** 
  75:Middlewares/Third_Party/ARM_CMSIS/CMSIS/DSP/Source/ComplexMathFunctions/arm_cmplx_conj_q31.c ****         vecSrc = vld2q(pSrc);
  76:Middlewares/Third_Party/ARM_CMSIS/CMSIS/DSP/Source/ComplexMathFunctions/arm_cmplx_conj_q31.c ****         vecSrc.val[1] = vqsubq(zero, vecSrc.val[1]);
  77:Middlewares/Third_Party/ARM_CMSIS/CMSIS/DSP/Source/ComplexMathFunctions/arm_cmplx_conj_q31.c ****         vst2q(pDst,vecSrc);
  78:Middlewares/Third_Party/ARM_CMSIS/CMSIS/DSP/Source/ComplexMathFunctions/arm_cmplx_conj_q31.c ****         /*
  79:Middlewares/Third_Party/ARM_CMSIS/CMSIS/DSP/Source/ComplexMathFunctions/arm_cmplx_conj_q31.c ****          * Decrement the blkCnt loop counter
  80:Middlewares/Third_Party/ARM_CMSIS/CMSIS/DSP/Source/ComplexMathFunctions/arm_cmplx_conj_q31.c ****          * Advance vector source and destination pointers
  81:Middlewares/Third_Party/ARM_CMSIS/CMSIS/DSP/Source/ComplexMathFunctions/arm_cmplx_conj_q31.c ****          */
  82:Middlewares/Third_Party/ARM_CMSIS/CMSIS/DSP/Source/ComplexMathFunctions/arm_cmplx_conj_q31.c ****         pSrc += 8;
  83:Middlewares/Third_Party/ARM_CMSIS/CMSIS/DSP/Source/ComplexMathFunctions/arm_cmplx_conj_q31.c ****         pDst += 8;
  84:Middlewares/Third_Party/ARM_CMSIS/CMSIS/DSP/Source/ComplexMathFunctions/arm_cmplx_conj_q31.c ****         blkCnt --;
  85:Middlewares/Third_Party/ARM_CMSIS/CMSIS/DSP/Source/ComplexMathFunctions/arm_cmplx_conj_q31.c ****     }
  86:Middlewares/Third_Party/ARM_CMSIS/CMSIS/DSP/Source/ComplexMathFunctions/arm_cmplx_conj_q31.c **** 
  87:Middlewares/Third_Party/ARM_CMSIS/CMSIS/DSP/Source/ComplexMathFunctions/arm_cmplx_conj_q31.c ****      /* Tail */
  88:Middlewares/Third_Party/ARM_CMSIS/CMSIS/DSP/Source/ComplexMathFunctions/arm_cmplx_conj_q31.c ****     blkCnt = (blockSize & 0x7) >> 1;
  89:Middlewares/Third_Party/ARM_CMSIS/CMSIS/DSP/Source/ComplexMathFunctions/arm_cmplx_conj_q31.c **** 
  90:Middlewares/Third_Party/ARM_CMSIS/CMSIS/DSP/Source/ComplexMathFunctions/arm_cmplx_conj_q31.c ****     while (blkCnt > 0U)
  91:Middlewares/Third_Party/ARM_CMSIS/CMSIS/DSP/Source/ComplexMathFunctions/arm_cmplx_conj_q31.c ****     {
  92:Middlewares/Third_Party/ARM_CMSIS/CMSIS/DSP/Source/ComplexMathFunctions/arm_cmplx_conj_q31.c ****       /* C[0] + jC[1] = A[0]+ j(-1)A[1] */
  93:Middlewares/Third_Party/ARM_CMSIS/CMSIS/DSP/Source/ComplexMathFunctions/arm_cmplx_conj_q31.c ****   
  94:Middlewares/Third_Party/ARM_CMSIS/CMSIS/DSP/Source/ComplexMathFunctions/arm_cmplx_conj_q31.c ****       /* Calculate Complex Conjugate and store result in destination buffer. */
ARM GAS  C:\Users\7636~1\AppData\Local\Temp\ccloz7r5.s 			page 13


  95:Middlewares/Third_Party/ARM_CMSIS/CMSIS/DSP/Source/ComplexMathFunctions/arm_cmplx_conj_q31.c ****       *pDst++ =  *pSrc++;
  96:Middlewares/Third_Party/ARM_CMSIS/CMSIS/DSP/Source/ComplexMathFunctions/arm_cmplx_conj_q31.c ****       in = *pSrc++;
  97:Middlewares/Third_Party/ARM_CMSIS/CMSIS/DSP/Source/ComplexMathFunctions/arm_cmplx_conj_q31.c ****       *pDst++ = __QSUB(0, in);
  98:Middlewares/Third_Party/ARM_CMSIS/CMSIS/DSP/Source/ComplexMathFunctions/arm_cmplx_conj_q31.c ****   
  99:Middlewares/Third_Party/ARM_CMSIS/CMSIS/DSP/Source/ComplexMathFunctions/arm_cmplx_conj_q31.c ****       /* Decrement loop counter */
 100:Middlewares/Third_Party/ARM_CMSIS/CMSIS/DSP/Source/ComplexMathFunctions/arm_cmplx_conj_q31.c ****       blkCnt--;
 101:Middlewares/Third_Party/ARM_CMSIS/CMSIS/DSP/Source/ComplexMathFunctions/arm_cmplx_conj_q31.c ****     }
 102:Middlewares/Third_Party/ARM_CMSIS/CMSIS/DSP/Source/ComplexMathFunctions/arm_cmplx_conj_q31.c **** 
 103:Middlewares/Third_Party/ARM_CMSIS/CMSIS/DSP/Source/ComplexMathFunctions/arm_cmplx_conj_q31.c **** 
 104:Middlewares/Third_Party/ARM_CMSIS/CMSIS/DSP/Source/ComplexMathFunctions/arm_cmplx_conj_q31.c **** }
 105:Middlewares/Third_Party/ARM_CMSIS/CMSIS/DSP/Source/ComplexMathFunctions/arm_cmplx_conj_q31.c **** #else
 106:Middlewares/Third_Party/ARM_CMSIS/CMSIS/DSP/Source/ComplexMathFunctions/arm_cmplx_conj_q31.c **** 
 107:Middlewares/Third_Party/ARM_CMSIS/CMSIS/DSP/Source/ComplexMathFunctions/arm_cmplx_conj_q31.c **** void arm_cmplx_conj_q31(
 108:Middlewares/Third_Party/ARM_CMSIS/CMSIS/DSP/Source/ComplexMathFunctions/arm_cmplx_conj_q31.c ****   const q31_t * pSrc,
 109:Middlewares/Third_Party/ARM_CMSIS/CMSIS/DSP/Source/ComplexMathFunctions/arm_cmplx_conj_q31.c ****         q31_t * pDst,
 110:Middlewares/Third_Party/ARM_CMSIS/CMSIS/DSP/Source/ComplexMathFunctions/arm_cmplx_conj_q31.c ****         uint32_t numSamples)
 111:Middlewares/Third_Party/ARM_CMSIS/CMSIS/DSP/Source/ComplexMathFunctions/arm_cmplx_conj_q31.c **** {
 178              		.loc 3 111 1 is_stmt 1 view -0
 179              		.cfi_startproc
 180              		@ args = 0, pretend = 0, frame = 0
 181              		@ frame_needed = 0, uses_anonymous_args = 0
 182              		@ link register save eliminated.
 112:Middlewares/Third_Party/ARM_CMSIS/CMSIS/DSP/Source/ComplexMathFunctions/arm_cmplx_conj_q31.c ****         uint32_t blkCnt;                               /* Loop counter */
 183              		.loc 3 112 9 view .LVU46
 113:Middlewares/Third_Party/ARM_CMSIS/CMSIS/DSP/Source/ComplexMathFunctions/arm_cmplx_conj_q31.c ****         q31_t in;                                      /* Temporary input variable */
 184              		.loc 3 113 9 view .LVU47
 114:Middlewares/Third_Party/ARM_CMSIS/CMSIS/DSP/Source/ComplexMathFunctions/arm_cmplx_conj_q31.c **** 
 115:Middlewares/Third_Party/ARM_CMSIS/CMSIS/DSP/Source/ComplexMathFunctions/arm_cmplx_conj_q31.c **** #if defined (ARM_MATH_LOOPUNROLL)
 116:Middlewares/Third_Party/ARM_CMSIS/CMSIS/DSP/Source/ComplexMathFunctions/arm_cmplx_conj_q31.c **** 
 117:Middlewares/Third_Party/ARM_CMSIS/CMSIS/DSP/Source/ComplexMathFunctions/arm_cmplx_conj_q31.c ****   /* Loop unrolling: Compute 4 outputs at a time */
 118:Middlewares/Third_Party/ARM_CMSIS/CMSIS/DSP/Source/ComplexMathFunctions/arm_cmplx_conj_q31.c ****   blkCnt = numSamples >> 2U;
 119:Middlewares/Third_Party/ARM_CMSIS/CMSIS/DSP/Source/ComplexMathFunctions/arm_cmplx_conj_q31.c **** 
 120:Middlewares/Third_Party/ARM_CMSIS/CMSIS/DSP/Source/ComplexMathFunctions/arm_cmplx_conj_q31.c ****   while (blkCnt > 0U)
 121:Middlewares/Third_Party/ARM_CMSIS/CMSIS/DSP/Source/ComplexMathFunctions/arm_cmplx_conj_q31.c ****   {
 122:Middlewares/Third_Party/ARM_CMSIS/CMSIS/DSP/Source/ComplexMathFunctions/arm_cmplx_conj_q31.c ****     /* C[0] + jC[1] = A[0]+ j(-1)A[1] */
 123:Middlewares/Third_Party/ARM_CMSIS/CMSIS/DSP/Source/ComplexMathFunctions/arm_cmplx_conj_q31.c **** 
 124:Middlewares/Third_Party/ARM_CMSIS/CMSIS/DSP/Source/ComplexMathFunctions/arm_cmplx_conj_q31.c ****     /* Calculate Complex Conjugate and store result in destination buffer. */
 125:Middlewares/Third_Party/ARM_CMSIS/CMSIS/DSP/Source/ComplexMathFunctions/arm_cmplx_conj_q31.c ****     *pDst++ =  *pSrc++;
 126:Middlewares/Third_Party/ARM_CMSIS/CMSIS/DSP/Source/ComplexMathFunctions/arm_cmplx_conj_q31.c ****     in = *pSrc++;
 127:Middlewares/Third_Party/ARM_CMSIS/CMSIS/DSP/Source/ComplexMathFunctions/arm_cmplx_conj_q31.c **** #if defined (ARM_MATH_DSP)
 128:Middlewares/Third_Party/ARM_CMSIS/CMSIS/DSP/Source/ComplexMathFunctions/arm_cmplx_conj_q31.c ****     *pDst++ = __QSUB(0, in);
 129:Middlewares/Third_Party/ARM_CMSIS/CMSIS/DSP/Source/ComplexMathFunctions/arm_cmplx_conj_q31.c **** #else
 130:Middlewares/Third_Party/ARM_CMSIS/CMSIS/DSP/Source/ComplexMathFunctions/arm_cmplx_conj_q31.c ****     *pDst++ = (in == INT32_MIN) ? INT32_MAX : -in;
 131:Middlewares/Third_Party/ARM_CMSIS/CMSIS/DSP/Source/ComplexMathFunctions/arm_cmplx_conj_q31.c **** #endif
 132:Middlewares/Third_Party/ARM_CMSIS/CMSIS/DSP/Source/ComplexMathFunctions/arm_cmplx_conj_q31.c **** 
 133:Middlewares/Third_Party/ARM_CMSIS/CMSIS/DSP/Source/ComplexMathFunctions/arm_cmplx_conj_q31.c ****     *pDst++ =  *pSrc++;
 134:Middlewares/Third_Party/ARM_CMSIS/CMSIS/DSP/Source/ComplexMathFunctions/arm_cmplx_conj_q31.c ****     in =  *pSrc++;
 135:Middlewares/Third_Party/ARM_CMSIS/CMSIS/DSP/Source/ComplexMathFunctions/arm_cmplx_conj_q31.c **** #if defined (ARM_MATH_DSP)
 136:Middlewares/Third_Party/ARM_CMSIS/CMSIS/DSP/Source/ComplexMathFunctions/arm_cmplx_conj_q31.c ****     *pDst++ = __QSUB(0, in);
 137:Middlewares/Third_Party/ARM_CMSIS/CMSIS/DSP/Source/ComplexMathFunctions/arm_cmplx_conj_q31.c **** #else
 138:Middlewares/Third_Party/ARM_CMSIS/CMSIS/DSP/Source/ComplexMathFunctions/arm_cmplx_conj_q31.c ****     *pDst++ = (in == INT32_MIN) ? INT32_MAX : -in;
 139:Middlewares/Third_Party/ARM_CMSIS/CMSIS/DSP/Source/ComplexMathFunctions/arm_cmplx_conj_q31.c **** #endif
 140:Middlewares/Third_Party/ARM_CMSIS/CMSIS/DSP/Source/ComplexMathFunctions/arm_cmplx_conj_q31.c **** 
 141:Middlewares/Third_Party/ARM_CMSIS/CMSIS/DSP/Source/ComplexMathFunctions/arm_cmplx_conj_q31.c ****     *pDst++ =  *pSrc++;
 142:Middlewares/Third_Party/ARM_CMSIS/CMSIS/DSP/Source/ComplexMathFunctions/arm_cmplx_conj_q31.c ****     in = *pSrc++;
 143:Middlewares/Third_Party/ARM_CMSIS/CMSIS/DSP/Source/ComplexMathFunctions/arm_cmplx_conj_q31.c **** #if defined (ARM_MATH_DSP)
 144:Middlewares/Third_Party/ARM_CMSIS/CMSIS/DSP/Source/ComplexMathFunctions/arm_cmplx_conj_q31.c ****     *pDst++ = __QSUB(0, in);
ARM GAS  C:\Users\7636~1\AppData\Local\Temp\ccloz7r5.s 			page 14


 145:Middlewares/Third_Party/ARM_CMSIS/CMSIS/DSP/Source/ComplexMathFunctions/arm_cmplx_conj_q31.c **** #else
 146:Middlewares/Third_Party/ARM_CMSIS/CMSIS/DSP/Source/ComplexMathFunctions/arm_cmplx_conj_q31.c ****     *pDst++ = (in == INT32_MIN) ? INT32_MAX : -in;
 147:Middlewares/Third_Party/ARM_CMSIS/CMSIS/DSP/Source/ComplexMathFunctions/arm_cmplx_conj_q31.c **** #endif
 148:Middlewares/Third_Party/ARM_CMSIS/CMSIS/DSP/Source/ComplexMathFunctions/arm_cmplx_conj_q31.c **** 
 149:Middlewares/Third_Party/ARM_CMSIS/CMSIS/DSP/Source/ComplexMathFunctions/arm_cmplx_conj_q31.c ****     *pDst++ =  *pSrc++;
 150:Middlewares/Third_Party/ARM_CMSIS/CMSIS/DSP/Source/ComplexMathFunctions/arm_cmplx_conj_q31.c ****     in = *pSrc++;
 151:Middlewares/Third_Party/ARM_CMSIS/CMSIS/DSP/Source/ComplexMathFunctions/arm_cmplx_conj_q31.c **** #if defined (ARM_MATH_DSP)
 152:Middlewares/Third_Party/ARM_CMSIS/CMSIS/DSP/Source/ComplexMathFunctions/arm_cmplx_conj_q31.c ****     *pDst++ = __QSUB(0, in);
 153:Middlewares/Third_Party/ARM_CMSIS/CMSIS/DSP/Source/ComplexMathFunctions/arm_cmplx_conj_q31.c **** #else
 154:Middlewares/Third_Party/ARM_CMSIS/CMSIS/DSP/Source/ComplexMathFunctions/arm_cmplx_conj_q31.c ****     *pDst++ = (in == INT32_MIN) ? INT32_MAX : -in;
 155:Middlewares/Third_Party/ARM_CMSIS/CMSIS/DSP/Source/ComplexMathFunctions/arm_cmplx_conj_q31.c **** #endif
 156:Middlewares/Third_Party/ARM_CMSIS/CMSIS/DSP/Source/ComplexMathFunctions/arm_cmplx_conj_q31.c **** 
 157:Middlewares/Third_Party/ARM_CMSIS/CMSIS/DSP/Source/ComplexMathFunctions/arm_cmplx_conj_q31.c ****     /* Decrement loop counter */
 158:Middlewares/Third_Party/ARM_CMSIS/CMSIS/DSP/Source/ComplexMathFunctions/arm_cmplx_conj_q31.c ****     blkCnt--;
 159:Middlewares/Third_Party/ARM_CMSIS/CMSIS/DSP/Source/ComplexMathFunctions/arm_cmplx_conj_q31.c ****   }
 160:Middlewares/Third_Party/ARM_CMSIS/CMSIS/DSP/Source/ComplexMathFunctions/arm_cmplx_conj_q31.c **** 
 161:Middlewares/Third_Party/ARM_CMSIS/CMSIS/DSP/Source/ComplexMathFunctions/arm_cmplx_conj_q31.c ****   /* Loop unrolling: Compute remaining outputs */
 162:Middlewares/Third_Party/ARM_CMSIS/CMSIS/DSP/Source/ComplexMathFunctions/arm_cmplx_conj_q31.c ****   blkCnt = numSamples % 0x4U;
 163:Middlewares/Third_Party/ARM_CMSIS/CMSIS/DSP/Source/ComplexMathFunctions/arm_cmplx_conj_q31.c **** 
 164:Middlewares/Third_Party/ARM_CMSIS/CMSIS/DSP/Source/ComplexMathFunctions/arm_cmplx_conj_q31.c **** #else
 165:Middlewares/Third_Party/ARM_CMSIS/CMSIS/DSP/Source/ComplexMathFunctions/arm_cmplx_conj_q31.c **** 
 166:Middlewares/Third_Party/ARM_CMSIS/CMSIS/DSP/Source/ComplexMathFunctions/arm_cmplx_conj_q31.c ****   /* Initialize blkCnt with number of samples */
 167:Middlewares/Third_Party/ARM_CMSIS/CMSIS/DSP/Source/ComplexMathFunctions/arm_cmplx_conj_q31.c ****   blkCnt = numSamples;
 185              		.loc 3 167 3 view .LVU48
 168:Middlewares/Third_Party/ARM_CMSIS/CMSIS/DSP/Source/ComplexMathFunctions/arm_cmplx_conj_q31.c **** 
 169:Middlewares/Third_Party/ARM_CMSIS/CMSIS/DSP/Source/ComplexMathFunctions/arm_cmplx_conj_q31.c **** #endif /* #if defined (ARM_MATH_LOOPUNROLL) */
 170:Middlewares/Third_Party/ARM_CMSIS/CMSIS/DSP/Source/ComplexMathFunctions/arm_cmplx_conj_q31.c **** 
 171:Middlewares/Third_Party/ARM_CMSIS/CMSIS/DSP/Source/ComplexMathFunctions/arm_cmplx_conj_q31.c ****   while (blkCnt > 0U)
 186              		.loc 3 171 3 view .LVU49
 187              		.loc 3 171 9 view .LVU50
 188 0000 9AB1     		cbz	r2, .L21
 111:Middlewares/Third_Party/ARM_CMSIS/CMSIS/DSP/Source/ComplexMathFunctions/arm_cmplx_conj_q31.c ****         uint32_t blkCnt;                               /* Loop counter */
 189              		.loc 3 111 1 is_stmt 0 view .LVU51
 190 0002 10B4     		push	{r4}
 191              	.LCFI4:
 192              		.cfi_def_cfa_offset 4
 193              		.cfi_offset 4, -4
 194              	.LVL16:
 195              	.L17:
 172:Middlewares/Third_Party/ARM_CMSIS/CMSIS/DSP/Source/ComplexMathFunctions/arm_cmplx_conj_q31.c ****   {
 173:Middlewares/Third_Party/ARM_CMSIS/CMSIS/DSP/Source/ComplexMathFunctions/arm_cmplx_conj_q31.c ****     /* C[0] + jC[1] = A[0]+ j(-1)A[1] */
 174:Middlewares/Third_Party/ARM_CMSIS/CMSIS/DSP/Source/ComplexMathFunctions/arm_cmplx_conj_q31.c **** 
 175:Middlewares/Third_Party/ARM_CMSIS/CMSIS/DSP/Source/ComplexMathFunctions/arm_cmplx_conj_q31.c ****     /* Calculate Complex Conjugate and store result in destination buffer. */
 176:Middlewares/Third_Party/ARM_CMSIS/CMSIS/DSP/Source/ComplexMathFunctions/arm_cmplx_conj_q31.c ****     *pDst++ =  *pSrc++;
 196              		.loc 3 176 5 is_stmt 1 view .LVU52
 197              		.loc 3 176 16 is_stmt 0 view .LVU53
 198 0004 0346     		mov	r3, r0
 199 0006 53F8084B 		ldr	r4, [r3], #8
 200              		.loc 3 176 13 view .LVU54
 201 000a 8C46     		mov	ip, r1
 202 000c 4CF8084B 		str	r4, [ip], #8
 177:Middlewares/Third_Party/ARM_CMSIS/CMSIS/DSP/Source/ComplexMathFunctions/arm_cmplx_conj_q31.c ****     in = *pSrc++;
 203              		.loc 3 177 5 is_stmt 1 view .LVU55
 204              	.LVL17:
 205              		.loc 3 177 8 is_stmt 0 view .LVU56
 206 0010 4468     		ldr	r4, [r0, #4]
 207              	.LVL18:
ARM GAS  C:\Users\7636~1\AppData\Local\Temp\ccloz7r5.s 			page 15


 178:Middlewares/Third_Party/ARM_CMSIS/CMSIS/DSP/Source/ComplexMathFunctions/arm_cmplx_conj_q31.c **** #if defined (ARM_MATH_DSP)
 179:Middlewares/Third_Party/ARM_CMSIS/CMSIS/DSP/Source/ComplexMathFunctions/arm_cmplx_conj_q31.c ****     *pDst++ = __QSUB(0, in);
 208              		.loc 3 179 5 is_stmt 1 view .LVU57
 209              	.LBB15:
 210              	.LBI15:
 211              		.file 4 "Drivers/CMSIS/Include/cmsis_gcc.h"
   1:Drivers/CMSIS/Include/cmsis_gcc.h **** /**************************************************************************//**
   2:Drivers/CMSIS/Include/cmsis_gcc.h ****  * @file     cmsis_gcc.h
   3:Drivers/CMSIS/Include/cmsis_gcc.h ****  * @brief    CMSIS compiler GCC header file
   4:Drivers/CMSIS/Include/cmsis_gcc.h ****  * @version  V5.0.4
   5:Drivers/CMSIS/Include/cmsis_gcc.h ****  * @date     09. April 2018
   6:Drivers/CMSIS/Include/cmsis_gcc.h ****  ******************************************************************************/
   7:Drivers/CMSIS/Include/cmsis_gcc.h **** /*
   8:Drivers/CMSIS/Include/cmsis_gcc.h ****  * Copyright (c) 2009-2018 Arm Limited. All rights reserved.
   9:Drivers/CMSIS/Include/cmsis_gcc.h ****  *
  10:Drivers/CMSIS/Include/cmsis_gcc.h ****  * SPDX-License-Identifier: Apache-2.0
  11:Drivers/CMSIS/Include/cmsis_gcc.h ****  *
  12:Drivers/CMSIS/Include/cmsis_gcc.h ****  * Licensed under the Apache License, Version 2.0 (the License); you may
  13:Drivers/CMSIS/Include/cmsis_gcc.h ****  * not use this file except in compliance with the License.
  14:Drivers/CMSIS/Include/cmsis_gcc.h ****  * You may obtain a copy of the License at
  15:Drivers/CMSIS/Include/cmsis_gcc.h ****  *
  16:Drivers/CMSIS/Include/cmsis_gcc.h ****  * www.apache.org/licenses/LICENSE-2.0
  17:Drivers/CMSIS/Include/cmsis_gcc.h ****  *
  18:Drivers/CMSIS/Include/cmsis_gcc.h ****  * Unless required by applicable law or agreed to in writing, software
  19:Drivers/CMSIS/Include/cmsis_gcc.h ****  * distributed under the License is distributed on an AS IS BASIS, WITHOUT
  20:Drivers/CMSIS/Include/cmsis_gcc.h ****  * WARRANTIES OR CONDITIONS OF ANY KIND, either express or implied.
  21:Drivers/CMSIS/Include/cmsis_gcc.h ****  * See the License for the specific language governing permissions and
  22:Drivers/CMSIS/Include/cmsis_gcc.h ****  * limitations under the License.
  23:Drivers/CMSIS/Include/cmsis_gcc.h ****  */
  24:Drivers/CMSIS/Include/cmsis_gcc.h **** 
  25:Drivers/CMSIS/Include/cmsis_gcc.h **** #ifndef __CMSIS_GCC_H
  26:Drivers/CMSIS/Include/cmsis_gcc.h **** #define __CMSIS_GCC_H
  27:Drivers/CMSIS/Include/cmsis_gcc.h **** 
  28:Drivers/CMSIS/Include/cmsis_gcc.h **** /* ignore some GCC warnings */
  29:Drivers/CMSIS/Include/cmsis_gcc.h **** #pragma GCC diagnostic push
  30:Drivers/CMSIS/Include/cmsis_gcc.h **** #pragma GCC diagnostic ignored "-Wsign-conversion"
  31:Drivers/CMSIS/Include/cmsis_gcc.h **** #pragma GCC diagnostic ignored "-Wconversion"
  32:Drivers/CMSIS/Include/cmsis_gcc.h **** #pragma GCC diagnostic ignored "-Wunused-parameter"
  33:Drivers/CMSIS/Include/cmsis_gcc.h **** 
  34:Drivers/CMSIS/Include/cmsis_gcc.h **** /* Fallback for __has_builtin */
  35:Drivers/CMSIS/Include/cmsis_gcc.h **** #ifndef __has_builtin
  36:Drivers/CMSIS/Include/cmsis_gcc.h ****   #define __has_builtin(x) (0)
  37:Drivers/CMSIS/Include/cmsis_gcc.h **** #endif
  38:Drivers/CMSIS/Include/cmsis_gcc.h **** 
  39:Drivers/CMSIS/Include/cmsis_gcc.h **** /* CMSIS compiler specific defines */
  40:Drivers/CMSIS/Include/cmsis_gcc.h **** #ifndef   __ASM
  41:Drivers/CMSIS/Include/cmsis_gcc.h ****   #define __ASM                                  __asm
  42:Drivers/CMSIS/Include/cmsis_gcc.h **** #endif
  43:Drivers/CMSIS/Include/cmsis_gcc.h **** #ifndef   __INLINE
  44:Drivers/CMSIS/Include/cmsis_gcc.h ****   #define __INLINE                               inline
  45:Drivers/CMSIS/Include/cmsis_gcc.h **** #endif
  46:Drivers/CMSIS/Include/cmsis_gcc.h **** #ifndef   __STATIC_INLINE
  47:Drivers/CMSIS/Include/cmsis_gcc.h ****   #define __STATIC_INLINE                        static inline
  48:Drivers/CMSIS/Include/cmsis_gcc.h **** #endif
  49:Drivers/CMSIS/Include/cmsis_gcc.h **** #ifndef   __STATIC_FORCEINLINE                 
  50:Drivers/CMSIS/Include/cmsis_gcc.h ****   #define __STATIC_FORCEINLINE                   __attribute__((always_inline)) static inline
  51:Drivers/CMSIS/Include/cmsis_gcc.h **** #endif                                           
ARM GAS  C:\Users\7636~1\AppData\Local\Temp\ccloz7r5.s 			page 16


  52:Drivers/CMSIS/Include/cmsis_gcc.h **** #ifndef   __NO_RETURN
  53:Drivers/CMSIS/Include/cmsis_gcc.h ****   #define __NO_RETURN                            __attribute__((__noreturn__))
  54:Drivers/CMSIS/Include/cmsis_gcc.h **** #endif
  55:Drivers/CMSIS/Include/cmsis_gcc.h **** #ifndef   __USED
  56:Drivers/CMSIS/Include/cmsis_gcc.h ****   #define __USED                                 __attribute__((used))
  57:Drivers/CMSIS/Include/cmsis_gcc.h **** #endif
  58:Drivers/CMSIS/Include/cmsis_gcc.h **** #ifndef   __WEAK
  59:Drivers/CMSIS/Include/cmsis_gcc.h ****   #define __WEAK                                 __attribute__((weak))
  60:Drivers/CMSIS/Include/cmsis_gcc.h **** #endif
  61:Drivers/CMSIS/Include/cmsis_gcc.h **** #ifndef   __PACKED
  62:Drivers/CMSIS/Include/cmsis_gcc.h ****   #define __PACKED                               __attribute__((packed, aligned(1)))
  63:Drivers/CMSIS/Include/cmsis_gcc.h **** #endif
  64:Drivers/CMSIS/Include/cmsis_gcc.h **** #ifndef   __PACKED_STRUCT
  65:Drivers/CMSIS/Include/cmsis_gcc.h ****   #define __PACKED_STRUCT                        struct __attribute__((packed, aligned(1)))
  66:Drivers/CMSIS/Include/cmsis_gcc.h **** #endif
  67:Drivers/CMSIS/Include/cmsis_gcc.h **** #ifndef   __PACKED_UNION
  68:Drivers/CMSIS/Include/cmsis_gcc.h ****   #define __PACKED_UNION                         union __attribute__((packed, aligned(1)))
  69:Drivers/CMSIS/Include/cmsis_gcc.h **** #endif
  70:Drivers/CMSIS/Include/cmsis_gcc.h **** #ifndef   __UNALIGNED_UINT32        /* deprecated */
  71:Drivers/CMSIS/Include/cmsis_gcc.h ****   #pragma GCC diagnostic push
  72:Drivers/CMSIS/Include/cmsis_gcc.h ****   #pragma GCC diagnostic ignored "-Wpacked"
  73:Drivers/CMSIS/Include/cmsis_gcc.h ****   #pragma GCC diagnostic ignored "-Wattributes"
  74:Drivers/CMSIS/Include/cmsis_gcc.h ****   struct __attribute__((packed)) T_UINT32 { uint32_t v; };
  75:Drivers/CMSIS/Include/cmsis_gcc.h ****   #pragma GCC diagnostic pop
  76:Drivers/CMSIS/Include/cmsis_gcc.h ****   #define __UNALIGNED_UINT32(x)                  (((struct T_UINT32 *)(x))->v)
  77:Drivers/CMSIS/Include/cmsis_gcc.h **** #endif
  78:Drivers/CMSIS/Include/cmsis_gcc.h **** #ifndef   __UNALIGNED_UINT16_WRITE
  79:Drivers/CMSIS/Include/cmsis_gcc.h ****   #pragma GCC diagnostic push
  80:Drivers/CMSIS/Include/cmsis_gcc.h ****   #pragma GCC diagnostic ignored "-Wpacked"
  81:Drivers/CMSIS/Include/cmsis_gcc.h ****   #pragma GCC diagnostic ignored "-Wattributes"
  82:Drivers/CMSIS/Include/cmsis_gcc.h ****   __PACKED_STRUCT T_UINT16_WRITE { uint16_t v; };
  83:Drivers/CMSIS/Include/cmsis_gcc.h ****   #pragma GCC diagnostic pop
  84:Drivers/CMSIS/Include/cmsis_gcc.h ****   #define __UNALIGNED_UINT16_WRITE(addr, val)    (void)((((struct T_UINT16_WRITE *)(void *)(addr))-
  85:Drivers/CMSIS/Include/cmsis_gcc.h **** #endif
  86:Drivers/CMSIS/Include/cmsis_gcc.h **** #ifndef   __UNALIGNED_UINT16_READ
  87:Drivers/CMSIS/Include/cmsis_gcc.h ****   #pragma GCC diagnostic push
  88:Drivers/CMSIS/Include/cmsis_gcc.h ****   #pragma GCC diagnostic ignored "-Wpacked"
  89:Drivers/CMSIS/Include/cmsis_gcc.h ****   #pragma GCC diagnostic ignored "-Wattributes"
  90:Drivers/CMSIS/Include/cmsis_gcc.h ****   __PACKED_STRUCT T_UINT16_READ { uint16_t v; };
  91:Drivers/CMSIS/Include/cmsis_gcc.h ****   #pragma GCC diagnostic pop
  92:Drivers/CMSIS/Include/cmsis_gcc.h ****   #define __UNALIGNED_UINT16_READ(addr)          (((const struct T_UINT16_READ *)(const void *)(add
  93:Drivers/CMSIS/Include/cmsis_gcc.h **** #endif
  94:Drivers/CMSIS/Include/cmsis_gcc.h **** #ifndef   __UNALIGNED_UINT32_WRITE
  95:Drivers/CMSIS/Include/cmsis_gcc.h ****   #pragma GCC diagnostic push
  96:Drivers/CMSIS/Include/cmsis_gcc.h ****   #pragma GCC diagnostic ignored "-Wpacked"
  97:Drivers/CMSIS/Include/cmsis_gcc.h ****   #pragma GCC diagnostic ignored "-Wattributes"
  98:Drivers/CMSIS/Include/cmsis_gcc.h ****   __PACKED_STRUCT T_UINT32_WRITE { uint32_t v; };
  99:Drivers/CMSIS/Include/cmsis_gcc.h ****   #pragma GCC diagnostic pop
 100:Drivers/CMSIS/Include/cmsis_gcc.h ****   #define __UNALIGNED_UINT32_WRITE(addr, val)    (void)((((struct T_UINT32_WRITE *)(void *)(addr))-
 101:Drivers/CMSIS/Include/cmsis_gcc.h **** #endif
 102:Drivers/CMSIS/Include/cmsis_gcc.h **** #ifndef   __UNALIGNED_UINT32_READ
 103:Drivers/CMSIS/Include/cmsis_gcc.h ****   #pragma GCC diagnostic push
 104:Drivers/CMSIS/Include/cmsis_gcc.h ****   #pragma GCC diagnostic ignored "-Wpacked"
 105:Drivers/CMSIS/Include/cmsis_gcc.h ****   #pragma GCC diagnostic ignored "-Wattributes"
 106:Drivers/CMSIS/Include/cmsis_gcc.h ****   __PACKED_STRUCT T_UINT32_READ { uint32_t v; };
 107:Drivers/CMSIS/Include/cmsis_gcc.h ****   #pragma GCC diagnostic pop
 108:Drivers/CMSIS/Include/cmsis_gcc.h ****   #define __UNALIGNED_UINT32_READ(addr)          (((const struct T_UINT32_READ *)(const void *)(add
ARM GAS  C:\Users\7636~1\AppData\Local\Temp\ccloz7r5.s 			page 17


 109:Drivers/CMSIS/Include/cmsis_gcc.h **** #endif
 110:Drivers/CMSIS/Include/cmsis_gcc.h **** #ifndef   __ALIGNED
 111:Drivers/CMSIS/Include/cmsis_gcc.h ****   #define __ALIGNED(x)                           __attribute__((aligned(x)))
 112:Drivers/CMSIS/Include/cmsis_gcc.h **** #endif
 113:Drivers/CMSIS/Include/cmsis_gcc.h **** #ifndef   __RESTRICT
 114:Drivers/CMSIS/Include/cmsis_gcc.h ****   #define __RESTRICT                             __restrict
 115:Drivers/CMSIS/Include/cmsis_gcc.h **** #endif
 116:Drivers/CMSIS/Include/cmsis_gcc.h **** 
 117:Drivers/CMSIS/Include/cmsis_gcc.h **** 
 118:Drivers/CMSIS/Include/cmsis_gcc.h **** /* ###########################  Core Function Access  ########################### */
 119:Drivers/CMSIS/Include/cmsis_gcc.h **** /** \ingroup  CMSIS_Core_FunctionInterface
 120:Drivers/CMSIS/Include/cmsis_gcc.h ****     \defgroup CMSIS_Core_RegAccFunctions CMSIS Core Register Access Functions
 121:Drivers/CMSIS/Include/cmsis_gcc.h ****   @{
 122:Drivers/CMSIS/Include/cmsis_gcc.h ****  */
 123:Drivers/CMSIS/Include/cmsis_gcc.h **** 
 124:Drivers/CMSIS/Include/cmsis_gcc.h **** /**
 125:Drivers/CMSIS/Include/cmsis_gcc.h ****   \brief   Enable IRQ Interrupts
 126:Drivers/CMSIS/Include/cmsis_gcc.h ****   \details Enables IRQ interrupts by clearing the I-bit in the CPSR.
 127:Drivers/CMSIS/Include/cmsis_gcc.h ****            Can only be executed in Privileged modes.
 128:Drivers/CMSIS/Include/cmsis_gcc.h ****  */
 129:Drivers/CMSIS/Include/cmsis_gcc.h **** __STATIC_FORCEINLINE void __enable_irq(void)
 130:Drivers/CMSIS/Include/cmsis_gcc.h **** {
 131:Drivers/CMSIS/Include/cmsis_gcc.h ****   __ASM volatile ("cpsie i" : : : "memory");
 132:Drivers/CMSIS/Include/cmsis_gcc.h **** }
 133:Drivers/CMSIS/Include/cmsis_gcc.h **** 
 134:Drivers/CMSIS/Include/cmsis_gcc.h **** 
 135:Drivers/CMSIS/Include/cmsis_gcc.h **** /**
 136:Drivers/CMSIS/Include/cmsis_gcc.h ****   \brief   Disable IRQ Interrupts
 137:Drivers/CMSIS/Include/cmsis_gcc.h ****   \details Disables IRQ interrupts by setting the I-bit in the CPSR.
 138:Drivers/CMSIS/Include/cmsis_gcc.h ****            Can only be executed in Privileged modes.
 139:Drivers/CMSIS/Include/cmsis_gcc.h ****  */
 140:Drivers/CMSIS/Include/cmsis_gcc.h **** __STATIC_FORCEINLINE void __disable_irq(void)
 141:Drivers/CMSIS/Include/cmsis_gcc.h **** {
 142:Drivers/CMSIS/Include/cmsis_gcc.h ****   __ASM volatile ("cpsid i" : : : "memory");
 143:Drivers/CMSIS/Include/cmsis_gcc.h **** }
 144:Drivers/CMSIS/Include/cmsis_gcc.h **** 
 145:Drivers/CMSIS/Include/cmsis_gcc.h **** 
 146:Drivers/CMSIS/Include/cmsis_gcc.h **** /**
 147:Drivers/CMSIS/Include/cmsis_gcc.h ****   \brief   Get Control Register
 148:Drivers/CMSIS/Include/cmsis_gcc.h ****   \details Returns the content of the Control Register.
 149:Drivers/CMSIS/Include/cmsis_gcc.h ****   \return               Control Register value
 150:Drivers/CMSIS/Include/cmsis_gcc.h ****  */
 151:Drivers/CMSIS/Include/cmsis_gcc.h **** __STATIC_FORCEINLINE uint32_t __get_CONTROL(void)
 152:Drivers/CMSIS/Include/cmsis_gcc.h **** {
 153:Drivers/CMSIS/Include/cmsis_gcc.h ****   uint32_t result;
 154:Drivers/CMSIS/Include/cmsis_gcc.h **** 
 155:Drivers/CMSIS/Include/cmsis_gcc.h ****   __ASM volatile ("MRS %0, control" : "=r" (result) );
 156:Drivers/CMSIS/Include/cmsis_gcc.h ****   return(result);
 157:Drivers/CMSIS/Include/cmsis_gcc.h **** }
 158:Drivers/CMSIS/Include/cmsis_gcc.h **** 
 159:Drivers/CMSIS/Include/cmsis_gcc.h **** 
 160:Drivers/CMSIS/Include/cmsis_gcc.h **** #if (defined (__ARM_FEATURE_CMSE ) && (__ARM_FEATURE_CMSE == 3))
 161:Drivers/CMSIS/Include/cmsis_gcc.h **** /**
 162:Drivers/CMSIS/Include/cmsis_gcc.h ****   \brief   Get Control Register (non-secure)
 163:Drivers/CMSIS/Include/cmsis_gcc.h ****   \details Returns the content of the non-secure Control Register when in secure mode.
 164:Drivers/CMSIS/Include/cmsis_gcc.h ****   \return               non-secure Control Register value
 165:Drivers/CMSIS/Include/cmsis_gcc.h ****  */
ARM GAS  C:\Users\7636~1\AppData\Local\Temp\ccloz7r5.s 			page 18


 166:Drivers/CMSIS/Include/cmsis_gcc.h **** __STATIC_FORCEINLINE uint32_t __TZ_get_CONTROL_NS(void)
 167:Drivers/CMSIS/Include/cmsis_gcc.h **** {
 168:Drivers/CMSIS/Include/cmsis_gcc.h ****   uint32_t result;
 169:Drivers/CMSIS/Include/cmsis_gcc.h **** 
 170:Drivers/CMSIS/Include/cmsis_gcc.h ****   __ASM volatile ("MRS %0, control_ns" : "=r" (result) );
 171:Drivers/CMSIS/Include/cmsis_gcc.h ****   return(result);
 172:Drivers/CMSIS/Include/cmsis_gcc.h **** }
 173:Drivers/CMSIS/Include/cmsis_gcc.h **** #endif
 174:Drivers/CMSIS/Include/cmsis_gcc.h **** 
 175:Drivers/CMSIS/Include/cmsis_gcc.h **** 
 176:Drivers/CMSIS/Include/cmsis_gcc.h **** /**
 177:Drivers/CMSIS/Include/cmsis_gcc.h ****   \brief   Set Control Register
 178:Drivers/CMSIS/Include/cmsis_gcc.h ****   \details Writes the given value to the Control Register.
 179:Drivers/CMSIS/Include/cmsis_gcc.h ****   \param [in]    control  Control Register value to set
 180:Drivers/CMSIS/Include/cmsis_gcc.h ****  */
 181:Drivers/CMSIS/Include/cmsis_gcc.h **** __STATIC_FORCEINLINE void __set_CONTROL(uint32_t control)
 182:Drivers/CMSIS/Include/cmsis_gcc.h **** {
 183:Drivers/CMSIS/Include/cmsis_gcc.h ****   __ASM volatile ("MSR control, %0" : : "r" (control) : "memory");
 184:Drivers/CMSIS/Include/cmsis_gcc.h **** }
 185:Drivers/CMSIS/Include/cmsis_gcc.h **** 
 186:Drivers/CMSIS/Include/cmsis_gcc.h **** 
 187:Drivers/CMSIS/Include/cmsis_gcc.h **** #if (defined (__ARM_FEATURE_CMSE ) && (__ARM_FEATURE_CMSE == 3))
 188:Drivers/CMSIS/Include/cmsis_gcc.h **** /**
 189:Drivers/CMSIS/Include/cmsis_gcc.h ****   \brief   Set Control Register (non-secure)
 190:Drivers/CMSIS/Include/cmsis_gcc.h ****   \details Writes the given value to the non-secure Control Register when in secure state.
 191:Drivers/CMSIS/Include/cmsis_gcc.h ****   \param [in]    control  Control Register value to set
 192:Drivers/CMSIS/Include/cmsis_gcc.h ****  */
 193:Drivers/CMSIS/Include/cmsis_gcc.h **** __STATIC_FORCEINLINE void __TZ_set_CONTROL_NS(uint32_t control)
 194:Drivers/CMSIS/Include/cmsis_gcc.h **** {
 195:Drivers/CMSIS/Include/cmsis_gcc.h ****   __ASM volatile ("MSR control_ns, %0" : : "r" (control) : "memory");
 196:Drivers/CMSIS/Include/cmsis_gcc.h **** }
 197:Drivers/CMSIS/Include/cmsis_gcc.h **** #endif
 198:Drivers/CMSIS/Include/cmsis_gcc.h **** 
 199:Drivers/CMSIS/Include/cmsis_gcc.h **** 
 200:Drivers/CMSIS/Include/cmsis_gcc.h **** /**
 201:Drivers/CMSIS/Include/cmsis_gcc.h ****   \brief   Get IPSR Register
 202:Drivers/CMSIS/Include/cmsis_gcc.h ****   \details Returns the content of the IPSR Register.
 203:Drivers/CMSIS/Include/cmsis_gcc.h ****   \return               IPSR Register value
 204:Drivers/CMSIS/Include/cmsis_gcc.h ****  */
 205:Drivers/CMSIS/Include/cmsis_gcc.h **** __STATIC_FORCEINLINE uint32_t __get_IPSR(void)
 206:Drivers/CMSIS/Include/cmsis_gcc.h **** {
 207:Drivers/CMSIS/Include/cmsis_gcc.h ****   uint32_t result;
 208:Drivers/CMSIS/Include/cmsis_gcc.h **** 
 209:Drivers/CMSIS/Include/cmsis_gcc.h ****   __ASM volatile ("MRS %0, ipsr" : "=r" (result) );
 210:Drivers/CMSIS/Include/cmsis_gcc.h ****   return(result);
 211:Drivers/CMSIS/Include/cmsis_gcc.h **** }
 212:Drivers/CMSIS/Include/cmsis_gcc.h **** 
 213:Drivers/CMSIS/Include/cmsis_gcc.h **** 
 214:Drivers/CMSIS/Include/cmsis_gcc.h **** /**
 215:Drivers/CMSIS/Include/cmsis_gcc.h ****   \brief   Get APSR Register
 216:Drivers/CMSIS/Include/cmsis_gcc.h ****   \details Returns the content of the APSR Register.
 217:Drivers/CMSIS/Include/cmsis_gcc.h ****   \return               APSR Register value
 218:Drivers/CMSIS/Include/cmsis_gcc.h ****  */
 219:Drivers/CMSIS/Include/cmsis_gcc.h **** __STATIC_FORCEINLINE uint32_t __get_APSR(void)
 220:Drivers/CMSIS/Include/cmsis_gcc.h **** {
 221:Drivers/CMSIS/Include/cmsis_gcc.h ****   uint32_t result;
 222:Drivers/CMSIS/Include/cmsis_gcc.h **** 
ARM GAS  C:\Users\7636~1\AppData\Local\Temp\ccloz7r5.s 			page 19


 223:Drivers/CMSIS/Include/cmsis_gcc.h ****   __ASM volatile ("MRS %0, apsr" : "=r" (result) );
 224:Drivers/CMSIS/Include/cmsis_gcc.h ****   return(result);
 225:Drivers/CMSIS/Include/cmsis_gcc.h **** }
 226:Drivers/CMSIS/Include/cmsis_gcc.h **** 
 227:Drivers/CMSIS/Include/cmsis_gcc.h **** 
 228:Drivers/CMSIS/Include/cmsis_gcc.h **** /**
 229:Drivers/CMSIS/Include/cmsis_gcc.h ****   \brief   Get xPSR Register
 230:Drivers/CMSIS/Include/cmsis_gcc.h ****   \details Returns the content of the xPSR Register.
 231:Drivers/CMSIS/Include/cmsis_gcc.h ****   \return               xPSR Register value
 232:Drivers/CMSIS/Include/cmsis_gcc.h ****  */
 233:Drivers/CMSIS/Include/cmsis_gcc.h **** __STATIC_FORCEINLINE uint32_t __get_xPSR(void)
 234:Drivers/CMSIS/Include/cmsis_gcc.h **** {
 235:Drivers/CMSIS/Include/cmsis_gcc.h ****   uint32_t result;
 236:Drivers/CMSIS/Include/cmsis_gcc.h **** 
 237:Drivers/CMSIS/Include/cmsis_gcc.h ****   __ASM volatile ("MRS %0, xpsr" : "=r" (result) );
 238:Drivers/CMSIS/Include/cmsis_gcc.h ****   return(result);
 239:Drivers/CMSIS/Include/cmsis_gcc.h **** }
 240:Drivers/CMSIS/Include/cmsis_gcc.h **** 
 241:Drivers/CMSIS/Include/cmsis_gcc.h **** 
 242:Drivers/CMSIS/Include/cmsis_gcc.h **** /**
 243:Drivers/CMSIS/Include/cmsis_gcc.h ****   \brief   Get Process Stack Pointer
 244:Drivers/CMSIS/Include/cmsis_gcc.h ****   \details Returns the current value of the Process Stack Pointer (PSP).
 245:Drivers/CMSIS/Include/cmsis_gcc.h ****   \return               PSP Register value
 246:Drivers/CMSIS/Include/cmsis_gcc.h ****  */
 247:Drivers/CMSIS/Include/cmsis_gcc.h **** __STATIC_FORCEINLINE uint32_t __get_PSP(void)
 248:Drivers/CMSIS/Include/cmsis_gcc.h **** {
 249:Drivers/CMSIS/Include/cmsis_gcc.h ****   uint32_t result;
 250:Drivers/CMSIS/Include/cmsis_gcc.h **** 
 251:Drivers/CMSIS/Include/cmsis_gcc.h ****   __ASM volatile ("MRS %0, psp"  : "=r" (result) );
 252:Drivers/CMSIS/Include/cmsis_gcc.h ****   return(result);
 253:Drivers/CMSIS/Include/cmsis_gcc.h **** }
 254:Drivers/CMSIS/Include/cmsis_gcc.h **** 
 255:Drivers/CMSIS/Include/cmsis_gcc.h **** 
 256:Drivers/CMSIS/Include/cmsis_gcc.h **** #if (defined (__ARM_FEATURE_CMSE ) && (__ARM_FEATURE_CMSE == 3))
 257:Drivers/CMSIS/Include/cmsis_gcc.h **** /**
 258:Drivers/CMSIS/Include/cmsis_gcc.h ****   \brief   Get Process Stack Pointer (non-secure)
 259:Drivers/CMSIS/Include/cmsis_gcc.h ****   \details Returns the current value of the non-secure Process Stack Pointer (PSP) when in secure s
 260:Drivers/CMSIS/Include/cmsis_gcc.h ****   \return               PSP Register value
 261:Drivers/CMSIS/Include/cmsis_gcc.h ****  */
 262:Drivers/CMSIS/Include/cmsis_gcc.h **** __STATIC_FORCEINLINE uint32_t __TZ_get_PSP_NS(void)
 263:Drivers/CMSIS/Include/cmsis_gcc.h **** {
 264:Drivers/CMSIS/Include/cmsis_gcc.h ****   uint32_t result;
 265:Drivers/CMSIS/Include/cmsis_gcc.h **** 
 266:Drivers/CMSIS/Include/cmsis_gcc.h ****   __ASM volatile ("MRS %0, psp_ns"  : "=r" (result) );
 267:Drivers/CMSIS/Include/cmsis_gcc.h ****   return(result);
 268:Drivers/CMSIS/Include/cmsis_gcc.h **** }
 269:Drivers/CMSIS/Include/cmsis_gcc.h **** #endif
 270:Drivers/CMSIS/Include/cmsis_gcc.h **** 
 271:Drivers/CMSIS/Include/cmsis_gcc.h **** 
 272:Drivers/CMSIS/Include/cmsis_gcc.h **** /**
 273:Drivers/CMSIS/Include/cmsis_gcc.h ****   \brief   Set Process Stack Pointer
 274:Drivers/CMSIS/Include/cmsis_gcc.h ****   \details Assigns the given value to the Process Stack Pointer (PSP).
 275:Drivers/CMSIS/Include/cmsis_gcc.h ****   \param [in]    topOfProcStack  Process Stack Pointer value to set
 276:Drivers/CMSIS/Include/cmsis_gcc.h ****  */
 277:Drivers/CMSIS/Include/cmsis_gcc.h **** __STATIC_FORCEINLINE void __set_PSP(uint32_t topOfProcStack)
 278:Drivers/CMSIS/Include/cmsis_gcc.h **** {
 279:Drivers/CMSIS/Include/cmsis_gcc.h ****   __ASM volatile ("MSR psp, %0" : : "r" (topOfProcStack) : );
ARM GAS  C:\Users\7636~1\AppData\Local\Temp\ccloz7r5.s 			page 20


 280:Drivers/CMSIS/Include/cmsis_gcc.h **** }
 281:Drivers/CMSIS/Include/cmsis_gcc.h **** 
 282:Drivers/CMSIS/Include/cmsis_gcc.h **** 
 283:Drivers/CMSIS/Include/cmsis_gcc.h **** #if (defined (__ARM_FEATURE_CMSE ) && (__ARM_FEATURE_CMSE == 3))
 284:Drivers/CMSIS/Include/cmsis_gcc.h **** /**
 285:Drivers/CMSIS/Include/cmsis_gcc.h ****   \brief   Set Process Stack Pointer (non-secure)
 286:Drivers/CMSIS/Include/cmsis_gcc.h ****   \details Assigns the given value to the non-secure Process Stack Pointer (PSP) when in secure sta
 287:Drivers/CMSIS/Include/cmsis_gcc.h ****   \param [in]    topOfProcStack  Process Stack Pointer value to set
 288:Drivers/CMSIS/Include/cmsis_gcc.h ****  */
 289:Drivers/CMSIS/Include/cmsis_gcc.h **** __STATIC_FORCEINLINE void __TZ_set_PSP_NS(uint32_t topOfProcStack)
 290:Drivers/CMSIS/Include/cmsis_gcc.h **** {
 291:Drivers/CMSIS/Include/cmsis_gcc.h ****   __ASM volatile ("MSR psp_ns, %0" : : "r" (topOfProcStack) : );
 292:Drivers/CMSIS/Include/cmsis_gcc.h **** }
 293:Drivers/CMSIS/Include/cmsis_gcc.h **** #endif
 294:Drivers/CMSIS/Include/cmsis_gcc.h **** 
 295:Drivers/CMSIS/Include/cmsis_gcc.h **** 
 296:Drivers/CMSIS/Include/cmsis_gcc.h **** /**
 297:Drivers/CMSIS/Include/cmsis_gcc.h ****   \brief   Get Main Stack Pointer
 298:Drivers/CMSIS/Include/cmsis_gcc.h ****   \details Returns the current value of the Main Stack Pointer (MSP).
 299:Drivers/CMSIS/Include/cmsis_gcc.h ****   \return               MSP Register value
 300:Drivers/CMSIS/Include/cmsis_gcc.h ****  */
 301:Drivers/CMSIS/Include/cmsis_gcc.h **** __STATIC_FORCEINLINE uint32_t __get_MSP(void)
 302:Drivers/CMSIS/Include/cmsis_gcc.h **** {
 303:Drivers/CMSIS/Include/cmsis_gcc.h ****   uint32_t result;
 304:Drivers/CMSIS/Include/cmsis_gcc.h **** 
 305:Drivers/CMSIS/Include/cmsis_gcc.h ****   __ASM volatile ("MRS %0, msp" : "=r" (result) );
 306:Drivers/CMSIS/Include/cmsis_gcc.h ****   return(result);
 307:Drivers/CMSIS/Include/cmsis_gcc.h **** }
 308:Drivers/CMSIS/Include/cmsis_gcc.h **** 
 309:Drivers/CMSIS/Include/cmsis_gcc.h **** 
 310:Drivers/CMSIS/Include/cmsis_gcc.h **** #if (defined (__ARM_FEATURE_CMSE ) && (__ARM_FEATURE_CMSE == 3))
 311:Drivers/CMSIS/Include/cmsis_gcc.h **** /**
 312:Drivers/CMSIS/Include/cmsis_gcc.h ****   \brief   Get Main Stack Pointer (non-secure)
 313:Drivers/CMSIS/Include/cmsis_gcc.h ****   \details Returns the current value of the non-secure Main Stack Pointer (MSP) when in secure stat
 314:Drivers/CMSIS/Include/cmsis_gcc.h ****   \return               MSP Register value
 315:Drivers/CMSIS/Include/cmsis_gcc.h ****  */
 316:Drivers/CMSIS/Include/cmsis_gcc.h **** __STATIC_FORCEINLINE uint32_t __TZ_get_MSP_NS(void)
 317:Drivers/CMSIS/Include/cmsis_gcc.h **** {
 318:Drivers/CMSIS/Include/cmsis_gcc.h ****   uint32_t result;
 319:Drivers/CMSIS/Include/cmsis_gcc.h **** 
 320:Drivers/CMSIS/Include/cmsis_gcc.h ****   __ASM volatile ("MRS %0, msp_ns" : "=r" (result) );
 321:Drivers/CMSIS/Include/cmsis_gcc.h ****   return(result);
 322:Drivers/CMSIS/Include/cmsis_gcc.h **** }
 323:Drivers/CMSIS/Include/cmsis_gcc.h **** #endif
 324:Drivers/CMSIS/Include/cmsis_gcc.h **** 
 325:Drivers/CMSIS/Include/cmsis_gcc.h **** 
 326:Drivers/CMSIS/Include/cmsis_gcc.h **** /**
 327:Drivers/CMSIS/Include/cmsis_gcc.h ****   \brief   Set Main Stack Pointer
 328:Drivers/CMSIS/Include/cmsis_gcc.h ****   \details Assigns the given value to the Main Stack Pointer (MSP).
 329:Drivers/CMSIS/Include/cmsis_gcc.h ****   \param [in]    topOfMainStack  Main Stack Pointer value to set
 330:Drivers/CMSIS/Include/cmsis_gcc.h ****  */
 331:Drivers/CMSIS/Include/cmsis_gcc.h **** __STATIC_FORCEINLINE void __set_MSP(uint32_t topOfMainStack)
 332:Drivers/CMSIS/Include/cmsis_gcc.h **** {
 333:Drivers/CMSIS/Include/cmsis_gcc.h ****   __ASM volatile ("MSR msp, %0" : : "r" (topOfMainStack) : );
 334:Drivers/CMSIS/Include/cmsis_gcc.h **** }
 335:Drivers/CMSIS/Include/cmsis_gcc.h **** 
 336:Drivers/CMSIS/Include/cmsis_gcc.h **** 
ARM GAS  C:\Users\7636~1\AppData\Local\Temp\ccloz7r5.s 			page 21


 337:Drivers/CMSIS/Include/cmsis_gcc.h **** #if (defined (__ARM_FEATURE_CMSE ) && (__ARM_FEATURE_CMSE == 3))
 338:Drivers/CMSIS/Include/cmsis_gcc.h **** /**
 339:Drivers/CMSIS/Include/cmsis_gcc.h ****   \brief   Set Main Stack Pointer (non-secure)
 340:Drivers/CMSIS/Include/cmsis_gcc.h ****   \details Assigns the given value to the non-secure Main Stack Pointer (MSP) when in secure state.
 341:Drivers/CMSIS/Include/cmsis_gcc.h ****   \param [in]    topOfMainStack  Main Stack Pointer value to set
 342:Drivers/CMSIS/Include/cmsis_gcc.h ****  */
 343:Drivers/CMSIS/Include/cmsis_gcc.h **** __STATIC_FORCEINLINE void __TZ_set_MSP_NS(uint32_t topOfMainStack)
 344:Drivers/CMSIS/Include/cmsis_gcc.h **** {
 345:Drivers/CMSIS/Include/cmsis_gcc.h ****   __ASM volatile ("MSR msp_ns, %0" : : "r" (topOfMainStack) : );
 346:Drivers/CMSIS/Include/cmsis_gcc.h **** }
 347:Drivers/CMSIS/Include/cmsis_gcc.h **** #endif
 348:Drivers/CMSIS/Include/cmsis_gcc.h **** 
 349:Drivers/CMSIS/Include/cmsis_gcc.h **** 
 350:Drivers/CMSIS/Include/cmsis_gcc.h **** #if (defined (__ARM_FEATURE_CMSE ) && (__ARM_FEATURE_CMSE == 3))
 351:Drivers/CMSIS/Include/cmsis_gcc.h **** /**
 352:Drivers/CMSIS/Include/cmsis_gcc.h ****   \brief   Get Stack Pointer (non-secure)
 353:Drivers/CMSIS/Include/cmsis_gcc.h ****   \details Returns the current value of the non-secure Stack Pointer (SP) when in secure state.
 354:Drivers/CMSIS/Include/cmsis_gcc.h ****   \return               SP Register value
 355:Drivers/CMSIS/Include/cmsis_gcc.h ****  */
 356:Drivers/CMSIS/Include/cmsis_gcc.h **** __STATIC_FORCEINLINE uint32_t __TZ_get_SP_NS(void)
 357:Drivers/CMSIS/Include/cmsis_gcc.h **** {
 358:Drivers/CMSIS/Include/cmsis_gcc.h ****   uint32_t result;
 359:Drivers/CMSIS/Include/cmsis_gcc.h **** 
 360:Drivers/CMSIS/Include/cmsis_gcc.h ****   __ASM volatile ("MRS %0, sp_ns" : "=r" (result) );
 361:Drivers/CMSIS/Include/cmsis_gcc.h ****   return(result);
 362:Drivers/CMSIS/Include/cmsis_gcc.h **** }
 363:Drivers/CMSIS/Include/cmsis_gcc.h **** 
 364:Drivers/CMSIS/Include/cmsis_gcc.h **** 
 365:Drivers/CMSIS/Include/cmsis_gcc.h **** /**
 366:Drivers/CMSIS/Include/cmsis_gcc.h ****   \brief   Set Stack Pointer (non-secure)
 367:Drivers/CMSIS/Include/cmsis_gcc.h ****   \details Assigns the given value to the non-secure Stack Pointer (SP) when in secure state.
 368:Drivers/CMSIS/Include/cmsis_gcc.h ****   \param [in]    topOfStack  Stack Pointer value to set
 369:Drivers/CMSIS/Include/cmsis_gcc.h ****  */
 370:Drivers/CMSIS/Include/cmsis_gcc.h **** __STATIC_FORCEINLINE void __TZ_set_SP_NS(uint32_t topOfStack)
 371:Drivers/CMSIS/Include/cmsis_gcc.h **** {
 372:Drivers/CMSIS/Include/cmsis_gcc.h ****   __ASM volatile ("MSR sp_ns, %0" : : "r" (topOfStack) : );
 373:Drivers/CMSIS/Include/cmsis_gcc.h **** }
 374:Drivers/CMSIS/Include/cmsis_gcc.h **** #endif
 375:Drivers/CMSIS/Include/cmsis_gcc.h **** 
 376:Drivers/CMSIS/Include/cmsis_gcc.h **** 
 377:Drivers/CMSIS/Include/cmsis_gcc.h **** /**
 378:Drivers/CMSIS/Include/cmsis_gcc.h ****   \brief   Get Priority Mask
 379:Drivers/CMSIS/Include/cmsis_gcc.h ****   \details Returns the current state of the priority mask bit from the Priority Mask Register.
 380:Drivers/CMSIS/Include/cmsis_gcc.h ****   \return               Priority Mask value
 381:Drivers/CMSIS/Include/cmsis_gcc.h ****  */
 382:Drivers/CMSIS/Include/cmsis_gcc.h **** __STATIC_FORCEINLINE uint32_t __get_PRIMASK(void)
 383:Drivers/CMSIS/Include/cmsis_gcc.h **** {
 384:Drivers/CMSIS/Include/cmsis_gcc.h ****   uint32_t result;
 385:Drivers/CMSIS/Include/cmsis_gcc.h **** 
 386:Drivers/CMSIS/Include/cmsis_gcc.h ****   __ASM volatile ("MRS %0, primask" : "=r" (result) :: "memory");
 387:Drivers/CMSIS/Include/cmsis_gcc.h ****   return(result);
 388:Drivers/CMSIS/Include/cmsis_gcc.h **** }
 389:Drivers/CMSIS/Include/cmsis_gcc.h **** 
 390:Drivers/CMSIS/Include/cmsis_gcc.h **** 
 391:Drivers/CMSIS/Include/cmsis_gcc.h **** #if (defined (__ARM_FEATURE_CMSE ) && (__ARM_FEATURE_CMSE == 3))
 392:Drivers/CMSIS/Include/cmsis_gcc.h **** /**
 393:Drivers/CMSIS/Include/cmsis_gcc.h ****   \brief   Get Priority Mask (non-secure)
ARM GAS  C:\Users\7636~1\AppData\Local\Temp\ccloz7r5.s 			page 22


 394:Drivers/CMSIS/Include/cmsis_gcc.h ****   \details Returns the current state of the non-secure priority mask bit from the Priority Mask Reg
 395:Drivers/CMSIS/Include/cmsis_gcc.h ****   \return               Priority Mask value
 396:Drivers/CMSIS/Include/cmsis_gcc.h ****  */
 397:Drivers/CMSIS/Include/cmsis_gcc.h **** __STATIC_FORCEINLINE uint32_t __TZ_get_PRIMASK_NS(void)
 398:Drivers/CMSIS/Include/cmsis_gcc.h **** {
 399:Drivers/CMSIS/Include/cmsis_gcc.h ****   uint32_t result;
 400:Drivers/CMSIS/Include/cmsis_gcc.h **** 
 401:Drivers/CMSIS/Include/cmsis_gcc.h ****   __ASM volatile ("MRS %0, primask_ns" : "=r" (result) :: "memory");
 402:Drivers/CMSIS/Include/cmsis_gcc.h ****   return(result);
 403:Drivers/CMSIS/Include/cmsis_gcc.h **** }
 404:Drivers/CMSIS/Include/cmsis_gcc.h **** #endif
 405:Drivers/CMSIS/Include/cmsis_gcc.h **** 
 406:Drivers/CMSIS/Include/cmsis_gcc.h **** 
 407:Drivers/CMSIS/Include/cmsis_gcc.h **** /**
 408:Drivers/CMSIS/Include/cmsis_gcc.h ****   \brief   Set Priority Mask
 409:Drivers/CMSIS/Include/cmsis_gcc.h ****   \details Assigns the given value to the Priority Mask Register.
 410:Drivers/CMSIS/Include/cmsis_gcc.h ****   \param [in]    priMask  Priority Mask
 411:Drivers/CMSIS/Include/cmsis_gcc.h ****  */
 412:Drivers/CMSIS/Include/cmsis_gcc.h **** __STATIC_FORCEINLINE void __set_PRIMASK(uint32_t priMask)
 413:Drivers/CMSIS/Include/cmsis_gcc.h **** {
 414:Drivers/CMSIS/Include/cmsis_gcc.h ****   __ASM volatile ("MSR primask, %0" : : "r" (priMask) : "memory");
 415:Drivers/CMSIS/Include/cmsis_gcc.h **** }
 416:Drivers/CMSIS/Include/cmsis_gcc.h **** 
 417:Drivers/CMSIS/Include/cmsis_gcc.h **** 
 418:Drivers/CMSIS/Include/cmsis_gcc.h **** #if (defined (__ARM_FEATURE_CMSE ) && (__ARM_FEATURE_CMSE == 3))
 419:Drivers/CMSIS/Include/cmsis_gcc.h **** /**
 420:Drivers/CMSIS/Include/cmsis_gcc.h ****   \brief   Set Priority Mask (non-secure)
 421:Drivers/CMSIS/Include/cmsis_gcc.h ****   \details Assigns the given value to the non-secure Priority Mask Register when in secure state.
 422:Drivers/CMSIS/Include/cmsis_gcc.h ****   \param [in]    priMask  Priority Mask
 423:Drivers/CMSIS/Include/cmsis_gcc.h ****  */
 424:Drivers/CMSIS/Include/cmsis_gcc.h **** __STATIC_FORCEINLINE void __TZ_set_PRIMASK_NS(uint32_t priMask)
 425:Drivers/CMSIS/Include/cmsis_gcc.h **** {
 426:Drivers/CMSIS/Include/cmsis_gcc.h ****   __ASM volatile ("MSR primask_ns, %0" : : "r" (priMask) : "memory");
 427:Drivers/CMSIS/Include/cmsis_gcc.h **** }
 428:Drivers/CMSIS/Include/cmsis_gcc.h **** #endif
 429:Drivers/CMSIS/Include/cmsis_gcc.h **** 
 430:Drivers/CMSIS/Include/cmsis_gcc.h **** 
 431:Drivers/CMSIS/Include/cmsis_gcc.h **** #if ((defined (__ARM_ARCH_7M__      ) && (__ARM_ARCH_7M__      == 1)) || \
 432:Drivers/CMSIS/Include/cmsis_gcc.h ****      (defined (__ARM_ARCH_7EM__     ) && (__ARM_ARCH_7EM__     == 1)) || \
 433:Drivers/CMSIS/Include/cmsis_gcc.h ****      (defined (__ARM_ARCH_8M_MAIN__ ) && (__ARM_ARCH_8M_MAIN__ == 1))    )
 434:Drivers/CMSIS/Include/cmsis_gcc.h **** /**
 435:Drivers/CMSIS/Include/cmsis_gcc.h ****   \brief   Enable FIQ
 436:Drivers/CMSIS/Include/cmsis_gcc.h ****   \details Enables FIQ interrupts by clearing the F-bit in the CPSR.
 437:Drivers/CMSIS/Include/cmsis_gcc.h ****            Can only be executed in Privileged modes.
 438:Drivers/CMSIS/Include/cmsis_gcc.h ****  */
 439:Drivers/CMSIS/Include/cmsis_gcc.h **** __STATIC_FORCEINLINE void __enable_fault_irq(void)
 440:Drivers/CMSIS/Include/cmsis_gcc.h **** {
 441:Drivers/CMSIS/Include/cmsis_gcc.h ****   __ASM volatile ("cpsie f" : : : "memory");
 442:Drivers/CMSIS/Include/cmsis_gcc.h **** }
 443:Drivers/CMSIS/Include/cmsis_gcc.h **** 
 444:Drivers/CMSIS/Include/cmsis_gcc.h **** 
 445:Drivers/CMSIS/Include/cmsis_gcc.h **** /**
 446:Drivers/CMSIS/Include/cmsis_gcc.h ****   \brief   Disable FIQ
 447:Drivers/CMSIS/Include/cmsis_gcc.h ****   \details Disables FIQ interrupts by setting the F-bit in the CPSR.
 448:Drivers/CMSIS/Include/cmsis_gcc.h ****            Can only be executed in Privileged modes.
 449:Drivers/CMSIS/Include/cmsis_gcc.h ****  */
 450:Drivers/CMSIS/Include/cmsis_gcc.h **** __STATIC_FORCEINLINE void __disable_fault_irq(void)
ARM GAS  C:\Users\7636~1\AppData\Local\Temp\ccloz7r5.s 			page 23


 451:Drivers/CMSIS/Include/cmsis_gcc.h **** {
 452:Drivers/CMSIS/Include/cmsis_gcc.h ****   __ASM volatile ("cpsid f" : : : "memory");
 453:Drivers/CMSIS/Include/cmsis_gcc.h **** }
 454:Drivers/CMSIS/Include/cmsis_gcc.h **** 
 455:Drivers/CMSIS/Include/cmsis_gcc.h **** 
 456:Drivers/CMSIS/Include/cmsis_gcc.h **** /**
 457:Drivers/CMSIS/Include/cmsis_gcc.h ****   \brief   Get Base Priority
 458:Drivers/CMSIS/Include/cmsis_gcc.h ****   \details Returns the current value of the Base Priority register.
 459:Drivers/CMSIS/Include/cmsis_gcc.h ****   \return               Base Priority register value
 460:Drivers/CMSIS/Include/cmsis_gcc.h ****  */
 461:Drivers/CMSIS/Include/cmsis_gcc.h **** __STATIC_FORCEINLINE uint32_t __get_BASEPRI(void)
 462:Drivers/CMSIS/Include/cmsis_gcc.h **** {
 463:Drivers/CMSIS/Include/cmsis_gcc.h ****   uint32_t result;
 464:Drivers/CMSIS/Include/cmsis_gcc.h **** 
 465:Drivers/CMSIS/Include/cmsis_gcc.h ****   __ASM volatile ("MRS %0, basepri" : "=r" (result) );
 466:Drivers/CMSIS/Include/cmsis_gcc.h ****   return(result);
 467:Drivers/CMSIS/Include/cmsis_gcc.h **** }
 468:Drivers/CMSIS/Include/cmsis_gcc.h **** 
 469:Drivers/CMSIS/Include/cmsis_gcc.h **** 
 470:Drivers/CMSIS/Include/cmsis_gcc.h **** #if (defined (__ARM_FEATURE_CMSE ) && (__ARM_FEATURE_CMSE == 3))
 471:Drivers/CMSIS/Include/cmsis_gcc.h **** /**
 472:Drivers/CMSIS/Include/cmsis_gcc.h ****   \brief   Get Base Priority (non-secure)
 473:Drivers/CMSIS/Include/cmsis_gcc.h ****   \details Returns the current value of the non-secure Base Priority register when in secure state.
 474:Drivers/CMSIS/Include/cmsis_gcc.h ****   \return               Base Priority register value
 475:Drivers/CMSIS/Include/cmsis_gcc.h ****  */
 476:Drivers/CMSIS/Include/cmsis_gcc.h **** __STATIC_FORCEINLINE uint32_t __TZ_get_BASEPRI_NS(void)
 477:Drivers/CMSIS/Include/cmsis_gcc.h **** {
 478:Drivers/CMSIS/Include/cmsis_gcc.h ****   uint32_t result;
 479:Drivers/CMSIS/Include/cmsis_gcc.h **** 
 480:Drivers/CMSIS/Include/cmsis_gcc.h ****   __ASM volatile ("MRS %0, basepri_ns" : "=r" (result) );
 481:Drivers/CMSIS/Include/cmsis_gcc.h ****   return(result);
 482:Drivers/CMSIS/Include/cmsis_gcc.h **** }
 483:Drivers/CMSIS/Include/cmsis_gcc.h **** #endif
 484:Drivers/CMSIS/Include/cmsis_gcc.h **** 
 485:Drivers/CMSIS/Include/cmsis_gcc.h **** 
 486:Drivers/CMSIS/Include/cmsis_gcc.h **** /**
 487:Drivers/CMSIS/Include/cmsis_gcc.h ****   \brief   Set Base Priority
 488:Drivers/CMSIS/Include/cmsis_gcc.h ****   \details Assigns the given value to the Base Priority register.
 489:Drivers/CMSIS/Include/cmsis_gcc.h ****   \param [in]    basePri  Base Priority value to set
 490:Drivers/CMSIS/Include/cmsis_gcc.h ****  */
 491:Drivers/CMSIS/Include/cmsis_gcc.h **** __STATIC_FORCEINLINE void __set_BASEPRI(uint32_t basePri)
 492:Drivers/CMSIS/Include/cmsis_gcc.h **** {
 493:Drivers/CMSIS/Include/cmsis_gcc.h ****   __ASM volatile ("MSR basepri, %0" : : "r" (basePri) : "memory");
 494:Drivers/CMSIS/Include/cmsis_gcc.h **** }
 495:Drivers/CMSIS/Include/cmsis_gcc.h **** 
 496:Drivers/CMSIS/Include/cmsis_gcc.h **** 
 497:Drivers/CMSIS/Include/cmsis_gcc.h **** #if (defined (__ARM_FEATURE_CMSE ) && (__ARM_FEATURE_CMSE == 3))
 498:Drivers/CMSIS/Include/cmsis_gcc.h **** /**
 499:Drivers/CMSIS/Include/cmsis_gcc.h ****   \brief   Set Base Priority (non-secure)
 500:Drivers/CMSIS/Include/cmsis_gcc.h ****   \details Assigns the given value to the non-secure Base Priority register when in secure state.
 501:Drivers/CMSIS/Include/cmsis_gcc.h ****   \param [in]    basePri  Base Priority value to set
 502:Drivers/CMSIS/Include/cmsis_gcc.h ****  */
 503:Drivers/CMSIS/Include/cmsis_gcc.h **** __STATIC_FORCEINLINE void __TZ_set_BASEPRI_NS(uint32_t basePri)
 504:Drivers/CMSIS/Include/cmsis_gcc.h **** {
 505:Drivers/CMSIS/Include/cmsis_gcc.h ****   __ASM volatile ("MSR basepri_ns, %0" : : "r" (basePri) : "memory");
 506:Drivers/CMSIS/Include/cmsis_gcc.h **** }
 507:Drivers/CMSIS/Include/cmsis_gcc.h **** #endif
ARM GAS  C:\Users\7636~1\AppData\Local\Temp\ccloz7r5.s 			page 24


 508:Drivers/CMSIS/Include/cmsis_gcc.h **** 
 509:Drivers/CMSIS/Include/cmsis_gcc.h **** 
 510:Drivers/CMSIS/Include/cmsis_gcc.h **** /**
 511:Drivers/CMSIS/Include/cmsis_gcc.h ****   \brief   Set Base Priority with condition
 512:Drivers/CMSIS/Include/cmsis_gcc.h ****   \details Assigns the given value to the Base Priority register only if BASEPRI masking is disable
 513:Drivers/CMSIS/Include/cmsis_gcc.h ****            or the new value increases the BASEPRI priority level.
 514:Drivers/CMSIS/Include/cmsis_gcc.h ****   \param [in]    basePri  Base Priority value to set
 515:Drivers/CMSIS/Include/cmsis_gcc.h ****  */
 516:Drivers/CMSIS/Include/cmsis_gcc.h **** __STATIC_FORCEINLINE void __set_BASEPRI_MAX(uint32_t basePri)
 517:Drivers/CMSIS/Include/cmsis_gcc.h **** {
 518:Drivers/CMSIS/Include/cmsis_gcc.h ****   __ASM volatile ("MSR basepri_max, %0" : : "r" (basePri) : "memory");
 519:Drivers/CMSIS/Include/cmsis_gcc.h **** }
 520:Drivers/CMSIS/Include/cmsis_gcc.h **** 
 521:Drivers/CMSIS/Include/cmsis_gcc.h **** 
 522:Drivers/CMSIS/Include/cmsis_gcc.h **** /**
 523:Drivers/CMSIS/Include/cmsis_gcc.h ****   \brief   Get Fault Mask
 524:Drivers/CMSIS/Include/cmsis_gcc.h ****   \details Returns the current value of the Fault Mask register.
 525:Drivers/CMSIS/Include/cmsis_gcc.h ****   \return               Fault Mask register value
 526:Drivers/CMSIS/Include/cmsis_gcc.h ****  */
 527:Drivers/CMSIS/Include/cmsis_gcc.h **** __STATIC_FORCEINLINE uint32_t __get_FAULTMASK(void)
 528:Drivers/CMSIS/Include/cmsis_gcc.h **** {
 529:Drivers/CMSIS/Include/cmsis_gcc.h ****   uint32_t result;
 530:Drivers/CMSIS/Include/cmsis_gcc.h **** 
 531:Drivers/CMSIS/Include/cmsis_gcc.h ****   __ASM volatile ("MRS %0, faultmask" : "=r" (result) );
 532:Drivers/CMSIS/Include/cmsis_gcc.h ****   return(result);
 533:Drivers/CMSIS/Include/cmsis_gcc.h **** }
 534:Drivers/CMSIS/Include/cmsis_gcc.h **** 
 535:Drivers/CMSIS/Include/cmsis_gcc.h **** 
 536:Drivers/CMSIS/Include/cmsis_gcc.h **** #if (defined (__ARM_FEATURE_CMSE ) && (__ARM_FEATURE_CMSE == 3))
 537:Drivers/CMSIS/Include/cmsis_gcc.h **** /**
 538:Drivers/CMSIS/Include/cmsis_gcc.h ****   \brief   Get Fault Mask (non-secure)
 539:Drivers/CMSIS/Include/cmsis_gcc.h ****   \details Returns the current value of the non-secure Fault Mask register when in secure state.
 540:Drivers/CMSIS/Include/cmsis_gcc.h ****   \return               Fault Mask register value
 541:Drivers/CMSIS/Include/cmsis_gcc.h ****  */
 542:Drivers/CMSIS/Include/cmsis_gcc.h **** __STATIC_FORCEINLINE uint32_t __TZ_get_FAULTMASK_NS(void)
 543:Drivers/CMSIS/Include/cmsis_gcc.h **** {
 544:Drivers/CMSIS/Include/cmsis_gcc.h ****   uint32_t result;
 545:Drivers/CMSIS/Include/cmsis_gcc.h **** 
 546:Drivers/CMSIS/Include/cmsis_gcc.h ****   __ASM volatile ("MRS %0, faultmask_ns" : "=r" (result) );
 547:Drivers/CMSIS/Include/cmsis_gcc.h ****   return(result);
 548:Drivers/CMSIS/Include/cmsis_gcc.h **** }
 549:Drivers/CMSIS/Include/cmsis_gcc.h **** #endif
 550:Drivers/CMSIS/Include/cmsis_gcc.h **** 
 551:Drivers/CMSIS/Include/cmsis_gcc.h **** 
 552:Drivers/CMSIS/Include/cmsis_gcc.h **** /**
 553:Drivers/CMSIS/Include/cmsis_gcc.h ****   \brief   Set Fault Mask
 554:Drivers/CMSIS/Include/cmsis_gcc.h ****   \details Assigns the given value to the Fault Mask register.
 555:Drivers/CMSIS/Include/cmsis_gcc.h ****   \param [in]    faultMask  Fault Mask value to set
 556:Drivers/CMSIS/Include/cmsis_gcc.h ****  */
 557:Drivers/CMSIS/Include/cmsis_gcc.h **** __STATIC_FORCEINLINE void __set_FAULTMASK(uint32_t faultMask)
 558:Drivers/CMSIS/Include/cmsis_gcc.h **** {
 559:Drivers/CMSIS/Include/cmsis_gcc.h ****   __ASM volatile ("MSR faultmask, %0" : : "r" (faultMask) : "memory");
 560:Drivers/CMSIS/Include/cmsis_gcc.h **** }
 561:Drivers/CMSIS/Include/cmsis_gcc.h **** 
 562:Drivers/CMSIS/Include/cmsis_gcc.h **** 
 563:Drivers/CMSIS/Include/cmsis_gcc.h **** #if (defined (__ARM_FEATURE_CMSE ) && (__ARM_FEATURE_CMSE == 3))
 564:Drivers/CMSIS/Include/cmsis_gcc.h **** /**
ARM GAS  C:\Users\7636~1\AppData\Local\Temp\ccloz7r5.s 			page 25


 565:Drivers/CMSIS/Include/cmsis_gcc.h ****   \brief   Set Fault Mask (non-secure)
 566:Drivers/CMSIS/Include/cmsis_gcc.h ****   \details Assigns the given value to the non-secure Fault Mask register when in secure state.
 567:Drivers/CMSIS/Include/cmsis_gcc.h ****   \param [in]    faultMask  Fault Mask value to set
 568:Drivers/CMSIS/Include/cmsis_gcc.h ****  */
 569:Drivers/CMSIS/Include/cmsis_gcc.h **** __STATIC_FORCEINLINE void __TZ_set_FAULTMASK_NS(uint32_t faultMask)
 570:Drivers/CMSIS/Include/cmsis_gcc.h **** {
 571:Drivers/CMSIS/Include/cmsis_gcc.h ****   __ASM volatile ("MSR faultmask_ns, %0" : : "r" (faultMask) : "memory");
 572:Drivers/CMSIS/Include/cmsis_gcc.h **** }
 573:Drivers/CMSIS/Include/cmsis_gcc.h **** #endif
 574:Drivers/CMSIS/Include/cmsis_gcc.h **** 
 575:Drivers/CMSIS/Include/cmsis_gcc.h **** #endif /* ((defined (__ARM_ARCH_7M__      ) && (__ARM_ARCH_7M__      == 1)) || \
 576:Drivers/CMSIS/Include/cmsis_gcc.h ****            (defined (__ARM_ARCH_7EM__     ) && (__ARM_ARCH_7EM__     == 1)) || \
 577:Drivers/CMSIS/Include/cmsis_gcc.h ****            (defined (__ARM_ARCH_8M_MAIN__ ) && (__ARM_ARCH_8M_MAIN__ == 1))    ) */
 578:Drivers/CMSIS/Include/cmsis_gcc.h **** 
 579:Drivers/CMSIS/Include/cmsis_gcc.h **** 
 580:Drivers/CMSIS/Include/cmsis_gcc.h **** #if ((defined (__ARM_ARCH_8M_MAIN__ ) && (__ARM_ARCH_8M_MAIN__ == 1)) || \
 581:Drivers/CMSIS/Include/cmsis_gcc.h ****      (defined (__ARM_ARCH_8M_BASE__ ) && (__ARM_ARCH_8M_BASE__ == 1))    )
 582:Drivers/CMSIS/Include/cmsis_gcc.h **** 
 583:Drivers/CMSIS/Include/cmsis_gcc.h **** /**
 584:Drivers/CMSIS/Include/cmsis_gcc.h ****   \brief   Get Process Stack Pointer Limit
 585:Drivers/CMSIS/Include/cmsis_gcc.h ****   Devices without ARMv8-M Main Extensions (i.e. Cortex-M23) lack the non-secure
 586:Drivers/CMSIS/Include/cmsis_gcc.h ****   Stack Pointer Limit register hence zero is returned always in non-secure
 587:Drivers/CMSIS/Include/cmsis_gcc.h ****   mode.
 588:Drivers/CMSIS/Include/cmsis_gcc.h ****   
 589:Drivers/CMSIS/Include/cmsis_gcc.h ****   \details Returns the current value of the Process Stack Pointer Limit (PSPLIM).
 590:Drivers/CMSIS/Include/cmsis_gcc.h ****   \return               PSPLIM Register value
 591:Drivers/CMSIS/Include/cmsis_gcc.h ****  */
 592:Drivers/CMSIS/Include/cmsis_gcc.h **** __STATIC_FORCEINLINE uint32_t __get_PSPLIM(void)
 593:Drivers/CMSIS/Include/cmsis_gcc.h **** {
 594:Drivers/CMSIS/Include/cmsis_gcc.h **** #if (!(defined (__ARM_ARCH_8M_MAIN__ ) && (__ARM_ARCH_8M_MAIN__ == 1)) && \
 595:Drivers/CMSIS/Include/cmsis_gcc.h ****     (!defined (__ARM_FEATURE_CMSE) || (__ARM_FEATURE_CMSE < 3)))
 596:Drivers/CMSIS/Include/cmsis_gcc.h ****     // without main extensions, the non-secure PSPLIM is RAZ/WI
 597:Drivers/CMSIS/Include/cmsis_gcc.h ****   return 0U;
 598:Drivers/CMSIS/Include/cmsis_gcc.h **** #else
 599:Drivers/CMSIS/Include/cmsis_gcc.h ****   uint32_t result;
 600:Drivers/CMSIS/Include/cmsis_gcc.h ****   __ASM volatile ("MRS %0, psplim"  : "=r" (result) );
 601:Drivers/CMSIS/Include/cmsis_gcc.h ****   return result;
 602:Drivers/CMSIS/Include/cmsis_gcc.h **** #endif
 603:Drivers/CMSIS/Include/cmsis_gcc.h **** }
 604:Drivers/CMSIS/Include/cmsis_gcc.h **** 
 605:Drivers/CMSIS/Include/cmsis_gcc.h **** #if (defined (__ARM_FEATURE_CMSE) && (__ARM_FEATURE_CMSE == 3))
 606:Drivers/CMSIS/Include/cmsis_gcc.h **** /**
 607:Drivers/CMSIS/Include/cmsis_gcc.h ****   \brief   Get Process Stack Pointer Limit (non-secure)
 608:Drivers/CMSIS/Include/cmsis_gcc.h ****   Devices without ARMv8-M Main Extensions (i.e. Cortex-M23) lack the non-secure
 609:Drivers/CMSIS/Include/cmsis_gcc.h ****   Stack Pointer Limit register hence zero is returned always.
 610:Drivers/CMSIS/Include/cmsis_gcc.h **** 
 611:Drivers/CMSIS/Include/cmsis_gcc.h ****   \details Returns the current value of the non-secure Process Stack Pointer Limit (PSPLIM) when in
 612:Drivers/CMSIS/Include/cmsis_gcc.h ****   \return               PSPLIM Register value
 613:Drivers/CMSIS/Include/cmsis_gcc.h ****  */
 614:Drivers/CMSIS/Include/cmsis_gcc.h **** __STATIC_FORCEINLINE uint32_t __TZ_get_PSPLIM_NS(void)
 615:Drivers/CMSIS/Include/cmsis_gcc.h **** {
 616:Drivers/CMSIS/Include/cmsis_gcc.h **** #if (!(defined (__ARM_ARCH_8M_MAIN__ ) && (__ARM_ARCH_8M_MAIN__ == 1)))
 617:Drivers/CMSIS/Include/cmsis_gcc.h ****   // without main extensions, the non-secure PSPLIM is RAZ/WI
 618:Drivers/CMSIS/Include/cmsis_gcc.h ****   return 0U;
 619:Drivers/CMSIS/Include/cmsis_gcc.h **** #else
 620:Drivers/CMSIS/Include/cmsis_gcc.h ****   uint32_t result;
 621:Drivers/CMSIS/Include/cmsis_gcc.h ****   __ASM volatile ("MRS %0, psplim_ns"  : "=r" (result) );
ARM GAS  C:\Users\7636~1\AppData\Local\Temp\ccloz7r5.s 			page 26


 622:Drivers/CMSIS/Include/cmsis_gcc.h ****   return result;
 623:Drivers/CMSIS/Include/cmsis_gcc.h **** #endif
 624:Drivers/CMSIS/Include/cmsis_gcc.h **** }
 625:Drivers/CMSIS/Include/cmsis_gcc.h **** #endif
 626:Drivers/CMSIS/Include/cmsis_gcc.h **** 
 627:Drivers/CMSIS/Include/cmsis_gcc.h **** 
 628:Drivers/CMSIS/Include/cmsis_gcc.h **** /**
 629:Drivers/CMSIS/Include/cmsis_gcc.h ****   \brief   Set Process Stack Pointer Limit
 630:Drivers/CMSIS/Include/cmsis_gcc.h ****   Devices without ARMv8-M Main Extensions (i.e. Cortex-M23) lack the non-secure
 631:Drivers/CMSIS/Include/cmsis_gcc.h ****   Stack Pointer Limit register hence the write is silently ignored in non-secure
 632:Drivers/CMSIS/Include/cmsis_gcc.h ****   mode.
 633:Drivers/CMSIS/Include/cmsis_gcc.h ****   
 634:Drivers/CMSIS/Include/cmsis_gcc.h ****   \details Assigns the given value to the Process Stack Pointer Limit (PSPLIM).
 635:Drivers/CMSIS/Include/cmsis_gcc.h ****   \param [in]    ProcStackPtrLimit  Process Stack Pointer Limit value to set
 636:Drivers/CMSIS/Include/cmsis_gcc.h ****  */
 637:Drivers/CMSIS/Include/cmsis_gcc.h **** __STATIC_FORCEINLINE void __set_PSPLIM(uint32_t ProcStackPtrLimit)
 638:Drivers/CMSIS/Include/cmsis_gcc.h **** {
 639:Drivers/CMSIS/Include/cmsis_gcc.h **** #if (!(defined (__ARM_ARCH_8M_MAIN__ ) && (__ARM_ARCH_8M_MAIN__ == 1)) && \
 640:Drivers/CMSIS/Include/cmsis_gcc.h ****     (!defined (__ARM_FEATURE_CMSE) || (__ARM_FEATURE_CMSE < 3)))
 641:Drivers/CMSIS/Include/cmsis_gcc.h ****   // without main extensions, the non-secure PSPLIM is RAZ/WI
 642:Drivers/CMSIS/Include/cmsis_gcc.h ****   (void)ProcStackPtrLimit;
 643:Drivers/CMSIS/Include/cmsis_gcc.h **** #else
 644:Drivers/CMSIS/Include/cmsis_gcc.h ****   __ASM volatile ("MSR psplim, %0" : : "r" (ProcStackPtrLimit));
 645:Drivers/CMSIS/Include/cmsis_gcc.h **** #endif
 646:Drivers/CMSIS/Include/cmsis_gcc.h **** }
 647:Drivers/CMSIS/Include/cmsis_gcc.h **** 
 648:Drivers/CMSIS/Include/cmsis_gcc.h **** 
 649:Drivers/CMSIS/Include/cmsis_gcc.h **** #if (defined (__ARM_FEATURE_CMSE  ) && (__ARM_FEATURE_CMSE   == 3))
 650:Drivers/CMSIS/Include/cmsis_gcc.h **** /**
 651:Drivers/CMSIS/Include/cmsis_gcc.h ****   \brief   Set Process Stack Pointer (non-secure)
 652:Drivers/CMSIS/Include/cmsis_gcc.h ****   Devices without ARMv8-M Main Extensions (i.e. Cortex-M23) lack the non-secure
 653:Drivers/CMSIS/Include/cmsis_gcc.h ****   Stack Pointer Limit register hence the write is silently ignored.
 654:Drivers/CMSIS/Include/cmsis_gcc.h **** 
 655:Drivers/CMSIS/Include/cmsis_gcc.h ****   \details Assigns the given value to the non-secure Process Stack Pointer Limit (PSPLIM) when in s
 656:Drivers/CMSIS/Include/cmsis_gcc.h ****   \param [in]    ProcStackPtrLimit  Process Stack Pointer Limit value to set
 657:Drivers/CMSIS/Include/cmsis_gcc.h ****  */
 658:Drivers/CMSIS/Include/cmsis_gcc.h **** __STATIC_FORCEINLINE void __TZ_set_PSPLIM_NS(uint32_t ProcStackPtrLimit)
 659:Drivers/CMSIS/Include/cmsis_gcc.h **** {
 660:Drivers/CMSIS/Include/cmsis_gcc.h **** #if (!(defined (__ARM_ARCH_8M_MAIN__ ) && (__ARM_ARCH_8M_MAIN__ == 1)))
 661:Drivers/CMSIS/Include/cmsis_gcc.h ****   // without main extensions, the non-secure PSPLIM is RAZ/WI
 662:Drivers/CMSIS/Include/cmsis_gcc.h ****   (void)ProcStackPtrLimit;
 663:Drivers/CMSIS/Include/cmsis_gcc.h **** #else
 664:Drivers/CMSIS/Include/cmsis_gcc.h ****   __ASM volatile ("MSR psplim_ns, %0\n" : : "r" (ProcStackPtrLimit));
 665:Drivers/CMSIS/Include/cmsis_gcc.h **** #endif
 666:Drivers/CMSIS/Include/cmsis_gcc.h **** }
 667:Drivers/CMSIS/Include/cmsis_gcc.h **** #endif
 668:Drivers/CMSIS/Include/cmsis_gcc.h **** 
 669:Drivers/CMSIS/Include/cmsis_gcc.h **** 
 670:Drivers/CMSIS/Include/cmsis_gcc.h **** /**
 671:Drivers/CMSIS/Include/cmsis_gcc.h ****   \brief   Get Main Stack Pointer Limit
 672:Drivers/CMSIS/Include/cmsis_gcc.h ****   Devices without ARMv8-M Main Extensions (i.e. Cortex-M23) lack the non-secure
 673:Drivers/CMSIS/Include/cmsis_gcc.h ****   Stack Pointer Limit register hence zero is returned always in non-secure
 674:Drivers/CMSIS/Include/cmsis_gcc.h ****   mode.
 675:Drivers/CMSIS/Include/cmsis_gcc.h **** 
 676:Drivers/CMSIS/Include/cmsis_gcc.h ****   \details Returns the current value of the Main Stack Pointer Limit (MSPLIM).
 677:Drivers/CMSIS/Include/cmsis_gcc.h ****   \return               MSPLIM Register value
 678:Drivers/CMSIS/Include/cmsis_gcc.h ****  */
ARM GAS  C:\Users\7636~1\AppData\Local\Temp\ccloz7r5.s 			page 27


 679:Drivers/CMSIS/Include/cmsis_gcc.h **** __STATIC_FORCEINLINE uint32_t __get_MSPLIM(void)
 680:Drivers/CMSIS/Include/cmsis_gcc.h **** {
 681:Drivers/CMSIS/Include/cmsis_gcc.h **** #if (!(defined (__ARM_ARCH_8M_MAIN__ ) && (__ARM_ARCH_8M_MAIN__ == 1)) && \
 682:Drivers/CMSIS/Include/cmsis_gcc.h ****     (!defined (__ARM_FEATURE_CMSE) || (__ARM_FEATURE_CMSE < 3)))
 683:Drivers/CMSIS/Include/cmsis_gcc.h ****   // without main extensions, the non-secure MSPLIM is RAZ/WI
 684:Drivers/CMSIS/Include/cmsis_gcc.h ****   return 0U;
 685:Drivers/CMSIS/Include/cmsis_gcc.h **** #else
 686:Drivers/CMSIS/Include/cmsis_gcc.h ****   uint32_t result;
 687:Drivers/CMSIS/Include/cmsis_gcc.h ****   __ASM volatile ("MRS %0, msplim" : "=r" (result) );
 688:Drivers/CMSIS/Include/cmsis_gcc.h ****   return result;
 689:Drivers/CMSIS/Include/cmsis_gcc.h **** #endif
 690:Drivers/CMSIS/Include/cmsis_gcc.h **** }
 691:Drivers/CMSIS/Include/cmsis_gcc.h **** 
 692:Drivers/CMSIS/Include/cmsis_gcc.h **** 
 693:Drivers/CMSIS/Include/cmsis_gcc.h **** #if (defined (__ARM_FEATURE_CMSE  ) && (__ARM_FEATURE_CMSE   == 3))
 694:Drivers/CMSIS/Include/cmsis_gcc.h **** /**
 695:Drivers/CMSIS/Include/cmsis_gcc.h ****   \brief   Get Main Stack Pointer Limit (non-secure)
 696:Drivers/CMSIS/Include/cmsis_gcc.h ****   Devices without ARMv8-M Main Extensions (i.e. Cortex-M23) lack the non-secure
 697:Drivers/CMSIS/Include/cmsis_gcc.h ****   Stack Pointer Limit register hence zero is returned always.
 698:Drivers/CMSIS/Include/cmsis_gcc.h **** 
 699:Drivers/CMSIS/Include/cmsis_gcc.h ****   \details Returns the current value of the non-secure Main Stack Pointer Limit(MSPLIM) when in sec
 700:Drivers/CMSIS/Include/cmsis_gcc.h ****   \return               MSPLIM Register value
 701:Drivers/CMSIS/Include/cmsis_gcc.h ****  */
 702:Drivers/CMSIS/Include/cmsis_gcc.h **** __STATIC_FORCEINLINE uint32_t __TZ_get_MSPLIM_NS(void)
 703:Drivers/CMSIS/Include/cmsis_gcc.h **** {
 704:Drivers/CMSIS/Include/cmsis_gcc.h **** #if (!(defined (__ARM_ARCH_8M_MAIN__ ) && (__ARM_ARCH_8M_MAIN__ == 1)))
 705:Drivers/CMSIS/Include/cmsis_gcc.h ****   // without main extensions, the non-secure MSPLIM is RAZ/WI
 706:Drivers/CMSIS/Include/cmsis_gcc.h ****   return 0U;
 707:Drivers/CMSIS/Include/cmsis_gcc.h **** #else
 708:Drivers/CMSIS/Include/cmsis_gcc.h ****   uint32_t result;
 709:Drivers/CMSIS/Include/cmsis_gcc.h ****   __ASM volatile ("MRS %0, msplim_ns" : "=r" (result) );
 710:Drivers/CMSIS/Include/cmsis_gcc.h ****   return result;
 711:Drivers/CMSIS/Include/cmsis_gcc.h **** #endif
 712:Drivers/CMSIS/Include/cmsis_gcc.h **** }
 713:Drivers/CMSIS/Include/cmsis_gcc.h **** #endif
 714:Drivers/CMSIS/Include/cmsis_gcc.h **** 
 715:Drivers/CMSIS/Include/cmsis_gcc.h **** 
 716:Drivers/CMSIS/Include/cmsis_gcc.h **** /**
 717:Drivers/CMSIS/Include/cmsis_gcc.h ****   \brief   Set Main Stack Pointer Limit
 718:Drivers/CMSIS/Include/cmsis_gcc.h ****   Devices without ARMv8-M Main Extensions (i.e. Cortex-M23) lack the non-secure
 719:Drivers/CMSIS/Include/cmsis_gcc.h ****   Stack Pointer Limit register hence the write is silently ignored in non-secure
 720:Drivers/CMSIS/Include/cmsis_gcc.h ****   mode.
 721:Drivers/CMSIS/Include/cmsis_gcc.h **** 
 722:Drivers/CMSIS/Include/cmsis_gcc.h ****   \details Assigns the given value to the Main Stack Pointer Limit (MSPLIM).
 723:Drivers/CMSIS/Include/cmsis_gcc.h ****   \param [in]    MainStackPtrLimit  Main Stack Pointer Limit value to set
 724:Drivers/CMSIS/Include/cmsis_gcc.h ****  */
 725:Drivers/CMSIS/Include/cmsis_gcc.h **** __STATIC_FORCEINLINE void __set_MSPLIM(uint32_t MainStackPtrLimit)
 726:Drivers/CMSIS/Include/cmsis_gcc.h **** {
 727:Drivers/CMSIS/Include/cmsis_gcc.h **** #if (!(defined (__ARM_ARCH_8M_MAIN__ ) && (__ARM_ARCH_8M_MAIN__ == 1)) && \
 728:Drivers/CMSIS/Include/cmsis_gcc.h ****     (!defined (__ARM_FEATURE_CMSE) || (__ARM_FEATURE_CMSE < 3)))
 729:Drivers/CMSIS/Include/cmsis_gcc.h ****   // without main extensions, the non-secure MSPLIM is RAZ/WI
 730:Drivers/CMSIS/Include/cmsis_gcc.h ****   (void)MainStackPtrLimit;
 731:Drivers/CMSIS/Include/cmsis_gcc.h **** #else
 732:Drivers/CMSIS/Include/cmsis_gcc.h ****   __ASM volatile ("MSR msplim, %0" : : "r" (MainStackPtrLimit));
 733:Drivers/CMSIS/Include/cmsis_gcc.h **** #endif
 734:Drivers/CMSIS/Include/cmsis_gcc.h **** }
 735:Drivers/CMSIS/Include/cmsis_gcc.h **** 
ARM GAS  C:\Users\7636~1\AppData\Local\Temp\ccloz7r5.s 			page 28


 736:Drivers/CMSIS/Include/cmsis_gcc.h **** 
 737:Drivers/CMSIS/Include/cmsis_gcc.h **** #if (defined (__ARM_FEATURE_CMSE  ) && (__ARM_FEATURE_CMSE   == 3))
 738:Drivers/CMSIS/Include/cmsis_gcc.h **** /**
 739:Drivers/CMSIS/Include/cmsis_gcc.h ****   \brief   Set Main Stack Pointer Limit (non-secure)
 740:Drivers/CMSIS/Include/cmsis_gcc.h ****   Devices without ARMv8-M Main Extensions (i.e. Cortex-M23) lack the non-secure
 741:Drivers/CMSIS/Include/cmsis_gcc.h ****   Stack Pointer Limit register hence the write is silently ignored.
 742:Drivers/CMSIS/Include/cmsis_gcc.h **** 
 743:Drivers/CMSIS/Include/cmsis_gcc.h ****   \details Assigns the given value to the non-secure Main Stack Pointer Limit (MSPLIM) when in secu
 744:Drivers/CMSIS/Include/cmsis_gcc.h ****   \param [in]    MainStackPtrLimit  Main Stack Pointer value to set
 745:Drivers/CMSIS/Include/cmsis_gcc.h ****  */
 746:Drivers/CMSIS/Include/cmsis_gcc.h **** __STATIC_FORCEINLINE void __TZ_set_MSPLIM_NS(uint32_t MainStackPtrLimit)
 747:Drivers/CMSIS/Include/cmsis_gcc.h **** {
 748:Drivers/CMSIS/Include/cmsis_gcc.h **** #if (!(defined (__ARM_ARCH_8M_MAIN__ ) && (__ARM_ARCH_8M_MAIN__ == 1)))
 749:Drivers/CMSIS/Include/cmsis_gcc.h ****   // without main extensions, the non-secure MSPLIM is RAZ/WI
 750:Drivers/CMSIS/Include/cmsis_gcc.h ****   (void)MainStackPtrLimit;
 751:Drivers/CMSIS/Include/cmsis_gcc.h **** #else
 752:Drivers/CMSIS/Include/cmsis_gcc.h ****   __ASM volatile ("MSR msplim_ns, %0" : : "r" (MainStackPtrLimit));
 753:Drivers/CMSIS/Include/cmsis_gcc.h **** #endif
 754:Drivers/CMSIS/Include/cmsis_gcc.h **** }
 755:Drivers/CMSIS/Include/cmsis_gcc.h **** #endif
 756:Drivers/CMSIS/Include/cmsis_gcc.h **** 
 757:Drivers/CMSIS/Include/cmsis_gcc.h **** #endif /* ((defined (__ARM_ARCH_8M_MAIN__ ) && (__ARM_ARCH_8M_MAIN__ == 1)) || \
 758:Drivers/CMSIS/Include/cmsis_gcc.h ****            (defined (__ARM_ARCH_8M_BASE__ ) && (__ARM_ARCH_8M_BASE__ == 1))    ) */
 759:Drivers/CMSIS/Include/cmsis_gcc.h **** 
 760:Drivers/CMSIS/Include/cmsis_gcc.h **** 
 761:Drivers/CMSIS/Include/cmsis_gcc.h **** /**
 762:Drivers/CMSIS/Include/cmsis_gcc.h ****   \brief   Get FPSCR
 763:Drivers/CMSIS/Include/cmsis_gcc.h ****   \details Returns the current value of the Floating Point Status/Control register.
 764:Drivers/CMSIS/Include/cmsis_gcc.h ****   \return               Floating Point Status/Control register value
 765:Drivers/CMSIS/Include/cmsis_gcc.h ****  */
 766:Drivers/CMSIS/Include/cmsis_gcc.h **** __STATIC_FORCEINLINE uint32_t __get_FPSCR(void)
 767:Drivers/CMSIS/Include/cmsis_gcc.h **** {
 768:Drivers/CMSIS/Include/cmsis_gcc.h **** #if ((defined (__FPU_PRESENT) && (__FPU_PRESENT == 1U)) && \
 769:Drivers/CMSIS/Include/cmsis_gcc.h ****      (defined (__FPU_USED   ) && (__FPU_USED    == 1U))     )
 770:Drivers/CMSIS/Include/cmsis_gcc.h **** #if __has_builtin(__builtin_arm_get_fpscr) 
 771:Drivers/CMSIS/Include/cmsis_gcc.h **** // Re-enable using built-in when GCC has been fixed
 772:Drivers/CMSIS/Include/cmsis_gcc.h **** // || (__GNUC__ > 7) || (__GNUC__ == 7 && __GNUC_MINOR__ >= 2)
 773:Drivers/CMSIS/Include/cmsis_gcc.h ****   /* see https://gcc.gnu.org/ml/gcc-patches/2017-04/msg00443.html */
 774:Drivers/CMSIS/Include/cmsis_gcc.h ****   return __builtin_arm_get_fpscr();
 775:Drivers/CMSIS/Include/cmsis_gcc.h **** #else
 776:Drivers/CMSIS/Include/cmsis_gcc.h ****   uint32_t result;
 777:Drivers/CMSIS/Include/cmsis_gcc.h **** 
 778:Drivers/CMSIS/Include/cmsis_gcc.h ****   __ASM volatile ("VMRS %0, fpscr" : "=r" (result) );
 779:Drivers/CMSIS/Include/cmsis_gcc.h ****   return(result);
 780:Drivers/CMSIS/Include/cmsis_gcc.h **** #endif
 781:Drivers/CMSIS/Include/cmsis_gcc.h **** #else
 782:Drivers/CMSIS/Include/cmsis_gcc.h ****   return(0U);
 783:Drivers/CMSIS/Include/cmsis_gcc.h **** #endif
 784:Drivers/CMSIS/Include/cmsis_gcc.h **** }
 785:Drivers/CMSIS/Include/cmsis_gcc.h **** 
 786:Drivers/CMSIS/Include/cmsis_gcc.h **** 
 787:Drivers/CMSIS/Include/cmsis_gcc.h **** /**
 788:Drivers/CMSIS/Include/cmsis_gcc.h ****   \brief   Set FPSCR
 789:Drivers/CMSIS/Include/cmsis_gcc.h ****   \details Assigns the given value to the Floating Point Status/Control register.
 790:Drivers/CMSIS/Include/cmsis_gcc.h ****   \param [in]    fpscr  Floating Point Status/Control value to set
 791:Drivers/CMSIS/Include/cmsis_gcc.h ****  */
 792:Drivers/CMSIS/Include/cmsis_gcc.h **** __STATIC_FORCEINLINE void __set_FPSCR(uint32_t fpscr)
ARM GAS  C:\Users\7636~1\AppData\Local\Temp\ccloz7r5.s 			page 29


 793:Drivers/CMSIS/Include/cmsis_gcc.h **** {
 794:Drivers/CMSIS/Include/cmsis_gcc.h **** #if ((defined (__FPU_PRESENT) && (__FPU_PRESENT == 1U)) && \
 795:Drivers/CMSIS/Include/cmsis_gcc.h ****      (defined (__FPU_USED   ) && (__FPU_USED    == 1U))     )
 796:Drivers/CMSIS/Include/cmsis_gcc.h **** #if __has_builtin(__builtin_arm_set_fpscr)
 797:Drivers/CMSIS/Include/cmsis_gcc.h **** // Re-enable using built-in when GCC has been fixed
 798:Drivers/CMSIS/Include/cmsis_gcc.h **** // || (__GNUC__ > 7) || (__GNUC__ == 7 && __GNUC_MINOR__ >= 2)
 799:Drivers/CMSIS/Include/cmsis_gcc.h ****   /* see https://gcc.gnu.org/ml/gcc-patches/2017-04/msg00443.html */
 800:Drivers/CMSIS/Include/cmsis_gcc.h ****   __builtin_arm_set_fpscr(fpscr);
 801:Drivers/CMSIS/Include/cmsis_gcc.h **** #else
 802:Drivers/CMSIS/Include/cmsis_gcc.h ****   __ASM volatile ("VMSR fpscr, %0" : : "r" (fpscr) : "vfpcc", "memory");
 803:Drivers/CMSIS/Include/cmsis_gcc.h **** #endif
 804:Drivers/CMSIS/Include/cmsis_gcc.h **** #else
 805:Drivers/CMSIS/Include/cmsis_gcc.h ****   (void)fpscr;
 806:Drivers/CMSIS/Include/cmsis_gcc.h **** #endif
 807:Drivers/CMSIS/Include/cmsis_gcc.h **** }
 808:Drivers/CMSIS/Include/cmsis_gcc.h **** 
 809:Drivers/CMSIS/Include/cmsis_gcc.h **** 
 810:Drivers/CMSIS/Include/cmsis_gcc.h **** /*@} end of CMSIS_Core_RegAccFunctions */
 811:Drivers/CMSIS/Include/cmsis_gcc.h **** 
 812:Drivers/CMSIS/Include/cmsis_gcc.h **** 
 813:Drivers/CMSIS/Include/cmsis_gcc.h **** /* ##########################  Core Instruction Access  ######################### */
 814:Drivers/CMSIS/Include/cmsis_gcc.h **** /** \defgroup CMSIS_Core_InstructionInterface CMSIS Core Instruction Interface
 815:Drivers/CMSIS/Include/cmsis_gcc.h ****   Access to dedicated instructions
 816:Drivers/CMSIS/Include/cmsis_gcc.h ****   @{
 817:Drivers/CMSIS/Include/cmsis_gcc.h **** */
 818:Drivers/CMSIS/Include/cmsis_gcc.h **** 
 819:Drivers/CMSIS/Include/cmsis_gcc.h **** /* Define macros for porting to both thumb1 and thumb2.
 820:Drivers/CMSIS/Include/cmsis_gcc.h ****  * For thumb1, use low register (r0-r7), specified by constraint "l"
 821:Drivers/CMSIS/Include/cmsis_gcc.h ****  * Otherwise, use general registers, specified by constraint "r" */
 822:Drivers/CMSIS/Include/cmsis_gcc.h **** #if defined (__thumb__) && !defined (__thumb2__)
 823:Drivers/CMSIS/Include/cmsis_gcc.h **** #define __CMSIS_GCC_OUT_REG(r) "=l" (r)
 824:Drivers/CMSIS/Include/cmsis_gcc.h **** #define __CMSIS_GCC_RW_REG(r) "+l" (r)
 825:Drivers/CMSIS/Include/cmsis_gcc.h **** #define __CMSIS_GCC_USE_REG(r) "l" (r)
 826:Drivers/CMSIS/Include/cmsis_gcc.h **** #else
 827:Drivers/CMSIS/Include/cmsis_gcc.h **** #define __CMSIS_GCC_OUT_REG(r) "=r" (r)
 828:Drivers/CMSIS/Include/cmsis_gcc.h **** #define __CMSIS_GCC_RW_REG(r) "+r" (r)
 829:Drivers/CMSIS/Include/cmsis_gcc.h **** #define __CMSIS_GCC_USE_REG(r) "r" (r)
 830:Drivers/CMSIS/Include/cmsis_gcc.h **** #endif
 831:Drivers/CMSIS/Include/cmsis_gcc.h **** 
 832:Drivers/CMSIS/Include/cmsis_gcc.h **** /**
 833:Drivers/CMSIS/Include/cmsis_gcc.h ****   \brief   No Operation
 834:Drivers/CMSIS/Include/cmsis_gcc.h ****   \details No Operation does nothing. This instruction can be used for code alignment purposes.
 835:Drivers/CMSIS/Include/cmsis_gcc.h ****  */
 836:Drivers/CMSIS/Include/cmsis_gcc.h **** #define __NOP()                             __ASM volatile ("nop")
 837:Drivers/CMSIS/Include/cmsis_gcc.h **** 
 838:Drivers/CMSIS/Include/cmsis_gcc.h **** /**
 839:Drivers/CMSIS/Include/cmsis_gcc.h ****   \brief   Wait For Interrupt
 840:Drivers/CMSIS/Include/cmsis_gcc.h ****   \details Wait For Interrupt is a hint instruction that suspends execution until one of a number o
 841:Drivers/CMSIS/Include/cmsis_gcc.h ****  */
 842:Drivers/CMSIS/Include/cmsis_gcc.h **** #define __WFI()                             __ASM volatile ("wfi")
 843:Drivers/CMSIS/Include/cmsis_gcc.h **** 
 844:Drivers/CMSIS/Include/cmsis_gcc.h **** 
 845:Drivers/CMSIS/Include/cmsis_gcc.h **** /**
 846:Drivers/CMSIS/Include/cmsis_gcc.h ****   \brief   Wait For Event
 847:Drivers/CMSIS/Include/cmsis_gcc.h ****   \details Wait For Event is a hint instruction that permits the processor to enter
 848:Drivers/CMSIS/Include/cmsis_gcc.h ****            a low-power state until one of a number of events occurs.
 849:Drivers/CMSIS/Include/cmsis_gcc.h ****  */
ARM GAS  C:\Users\7636~1\AppData\Local\Temp\ccloz7r5.s 			page 30


 850:Drivers/CMSIS/Include/cmsis_gcc.h **** #define __WFE()                             __ASM volatile ("wfe")
 851:Drivers/CMSIS/Include/cmsis_gcc.h **** 
 852:Drivers/CMSIS/Include/cmsis_gcc.h **** 
 853:Drivers/CMSIS/Include/cmsis_gcc.h **** /**
 854:Drivers/CMSIS/Include/cmsis_gcc.h ****   \brief   Send Event
 855:Drivers/CMSIS/Include/cmsis_gcc.h ****   \details Send Event is a hint instruction. It causes an event to be signaled to the CPU.
 856:Drivers/CMSIS/Include/cmsis_gcc.h ****  */
 857:Drivers/CMSIS/Include/cmsis_gcc.h **** #define __SEV()                             __ASM volatile ("sev")
 858:Drivers/CMSIS/Include/cmsis_gcc.h **** 
 859:Drivers/CMSIS/Include/cmsis_gcc.h **** 
 860:Drivers/CMSIS/Include/cmsis_gcc.h **** /**
 861:Drivers/CMSIS/Include/cmsis_gcc.h ****   \brief   Instruction Synchronization Barrier
 862:Drivers/CMSIS/Include/cmsis_gcc.h ****   \details Instruction Synchronization Barrier flushes the pipeline in the processor,
 863:Drivers/CMSIS/Include/cmsis_gcc.h ****            so that all instructions following the ISB are fetched from cache or memory,
 864:Drivers/CMSIS/Include/cmsis_gcc.h ****            after the instruction has been completed.
 865:Drivers/CMSIS/Include/cmsis_gcc.h ****  */
 866:Drivers/CMSIS/Include/cmsis_gcc.h **** __STATIC_FORCEINLINE void __ISB(void)
 867:Drivers/CMSIS/Include/cmsis_gcc.h **** {
 868:Drivers/CMSIS/Include/cmsis_gcc.h ****   __ASM volatile ("isb 0xF":::"memory");
 869:Drivers/CMSIS/Include/cmsis_gcc.h **** }
 870:Drivers/CMSIS/Include/cmsis_gcc.h **** 
 871:Drivers/CMSIS/Include/cmsis_gcc.h **** 
 872:Drivers/CMSIS/Include/cmsis_gcc.h **** /**
 873:Drivers/CMSIS/Include/cmsis_gcc.h ****   \brief   Data Synchronization Barrier
 874:Drivers/CMSIS/Include/cmsis_gcc.h ****   \details Acts as a special kind of Data Memory Barrier.
 875:Drivers/CMSIS/Include/cmsis_gcc.h ****            It completes when all explicit memory accesses before this instruction complete.
 876:Drivers/CMSIS/Include/cmsis_gcc.h ****  */
 877:Drivers/CMSIS/Include/cmsis_gcc.h **** __STATIC_FORCEINLINE void __DSB(void)
 878:Drivers/CMSIS/Include/cmsis_gcc.h **** {
 879:Drivers/CMSIS/Include/cmsis_gcc.h ****   __ASM volatile ("dsb 0xF":::"memory");
 880:Drivers/CMSIS/Include/cmsis_gcc.h **** }
 881:Drivers/CMSIS/Include/cmsis_gcc.h **** 
 882:Drivers/CMSIS/Include/cmsis_gcc.h **** 
 883:Drivers/CMSIS/Include/cmsis_gcc.h **** /**
 884:Drivers/CMSIS/Include/cmsis_gcc.h ****   \brief   Data Memory Barrier
 885:Drivers/CMSIS/Include/cmsis_gcc.h ****   \details Ensures the apparent order of the explicit memory operations before
 886:Drivers/CMSIS/Include/cmsis_gcc.h ****            and after the instruction, without ensuring their completion.
 887:Drivers/CMSIS/Include/cmsis_gcc.h ****  */
 888:Drivers/CMSIS/Include/cmsis_gcc.h **** __STATIC_FORCEINLINE void __DMB(void)
 889:Drivers/CMSIS/Include/cmsis_gcc.h **** {
 890:Drivers/CMSIS/Include/cmsis_gcc.h ****   __ASM volatile ("dmb 0xF":::"memory");
 891:Drivers/CMSIS/Include/cmsis_gcc.h **** }
 892:Drivers/CMSIS/Include/cmsis_gcc.h **** 
 893:Drivers/CMSIS/Include/cmsis_gcc.h **** 
 894:Drivers/CMSIS/Include/cmsis_gcc.h **** /**
 895:Drivers/CMSIS/Include/cmsis_gcc.h ****   \brief   Reverse byte order (32 bit)
 896:Drivers/CMSIS/Include/cmsis_gcc.h ****   \details Reverses the byte order in unsigned integer value. For example, 0x12345678 becomes 0x785
 897:Drivers/CMSIS/Include/cmsis_gcc.h ****   \param [in]    value  Value to reverse
 898:Drivers/CMSIS/Include/cmsis_gcc.h ****   \return               Reversed value
 899:Drivers/CMSIS/Include/cmsis_gcc.h ****  */
 900:Drivers/CMSIS/Include/cmsis_gcc.h **** __STATIC_FORCEINLINE uint32_t __REV(uint32_t value)
 901:Drivers/CMSIS/Include/cmsis_gcc.h **** {
 902:Drivers/CMSIS/Include/cmsis_gcc.h **** #if (__GNUC__ > 4) || (__GNUC__ == 4 && __GNUC_MINOR__ >= 5)
 903:Drivers/CMSIS/Include/cmsis_gcc.h ****   return __builtin_bswap32(value);
 904:Drivers/CMSIS/Include/cmsis_gcc.h **** #else
 905:Drivers/CMSIS/Include/cmsis_gcc.h ****   uint32_t result;
 906:Drivers/CMSIS/Include/cmsis_gcc.h **** 
ARM GAS  C:\Users\7636~1\AppData\Local\Temp\ccloz7r5.s 			page 31


 907:Drivers/CMSIS/Include/cmsis_gcc.h ****   __ASM volatile ("rev %0, %1" : __CMSIS_GCC_OUT_REG (result) : __CMSIS_GCC_USE_REG (value) );
 908:Drivers/CMSIS/Include/cmsis_gcc.h ****   return result;
 909:Drivers/CMSIS/Include/cmsis_gcc.h **** #endif
 910:Drivers/CMSIS/Include/cmsis_gcc.h **** }
 911:Drivers/CMSIS/Include/cmsis_gcc.h **** 
 912:Drivers/CMSIS/Include/cmsis_gcc.h **** 
 913:Drivers/CMSIS/Include/cmsis_gcc.h **** /**
 914:Drivers/CMSIS/Include/cmsis_gcc.h ****   \brief   Reverse byte order (16 bit)
 915:Drivers/CMSIS/Include/cmsis_gcc.h ****   \details Reverses the byte order within each halfword of a word. For example, 0x12345678 becomes 
 916:Drivers/CMSIS/Include/cmsis_gcc.h ****   \param [in]    value  Value to reverse
 917:Drivers/CMSIS/Include/cmsis_gcc.h ****   \return               Reversed value
 918:Drivers/CMSIS/Include/cmsis_gcc.h ****  */
 919:Drivers/CMSIS/Include/cmsis_gcc.h **** __STATIC_FORCEINLINE uint32_t __REV16(uint32_t value)
 920:Drivers/CMSIS/Include/cmsis_gcc.h **** {
 921:Drivers/CMSIS/Include/cmsis_gcc.h ****   uint32_t result;
 922:Drivers/CMSIS/Include/cmsis_gcc.h **** 
 923:Drivers/CMSIS/Include/cmsis_gcc.h ****   __ASM volatile ("rev16 %0, %1" : __CMSIS_GCC_OUT_REG (result) : __CMSIS_GCC_USE_REG (value) );
 924:Drivers/CMSIS/Include/cmsis_gcc.h ****   return result;
 925:Drivers/CMSIS/Include/cmsis_gcc.h **** }
 926:Drivers/CMSIS/Include/cmsis_gcc.h **** 
 927:Drivers/CMSIS/Include/cmsis_gcc.h **** 
 928:Drivers/CMSIS/Include/cmsis_gcc.h **** /**
 929:Drivers/CMSIS/Include/cmsis_gcc.h ****   \brief   Reverse byte order (16 bit)
 930:Drivers/CMSIS/Include/cmsis_gcc.h ****   \details Reverses the byte order in a 16-bit value and returns the signed 16-bit result. For exam
 931:Drivers/CMSIS/Include/cmsis_gcc.h ****   \param [in]    value  Value to reverse
 932:Drivers/CMSIS/Include/cmsis_gcc.h ****   \return               Reversed value
 933:Drivers/CMSIS/Include/cmsis_gcc.h ****  */
 934:Drivers/CMSIS/Include/cmsis_gcc.h **** __STATIC_FORCEINLINE int16_t __REVSH(int16_t value)
 935:Drivers/CMSIS/Include/cmsis_gcc.h **** {
 936:Drivers/CMSIS/Include/cmsis_gcc.h **** #if (__GNUC__ > 4) || (__GNUC__ == 4 && __GNUC_MINOR__ >= 8)
 937:Drivers/CMSIS/Include/cmsis_gcc.h ****   return (int16_t)__builtin_bswap16(value);
 938:Drivers/CMSIS/Include/cmsis_gcc.h **** #else
 939:Drivers/CMSIS/Include/cmsis_gcc.h ****   int16_t result;
 940:Drivers/CMSIS/Include/cmsis_gcc.h **** 
 941:Drivers/CMSIS/Include/cmsis_gcc.h ****   __ASM volatile ("revsh %0, %1" : __CMSIS_GCC_OUT_REG (result) : __CMSIS_GCC_USE_REG (value) );
 942:Drivers/CMSIS/Include/cmsis_gcc.h ****   return result;
 943:Drivers/CMSIS/Include/cmsis_gcc.h **** #endif
 944:Drivers/CMSIS/Include/cmsis_gcc.h **** }
 945:Drivers/CMSIS/Include/cmsis_gcc.h **** 
 946:Drivers/CMSIS/Include/cmsis_gcc.h **** 
 947:Drivers/CMSIS/Include/cmsis_gcc.h **** /**
 948:Drivers/CMSIS/Include/cmsis_gcc.h ****   \brief   Rotate Right in unsigned value (32 bit)
 949:Drivers/CMSIS/Include/cmsis_gcc.h ****   \details Rotate Right (immediate) provides the value of the contents of a register rotated by a v
 950:Drivers/CMSIS/Include/cmsis_gcc.h ****   \param [in]    op1  Value to rotate
 951:Drivers/CMSIS/Include/cmsis_gcc.h ****   \param [in]    op2  Number of Bits to rotate
 952:Drivers/CMSIS/Include/cmsis_gcc.h ****   \return               Rotated value
 953:Drivers/CMSIS/Include/cmsis_gcc.h ****  */
 954:Drivers/CMSIS/Include/cmsis_gcc.h **** __STATIC_FORCEINLINE uint32_t __ROR(uint32_t op1, uint32_t op2)
 955:Drivers/CMSIS/Include/cmsis_gcc.h **** {
 956:Drivers/CMSIS/Include/cmsis_gcc.h ****   op2 %= 32U;
 957:Drivers/CMSIS/Include/cmsis_gcc.h ****   if (op2 == 0U)
 958:Drivers/CMSIS/Include/cmsis_gcc.h ****   {
 959:Drivers/CMSIS/Include/cmsis_gcc.h ****     return op1;
 960:Drivers/CMSIS/Include/cmsis_gcc.h ****   }
 961:Drivers/CMSIS/Include/cmsis_gcc.h ****   return (op1 >> op2) | (op1 << (32U - op2));
 962:Drivers/CMSIS/Include/cmsis_gcc.h **** }
 963:Drivers/CMSIS/Include/cmsis_gcc.h **** 
ARM GAS  C:\Users\7636~1\AppData\Local\Temp\ccloz7r5.s 			page 32


 964:Drivers/CMSIS/Include/cmsis_gcc.h **** 
 965:Drivers/CMSIS/Include/cmsis_gcc.h **** /**
 966:Drivers/CMSIS/Include/cmsis_gcc.h ****   \brief   Breakpoint
 967:Drivers/CMSIS/Include/cmsis_gcc.h ****   \details Causes the processor to enter Debug state.
 968:Drivers/CMSIS/Include/cmsis_gcc.h ****            Debug tools can use this to investigate system state when the instruction at a particula
 969:Drivers/CMSIS/Include/cmsis_gcc.h ****   \param [in]    value  is ignored by the processor.
 970:Drivers/CMSIS/Include/cmsis_gcc.h ****                  If required, a debugger can use it to store additional information about the break
 971:Drivers/CMSIS/Include/cmsis_gcc.h ****  */
 972:Drivers/CMSIS/Include/cmsis_gcc.h **** #define __BKPT(value)                       __ASM volatile ("bkpt "#value)
 973:Drivers/CMSIS/Include/cmsis_gcc.h **** 
 974:Drivers/CMSIS/Include/cmsis_gcc.h **** 
 975:Drivers/CMSIS/Include/cmsis_gcc.h **** /**
 976:Drivers/CMSIS/Include/cmsis_gcc.h ****   \brief   Reverse bit order of value
 977:Drivers/CMSIS/Include/cmsis_gcc.h ****   \details Reverses the bit order of the given value.
 978:Drivers/CMSIS/Include/cmsis_gcc.h ****   \param [in]    value  Value to reverse
 979:Drivers/CMSIS/Include/cmsis_gcc.h ****   \return               Reversed value
 980:Drivers/CMSIS/Include/cmsis_gcc.h ****  */
 981:Drivers/CMSIS/Include/cmsis_gcc.h **** __STATIC_FORCEINLINE uint32_t __RBIT(uint32_t value)
 982:Drivers/CMSIS/Include/cmsis_gcc.h **** {
 983:Drivers/CMSIS/Include/cmsis_gcc.h ****   uint32_t result;
 984:Drivers/CMSIS/Include/cmsis_gcc.h **** 
 985:Drivers/CMSIS/Include/cmsis_gcc.h **** #if ((defined (__ARM_ARCH_7M__      ) && (__ARM_ARCH_7M__      == 1)) || \
 986:Drivers/CMSIS/Include/cmsis_gcc.h ****      (defined (__ARM_ARCH_7EM__     ) && (__ARM_ARCH_7EM__     == 1)) || \
 987:Drivers/CMSIS/Include/cmsis_gcc.h ****      (defined (__ARM_ARCH_8M_MAIN__ ) && (__ARM_ARCH_8M_MAIN__ == 1))    )
 988:Drivers/CMSIS/Include/cmsis_gcc.h ****    __ASM volatile ("rbit %0, %1" : "=r" (result) : "r" (value) );
 989:Drivers/CMSIS/Include/cmsis_gcc.h **** #else
 990:Drivers/CMSIS/Include/cmsis_gcc.h ****   uint32_t s = (4U /*sizeof(v)*/ * 8U) - 1U; /* extra shift needed at end */
 991:Drivers/CMSIS/Include/cmsis_gcc.h **** 
 992:Drivers/CMSIS/Include/cmsis_gcc.h ****   result = value;                      /* r will be reversed bits of v; first get LSB of v */
 993:Drivers/CMSIS/Include/cmsis_gcc.h ****   for (value >>= 1U; value != 0U; value >>= 1U)
 994:Drivers/CMSIS/Include/cmsis_gcc.h ****   {
 995:Drivers/CMSIS/Include/cmsis_gcc.h ****     result <<= 1U;
 996:Drivers/CMSIS/Include/cmsis_gcc.h ****     result |= value & 1U;
 997:Drivers/CMSIS/Include/cmsis_gcc.h ****     s--;
 998:Drivers/CMSIS/Include/cmsis_gcc.h ****   }
 999:Drivers/CMSIS/Include/cmsis_gcc.h ****   result <<= s;                        /* shift when v's highest bits are zero */
1000:Drivers/CMSIS/Include/cmsis_gcc.h **** #endif
1001:Drivers/CMSIS/Include/cmsis_gcc.h ****   return result;
1002:Drivers/CMSIS/Include/cmsis_gcc.h **** }
1003:Drivers/CMSIS/Include/cmsis_gcc.h **** 
1004:Drivers/CMSIS/Include/cmsis_gcc.h **** 
1005:Drivers/CMSIS/Include/cmsis_gcc.h **** /**
1006:Drivers/CMSIS/Include/cmsis_gcc.h ****   \brief   Count leading zeros
1007:Drivers/CMSIS/Include/cmsis_gcc.h ****   \details Counts the number of leading zeros of a data value.
1008:Drivers/CMSIS/Include/cmsis_gcc.h ****   \param [in]  value  Value to count the leading zeros
1009:Drivers/CMSIS/Include/cmsis_gcc.h ****   \return             number of leading zeros in value
1010:Drivers/CMSIS/Include/cmsis_gcc.h ****  */
1011:Drivers/CMSIS/Include/cmsis_gcc.h **** #define __CLZ             (uint8_t)__builtin_clz
1012:Drivers/CMSIS/Include/cmsis_gcc.h **** 
1013:Drivers/CMSIS/Include/cmsis_gcc.h **** 
1014:Drivers/CMSIS/Include/cmsis_gcc.h **** #if ((defined (__ARM_ARCH_7M__      ) && (__ARM_ARCH_7M__      == 1)) || \
1015:Drivers/CMSIS/Include/cmsis_gcc.h ****      (defined (__ARM_ARCH_7EM__     ) && (__ARM_ARCH_7EM__     == 1)) || \
1016:Drivers/CMSIS/Include/cmsis_gcc.h ****      (defined (__ARM_ARCH_8M_MAIN__ ) && (__ARM_ARCH_8M_MAIN__ == 1)) || \
1017:Drivers/CMSIS/Include/cmsis_gcc.h ****      (defined (__ARM_ARCH_8M_BASE__ ) && (__ARM_ARCH_8M_BASE__ == 1))    )
1018:Drivers/CMSIS/Include/cmsis_gcc.h **** /**
1019:Drivers/CMSIS/Include/cmsis_gcc.h ****   \brief   LDR Exclusive (8 bit)
1020:Drivers/CMSIS/Include/cmsis_gcc.h ****   \details Executes a exclusive LDR instruction for 8 bit value.
ARM GAS  C:\Users\7636~1\AppData\Local\Temp\ccloz7r5.s 			page 33


1021:Drivers/CMSIS/Include/cmsis_gcc.h ****   \param [in]    ptr  Pointer to data
1022:Drivers/CMSIS/Include/cmsis_gcc.h ****   \return             value of type uint8_t at (*ptr)
1023:Drivers/CMSIS/Include/cmsis_gcc.h ****  */
1024:Drivers/CMSIS/Include/cmsis_gcc.h **** __STATIC_FORCEINLINE uint8_t __LDREXB(volatile uint8_t *addr)
1025:Drivers/CMSIS/Include/cmsis_gcc.h **** {
1026:Drivers/CMSIS/Include/cmsis_gcc.h ****     uint32_t result;
1027:Drivers/CMSIS/Include/cmsis_gcc.h **** 
1028:Drivers/CMSIS/Include/cmsis_gcc.h **** #if (__GNUC__ > 4) || (__GNUC__ == 4 && __GNUC_MINOR__ >= 8)
1029:Drivers/CMSIS/Include/cmsis_gcc.h ****    __ASM volatile ("ldrexb %0, %1" : "=r" (result) : "Q" (*addr) );
1030:Drivers/CMSIS/Include/cmsis_gcc.h **** #else
1031:Drivers/CMSIS/Include/cmsis_gcc.h ****     /* Prior to GCC 4.8, "Q" will be expanded to [rx, #0] which is not
1032:Drivers/CMSIS/Include/cmsis_gcc.h ****        accepted by assembler. So has to use following less efficient pattern.
1033:Drivers/CMSIS/Include/cmsis_gcc.h ****     */
1034:Drivers/CMSIS/Include/cmsis_gcc.h ****    __ASM volatile ("ldrexb %0, [%1]" : "=r" (result) : "r" (addr) : "memory" );
1035:Drivers/CMSIS/Include/cmsis_gcc.h **** #endif
1036:Drivers/CMSIS/Include/cmsis_gcc.h ****    return ((uint8_t) result);    /* Add explicit type cast here */
1037:Drivers/CMSIS/Include/cmsis_gcc.h **** }
1038:Drivers/CMSIS/Include/cmsis_gcc.h **** 
1039:Drivers/CMSIS/Include/cmsis_gcc.h **** 
1040:Drivers/CMSIS/Include/cmsis_gcc.h **** /**
1041:Drivers/CMSIS/Include/cmsis_gcc.h ****   \brief   LDR Exclusive (16 bit)
1042:Drivers/CMSIS/Include/cmsis_gcc.h ****   \details Executes a exclusive LDR instruction for 16 bit values.
1043:Drivers/CMSIS/Include/cmsis_gcc.h ****   \param [in]    ptr  Pointer to data
1044:Drivers/CMSIS/Include/cmsis_gcc.h ****   \return        value of type uint16_t at (*ptr)
1045:Drivers/CMSIS/Include/cmsis_gcc.h ****  */
1046:Drivers/CMSIS/Include/cmsis_gcc.h **** __STATIC_FORCEINLINE uint16_t __LDREXH(volatile uint16_t *addr)
1047:Drivers/CMSIS/Include/cmsis_gcc.h **** {
1048:Drivers/CMSIS/Include/cmsis_gcc.h ****     uint32_t result;
1049:Drivers/CMSIS/Include/cmsis_gcc.h **** 
1050:Drivers/CMSIS/Include/cmsis_gcc.h **** #if (__GNUC__ > 4) || (__GNUC__ == 4 && __GNUC_MINOR__ >= 8)
1051:Drivers/CMSIS/Include/cmsis_gcc.h ****    __ASM volatile ("ldrexh %0, %1" : "=r" (result) : "Q" (*addr) );
1052:Drivers/CMSIS/Include/cmsis_gcc.h **** #else
1053:Drivers/CMSIS/Include/cmsis_gcc.h ****     /* Prior to GCC 4.8, "Q" will be expanded to [rx, #0] which is not
1054:Drivers/CMSIS/Include/cmsis_gcc.h ****        accepted by assembler. So has to use following less efficient pattern.
1055:Drivers/CMSIS/Include/cmsis_gcc.h ****     */
1056:Drivers/CMSIS/Include/cmsis_gcc.h ****    __ASM volatile ("ldrexh %0, [%1]" : "=r" (result) : "r" (addr) : "memory" );
1057:Drivers/CMSIS/Include/cmsis_gcc.h **** #endif
1058:Drivers/CMSIS/Include/cmsis_gcc.h ****    return ((uint16_t) result);    /* Add explicit type cast here */
1059:Drivers/CMSIS/Include/cmsis_gcc.h **** }
1060:Drivers/CMSIS/Include/cmsis_gcc.h **** 
1061:Drivers/CMSIS/Include/cmsis_gcc.h **** 
1062:Drivers/CMSIS/Include/cmsis_gcc.h **** /**
1063:Drivers/CMSIS/Include/cmsis_gcc.h ****   \brief   LDR Exclusive (32 bit)
1064:Drivers/CMSIS/Include/cmsis_gcc.h ****   \details Executes a exclusive LDR instruction for 32 bit values.
1065:Drivers/CMSIS/Include/cmsis_gcc.h ****   \param [in]    ptr  Pointer to data
1066:Drivers/CMSIS/Include/cmsis_gcc.h ****   \return        value of type uint32_t at (*ptr)
1067:Drivers/CMSIS/Include/cmsis_gcc.h ****  */
1068:Drivers/CMSIS/Include/cmsis_gcc.h **** __STATIC_FORCEINLINE uint32_t __LDREXW(volatile uint32_t *addr)
1069:Drivers/CMSIS/Include/cmsis_gcc.h **** {
1070:Drivers/CMSIS/Include/cmsis_gcc.h ****     uint32_t result;
1071:Drivers/CMSIS/Include/cmsis_gcc.h **** 
1072:Drivers/CMSIS/Include/cmsis_gcc.h ****    __ASM volatile ("ldrex %0, %1" : "=r" (result) : "Q" (*addr) );
1073:Drivers/CMSIS/Include/cmsis_gcc.h ****    return(result);
1074:Drivers/CMSIS/Include/cmsis_gcc.h **** }
1075:Drivers/CMSIS/Include/cmsis_gcc.h **** 
1076:Drivers/CMSIS/Include/cmsis_gcc.h **** 
1077:Drivers/CMSIS/Include/cmsis_gcc.h **** /**
ARM GAS  C:\Users\7636~1\AppData\Local\Temp\ccloz7r5.s 			page 34


1078:Drivers/CMSIS/Include/cmsis_gcc.h ****   \brief   STR Exclusive (8 bit)
1079:Drivers/CMSIS/Include/cmsis_gcc.h ****   \details Executes a exclusive STR instruction for 8 bit values.
1080:Drivers/CMSIS/Include/cmsis_gcc.h ****   \param [in]  value  Value to store
1081:Drivers/CMSIS/Include/cmsis_gcc.h ****   \param [in]    ptr  Pointer to location
1082:Drivers/CMSIS/Include/cmsis_gcc.h ****   \return          0  Function succeeded
1083:Drivers/CMSIS/Include/cmsis_gcc.h ****   \return          1  Function failed
1084:Drivers/CMSIS/Include/cmsis_gcc.h ****  */
1085:Drivers/CMSIS/Include/cmsis_gcc.h **** __STATIC_FORCEINLINE uint32_t __STREXB(uint8_t value, volatile uint8_t *addr)
1086:Drivers/CMSIS/Include/cmsis_gcc.h **** {
1087:Drivers/CMSIS/Include/cmsis_gcc.h ****    uint32_t result;
1088:Drivers/CMSIS/Include/cmsis_gcc.h **** 
1089:Drivers/CMSIS/Include/cmsis_gcc.h ****    __ASM volatile ("strexb %0, %2, %1" : "=&r" (result), "=Q" (*addr) : "r" ((uint32_t)value) );
1090:Drivers/CMSIS/Include/cmsis_gcc.h ****    return(result);
1091:Drivers/CMSIS/Include/cmsis_gcc.h **** }
1092:Drivers/CMSIS/Include/cmsis_gcc.h **** 
1093:Drivers/CMSIS/Include/cmsis_gcc.h **** 
1094:Drivers/CMSIS/Include/cmsis_gcc.h **** /**
1095:Drivers/CMSIS/Include/cmsis_gcc.h ****   \brief   STR Exclusive (16 bit)
1096:Drivers/CMSIS/Include/cmsis_gcc.h ****   \details Executes a exclusive STR instruction for 16 bit values.
1097:Drivers/CMSIS/Include/cmsis_gcc.h ****   \param [in]  value  Value to store
1098:Drivers/CMSIS/Include/cmsis_gcc.h ****   \param [in]    ptr  Pointer to location
1099:Drivers/CMSIS/Include/cmsis_gcc.h ****   \return          0  Function succeeded
1100:Drivers/CMSIS/Include/cmsis_gcc.h ****   \return          1  Function failed
1101:Drivers/CMSIS/Include/cmsis_gcc.h ****  */
1102:Drivers/CMSIS/Include/cmsis_gcc.h **** __STATIC_FORCEINLINE uint32_t __STREXH(uint16_t value, volatile uint16_t *addr)
1103:Drivers/CMSIS/Include/cmsis_gcc.h **** {
1104:Drivers/CMSIS/Include/cmsis_gcc.h ****    uint32_t result;
1105:Drivers/CMSIS/Include/cmsis_gcc.h **** 
1106:Drivers/CMSIS/Include/cmsis_gcc.h ****    __ASM volatile ("strexh %0, %2, %1" : "=&r" (result), "=Q" (*addr) : "r" ((uint32_t)value) );
1107:Drivers/CMSIS/Include/cmsis_gcc.h ****    return(result);
1108:Drivers/CMSIS/Include/cmsis_gcc.h **** }
1109:Drivers/CMSIS/Include/cmsis_gcc.h **** 
1110:Drivers/CMSIS/Include/cmsis_gcc.h **** 
1111:Drivers/CMSIS/Include/cmsis_gcc.h **** /**
1112:Drivers/CMSIS/Include/cmsis_gcc.h ****   \brief   STR Exclusive (32 bit)
1113:Drivers/CMSIS/Include/cmsis_gcc.h ****   \details Executes a exclusive STR instruction for 32 bit values.
1114:Drivers/CMSIS/Include/cmsis_gcc.h ****   \param [in]  value  Value to store
1115:Drivers/CMSIS/Include/cmsis_gcc.h ****   \param [in]    ptr  Pointer to location
1116:Drivers/CMSIS/Include/cmsis_gcc.h ****   \return          0  Function succeeded
1117:Drivers/CMSIS/Include/cmsis_gcc.h ****   \return          1  Function failed
1118:Drivers/CMSIS/Include/cmsis_gcc.h ****  */
1119:Drivers/CMSIS/Include/cmsis_gcc.h **** __STATIC_FORCEINLINE uint32_t __STREXW(uint32_t value, volatile uint32_t *addr)
1120:Drivers/CMSIS/Include/cmsis_gcc.h **** {
1121:Drivers/CMSIS/Include/cmsis_gcc.h ****    uint32_t result;
1122:Drivers/CMSIS/Include/cmsis_gcc.h **** 
1123:Drivers/CMSIS/Include/cmsis_gcc.h ****    __ASM volatile ("strex %0, %2, %1" : "=&r" (result), "=Q" (*addr) : "r" (value) );
1124:Drivers/CMSIS/Include/cmsis_gcc.h ****    return(result);
1125:Drivers/CMSIS/Include/cmsis_gcc.h **** }
1126:Drivers/CMSIS/Include/cmsis_gcc.h **** 
1127:Drivers/CMSIS/Include/cmsis_gcc.h **** 
1128:Drivers/CMSIS/Include/cmsis_gcc.h **** /**
1129:Drivers/CMSIS/Include/cmsis_gcc.h ****   \brief   Remove the exclusive lock
1130:Drivers/CMSIS/Include/cmsis_gcc.h ****   \details Removes the exclusive lock which is created by LDREX.
1131:Drivers/CMSIS/Include/cmsis_gcc.h ****  */
1132:Drivers/CMSIS/Include/cmsis_gcc.h **** __STATIC_FORCEINLINE void __CLREX(void)
1133:Drivers/CMSIS/Include/cmsis_gcc.h **** {
1134:Drivers/CMSIS/Include/cmsis_gcc.h ****   __ASM volatile ("clrex" ::: "memory");
ARM GAS  C:\Users\7636~1\AppData\Local\Temp\ccloz7r5.s 			page 35


1135:Drivers/CMSIS/Include/cmsis_gcc.h **** }
1136:Drivers/CMSIS/Include/cmsis_gcc.h **** 
1137:Drivers/CMSIS/Include/cmsis_gcc.h **** #endif /* ((defined (__ARM_ARCH_7M__      ) && (__ARM_ARCH_7M__      == 1)) || \
1138:Drivers/CMSIS/Include/cmsis_gcc.h ****            (defined (__ARM_ARCH_7EM__     ) && (__ARM_ARCH_7EM__     == 1)) || \
1139:Drivers/CMSIS/Include/cmsis_gcc.h ****            (defined (__ARM_ARCH_8M_MAIN__ ) && (__ARM_ARCH_8M_MAIN__ == 1)) || \
1140:Drivers/CMSIS/Include/cmsis_gcc.h ****            (defined (__ARM_ARCH_8M_BASE__ ) && (__ARM_ARCH_8M_BASE__ == 1))    ) */
1141:Drivers/CMSIS/Include/cmsis_gcc.h **** 
1142:Drivers/CMSIS/Include/cmsis_gcc.h **** 
1143:Drivers/CMSIS/Include/cmsis_gcc.h **** #if ((defined (__ARM_ARCH_7M__      ) && (__ARM_ARCH_7M__      == 1)) || \
1144:Drivers/CMSIS/Include/cmsis_gcc.h ****      (defined (__ARM_ARCH_7EM__     ) && (__ARM_ARCH_7EM__     == 1)) || \
1145:Drivers/CMSIS/Include/cmsis_gcc.h ****      (defined (__ARM_ARCH_8M_MAIN__ ) && (__ARM_ARCH_8M_MAIN__ == 1))    )
1146:Drivers/CMSIS/Include/cmsis_gcc.h **** /**
1147:Drivers/CMSIS/Include/cmsis_gcc.h ****   \brief   Signed Saturate
1148:Drivers/CMSIS/Include/cmsis_gcc.h ****   \details Saturates a signed value.
1149:Drivers/CMSIS/Include/cmsis_gcc.h ****   \param [in]  ARG1  Value to be saturated
1150:Drivers/CMSIS/Include/cmsis_gcc.h ****   \param [in]  ARG2  Bit position to saturate to (1..32)
1151:Drivers/CMSIS/Include/cmsis_gcc.h ****   \return             Saturated value
1152:Drivers/CMSIS/Include/cmsis_gcc.h ****  */
1153:Drivers/CMSIS/Include/cmsis_gcc.h **** #define __SSAT(ARG1,ARG2) \
1154:Drivers/CMSIS/Include/cmsis_gcc.h **** __extension__ \
1155:Drivers/CMSIS/Include/cmsis_gcc.h **** ({                          \
1156:Drivers/CMSIS/Include/cmsis_gcc.h ****   int32_t __RES, __ARG1 = (ARG1); \
1157:Drivers/CMSIS/Include/cmsis_gcc.h ****   __ASM ("ssat %0, %1, %2" : "=r" (__RES) :  "I" (ARG2), "r" (__ARG1) ); \
1158:Drivers/CMSIS/Include/cmsis_gcc.h ****   __RES; \
1159:Drivers/CMSIS/Include/cmsis_gcc.h ****  })
1160:Drivers/CMSIS/Include/cmsis_gcc.h **** 
1161:Drivers/CMSIS/Include/cmsis_gcc.h **** 
1162:Drivers/CMSIS/Include/cmsis_gcc.h **** /**
1163:Drivers/CMSIS/Include/cmsis_gcc.h ****   \brief   Unsigned Saturate
1164:Drivers/CMSIS/Include/cmsis_gcc.h ****   \details Saturates an unsigned value.
1165:Drivers/CMSIS/Include/cmsis_gcc.h ****   \param [in]  ARG1  Value to be saturated
1166:Drivers/CMSIS/Include/cmsis_gcc.h ****   \param [in]  ARG2  Bit position to saturate to (0..31)
1167:Drivers/CMSIS/Include/cmsis_gcc.h ****   \return             Saturated value
1168:Drivers/CMSIS/Include/cmsis_gcc.h ****  */
1169:Drivers/CMSIS/Include/cmsis_gcc.h **** #define __USAT(ARG1,ARG2) \
1170:Drivers/CMSIS/Include/cmsis_gcc.h ****  __extension__ \
1171:Drivers/CMSIS/Include/cmsis_gcc.h **** ({                          \
1172:Drivers/CMSIS/Include/cmsis_gcc.h ****   uint32_t __RES, __ARG1 = (ARG1); \
1173:Drivers/CMSIS/Include/cmsis_gcc.h ****   __ASM ("usat %0, %1, %2" : "=r" (__RES) :  "I" (ARG2), "r" (__ARG1) ); \
1174:Drivers/CMSIS/Include/cmsis_gcc.h ****   __RES; \
1175:Drivers/CMSIS/Include/cmsis_gcc.h ****  })
1176:Drivers/CMSIS/Include/cmsis_gcc.h **** 
1177:Drivers/CMSIS/Include/cmsis_gcc.h **** 
1178:Drivers/CMSIS/Include/cmsis_gcc.h **** /**
1179:Drivers/CMSIS/Include/cmsis_gcc.h ****   \brief   Rotate Right with Extend (32 bit)
1180:Drivers/CMSIS/Include/cmsis_gcc.h ****   \details Moves each bit of a bitstring right by one bit.
1181:Drivers/CMSIS/Include/cmsis_gcc.h ****            The carry input is shifted in at the left end of the bitstring.
1182:Drivers/CMSIS/Include/cmsis_gcc.h ****   \param [in]    value  Value to rotate
1183:Drivers/CMSIS/Include/cmsis_gcc.h ****   \return               Rotated value
1184:Drivers/CMSIS/Include/cmsis_gcc.h ****  */
1185:Drivers/CMSIS/Include/cmsis_gcc.h **** __STATIC_FORCEINLINE uint32_t __RRX(uint32_t value)
1186:Drivers/CMSIS/Include/cmsis_gcc.h **** {
1187:Drivers/CMSIS/Include/cmsis_gcc.h ****   uint32_t result;
1188:Drivers/CMSIS/Include/cmsis_gcc.h **** 
1189:Drivers/CMSIS/Include/cmsis_gcc.h ****   __ASM volatile ("rrx %0, %1" : __CMSIS_GCC_OUT_REG (result) : __CMSIS_GCC_USE_REG (value) );
1190:Drivers/CMSIS/Include/cmsis_gcc.h ****   return(result);
1191:Drivers/CMSIS/Include/cmsis_gcc.h **** }
ARM GAS  C:\Users\7636~1\AppData\Local\Temp\ccloz7r5.s 			page 36


1192:Drivers/CMSIS/Include/cmsis_gcc.h **** 
1193:Drivers/CMSIS/Include/cmsis_gcc.h **** 
1194:Drivers/CMSIS/Include/cmsis_gcc.h **** /**
1195:Drivers/CMSIS/Include/cmsis_gcc.h ****   \brief   LDRT Unprivileged (8 bit)
1196:Drivers/CMSIS/Include/cmsis_gcc.h ****   \details Executes a Unprivileged LDRT instruction for 8 bit value.
1197:Drivers/CMSIS/Include/cmsis_gcc.h ****   \param [in]    ptr  Pointer to data
1198:Drivers/CMSIS/Include/cmsis_gcc.h ****   \return             value of type uint8_t at (*ptr)
1199:Drivers/CMSIS/Include/cmsis_gcc.h ****  */
1200:Drivers/CMSIS/Include/cmsis_gcc.h **** __STATIC_FORCEINLINE uint8_t __LDRBT(volatile uint8_t *ptr)
1201:Drivers/CMSIS/Include/cmsis_gcc.h **** {
1202:Drivers/CMSIS/Include/cmsis_gcc.h ****     uint32_t result;
1203:Drivers/CMSIS/Include/cmsis_gcc.h **** 
1204:Drivers/CMSIS/Include/cmsis_gcc.h **** #if (__GNUC__ > 4) || (__GNUC__ == 4 && __GNUC_MINOR__ >= 8)
1205:Drivers/CMSIS/Include/cmsis_gcc.h ****    __ASM volatile ("ldrbt %0, %1" : "=r" (result) : "Q" (*ptr) );
1206:Drivers/CMSIS/Include/cmsis_gcc.h **** #else
1207:Drivers/CMSIS/Include/cmsis_gcc.h ****     /* Prior to GCC 4.8, "Q" will be expanded to [rx, #0] which is not
1208:Drivers/CMSIS/Include/cmsis_gcc.h ****        accepted by assembler. So has to use following less efficient pattern.
1209:Drivers/CMSIS/Include/cmsis_gcc.h ****     */
1210:Drivers/CMSIS/Include/cmsis_gcc.h ****    __ASM volatile ("ldrbt %0, [%1]" : "=r" (result) : "r" (ptr) : "memory" );
1211:Drivers/CMSIS/Include/cmsis_gcc.h **** #endif
1212:Drivers/CMSIS/Include/cmsis_gcc.h ****    return ((uint8_t) result);    /* Add explicit type cast here */
1213:Drivers/CMSIS/Include/cmsis_gcc.h **** }
1214:Drivers/CMSIS/Include/cmsis_gcc.h **** 
1215:Drivers/CMSIS/Include/cmsis_gcc.h **** 
1216:Drivers/CMSIS/Include/cmsis_gcc.h **** /**
1217:Drivers/CMSIS/Include/cmsis_gcc.h ****   \brief   LDRT Unprivileged (16 bit)
1218:Drivers/CMSIS/Include/cmsis_gcc.h ****   \details Executes a Unprivileged LDRT instruction for 16 bit values.
1219:Drivers/CMSIS/Include/cmsis_gcc.h ****   \param [in]    ptr  Pointer to data
1220:Drivers/CMSIS/Include/cmsis_gcc.h ****   \return        value of type uint16_t at (*ptr)
1221:Drivers/CMSIS/Include/cmsis_gcc.h ****  */
1222:Drivers/CMSIS/Include/cmsis_gcc.h **** __STATIC_FORCEINLINE uint16_t __LDRHT(volatile uint16_t *ptr)
1223:Drivers/CMSIS/Include/cmsis_gcc.h **** {
1224:Drivers/CMSIS/Include/cmsis_gcc.h ****     uint32_t result;
1225:Drivers/CMSIS/Include/cmsis_gcc.h **** 
1226:Drivers/CMSIS/Include/cmsis_gcc.h **** #if (__GNUC__ > 4) || (__GNUC__ == 4 && __GNUC_MINOR__ >= 8)
1227:Drivers/CMSIS/Include/cmsis_gcc.h ****    __ASM volatile ("ldrht %0, %1" : "=r" (result) : "Q" (*ptr) );
1228:Drivers/CMSIS/Include/cmsis_gcc.h **** #else
1229:Drivers/CMSIS/Include/cmsis_gcc.h ****     /* Prior to GCC 4.8, "Q" will be expanded to [rx, #0] which is not
1230:Drivers/CMSIS/Include/cmsis_gcc.h ****        accepted by assembler. So has to use following less efficient pattern.
1231:Drivers/CMSIS/Include/cmsis_gcc.h ****     */
1232:Drivers/CMSIS/Include/cmsis_gcc.h ****    __ASM volatile ("ldrht %0, [%1]" : "=r" (result) : "r" (ptr) : "memory" );
1233:Drivers/CMSIS/Include/cmsis_gcc.h **** #endif
1234:Drivers/CMSIS/Include/cmsis_gcc.h ****    return ((uint16_t) result);    /* Add explicit type cast here */
1235:Drivers/CMSIS/Include/cmsis_gcc.h **** }
1236:Drivers/CMSIS/Include/cmsis_gcc.h **** 
1237:Drivers/CMSIS/Include/cmsis_gcc.h **** 
1238:Drivers/CMSIS/Include/cmsis_gcc.h **** /**
1239:Drivers/CMSIS/Include/cmsis_gcc.h ****   \brief   LDRT Unprivileged (32 bit)
1240:Drivers/CMSIS/Include/cmsis_gcc.h ****   \details Executes a Unprivileged LDRT instruction for 32 bit values.
1241:Drivers/CMSIS/Include/cmsis_gcc.h ****   \param [in]    ptr  Pointer to data
1242:Drivers/CMSIS/Include/cmsis_gcc.h ****   \return        value of type uint32_t at (*ptr)
1243:Drivers/CMSIS/Include/cmsis_gcc.h ****  */
1244:Drivers/CMSIS/Include/cmsis_gcc.h **** __STATIC_FORCEINLINE uint32_t __LDRT(volatile uint32_t *ptr)
1245:Drivers/CMSIS/Include/cmsis_gcc.h **** {
1246:Drivers/CMSIS/Include/cmsis_gcc.h ****     uint32_t result;
1247:Drivers/CMSIS/Include/cmsis_gcc.h **** 
1248:Drivers/CMSIS/Include/cmsis_gcc.h ****    __ASM volatile ("ldrt %0, %1" : "=r" (result) : "Q" (*ptr) );
ARM GAS  C:\Users\7636~1\AppData\Local\Temp\ccloz7r5.s 			page 37


1249:Drivers/CMSIS/Include/cmsis_gcc.h ****    return(result);
1250:Drivers/CMSIS/Include/cmsis_gcc.h **** }
1251:Drivers/CMSIS/Include/cmsis_gcc.h **** 
1252:Drivers/CMSIS/Include/cmsis_gcc.h **** 
1253:Drivers/CMSIS/Include/cmsis_gcc.h **** /**
1254:Drivers/CMSIS/Include/cmsis_gcc.h ****   \brief   STRT Unprivileged (8 bit)
1255:Drivers/CMSIS/Include/cmsis_gcc.h ****   \details Executes a Unprivileged STRT instruction for 8 bit values.
1256:Drivers/CMSIS/Include/cmsis_gcc.h ****   \param [in]  value  Value to store
1257:Drivers/CMSIS/Include/cmsis_gcc.h ****   \param [in]    ptr  Pointer to location
1258:Drivers/CMSIS/Include/cmsis_gcc.h ****  */
1259:Drivers/CMSIS/Include/cmsis_gcc.h **** __STATIC_FORCEINLINE void __STRBT(uint8_t value, volatile uint8_t *ptr)
1260:Drivers/CMSIS/Include/cmsis_gcc.h **** {
1261:Drivers/CMSIS/Include/cmsis_gcc.h ****    __ASM volatile ("strbt %1, %0" : "=Q" (*ptr) : "r" ((uint32_t)value) );
1262:Drivers/CMSIS/Include/cmsis_gcc.h **** }
1263:Drivers/CMSIS/Include/cmsis_gcc.h **** 
1264:Drivers/CMSIS/Include/cmsis_gcc.h **** 
1265:Drivers/CMSIS/Include/cmsis_gcc.h **** /**
1266:Drivers/CMSIS/Include/cmsis_gcc.h ****   \brief   STRT Unprivileged (16 bit)
1267:Drivers/CMSIS/Include/cmsis_gcc.h ****   \details Executes a Unprivileged STRT instruction for 16 bit values.
1268:Drivers/CMSIS/Include/cmsis_gcc.h ****   \param [in]  value  Value to store
1269:Drivers/CMSIS/Include/cmsis_gcc.h ****   \param [in]    ptr  Pointer to location
1270:Drivers/CMSIS/Include/cmsis_gcc.h ****  */
1271:Drivers/CMSIS/Include/cmsis_gcc.h **** __STATIC_FORCEINLINE void __STRHT(uint16_t value, volatile uint16_t *ptr)
1272:Drivers/CMSIS/Include/cmsis_gcc.h **** {
1273:Drivers/CMSIS/Include/cmsis_gcc.h ****    __ASM volatile ("strht %1, %0" : "=Q" (*ptr) : "r" ((uint32_t)value) );
1274:Drivers/CMSIS/Include/cmsis_gcc.h **** }
1275:Drivers/CMSIS/Include/cmsis_gcc.h **** 
1276:Drivers/CMSIS/Include/cmsis_gcc.h **** 
1277:Drivers/CMSIS/Include/cmsis_gcc.h **** /**
1278:Drivers/CMSIS/Include/cmsis_gcc.h ****   \brief   STRT Unprivileged (32 bit)
1279:Drivers/CMSIS/Include/cmsis_gcc.h ****   \details Executes a Unprivileged STRT instruction for 32 bit values.
1280:Drivers/CMSIS/Include/cmsis_gcc.h ****   \param [in]  value  Value to store
1281:Drivers/CMSIS/Include/cmsis_gcc.h ****   \param [in]    ptr  Pointer to location
1282:Drivers/CMSIS/Include/cmsis_gcc.h ****  */
1283:Drivers/CMSIS/Include/cmsis_gcc.h **** __STATIC_FORCEINLINE void __STRT(uint32_t value, volatile uint32_t *ptr)
1284:Drivers/CMSIS/Include/cmsis_gcc.h **** {
1285:Drivers/CMSIS/Include/cmsis_gcc.h ****    __ASM volatile ("strt %1, %0" : "=Q" (*ptr) : "r" (value) );
1286:Drivers/CMSIS/Include/cmsis_gcc.h **** }
1287:Drivers/CMSIS/Include/cmsis_gcc.h **** 
1288:Drivers/CMSIS/Include/cmsis_gcc.h **** #else  /* ((defined (__ARM_ARCH_7M__      ) && (__ARM_ARCH_7M__      == 1)) || \
1289:Drivers/CMSIS/Include/cmsis_gcc.h ****            (defined (__ARM_ARCH_7EM__     ) && (__ARM_ARCH_7EM__     == 1)) || \
1290:Drivers/CMSIS/Include/cmsis_gcc.h ****            (defined (__ARM_ARCH_8M_MAIN__ ) && (__ARM_ARCH_8M_MAIN__ == 1))    ) */
1291:Drivers/CMSIS/Include/cmsis_gcc.h **** 
1292:Drivers/CMSIS/Include/cmsis_gcc.h **** /**
1293:Drivers/CMSIS/Include/cmsis_gcc.h ****   \brief   Signed Saturate
1294:Drivers/CMSIS/Include/cmsis_gcc.h ****   \details Saturates a signed value.
1295:Drivers/CMSIS/Include/cmsis_gcc.h ****   \param [in]  value  Value to be saturated
1296:Drivers/CMSIS/Include/cmsis_gcc.h ****   \param [in]    sat  Bit position to saturate to (1..32)
1297:Drivers/CMSIS/Include/cmsis_gcc.h ****   \return             Saturated value
1298:Drivers/CMSIS/Include/cmsis_gcc.h ****  */
1299:Drivers/CMSIS/Include/cmsis_gcc.h **** __STATIC_FORCEINLINE int32_t __SSAT(int32_t val, uint32_t sat)
1300:Drivers/CMSIS/Include/cmsis_gcc.h **** {
1301:Drivers/CMSIS/Include/cmsis_gcc.h ****   if ((sat >= 1U) && (sat <= 32U))
1302:Drivers/CMSIS/Include/cmsis_gcc.h ****   {
1303:Drivers/CMSIS/Include/cmsis_gcc.h ****     const int32_t max = (int32_t)((1U << (sat - 1U)) - 1U);
1304:Drivers/CMSIS/Include/cmsis_gcc.h ****     const int32_t min = -1 - max ;
1305:Drivers/CMSIS/Include/cmsis_gcc.h ****     if (val > max)
ARM GAS  C:\Users\7636~1\AppData\Local\Temp\ccloz7r5.s 			page 38


1306:Drivers/CMSIS/Include/cmsis_gcc.h ****     {
1307:Drivers/CMSIS/Include/cmsis_gcc.h ****       return max;
1308:Drivers/CMSIS/Include/cmsis_gcc.h ****     }
1309:Drivers/CMSIS/Include/cmsis_gcc.h ****     else if (val < min)
1310:Drivers/CMSIS/Include/cmsis_gcc.h ****     {
1311:Drivers/CMSIS/Include/cmsis_gcc.h ****       return min;
1312:Drivers/CMSIS/Include/cmsis_gcc.h ****     }
1313:Drivers/CMSIS/Include/cmsis_gcc.h ****   }
1314:Drivers/CMSIS/Include/cmsis_gcc.h ****   return val;
1315:Drivers/CMSIS/Include/cmsis_gcc.h **** }
1316:Drivers/CMSIS/Include/cmsis_gcc.h **** 
1317:Drivers/CMSIS/Include/cmsis_gcc.h **** /**
1318:Drivers/CMSIS/Include/cmsis_gcc.h ****   \brief   Unsigned Saturate
1319:Drivers/CMSIS/Include/cmsis_gcc.h ****   \details Saturates an unsigned value.
1320:Drivers/CMSIS/Include/cmsis_gcc.h ****   \param [in]  value  Value to be saturated
1321:Drivers/CMSIS/Include/cmsis_gcc.h ****   \param [in]    sat  Bit position to saturate to (0..31)
1322:Drivers/CMSIS/Include/cmsis_gcc.h ****   \return             Saturated value
1323:Drivers/CMSIS/Include/cmsis_gcc.h ****  */
1324:Drivers/CMSIS/Include/cmsis_gcc.h **** __STATIC_FORCEINLINE uint32_t __USAT(int32_t val, uint32_t sat)
1325:Drivers/CMSIS/Include/cmsis_gcc.h **** {
1326:Drivers/CMSIS/Include/cmsis_gcc.h ****   if (sat <= 31U)
1327:Drivers/CMSIS/Include/cmsis_gcc.h ****   {
1328:Drivers/CMSIS/Include/cmsis_gcc.h ****     const uint32_t max = ((1U << sat) - 1U);
1329:Drivers/CMSIS/Include/cmsis_gcc.h ****     if (val > (int32_t)max)
1330:Drivers/CMSIS/Include/cmsis_gcc.h ****     {
1331:Drivers/CMSIS/Include/cmsis_gcc.h ****       return max;
1332:Drivers/CMSIS/Include/cmsis_gcc.h ****     }
1333:Drivers/CMSIS/Include/cmsis_gcc.h ****     else if (val < 0)
1334:Drivers/CMSIS/Include/cmsis_gcc.h ****     {
1335:Drivers/CMSIS/Include/cmsis_gcc.h ****       return 0U;
1336:Drivers/CMSIS/Include/cmsis_gcc.h ****     }
1337:Drivers/CMSIS/Include/cmsis_gcc.h ****   }
1338:Drivers/CMSIS/Include/cmsis_gcc.h ****   return (uint32_t)val;
1339:Drivers/CMSIS/Include/cmsis_gcc.h **** }
1340:Drivers/CMSIS/Include/cmsis_gcc.h **** 
1341:Drivers/CMSIS/Include/cmsis_gcc.h **** #endif /* ((defined (__ARM_ARCH_7M__      ) && (__ARM_ARCH_7M__      == 1)) || \
1342:Drivers/CMSIS/Include/cmsis_gcc.h ****            (defined (__ARM_ARCH_7EM__     ) && (__ARM_ARCH_7EM__     == 1)) || \
1343:Drivers/CMSIS/Include/cmsis_gcc.h ****            (defined (__ARM_ARCH_8M_MAIN__ ) && (__ARM_ARCH_8M_MAIN__ == 1))    ) */
1344:Drivers/CMSIS/Include/cmsis_gcc.h **** 
1345:Drivers/CMSIS/Include/cmsis_gcc.h **** 
1346:Drivers/CMSIS/Include/cmsis_gcc.h **** #if ((defined (__ARM_ARCH_8M_MAIN__ ) && (__ARM_ARCH_8M_MAIN__ == 1)) || \
1347:Drivers/CMSIS/Include/cmsis_gcc.h ****      (defined (__ARM_ARCH_8M_BASE__ ) && (__ARM_ARCH_8M_BASE__ == 1))    )
1348:Drivers/CMSIS/Include/cmsis_gcc.h **** /**
1349:Drivers/CMSIS/Include/cmsis_gcc.h ****   \brief   Load-Acquire (8 bit)
1350:Drivers/CMSIS/Include/cmsis_gcc.h ****   \details Executes a LDAB instruction for 8 bit value.
1351:Drivers/CMSIS/Include/cmsis_gcc.h ****   \param [in]    ptr  Pointer to data
1352:Drivers/CMSIS/Include/cmsis_gcc.h ****   \return             value of type uint8_t at (*ptr)
1353:Drivers/CMSIS/Include/cmsis_gcc.h ****  */
1354:Drivers/CMSIS/Include/cmsis_gcc.h **** __STATIC_FORCEINLINE uint8_t __LDAB(volatile uint8_t *ptr)
1355:Drivers/CMSIS/Include/cmsis_gcc.h **** {
1356:Drivers/CMSIS/Include/cmsis_gcc.h ****     uint32_t result;
1357:Drivers/CMSIS/Include/cmsis_gcc.h **** 
1358:Drivers/CMSIS/Include/cmsis_gcc.h ****    __ASM volatile ("ldab %0, %1" : "=r" (result) : "Q" (*ptr) );
1359:Drivers/CMSIS/Include/cmsis_gcc.h ****    return ((uint8_t) result);
1360:Drivers/CMSIS/Include/cmsis_gcc.h **** }
1361:Drivers/CMSIS/Include/cmsis_gcc.h **** 
1362:Drivers/CMSIS/Include/cmsis_gcc.h **** 
ARM GAS  C:\Users\7636~1\AppData\Local\Temp\ccloz7r5.s 			page 39


1363:Drivers/CMSIS/Include/cmsis_gcc.h **** /**
1364:Drivers/CMSIS/Include/cmsis_gcc.h ****   \brief   Load-Acquire (16 bit)
1365:Drivers/CMSIS/Include/cmsis_gcc.h ****   \details Executes a LDAH instruction for 16 bit values.
1366:Drivers/CMSIS/Include/cmsis_gcc.h ****   \param [in]    ptr  Pointer to data
1367:Drivers/CMSIS/Include/cmsis_gcc.h ****   \return        value of type uint16_t at (*ptr)
1368:Drivers/CMSIS/Include/cmsis_gcc.h ****  */
1369:Drivers/CMSIS/Include/cmsis_gcc.h **** __STATIC_FORCEINLINE uint16_t __LDAH(volatile uint16_t *ptr)
1370:Drivers/CMSIS/Include/cmsis_gcc.h **** {
1371:Drivers/CMSIS/Include/cmsis_gcc.h ****     uint32_t result;
1372:Drivers/CMSIS/Include/cmsis_gcc.h **** 
1373:Drivers/CMSIS/Include/cmsis_gcc.h ****    __ASM volatile ("ldah %0, %1" : "=r" (result) : "Q" (*ptr) );
1374:Drivers/CMSIS/Include/cmsis_gcc.h ****    return ((uint16_t) result);
1375:Drivers/CMSIS/Include/cmsis_gcc.h **** }
1376:Drivers/CMSIS/Include/cmsis_gcc.h **** 
1377:Drivers/CMSIS/Include/cmsis_gcc.h **** 
1378:Drivers/CMSIS/Include/cmsis_gcc.h **** /**
1379:Drivers/CMSIS/Include/cmsis_gcc.h ****   \brief   Load-Acquire (32 bit)
1380:Drivers/CMSIS/Include/cmsis_gcc.h ****   \details Executes a LDA instruction for 32 bit values.
1381:Drivers/CMSIS/Include/cmsis_gcc.h ****   \param [in]    ptr  Pointer to data
1382:Drivers/CMSIS/Include/cmsis_gcc.h ****   \return        value of type uint32_t at (*ptr)
1383:Drivers/CMSIS/Include/cmsis_gcc.h ****  */
1384:Drivers/CMSIS/Include/cmsis_gcc.h **** __STATIC_FORCEINLINE uint32_t __LDA(volatile uint32_t *ptr)
1385:Drivers/CMSIS/Include/cmsis_gcc.h **** {
1386:Drivers/CMSIS/Include/cmsis_gcc.h ****     uint32_t result;
1387:Drivers/CMSIS/Include/cmsis_gcc.h **** 
1388:Drivers/CMSIS/Include/cmsis_gcc.h ****    __ASM volatile ("lda %0, %1" : "=r" (result) : "Q" (*ptr) );
1389:Drivers/CMSIS/Include/cmsis_gcc.h ****    return(result);
1390:Drivers/CMSIS/Include/cmsis_gcc.h **** }
1391:Drivers/CMSIS/Include/cmsis_gcc.h **** 
1392:Drivers/CMSIS/Include/cmsis_gcc.h **** 
1393:Drivers/CMSIS/Include/cmsis_gcc.h **** /**
1394:Drivers/CMSIS/Include/cmsis_gcc.h ****   \brief   Store-Release (8 bit)
1395:Drivers/CMSIS/Include/cmsis_gcc.h ****   \details Executes a STLB instruction for 8 bit values.
1396:Drivers/CMSIS/Include/cmsis_gcc.h ****   \param [in]  value  Value to store
1397:Drivers/CMSIS/Include/cmsis_gcc.h ****   \param [in]    ptr  Pointer to location
1398:Drivers/CMSIS/Include/cmsis_gcc.h ****  */
1399:Drivers/CMSIS/Include/cmsis_gcc.h **** __STATIC_FORCEINLINE void __STLB(uint8_t value, volatile uint8_t *ptr)
1400:Drivers/CMSIS/Include/cmsis_gcc.h **** {
1401:Drivers/CMSIS/Include/cmsis_gcc.h ****    __ASM volatile ("stlb %1, %0" : "=Q" (*ptr) : "r" ((uint32_t)value) );
1402:Drivers/CMSIS/Include/cmsis_gcc.h **** }
1403:Drivers/CMSIS/Include/cmsis_gcc.h **** 
1404:Drivers/CMSIS/Include/cmsis_gcc.h **** 
1405:Drivers/CMSIS/Include/cmsis_gcc.h **** /**
1406:Drivers/CMSIS/Include/cmsis_gcc.h ****   \brief   Store-Release (16 bit)
1407:Drivers/CMSIS/Include/cmsis_gcc.h ****   \details Executes a STLH instruction for 16 bit values.
1408:Drivers/CMSIS/Include/cmsis_gcc.h ****   \param [in]  value  Value to store
1409:Drivers/CMSIS/Include/cmsis_gcc.h ****   \param [in]    ptr  Pointer to location
1410:Drivers/CMSIS/Include/cmsis_gcc.h ****  */
1411:Drivers/CMSIS/Include/cmsis_gcc.h **** __STATIC_FORCEINLINE void __STLH(uint16_t value, volatile uint16_t *ptr)
1412:Drivers/CMSIS/Include/cmsis_gcc.h **** {
1413:Drivers/CMSIS/Include/cmsis_gcc.h ****    __ASM volatile ("stlh %1, %0" : "=Q" (*ptr) : "r" ((uint32_t)value) );
1414:Drivers/CMSIS/Include/cmsis_gcc.h **** }
1415:Drivers/CMSIS/Include/cmsis_gcc.h **** 
1416:Drivers/CMSIS/Include/cmsis_gcc.h **** 
1417:Drivers/CMSIS/Include/cmsis_gcc.h **** /**
1418:Drivers/CMSIS/Include/cmsis_gcc.h ****   \brief   Store-Release (32 bit)
1419:Drivers/CMSIS/Include/cmsis_gcc.h ****   \details Executes a STL instruction for 32 bit values.
ARM GAS  C:\Users\7636~1\AppData\Local\Temp\ccloz7r5.s 			page 40


1420:Drivers/CMSIS/Include/cmsis_gcc.h ****   \param [in]  value  Value to store
1421:Drivers/CMSIS/Include/cmsis_gcc.h ****   \param [in]    ptr  Pointer to location
1422:Drivers/CMSIS/Include/cmsis_gcc.h ****  */
1423:Drivers/CMSIS/Include/cmsis_gcc.h **** __STATIC_FORCEINLINE void __STL(uint32_t value, volatile uint32_t *ptr)
1424:Drivers/CMSIS/Include/cmsis_gcc.h **** {
1425:Drivers/CMSIS/Include/cmsis_gcc.h ****    __ASM volatile ("stl %1, %0" : "=Q" (*ptr) : "r" ((uint32_t)value) );
1426:Drivers/CMSIS/Include/cmsis_gcc.h **** }
1427:Drivers/CMSIS/Include/cmsis_gcc.h **** 
1428:Drivers/CMSIS/Include/cmsis_gcc.h **** 
1429:Drivers/CMSIS/Include/cmsis_gcc.h **** /**
1430:Drivers/CMSIS/Include/cmsis_gcc.h ****   \brief   Load-Acquire Exclusive (8 bit)
1431:Drivers/CMSIS/Include/cmsis_gcc.h ****   \details Executes a LDAB exclusive instruction for 8 bit value.
1432:Drivers/CMSIS/Include/cmsis_gcc.h ****   \param [in]    ptr  Pointer to data
1433:Drivers/CMSIS/Include/cmsis_gcc.h ****   \return             value of type uint8_t at (*ptr)
1434:Drivers/CMSIS/Include/cmsis_gcc.h ****  */
1435:Drivers/CMSIS/Include/cmsis_gcc.h **** __STATIC_FORCEINLINE uint8_t __LDAEXB(volatile uint8_t *ptr)
1436:Drivers/CMSIS/Include/cmsis_gcc.h **** {
1437:Drivers/CMSIS/Include/cmsis_gcc.h ****     uint32_t result;
1438:Drivers/CMSIS/Include/cmsis_gcc.h **** 
1439:Drivers/CMSIS/Include/cmsis_gcc.h ****    __ASM volatile ("ldaexb %0, %1" : "=r" (result) : "Q" (*ptr) );
1440:Drivers/CMSIS/Include/cmsis_gcc.h ****    return ((uint8_t) result);
1441:Drivers/CMSIS/Include/cmsis_gcc.h **** }
1442:Drivers/CMSIS/Include/cmsis_gcc.h **** 
1443:Drivers/CMSIS/Include/cmsis_gcc.h **** 
1444:Drivers/CMSIS/Include/cmsis_gcc.h **** /**
1445:Drivers/CMSIS/Include/cmsis_gcc.h ****   \brief   Load-Acquire Exclusive (16 bit)
1446:Drivers/CMSIS/Include/cmsis_gcc.h ****   \details Executes a LDAH exclusive instruction for 16 bit values.
1447:Drivers/CMSIS/Include/cmsis_gcc.h ****   \param [in]    ptr  Pointer to data
1448:Drivers/CMSIS/Include/cmsis_gcc.h ****   \return        value of type uint16_t at (*ptr)
1449:Drivers/CMSIS/Include/cmsis_gcc.h ****  */
1450:Drivers/CMSIS/Include/cmsis_gcc.h **** __STATIC_FORCEINLINE uint16_t __LDAEXH(volatile uint16_t *ptr)
1451:Drivers/CMSIS/Include/cmsis_gcc.h **** {
1452:Drivers/CMSIS/Include/cmsis_gcc.h ****     uint32_t result;
1453:Drivers/CMSIS/Include/cmsis_gcc.h **** 
1454:Drivers/CMSIS/Include/cmsis_gcc.h ****    __ASM volatile ("ldaexh %0, %1" : "=r" (result) : "Q" (*ptr) );
1455:Drivers/CMSIS/Include/cmsis_gcc.h ****    return ((uint16_t) result);
1456:Drivers/CMSIS/Include/cmsis_gcc.h **** }
1457:Drivers/CMSIS/Include/cmsis_gcc.h **** 
1458:Drivers/CMSIS/Include/cmsis_gcc.h **** 
1459:Drivers/CMSIS/Include/cmsis_gcc.h **** /**
1460:Drivers/CMSIS/Include/cmsis_gcc.h ****   \brief   Load-Acquire Exclusive (32 bit)
1461:Drivers/CMSIS/Include/cmsis_gcc.h ****   \details Executes a LDA exclusive instruction for 32 bit values.
1462:Drivers/CMSIS/Include/cmsis_gcc.h ****   \param [in]    ptr  Pointer to data
1463:Drivers/CMSIS/Include/cmsis_gcc.h ****   \return        value of type uint32_t at (*ptr)
1464:Drivers/CMSIS/Include/cmsis_gcc.h ****  */
1465:Drivers/CMSIS/Include/cmsis_gcc.h **** __STATIC_FORCEINLINE uint32_t __LDAEX(volatile uint32_t *ptr)
1466:Drivers/CMSIS/Include/cmsis_gcc.h **** {
1467:Drivers/CMSIS/Include/cmsis_gcc.h ****     uint32_t result;
1468:Drivers/CMSIS/Include/cmsis_gcc.h **** 
1469:Drivers/CMSIS/Include/cmsis_gcc.h ****    __ASM volatile ("ldaex %0, %1" : "=r" (result) : "Q" (*ptr) );
1470:Drivers/CMSIS/Include/cmsis_gcc.h ****    return(result);
1471:Drivers/CMSIS/Include/cmsis_gcc.h **** }
1472:Drivers/CMSIS/Include/cmsis_gcc.h **** 
1473:Drivers/CMSIS/Include/cmsis_gcc.h **** 
1474:Drivers/CMSIS/Include/cmsis_gcc.h **** /**
1475:Drivers/CMSIS/Include/cmsis_gcc.h ****   \brief   Store-Release Exclusive (8 bit)
1476:Drivers/CMSIS/Include/cmsis_gcc.h ****   \details Executes a STLB exclusive instruction for 8 bit values.
ARM GAS  C:\Users\7636~1\AppData\Local\Temp\ccloz7r5.s 			page 41


1477:Drivers/CMSIS/Include/cmsis_gcc.h ****   \param [in]  value  Value to store
1478:Drivers/CMSIS/Include/cmsis_gcc.h ****   \param [in]    ptr  Pointer to location
1479:Drivers/CMSIS/Include/cmsis_gcc.h ****   \return          0  Function succeeded
1480:Drivers/CMSIS/Include/cmsis_gcc.h ****   \return          1  Function failed
1481:Drivers/CMSIS/Include/cmsis_gcc.h ****  */
1482:Drivers/CMSIS/Include/cmsis_gcc.h **** __STATIC_FORCEINLINE uint32_t __STLEXB(uint8_t value, volatile uint8_t *ptr)
1483:Drivers/CMSIS/Include/cmsis_gcc.h **** {
1484:Drivers/CMSIS/Include/cmsis_gcc.h ****    uint32_t result;
1485:Drivers/CMSIS/Include/cmsis_gcc.h **** 
1486:Drivers/CMSIS/Include/cmsis_gcc.h ****    __ASM volatile ("stlexb %0, %2, %1" : "=&r" (result), "=Q" (*ptr) : "r" ((uint32_t)value) );
1487:Drivers/CMSIS/Include/cmsis_gcc.h ****    return(result);
1488:Drivers/CMSIS/Include/cmsis_gcc.h **** }
1489:Drivers/CMSIS/Include/cmsis_gcc.h **** 
1490:Drivers/CMSIS/Include/cmsis_gcc.h **** 
1491:Drivers/CMSIS/Include/cmsis_gcc.h **** /**
1492:Drivers/CMSIS/Include/cmsis_gcc.h ****   \brief   Store-Release Exclusive (16 bit)
1493:Drivers/CMSIS/Include/cmsis_gcc.h ****   \details Executes a STLH exclusive instruction for 16 bit values.
1494:Drivers/CMSIS/Include/cmsis_gcc.h ****   \param [in]  value  Value to store
1495:Drivers/CMSIS/Include/cmsis_gcc.h ****   \param [in]    ptr  Pointer to location
1496:Drivers/CMSIS/Include/cmsis_gcc.h ****   \return          0  Function succeeded
1497:Drivers/CMSIS/Include/cmsis_gcc.h ****   \return          1  Function failed
1498:Drivers/CMSIS/Include/cmsis_gcc.h ****  */
1499:Drivers/CMSIS/Include/cmsis_gcc.h **** __STATIC_FORCEINLINE uint32_t __STLEXH(uint16_t value, volatile uint16_t *ptr)
1500:Drivers/CMSIS/Include/cmsis_gcc.h **** {
1501:Drivers/CMSIS/Include/cmsis_gcc.h ****    uint32_t result;
1502:Drivers/CMSIS/Include/cmsis_gcc.h **** 
1503:Drivers/CMSIS/Include/cmsis_gcc.h ****    __ASM volatile ("stlexh %0, %2, %1" : "=&r" (result), "=Q" (*ptr) : "r" ((uint32_t)value) );
1504:Drivers/CMSIS/Include/cmsis_gcc.h ****    return(result);
1505:Drivers/CMSIS/Include/cmsis_gcc.h **** }
1506:Drivers/CMSIS/Include/cmsis_gcc.h **** 
1507:Drivers/CMSIS/Include/cmsis_gcc.h **** 
1508:Drivers/CMSIS/Include/cmsis_gcc.h **** /**
1509:Drivers/CMSIS/Include/cmsis_gcc.h ****   \brief   Store-Release Exclusive (32 bit)
1510:Drivers/CMSIS/Include/cmsis_gcc.h ****   \details Executes a STL exclusive instruction for 32 bit values.
1511:Drivers/CMSIS/Include/cmsis_gcc.h ****   \param [in]  value  Value to store
1512:Drivers/CMSIS/Include/cmsis_gcc.h ****   \param [in]    ptr  Pointer to location
1513:Drivers/CMSIS/Include/cmsis_gcc.h ****   \return          0  Function succeeded
1514:Drivers/CMSIS/Include/cmsis_gcc.h ****   \return          1  Function failed
1515:Drivers/CMSIS/Include/cmsis_gcc.h ****  */
1516:Drivers/CMSIS/Include/cmsis_gcc.h **** __STATIC_FORCEINLINE uint32_t __STLEX(uint32_t value, volatile uint32_t *ptr)
1517:Drivers/CMSIS/Include/cmsis_gcc.h **** {
1518:Drivers/CMSIS/Include/cmsis_gcc.h ****    uint32_t result;
1519:Drivers/CMSIS/Include/cmsis_gcc.h **** 
1520:Drivers/CMSIS/Include/cmsis_gcc.h ****    __ASM volatile ("stlex %0, %2, %1" : "=&r" (result), "=Q" (*ptr) : "r" ((uint32_t)value) );
1521:Drivers/CMSIS/Include/cmsis_gcc.h ****    return(result);
1522:Drivers/CMSIS/Include/cmsis_gcc.h **** }
1523:Drivers/CMSIS/Include/cmsis_gcc.h **** 
1524:Drivers/CMSIS/Include/cmsis_gcc.h **** #endif /* ((defined (__ARM_ARCH_8M_MAIN__ ) && (__ARM_ARCH_8M_MAIN__ == 1)) || \
1525:Drivers/CMSIS/Include/cmsis_gcc.h ****            (defined (__ARM_ARCH_8M_BASE__ ) && (__ARM_ARCH_8M_BASE__ == 1))    ) */
1526:Drivers/CMSIS/Include/cmsis_gcc.h **** 
1527:Drivers/CMSIS/Include/cmsis_gcc.h **** /*@}*/ /* end of group CMSIS_Core_InstructionInterface */
1528:Drivers/CMSIS/Include/cmsis_gcc.h **** 
1529:Drivers/CMSIS/Include/cmsis_gcc.h **** 
1530:Drivers/CMSIS/Include/cmsis_gcc.h **** /* ###################  Compiler specific Intrinsics  ########################### */
1531:Drivers/CMSIS/Include/cmsis_gcc.h **** /** \defgroup CMSIS_SIMD_intrinsics CMSIS SIMD Intrinsics
1532:Drivers/CMSIS/Include/cmsis_gcc.h ****   Access to dedicated SIMD instructions
1533:Drivers/CMSIS/Include/cmsis_gcc.h ****   @{
ARM GAS  C:\Users\7636~1\AppData\Local\Temp\ccloz7r5.s 			page 42


1534:Drivers/CMSIS/Include/cmsis_gcc.h **** */
1535:Drivers/CMSIS/Include/cmsis_gcc.h **** 
1536:Drivers/CMSIS/Include/cmsis_gcc.h **** #if (defined (__ARM_FEATURE_DSP) && (__ARM_FEATURE_DSP == 1))
1537:Drivers/CMSIS/Include/cmsis_gcc.h **** 
1538:Drivers/CMSIS/Include/cmsis_gcc.h **** __STATIC_FORCEINLINE uint32_t __SADD8(uint32_t op1, uint32_t op2)
1539:Drivers/CMSIS/Include/cmsis_gcc.h **** {
1540:Drivers/CMSIS/Include/cmsis_gcc.h ****   uint32_t result;
1541:Drivers/CMSIS/Include/cmsis_gcc.h **** 
1542:Drivers/CMSIS/Include/cmsis_gcc.h ****   __ASM volatile ("sadd8 %0, %1, %2" : "=r" (result) : "r" (op1), "r" (op2) );
1543:Drivers/CMSIS/Include/cmsis_gcc.h ****   return(result);
1544:Drivers/CMSIS/Include/cmsis_gcc.h **** }
1545:Drivers/CMSIS/Include/cmsis_gcc.h **** 
1546:Drivers/CMSIS/Include/cmsis_gcc.h **** __STATIC_FORCEINLINE uint32_t __QADD8(uint32_t op1, uint32_t op2)
1547:Drivers/CMSIS/Include/cmsis_gcc.h **** {
1548:Drivers/CMSIS/Include/cmsis_gcc.h ****   uint32_t result;
1549:Drivers/CMSIS/Include/cmsis_gcc.h **** 
1550:Drivers/CMSIS/Include/cmsis_gcc.h ****   __ASM volatile ("qadd8 %0, %1, %2" : "=r" (result) : "r" (op1), "r" (op2) );
1551:Drivers/CMSIS/Include/cmsis_gcc.h ****   return(result);
1552:Drivers/CMSIS/Include/cmsis_gcc.h **** }
1553:Drivers/CMSIS/Include/cmsis_gcc.h **** 
1554:Drivers/CMSIS/Include/cmsis_gcc.h **** __STATIC_FORCEINLINE uint32_t __SHADD8(uint32_t op1, uint32_t op2)
1555:Drivers/CMSIS/Include/cmsis_gcc.h **** {
1556:Drivers/CMSIS/Include/cmsis_gcc.h ****   uint32_t result;
1557:Drivers/CMSIS/Include/cmsis_gcc.h **** 
1558:Drivers/CMSIS/Include/cmsis_gcc.h ****   __ASM volatile ("shadd8 %0, %1, %2" : "=r" (result) : "r" (op1), "r" (op2) );
1559:Drivers/CMSIS/Include/cmsis_gcc.h ****   return(result);
1560:Drivers/CMSIS/Include/cmsis_gcc.h **** }
1561:Drivers/CMSIS/Include/cmsis_gcc.h **** 
1562:Drivers/CMSIS/Include/cmsis_gcc.h **** __STATIC_FORCEINLINE uint32_t __UADD8(uint32_t op1, uint32_t op2)
1563:Drivers/CMSIS/Include/cmsis_gcc.h **** {
1564:Drivers/CMSIS/Include/cmsis_gcc.h ****   uint32_t result;
1565:Drivers/CMSIS/Include/cmsis_gcc.h **** 
1566:Drivers/CMSIS/Include/cmsis_gcc.h ****   __ASM volatile ("uadd8 %0, %1, %2" : "=r" (result) : "r" (op1), "r" (op2) );
1567:Drivers/CMSIS/Include/cmsis_gcc.h ****   return(result);
1568:Drivers/CMSIS/Include/cmsis_gcc.h **** }
1569:Drivers/CMSIS/Include/cmsis_gcc.h **** 
1570:Drivers/CMSIS/Include/cmsis_gcc.h **** __STATIC_FORCEINLINE uint32_t __UQADD8(uint32_t op1, uint32_t op2)
1571:Drivers/CMSIS/Include/cmsis_gcc.h **** {
1572:Drivers/CMSIS/Include/cmsis_gcc.h ****   uint32_t result;
1573:Drivers/CMSIS/Include/cmsis_gcc.h **** 
1574:Drivers/CMSIS/Include/cmsis_gcc.h ****   __ASM volatile ("uqadd8 %0, %1, %2" : "=r" (result) : "r" (op1), "r" (op2) );
1575:Drivers/CMSIS/Include/cmsis_gcc.h ****   return(result);
1576:Drivers/CMSIS/Include/cmsis_gcc.h **** }
1577:Drivers/CMSIS/Include/cmsis_gcc.h **** 
1578:Drivers/CMSIS/Include/cmsis_gcc.h **** __STATIC_FORCEINLINE uint32_t __UHADD8(uint32_t op1, uint32_t op2)
1579:Drivers/CMSIS/Include/cmsis_gcc.h **** {
1580:Drivers/CMSIS/Include/cmsis_gcc.h ****   uint32_t result;
1581:Drivers/CMSIS/Include/cmsis_gcc.h **** 
1582:Drivers/CMSIS/Include/cmsis_gcc.h ****   __ASM volatile ("uhadd8 %0, %1, %2" : "=r" (result) : "r" (op1), "r" (op2) );
1583:Drivers/CMSIS/Include/cmsis_gcc.h ****   return(result);
1584:Drivers/CMSIS/Include/cmsis_gcc.h **** }
1585:Drivers/CMSIS/Include/cmsis_gcc.h **** 
1586:Drivers/CMSIS/Include/cmsis_gcc.h **** 
1587:Drivers/CMSIS/Include/cmsis_gcc.h **** __STATIC_FORCEINLINE uint32_t __SSUB8(uint32_t op1, uint32_t op2)
1588:Drivers/CMSIS/Include/cmsis_gcc.h **** {
1589:Drivers/CMSIS/Include/cmsis_gcc.h ****   uint32_t result;
1590:Drivers/CMSIS/Include/cmsis_gcc.h **** 
ARM GAS  C:\Users\7636~1\AppData\Local\Temp\ccloz7r5.s 			page 43


1591:Drivers/CMSIS/Include/cmsis_gcc.h ****   __ASM volatile ("ssub8 %0, %1, %2" : "=r" (result) : "r" (op1), "r" (op2) );
1592:Drivers/CMSIS/Include/cmsis_gcc.h ****   return(result);
1593:Drivers/CMSIS/Include/cmsis_gcc.h **** }
1594:Drivers/CMSIS/Include/cmsis_gcc.h **** 
1595:Drivers/CMSIS/Include/cmsis_gcc.h **** __STATIC_FORCEINLINE uint32_t __QSUB8(uint32_t op1, uint32_t op2)
1596:Drivers/CMSIS/Include/cmsis_gcc.h **** {
1597:Drivers/CMSIS/Include/cmsis_gcc.h ****   uint32_t result;
1598:Drivers/CMSIS/Include/cmsis_gcc.h **** 
1599:Drivers/CMSIS/Include/cmsis_gcc.h ****   __ASM volatile ("qsub8 %0, %1, %2" : "=r" (result) : "r" (op1), "r" (op2) );
1600:Drivers/CMSIS/Include/cmsis_gcc.h ****   return(result);
1601:Drivers/CMSIS/Include/cmsis_gcc.h **** }
1602:Drivers/CMSIS/Include/cmsis_gcc.h **** 
1603:Drivers/CMSIS/Include/cmsis_gcc.h **** __STATIC_FORCEINLINE uint32_t __SHSUB8(uint32_t op1, uint32_t op2)
1604:Drivers/CMSIS/Include/cmsis_gcc.h **** {
1605:Drivers/CMSIS/Include/cmsis_gcc.h ****   uint32_t result;
1606:Drivers/CMSIS/Include/cmsis_gcc.h **** 
1607:Drivers/CMSIS/Include/cmsis_gcc.h ****   __ASM volatile ("shsub8 %0, %1, %2" : "=r" (result) : "r" (op1), "r" (op2) );
1608:Drivers/CMSIS/Include/cmsis_gcc.h ****   return(result);
1609:Drivers/CMSIS/Include/cmsis_gcc.h **** }
1610:Drivers/CMSIS/Include/cmsis_gcc.h **** 
1611:Drivers/CMSIS/Include/cmsis_gcc.h **** __STATIC_FORCEINLINE uint32_t __USUB8(uint32_t op1, uint32_t op2)
1612:Drivers/CMSIS/Include/cmsis_gcc.h **** {
1613:Drivers/CMSIS/Include/cmsis_gcc.h ****   uint32_t result;
1614:Drivers/CMSIS/Include/cmsis_gcc.h **** 
1615:Drivers/CMSIS/Include/cmsis_gcc.h ****   __ASM volatile ("usub8 %0, %1, %2" : "=r" (result) : "r" (op1), "r" (op2) );
1616:Drivers/CMSIS/Include/cmsis_gcc.h ****   return(result);
1617:Drivers/CMSIS/Include/cmsis_gcc.h **** }
1618:Drivers/CMSIS/Include/cmsis_gcc.h **** 
1619:Drivers/CMSIS/Include/cmsis_gcc.h **** __STATIC_FORCEINLINE uint32_t __UQSUB8(uint32_t op1, uint32_t op2)
1620:Drivers/CMSIS/Include/cmsis_gcc.h **** {
1621:Drivers/CMSIS/Include/cmsis_gcc.h ****   uint32_t result;
1622:Drivers/CMSIS/Include/cmsis_gcc.h **** 
1623:Drivers/CMSIS/Include/cmsis_gcc.h ****   __ASM volatile ("uqsub8 %0, %1, %2" : "=r" (result) : "r" (op1), "r" (op2) );
1624:Drivers/CMSIS/Include/cmsis_gcc.h ****   return(result);
1625:Drivers/CMSIS/Include/cmsis_gcc.h **** }
1626:Drivers/CMSIS/Include/cmsis_gcc.h **** 
1627:Drivers/CMSIS/Include/cmsis_gcc.h **** __STATIC_FORCEINLINE uint32_t __UHSUB8(uint32_t op1, uint32_t op2)
1628:Drivers/CMSIS/Include/cmsis_gcc.h **** {
1629:Drivers/CMSIS/Include/cmsis_gcc.h ****   uint32_t result;
1630:Drivers/CMSIS/Include/cmsis_gcc.h **** 
1631:Drivers/CMSIS/Include/cmsis_gcc.h ****   __ASM volatile ("uhsub8 %0, %1, %2" : "=r" (result) : "r" (op1), "r" (op2) );
1632:Drivers/CMSIS/Include/cmsis_gcc.h ****   return(result);
1633:Drivers/CMSIS/Include/cmsis_gcc.h **** }
1634:Drivers/CMSIS/Include/cmsis_gcc.h **** 
1635:Drivers/CMSIS/Include/cmsis_gcc.h **** 
1636:Drivers/CMSIS/Include/cmsis_gcc.h **** __STATIC_FORCEINLINE uint32_t __SADD16(uint32_t op1, uint32_t op2)
1637:Drivers/CMSIS/Include/cmsis_gcc.h **** {
1638:Drivers/CMSIS/Include/cmsis_gcc.h ****   uint32_t result;
1639:Drivers/CMSIS/Include/cmsis_gcc.h **** 
1640:Drivers/CMSIS/Include/cmsis_gcc.h ****   __ASM volatile ("sadd16 %0, %1, %2" : "=r" (result) : "r" (op1), "r" (op2) );
1641:Drivers/CMSIS/Include/cmsis_gcc.h ****   return(result);
1642:Drivers/CMSIS/Include/cmsis_gcc.h **** }
1643:Drivers/CMSIS/Include/cmsis_gcc.h **** 
1644:Drivers/CMSIS/Include/cmsis_gcc.h **** __STATIC_FORCEINLINE uint32_t __QADD16(uint32_t op1, uint32_t op2)
1645:Drivers/CMSIS/Include/cmsis_gcc.h **** {
1646:Drivers/CMSIS/Include/cmsis_gcc.h ****   uint32_t result;
1647:Drivers/CMSIS/Include/cmsis_gcc.h **** 
ARM GAS  C:\Users\7636~1\AppData\Local\Temp\ccloz7r5.s 			page 44


1648:Drivers/CMSIS/Include/cmsis_gcc.h ****   __ASM volatile ("qadd16 %0, %1, %2" : "=r" (result) : "r" (op1), "r" (op2) );
1649:Drivers/CMSIS/Include/cmsis_gcc.h ****   return(result);
1650:Drivers/CMSIS/Include/cmsis_gcc.h **** }
1651:Drivers/CMSIS/Include/cmsis_gcc.h **** 
1652:Drivers/CMSIS/Include/cmsis_gcc.h **** __STATIC_FORCEINLINE uint32_t __SHADD16(uint32_t op1, uint32_t op2)
1653:Drivers/CMSIS/Include/cmsis_gcc.h **** {
1654:Drivers/CMSIS/Include/cmsis_gcc.h ****   uint32_t result;
1655:Drivers/CMSIS/Include/cmsis_gcc.h **** 
1656:Drivers/CMSIS/Include/cmsis_gcc.h ****   __ASM volatile ("shadd16 %0, %1, %2" : "=r" (result) : "r" (op1), "r" (op2) );
1657:Drivers/CMSIS/Include/cmsis_gcc.h ****   return(result);
1658:Drivers/CMSIS/Include/cmsis_gcc.h **** }
1659:Drivers/CMSIS/Include/cmsis_gcc.h **** 
1660:Drivers/CMSIS/Include/cmsis_gcc.h **** __STATIC_FORCEINLINE uint32_t __UADD16(uint32_t op1, uint32_t op2)
1661:Drivers/CMSIS/Include/cmsis_gcc.h **** {
1662:Drivers/CMSIS/Include/cmsis_gcc.h ****   uint32_t result;
1663:Drivers/CMSIS/Include/cmsis_gcc.h **** 
1664:Drivers/CMSIS/Include/cmsis_gcc.h ****   __ASM volatile ("uadd16 %0, %1, %2" : "=r" (result) : "r" (op1), "r" (op2) );
1665:Drivers/CMSIS/Include/cmsis_gcc.h ****   return(result);
1666:Drivers/CMSIS/Include/cmsis_gcc.h **** }
1667:Drivers/CMSIS/Include/cmsis_gcc.h **** 
1668:Drivers/CMSIS/Include/cmsis_gcc.h **** __STATIC_FORCEINLINE uint32_t __UQADD16(uint32_t op1, uint32_t op2)
1669:Drivers/CMSIS/Include/cmsis_gcc.h **** {
1670:Drivers/CMSIS/Include/cmsis_gcc.h ****   uint32_t result;
1671:Drivers/CMSIS/Include/cmsis_gcc.h **** 
1672:Drivers/CMSIS/Include/cmsis_gcc.h ****   __ASM volatile ("uqadd16 %0, %1, %2" : "=r" (result) : "r" (op1), "r" (op2) );
1673:Drivers/CMSIS/Include/cmsis_gcc.h ****   return(result);
1674:Drivers/CMSIS/Include/cmsis_gcc.h **** }
1675:Drivers/CMSIS/Include/cmsis_gcc.h **** 
1676:Drivers/CMSIS/Include/cmsis_gcc.h **** __STATIC_FORCEINLINE uint32_t __UHADD16(uint32_t op1, uint32_t op2)
1677:Drivers/CMSIS/Include/cmsis_gcc.h **** {
1678:Drivers/CMSIS/Include/cmsis_gcc.h ****   uint32_t result;
1679:Drivers/CMSIS/Include/cmsis_gcc.h **** 
1680:Drivers/CMSIS/Include/cmsis_gcc.h ****   __ASM volatile ("uhadd16 %0, %1, %2" : "=r" (result) : "r" (op1), "r" (op2) );
1681:Drivers/CMSIS/Include/cmsis_gcc.h ****   return(result);
1682:Drivers/CMSIS/Include/cmsis_gcc.h **** }
1683:Drivers/CMSIS/Include/cmsis_gcc.h **** 
1684:Drivers/CMSIS/Include/cmsis_gcc.h **** __STATIC_FORCEINLINE uint32_t __SSUB16(uint32_t op1, uint32_t op2)
1685:Drivers/CMSIS/Include/cmsis_gcc.h **** {
1686:Drivers/CMSIS/Include/cmsis_gcc.h ****   uint32_t result;
1687:Drivers/CMSIS/Include/cmsis_gcc.h **** 
1688:Drivers/CMSIS/Include/cmsis_gcc.h ****   __ASM volatile ("ssub16 %0, %1, %2" : "=r" (result) : "r" (op1), "r" (op2) );
1689:Drivers/CMSIS/Include/cmsis_gcc.h ****   return(result);
1690:Drivers/CMSIS/Include/cmsis_gcc.h **** }
1691:Drivers/CMSIS/Include/cmsis_gcc.h **** 
1692:Drivers/CMSIS/Include/cmsis_gcc.h **** __STATIC_FORCEINLINE uint32_t __QSUB16(uint32_t op1, uint32_t op2)
1693:Drivers/CMSIS/Include/cmsis_gcc.h **** {
1694:Drivers/CMSIS/Include/cmsis_gcc.h ****   uint32_t result;
1695:Drivers/CMSIS/Include/cmsis_gcc.h **** 
1696:Drivers/CMSIS/Include/cmsis_gcc.h ****   __ASM volatile ("qsub16 %0, %1, %2" : "=r" (result) : "r" (op1), "r" (op2) );
1697:Drivers/CMSIS/Include/cmsis_gcc.h ****   return(result);
1698:Drivers/CMSIS/Include/cmsis_gcc.h **** }
1699:Drivers/CMSIS/Include/cmsis_gcc.h **** 
1700:Drivers/CMSIS/Include/cmsis_gcc.h **** __STATIC_FORCEINLINE uint32_t __SHSUB16(uint32_t op1, uint32_t op2)
1701:Drivers/CMSIS/Include/cmsis_gcc.h **** {
1702:Drivers/CMSIS/Include/cmsis_gcc.h ****   uint32_t result;
1703:Drivers/CMSIS/Include/cmsis_gcc.h **** 
1704:Drivers/CMSIS/Include/cmsis_gcc.h ****   __ASM volatile ("shsub16 %0, %1, %2" : "=r" (result) : "r" (op1), "r" (op2) );
ARM GAS  C:\Users\7636~1\AppData\Local\Temp\ccloz7r5.s 			page 45


1705:Drivers/CMSIS/Include/cmsis_gcc.h ****   return(result);
1706:Drivers/CMSIS/Include/cmsis_gcc.h **** }
1707:Drivers/CMSIS/Include/cmsis_gcc.h **** 
1708:Drivers/CMSIS/Include/cmsis_gcc.h **** __STATIC_FORCEINLINE uint32_t __USUB16(uint32_t op1, uint32_t op2)
1709:Drivers/CMSIS/Include/cmsis_gcc.h **** {
1710:Drivers/CMSIS/Include/cmsis_gcc.h ****   uint32_t result;
1711:Drivers/CMSIS/Include/cmsis_gcc.h **** 
1712:Drivers/CMSIS/Include/cmsis_gcc.h ****   __ASM volatile ("usub16 %0, %1, %2" : "=r" (result) : "r" (op1), "r" (op2) );
1713:Drivers/CMSIS/Include/cmsis_gcc.h ****   return(result);
1714:Drivers/CMSIS/Include/cmsis_gcc.h **** }
1715:Drivers/CMSIS/Include/cmsis_gcc.h **** 
1716:Drivers/CMSIS/Include/cmsis_gcc.h **** __STATIC_FORCEINLINE uint32_t __UQSUB16(uint32_t op1, uint32_t op2)
1717:Drivers/CMSIS/Include/cmsis_gcc.h **** {
1718:Drivers/CMSIS/Include/cmsis_gcc.h ****   uint32_t result;
1719:Drivers/CMSIS/Include/cmsis_gcc.h **** 
1720:Drivers/CMSIS/Include/cmsis_gcc.h ****   __ASM volatile ("uqsub16 %0, %1, %2" : "=r" (result) : "r" (op1), "r" (op2) );
1721:Drivers/CMSIS/Include/cmsis_gcc.h ****   return(result);
1722:Drivers/CMSIS/Include/cmsis_gcc.h **** }
1723:Drivers/CMSIS/Include/cmsis_gcc.h **** 
1724:Drivers/CMSIS/Include/cmsis_gcc.h **** __STATIC_FORCEINLINE uint32_t __UHSUB16(uint32_t op1, uint32_t op2)
1725:Drivers/CMSIS/Include/cmsis_gcc.h **** {
1726:Drivers/CMSIS/Include/cmsis_gcc.h ****   uint32_t result;
1727:Drivers/CMSIS/Include/cmsis_gcc.h **** 
1728:Drivers/CMSIS/Include/cmsis_gcc.h ****   __ASM volatile ("uhsub16 %0, %1, %2" : "=r" (result) : "r" (op1), "r" (op2) );
1729:Drivers/CMSIS/Include/cmsis_gcc.h ****   return(result);
1730:Drivers/CMSIS/Include/cmsis_gcc.h **** }
1731:Drivers/CMSIS/Include/cmsis_gcc.h **** 
1732:Drivers/CMSIS/Include/cmsis_gcc.h **** __STATIC_FORCEINLINE uint32_t __SASX(uint32_t op1, uint32_t op2)
1733:Drivers/CMSIS/Include/cmsis_gcc.h **** {
1734:Drivers/CMSIS/Include/cmsis_gcc.h ****   uint32_t result;
1735:Drivers/CMSIS/Include/cmsis_gcc.h **** 
1736:Drivers/CMSIS/Include/cmsis_gcc.h ****   __ASM volatile ("sasx %0, %1, %2" : "=r" (result) : "r" (op1), "r" (op2) );
1737:Drivers/CMSIS/Include/cmsis_gcc.h ****   return(result);
1738:Drivers/CMSIS/Include/cmsis_gcc.h **** }
1739:Drivers/CMSIS/Include/cmsis_gcc.h **** 
1740:Drivers/CMSIS/Include/cmsis_gcc.h **** __STATIC_FORCEINLINE uint32_t __QASX(uint32_t op1, uint32_t op2)
1741:Drivers/CMSIS/Include/cmsis_gcc.h **** {
1742:Drivers/CMSIS/Include/cmsis_gcc.h ****   uint32_t result;
1743:Drivers/CMSIS/Include/cmsis_gcc.h **** 
1744:Drivers/CMSIS/Include/cmsis_gcc.h ****   __ASM volatile ("qasx %0, %1, %2" : "=r" (result) : "r" (op1), "r" (op2) );
1745:Drivers/CMSIS/Include/cmsis_gcc.h ****   return(result);
1746:Drivers/CMSIS/Include/cmsis_gcc.h **** }
1747:Drivers/CMSIS/Include/cmsis_gcc.h **** 
1748:Drivers/CMSIS/Include/cmsis_gcc.h **** __STATIC_FORCEINLINE uint32_t __SHASX(uint32_t op1, uint32_t op2)
1749:Drivers/CMSIS/Include/cmsis_gcc.h **** {
1750:Drivers/CMSIS/Include/cmsis_gcc.h ****   uint32_t result;
1751:Drivers/CMSIS/Include/cmsis_gcc.h **** 
1752:Drivers/CMSIS/Include/cmsis_gcc.h ****   __ASM volatile ("shasx %0, %1, %2" : "=r" (result) : "r" (op1), "r" (op2) );
1753:Drivers/CMSIS/Include/cmsis_gcc.h ****   return(result);
1754:Drivers/CMSIS/Include/cmsis_gcc.h **** }
1755:Drivers/CMSIS/Include/cmsis_gcc.h **** 
1756:Drivers/CMSIS/Include/cmsis_gcc.h **** __STATIC_FORCEINLINE uint32_t __UASX(uint32_t op1, uint32_t op2)
1757:Drivers/CMSIS/Include/cmsis_gcc.h **** {
1758:Drivers/CMSIS/Include/cmsis_gcc.h ****   uint32_t result;
1759:Drivers/CMSIS/Include/cmsis_gcc.h **** 
1760:Drivers/CMSIS/Include/cmsis_gcc.h ****   __ASM volatile ("uasx %0, %1, %2" : "=r" (result) : "r" (op1), "r" (op2) );
1761:Drivers/CMSIS/Include/cmsis_gcc.h ****   return(result);
ARM GAS  C:\Users\7636~1\AppData\Local\Temp\ccloz7r5.s 			page 46


1762:Drivers/CMSIS/Include/cmsis_gcc.h **** }
1763:Drivers/CMSIS/Include/cmsis_gcc.h **** 
1764:Drivers/CMSIS/Include/cmsis_gcc.h **** __STATIC_FORCEINLINE uint32_t __UQASX(uint32_t op1, uint32_t op2)
1765:Drivers/CMSIS/Include/cmsis_gcc.h **** {
1766:Drivers/CMSIS/Include/cmsis_gcc.h ****   uint32_t result;
1767:Drivers/CMSIS/Include/cmsis_gcc.h **** 
1768:Drivers/CMSIS/Include/cmsis_gcc.h ****   __ASM volatile ("uqasx %0, %1, %2" : "=r" (result) : "r" (op1), "r" (op2) );
1769:Drivers/CMSIS/Include/cmsis_gcc.h ****   return(result);
1770:Drivers/CMSIS/Include/cmsis_gcc.h **** }
1771:Drivers/CMSIS/Include/cmsis_gcc.h **** 
1772:Drivers/CMSIS/Include/cmsis_gcc.h **** __STATIC_FORCEINLINE uint32_t __UHASX(uint32_t op1, uint32_t op2)
1773:Drivers/CMSIS/Include/cmsis_gcc.h **** {
1774:Drivers/CMSIS/Include/cmsis_gcc.h ****   uint32_t result;
1775:Drivers/CMSIS/Include/cmsis_gcc.h **** 
1776:Drivers/CMSIS/Include/cmsis_gcc.h ****   __ASM volatile ("uhasx %0, %1, %2" : "=r" (result) : "r" (op1), "r" (op2) );
1777:Drivers/CMSIS/Include/cmsis_gcc.h ****   return(result);
1778:Drivers/CMSIS/Include/cmsis_gcc.h **** }
1779:Drivers/CMSIS/Include/cmsis_gcc.h **** 
1780:Drivers/CMSIS/Include/cmsis_gcc.h **** __STATIC_FORCEINLINE uint32_t __SSAX(uint32_t op1, uint32_t op2)
1781:Drivers/CMSIS/Include/cmsis_gcc.h **** {
1782:Drivers/CMSIS/Include/cmsis_gcc.h ****   uint32_t result;
1783:Drivers/CMSIS/Include/cmsis_gcc.h **** 
1784:Drivers/CMSIS/Include/cmsis_gcc.h ****   __ASM volatile ("ssax %0, %1, %2" : "=r" (result) : "r" (op1), "r" (op2) );
1785:Drivers/CMSIS/Include/cmsis_gcc.h ****   return(result);
1786:Drivers/CMSIS/Include/cmsis_gcc.h **** }
1787:Drivers/CMSIS/Include/cmsis_gcc.h **** 
1788:Drivers/CMSIS/Include/cmsis_gcc.h **** __STATIC_FORCEINLINE uint32_t __QSAX(uint32_t op1, uint32_t op2)
1789:Drivers/CMSIS/Include/cmsis_gcc.h **** {
1790:Drivers/CMSIS/Include/cmsis_gcc.h ****   uint32_t result;
1791:Drivers/CMSIS/Include/cmsis_gcc.h **** 
1792:Drivers/CMSIS/Include/cmsis_gcc.h ****   __ASM volatile ("qsax %0, %1, %2" : "=r" (result) : "r" (op1), "r" (op2) );
1793:Drivers/CMSIS/Include/cmsis_gcc.h ****   return(result);
1794:Drivers/CMSIS/Include/cmsis_gcc.h **** }
1795:Drivers/CMSIS/Include/cmsis_gcc.h **** 
1796:Drivers/CMSIS/Include/cmsis_gcc.h **** __STATIC_FORCEINLINE uint32_t __SHSAX(uint32_t op1, uint32_t op2)
1797:Drivers/CMSIS/Include/cmsis_gcc.h **** {
1798:Drivers/CMSIS/Include/cmsis_gcc.h ****   uint32_t result;
1799:Drivers/CMSIS/Include/cmsis_gcc.h **** 
1800:Drivers/CMSIS/Include/cmsis_gcc.h ****   __ASM volatile ("shsax %0, %1, %2" : "=r" (result) : "r" (op1), "r" (op2) );
1801:Drivers/CMSIS/Include/cmsis_gcc.h ****   return(result);
1802:Drivers/CMSIS/Include/cmsis_gcc.h **** }
1803:Drivers/CMSIS/Include/cmsis_gcc.h **** 
1804:Drivers/CMSIS/Include/cmsis_gcc.h **** __STATIC_FORCEINLINE uint32_t __USAX(uint32_t op1, uint32_t op2)
1805:Drivers/CMSIS/Include/cmsis_gcc.h **** {
1806:Drivers/CMSIS/Include/cmsis_gcc.h ****   uint32_t result;
1807:Drivers/CMSIS/Include/cmsis_gcc.h **** 
1808:Drivers/CMSIS/Include/cmsis_gcc.h ****   __ASM volatile ("usax %0, %1, %2" : "=r" (result) : "r" (op1), "r" (op2) );
1809:Drivers/CMSIS/Include/cmsis_gcc.h ****   return(result);
1810:Drivers/CMSIS/Include/cmsis_gcc.h **** }
1811:Drivers/CMSIS/Include/cmsis_gcc.h **** 
1812:Drivers/CMSIS/Include/cmsis_gcc.h **** __STATIC_FORCEINLINE uint32_t __UQSAX(uint32_t op1, uint32_t op2)
1813:Drivers/CMSIS/Include/cmsis_gcc.h **** {
1814:Drivers/CMSIS/Include/cmsis_gcc.h ****   uint32_t result;
1815:Drivers/CMSIS/Include/cmsis_gcc.h **** 
1816:Drivers/CMSIS/Include/cmsis_gcc.h ****   __ASM volatile ("uqsax %0, %1, %2" : "=r" (result) : "r" (op1), "r" (op2) );
1817:Drivers/CMSIS/Include/cmsis_gcc.h ****   return(result);
1818:Drivers/CMSIS/Include/cmsis_gcc.h **** }
ARM GAS  C:\Users\7636~1\AppData\Local\Temp\ccloz7r5.s 			page 47


1819:Drivers/CMSIS/Include/cmsis_gcc.h **** 
1820:Drivers/CMSIS/Include/cmsis_gcc.h **** __STATIC_FORCEINLINE uint32_t __UHSAX(uint32_t op1, uint32_t op2)
1821:Drivers/CMSIS/Include/cmsis_gcc.h **** {
1822:Drivers/CMSIS/Include/cmsis_gcc.h ****   uint32_t result;
1823:Drivers/CMSIS/Include/cmsis_gcc.h **** 
1824:Drivers/CMSIS/Include/cmsis_gcc.h ****   __ASM volatile ("uhsax %0, %1, %2" : "=r" (result) : "r" (op1), "r" (op2) );
1825:Drivers/CMSIS/Include/cmsis_gcc.h ****   return(result);
1826:Drivers/CMSIS/Include/cmsis_gcc.h **** }
1827:Drivers/CMSIS/Include/cmsis_gcc.h **** 
1828:Drivers/CMSIS/Include/cmsis_gcc.h **** __STATIC_FORCEINLINE uint32_t __USAD8(uint32_t op1, uint32_t op2)
1829:Drivers/CMSIS/Include/cmsis_gcc.h **** {
1830:Drivers/CMSIS/Include/cmsis_gcc.h ****   uint32_t result;
1831:Drivers/CMSIS/Include/cmsis_gcc.h **** 
1832:Drivers/CMSIS/Include/cmsis_gcc.h ****   __ASM volatile ("usad8 %0, %1, %2" : "=r" (result) : "r" (op1), "r" (op2) );
1833:Drivers/CMSIS/Include/cmsis_gcc.h ****   return(result);
1834:Drivers/CMSIS/Include/cmsis_gcc.h **** }
1835:Drivers/CMSIS/Include/cmsis_gcc.h **** 
1836:Drivers/CMSIS/Include/cmsis_gcc.h **** __STATIC_FORCEINLINE uint32_t __USADA8(uint32_t op1, uint32_t op2, uint32_t op3)
1837:Drivers/CMSIS/Include/cmsis_gcc.h **** {
1838:Drivers/CMSIS/Include/cmsis_gcc.h ****   uint32_t result;
1839:Drivers/CMSIS/Include/cmsis_gcc.h **** 
1840:Drivers/CMSIS/Include/cmsis_gcc.h ****   __ASM volatile ("usada8 %0, %1, %2, %3" : "=r" (result) : "r" (op1), "r" (op2), "r" (op3) );
1841:Drivers/CMSIS/Include/cmsis_gcc.h ****   return(result);
1842:Drivers/CMSIS/Include/cmsis_gcc.h **** }
1843:Drivers/CMSIS/Include/cmsis_gcc.h **** 
1844:Drivers/CMSIS/Include/cmsis_gcc.h **** #define __SSAT16(ARG1,ARG2) \
1845:Drivers/CMSIS/Include/cmsis_gcc.h **** ({                          \
1846:Drivers/CMSIS/Include/cmsis_gcc.h ****   int32_t __RES, __ARG1 = (ARG1); \
1847:Drivers/CMSIS/Include/cmsis_gcc.h ****   __ASM ("ssat16 %0, %1, %2" : "=r" (__RES) :  "I" (ARG2), "r" (__ARG1) ); \
1848:Drivers/CMSIS/Include/cmsis_gcc.h ****   __RES; \
1849:Drivers/CMSIS/Include/cmsis_gcc.h ****  })
1850:Drivers/CMSIS/Include/cmsis_gcc.h **** 
1851:Drivers/CMSIS/Include/cmsis_gcc.h **** #define __USAT16(ARG1,ARG2) \
1852:Drivers/CMSIS/Include/cmsis_gcc.h **** ({                          \
1853:Drivers/CMSIS/Include/cmsis_gcc.h ****   uint32_t __RES, __ARG1 = (ARG1); \
1854:Drivers/CMSIS/Include/cmsis_gcc.h ****   __ASM ("usat16 %0, %1, %2" : "=r" (__RES) :  "I" (ARG2), "r" (__ARG1) ); \
1855:Drivers/CMSIS/Include/cmsis_gcc.h ****   __RES; \
1856:Drivers/CMSIS/Include/cmsis_gcc.h ****  })
1857:Drivers/CMSIS/Include/cmsis_gcc.h **** 
1858:Drivers/CMSIS/Include/cmsis_gcc.h **** __STATIC_FORCEINLINE uint32_t __UXTB16(uint32_t op1)
1859:Drivers/CMSIS/Include/cmsis_gcc.h **** {
1860:Drivers/CMSIS/Include/cmsis_gcc.h ****   uint32_t result;
1861:Drivers/CMSIS/Include/cmsis_gcc.h **** 
1862:Drivers/CMSIS/Include/cmsis_gcc.h ****   __ASM volatile ("uxtb16 %0, %1" : "=r" (result) : "r" (op1));
1863:Drivers/CMSIS/Include/cmsis_gcc.h ****   return(result);
1864:Drivers/CMSIS/Include/cmsis_gcc.h **** }
1865:Drivers/CMSIS/Include/cmsis_gcc.h **** 
1866:Drivers/CMSIS/Include/cmsis_gcc.h **** __STATIC_FORCEINLINE uint32_t __UXTAB16(uint32_t op1, uint32_t op2)
1867:Drivers/CMSIS/Include/cmsis_gcc.h **** {
1868:Drivers/CMSIS/Include/cmsis_gcc.h ****   uint32_t result;
1869:Drivers/CMSIS/Include/cmsis_gcc.h **** 
1870:Drivers/CMSIS/Include/cmsis_gcc.h ****   __ASM volatile ("uxtab16 %0, %1, %2" : "=r" (result) : "r" (op1), "r" (op2) );
1871:Drivers/CMSIS/Include/cmsis_gcc.h ****   return(result);
1872:Drivers/CMSIS/Include/cmsis_gcc.h **** }
1873:Drivers/CMSIS/Include/cmsis_gcc.h **** 
1874:Drivers/CMSIS/Include/cmsis_gcc.h **** __STATIC_FORCEINLINE uint32_t __SXTB16(uint32_t op1)
1875:Drivers/CMSIS/Include/cmsis_gcc.h **** {
ARM GAS  C:\Users\7636~1\AppData\Local\Temp\ccloz7r5.s 			page 48


1876:Drivers/CMSIS/Include/cmsis_gcc.h ****   uint32_t result;
1877:Drivers/CMSIS/Include/cmsis_gcc.h **** 
1878:Drivers/CMSIS/Include/cmsis_gcc.h ****   __ASM volatile ("sxtb16 %0, %1" : "=r" (result) : "r" (op1));
1879:Drivers/CMSIS/Include/cmsis_gcc.h ****   return(result);
1880:Drivers/CMSIS/Include/cmsis_gcc.h **** }
1881:Drivers/CMSIS/Include/cmsis_gcc.h **** 
1882:Drivers/CMSIS/Include/cmsis_gcc.h **** __STATIC_FORCEINLINE uint32_t __SXTAB16(uint32_t op1, uint32_t op2)
1883:Drivers/CMSIS/Include/cmsis_gcc.h **** {
1884:Drivers/CMSIS/Include/cmsis_gcc.h ****   uint32_t result;
1885:Drivers/CMSIS/Include/cmsis_gcc.h **** 
1886:Drivers/CMSIS/Include/cmsis_gcc.h ****   __ASM volatile ("sxtab16 %0, %1, %2" : "=r" (result) : "r" (op1), "r" (op2) );
1887:Drivers/CMSIS/Include/cmsis_gcc.h ****   return(result);
1888:Drivers/CMSIS/Include/cmsis_gcc.h **** }
1889:Drivers/CMSIS/Include/cmsis_gcc.h **** 
1890:Drivers/CMSIS/Include/cmsis_gcc.h **** __STATIC_FORCEINLINE uint32_t __SMUAD  (uint32_t op1, uint32_t op2)
1891:Drivers/CMSIS/Include/cmsis_gcc.h **** {
1892:Drivers/CMSIS/Include/cmsis_gcc.h ****   uint32_t result;
1893:Drivers/CMSIS/Include/cmsis_gcc.h **** 
1894:Drivers/CMSIS/Include/cmsis_gcc.h ****   __ASM volatile ("smuad %0, %1, %2" : "=r" (result) : "r" (op1), "r" (op2) );
1895:Drivers/CMSIS/Include/cmsis_gcc.h ****   return(result);
1896:Drivers/CMSIS/Include/cmsis_gcc.h **** }
1897:Drivers/CMSIS/Include/cmsis_gcc.h **** 
1898:Drivers/CMSIS/Include/cmsis_gcc.h **** __STATIC_FORCEINLINE uint32_t __SMUADX (uint32_t op1, uint32_t op2)
1899:Drivers/CMSIS/Include/cmsis_gcc.h **** {
1900:Drivers/CMSIS/Include/cmsis_gcc.h ****   uint32_t result;
1901:Drivers/CMSIS/Include/cmsis_gcc.h **** 
1902:Drivers/CMSIS/Include/cmsis_gcc.h ****   __ASM volatile ("smuadx %0, %1, %2" : "=r" (result) : "r" (op1), "r" (op2) );
1903:Drivers/CMSIS/Include/cmsis_gcc.h ****   return(result);
1904:Drivers/CMSIS/Include/cmsis_gcc.h **** }
1905:Drivers/CMSIS/Include/cmsis_gcc.h **** 
1906:Drivers/CMSIS/Include/cmsis_gcc.h **** __STATIC_FORCEINLINE uint32_t __SMLAD (uint32_t op1, uint32_t op2, uint32_t op3)
1907:Drivers/CMSIS/Include/cmsis_gcc.h **** {
1908:Drivers/CMSIS/Include/cmsis_gcc.h ****   uint32_t result;
1909:Drivers/CMSIS/Include/cmsis_gcc.h **** 
1910:Drivers/CMSIS/Include/cmsis_gcc.h ****   __ASM volatile ("smlad %0, %1, %2, %3" : "=r" (result) : "r" (op1), "r" (op2), "r" (op3) );
1911:Drivers/CMSIS/Include/cmsis_gcc.h ****   return(result);
1912:Drivers/CMSIS/Include/cmsis_gcc.h **** }
1913:Drivers/CMSIS/Include/cmsis_gcc.h **** 
1914:Drivers/CMSIS/Include/cmsis_gcc.h **** __STATIC_FORCEINLINE uint32_t __SMLADX (uint32_t op1, uint32_t op2, uint32_t op3)
1915:Drivers/CMSIS/Include/cmsis_gcc.h **** {
1916:Drivers/CMSIS/Include/cmsis_gcc.h ****   uint32_t result;
1917:Drivers/CMSIS/Include/cmsis_gcc.h **** 
1918:Drivers/CMSIS/Include/cmsis_gcc.h ****   __ASM volatile ("smladx %0, %1, %2, %3" : "=r" (result) : "r" (op1), "r" (op2), "r" (op3) );
1919:Drivers/CMSIS/Include/cmsis_gcc.h ****   return(result);
1920:Drivers/CMSIS/Include/cmsis_gcc.h **** }
1921:Drivers/CMSIS/Include/cmsis_gcc.h **** 
1922:Drivers/CMSIS/Include/cmsis_gcc.h **** __STATIC_FORCEINLINE uint64_t __SMLALD (uint32_t op1, uint32_t op2, uint64_t acc)
1923:Drivers/CMSIS/Include/cmsis_gcc.h **** {
1924:Drivers/CMSIS/Include/cmsis_gcc.h ****   union llreg_u{
1925:Drivers/CMSIS/Include/cmsis_gcc.h ****     uint32_t w32[2];
1926:Drivers/CMSIS/Include/cmsis_gcc.h ****     uint64_t w64;
1927:Drivers/CMSIS/Include/cmsis_gcc.h ****   } llr;
1928:Drivers/CMSIS/Include/cmsis_gcc.h ****   llr.w64 = acc;
1929:Drivers/CMSIS/Include/cmsis_gcc.h **** 
1930:Drivers/CMSIS/Include/cmsis_gcc.h **** #ifndef __ARMEB__   /* Little endian */
1931:Drivers/CMSIS/Include/cmsis_gcc.h ****   __ASM volatile ("smlald %0, %1, %2, %3" : "=r" (llr.w32[0]), "=r" (llr.w32[1]): "r" (op1), "r" (o
1932:Drivers/CMSIS/Include/cmsis_gcc.h **** #else               /* Big endian */
ARM GAS  C:\Users\7636~1\AppData\Local\Temp\ccloz7r5.s 			page 49


1933:Drivers/CMSIS/Include/cmsis_gcc.h ****   __ASM volatile ("smlald %0, %1, %2, %3" : "=r" (llr.w32[1]), "=r" (llr.w32[0]): "r" (op1), "r" (o
1934:Drivers/CMSIS/Include/cmsis_gcc.h **** #endif
1935:Drivers/CMSIS/Include/cmsis_gcc.h **** 
1936:Drivers/CMSIS/Include/cmsis_gcc.h ****   return(llr.w64);
1937:Drivers/CMSIS/Include/cmsis_gcc.h **** }
1938:Drivers/CMSIS/Include/cmsis_gcc.h **** 
1939:Drivers/CMSIS/Include/cmsis_gcc.h **** __STATIC_FORCEINLINE uint64_t __SMLALDX (uint32_t op1, uint32_t op2, uint64_t acc)
1940:Drivers/CMSIS/Include/cmsis_gcc.h **** {
1941:Drivers/CMSIS/Include/cmsis_gcc.h ****   union llreg_u{
1942:Drivers/CMSIS/Include/cmsis_gcc.h ****     uint32_t w32[2];
1943:Drivers/CMSIS/Include/cmsis_gcc.h ****     uint64_t w64;
1944:Drivers/CMSIS/Include/cmsis_gcc.h ****   } llr;
1945:Drivers/CMSIS/Include/cmsis_gcc.h ****   llr.w64 = acc;
1946:Drivers/CMSIS/Include/cmsis_gcc.h **** 
1947:Drivers/CMSIS/Include/cmsis_gcc.h **** #ifndef __ARMEB__   /* Little endian */
1948:Drivers/CMSIS/Include/cmsis_gcc.h ****   __ASM volatile ("smlaldx %0, %1, %2, %3" : "=r" (llr.w32[0]), "=r" (llr.w32[1]): "r" (op1), "r" (
1949:Drivers/CMSIS/Include/cmsis_gcc.h **** #else               /* Big endian */
1950:Drivers/CMSIS/Include/cmsis_gcc.h ****   __ASM volatile ("smlaldx %0, %1, %2, %3" : "=r" (llr.w32[1]), "=r" (llr.w32[0]): "r" (op1), "r" (
1951:Drivers/CMSIS/Include/cmsis_gcc.h **** #endif
1952:Drivers/CMSIS/Include/cmsis_gcc.h **** 
1953:Drivers/CMSIS/Include/cmsis_gcc.h ****   return(llr.w64);
1954:Drivers/CMSIS/Include/cmsis_gcc.h **** }
1955:Drivers/CMSIS/Include/cmsis_gcc.h **** 
1956:Drivers/CMSIS/Include/cmsis_gcc.h **** __STATIC_FORCEINLINE uint32_t __SMUSD  (uint32_t op1, uint32_t op2)
1957:Drivers/CMSIS/Include/cmsis_gcc.h **** {
1958:Drivers/CMSIS/Include/cmsis_gcc.h ****   uint32_t result;
1959:Drivers/CMSIS/Include/cmsis_gcc.h **** 
1960:Drivers/CMSIS/Include/cmsis_gcc.h ****   __ASM volatile ("smusd %0, %1, %2" : "=r" (result) : "r" (op1), "r" (op2) );
1961:Drivers/CMSIS/Include/cmsis_gcc.h ****   return(result);
1962:Drivers/CMSIS/Include/cmsis_gcc.h **** }
1963:Drivers/CMSIS/Include/cmsis_gcc.h **** 
1964:Drivers/CMSIS/Include/cmsis_gcc.h **** __STATIC_FORCEINLINE uint32_t __SMUSDX (uint32_t op1, uint32_t op2)
1965:Drivers/CMSIS/Include/cmsis_gcc.h **** {
1966:Drivers/CMSIS/Include/cmsis_gcc.h ****   uint32_t result;
1967:Drivers/CMSIS/Include/cmsis_gcc.h **** 
1968:Drivers/CMSIS/Include/cmsis_gcc.h ****   __ASM volatile ("smusdx %0, %1, %2" : "=r" (result) : "r" (op1), "r" (op2) );
1969:Drivers/CMSIS/Include/cmsis_gcc.h ****   return(result);
1970:Drivers/CMSIS/Include/cmsis_gcc.h **** }
1971:Drivers/CMSIS/Include/cmsis_gcc.h **** 
1972:Drivers/CMSIS/Include/cmsis_gcc.h **** __STATIC_FORCEINLINE uint32_t __SMLSD (uint32_t op1, uint32_t op2, uint32_t op3)
1973:Drivers/CMSIS/Include/cmsis_gcc.h **** {
1974:Drivers/CMSIS/Include/cmsis_gcc.h ****   uint32_t result;
1975:Drivers/CMSIS/Include/cmsis_gcc.h **** 
1976:Drivers/CMSIS/Include/cmsis_gcc.h ****   __ASM volatile ("smlsd %0, %1, %2, %3" : "=r" (result) : "r" (op1), "r" (op2), "r" (op3) );
1977:Drivers/CMSIS/Include/cmsis_gcc.h ****   return(result);
1978:Drivers/CMSIS/Include/cmsis_gcc.h **** }
1979:Drivers/CMSIS/Include/cmsis_gcc.h **** 
1980:Drivers/CMSIS/Include/cmsis_gcc.h **** __STATIC_FORCEINLINE uint32_t __SMLSDX (uint32_t op1, uint32_t op2, uint32_t op3)
1981:Drivers/CMSIS/Include/cmsis_gcc.h **** {
1982:Drivers/CMSIS/Include/cmsis_gcc.h ****   uint32_t result;
1983:Drivers/CMSIS/Include/cmsis_gcc.h **** 
1984:Drivers/CMSIS/Include/cmsis_gcc.h ****   __ASM volatile ("smlsdx %0, %1, %2, %3" : "=r" (result) : "r" (op1), "r" (op2), "r" (op3) );
1985:Drivers/CMSIS/Include/cmsis_gcc.h ****   return(result);
1986:Drivers/CMSIS/Include/cmsis_gcc.h **** }
1987:Drivers/CMSIS/Include/cmsis_gcc.h **** 
1988:Drivers/CMSIS/Include/cmsis_gcc.h **** __STATIC_FORCEINLINE uint64_t __SMLSLD (uint32_t op1, uint32_t op2, uint64_t acc)
1989:Drivers/CMSIS/Include/cmsis_gcc.h **** {
ARM GAS  C:\Users\7636~1\AppData\Local\Temp\ccloz7r5.s 			page 50


1990:Drivers/CMSIS/Include/cmsis_gcc.h ****   union llreg_u{
1991:Drivers/CMSIS/Include/cmsis_gcc.h ****     uint32_t w32[2];
1992:Drivers/CMSIS/Include/cmsis_gcc.h ****     uint64_t w64;
1993:Drivers/CMSIS/Include/cmsis_gcc.h ****   } llr;
1994:Drivers/CMSIS/Include/cmsis_gcc.h ****   llr.w64 = acc;
1995:Drivers/CMSIS/Include/cmsis_gcc.h **** 
1996:Drivers/CMSIS/Include/cmsis_gcc.h **** #ifndef __ARMEB__   /* Little endian */
1997:Drivers/CMSIS/Include/cmsis_gcc.h ****   __ASM volatile ("smlsld %0, %1, %2, %3" : "=r" (llr.w32[0]), "=r" (llr.w32[1]): "r" (op1), "r" (o
1998:Drivers/CMSIS/Include/cmsis_gcc.h **** #else               /* Big endian */
1999:Drivers/CMSIS/Include/cmsis_gcc.h ****   __ASM volatile ("smlsld %0, %1, %2, %3" : "=r" (llr.w32[1]), "=r" (llr.w32[0]): "r" (op1), "r" (o
2000:Drivers/CMSIS/Include/cmsis_gcc.h **** #endif
2001:Drivers/CMSIS/Include/cmsis_gcc.h **** 
2002:Drivers/CMSIS/Include/cmsis_gcc.h ****   return(llr.w64);
2003:Drivers/CMSIS/Include/cmsis_gcc.h **** }
2004:Drivers/CMSIS/Include/cmsis_gcc.h **** 
2005:Drivers/CMSIS/Include/cmsis_gcc.h **** __STATIC_FORCEINLINE uint64_t __SMLSLDX (uint32_t op1, uint32_t op2, uint64_t acc)
2006:Drivers/CMSIS/Include/cmsis_gcc.h **** {
2007:Drivers/CMSIS/Include/cmsis_gcc.h ****   union llreg_u{
2008:Drivers/CMSIS/Include/cmsis_gcc.h ****     uint32_t w32[2];
2009:Drivers/CMSIS/Include/cmsis_gcc.h ****     uint64_t w64;
2010:Drivers/CMSIS/Include/cmsis_gcc.h ****   } llr;
2011:Drivers/CMSIS/Include/cmsis_gcc.h ****   llr.w64 = acc;
2012:Drivers/CMSIS/Include/cmsis_gcc.h **** 
2013:Drivers/CMSIS/Include/cmsis_gcc.h **** #ifndef __ARMEB__   /* Little endian */
2014:Drivers/CMSIS/Include/cmsis_gcc.h ****   __ASM volatile ("smlsldx %0, %1, %2, %3" : "=r" (llr.w32[0]), "=r" (llr.w32[1]): "r" (op1), "r" (
2015:Drivers/CMSIS/Include/cmsis_gcc.h **** #else               /* Big endian */
2016:Drivers/CMSIS/Include/cmsis_gcc.h ****   __ASM volatile ("smlsldx %0, %1, %2, %3" : "=r" (llr.w32[1]), "=r" (llr.w32[0]): "r" (op1), "r" (
2017:Drivers/CMSIS/Include/cmsis_gcc.h **** #endif
2018:Drivers/CMSIS/Include/cmsis_gcc.h **** 
2019:Drivers/CMSIS/Include/cmsis_gcc.h ****   return(llr.w64);
2020:Drivers/CMSIS/Include/cmsis_gcc.h **** }
2021:Drivers/CMSIS/Include/cmsis_gcc.h **** 
2022:Drivers/CMSIS/Include/cmsis_gcc.h **** __STATIC_FORCEINLINE uint32_t __SEL  (uint32_t op1, uint32_t op2)
2023:Drivers/CMSIS/Include/cmsis_gcc.h **** {
2024:Drivers/CMSIS/Include/cmsis_gcc.h ****   uint32_t result;
2025:Drivers/CMSIS/Include/cmsis_gcc.h **** 
2026:Drivers/CMSIS/Include/cmsis_gcc.h ****   __ASM volatile ("sel %0, %1, %2" : "=r" (result) : "r" (op1), "r" (op2) );
2027:Drivers/CMSIS/Include/cmsis_gcc.h ****   return(result);
2028:Drivers/CMSIS/Include/cmsis_gcc.h **** }
2029:Drivers/CMSIS/Include/cmsis_gcc.h **** 
2030:Drivers/CMSIS/Include/cmsis_gcc.h **** __STATIC_FORCEINLINE  int32_t __QADD( int32_t op1,  int32_t op2)
2031:Drivers/CMSIS/Include/cmsis_gcc.h **** {
2032:Drivers/CMSIS/Include/cmsis_gcc.h ****   int32_t result;
2033:Drivers/CMSIS/Include/cmsis_gcc.h **** 
2034:Drivers/CMSIS/Include/cmsis_gcc.h ****   __ASM volatile ("qadd %0, %1, %2" : "=r" (result) : "r" (op1), "r" (op2) );
2035:Drivers/CMSIS/Include/cmsis_gcc.h ****   return(result);
2036:Drivers/CMSIS/Include/cmsis_gcc.h **** }
2037:Drivers/CMSIS/Include/cmsis_gcc.h **** 
2038:Drivers/CMSIS/Include/cmsis_gcc.h **** __STATIC_FORCEINLINE  int32_t __QSUB( int32_t op1,  int32_t op2)
 212              		.loc 4 2038 31 view .LVU58
 213              	.LBB16:
2039:Drivers/CMSIS/Include/cmsis_gcc.h **** {
2040:Drivers/CMSIS/Include/cmsis_gcc.h ****   int32_t result;
 214              		.loc 4 2040 3 view .LVU59
2041:Drivers/CMSIS/Include/cmsis_gcc.h **** 
2042:Drivers/CMSIS/Include/cmsis_gcc.h ****   __ASM volatile ("qsub %0, %1, %2" : "=r" (result) : "r" (op1), "r" (op2) );
 215              		.loc 4 2042 3 view .LVU60
ARM GAS  C:\Users\7636~1\AppData\Local\Temp\ccloz7r5.s 			page 51


 216 0012 0020     		movs	r0, #0
 217              		.syntax unified
 218              	@ 2042 "Drivers/CMSIS/Include/cmsis_gcc.h" 1
 219 0014 84FAA0F0 		qsub r0, r0, r4
 220              	@ 0 "" 2
 221              	.LVL19:
2043:Drivers/CMSIS/Include/cmsis_gcc.h ****   return(result);
 222              		.loc 4 2043 3 view .LVU61
 223              		.loc 4 2043 3 is_stmt 0 view .LVU62
 224              		.thumb
 225              		.syntax unified
 226              	.LBE16:
 227              	.LBE15:
 228              		.loc 3 179 13 view .LVU63
 229 0018 4860     		str	r0, [r1, #4]
 180:Middlewares/Third_Party/ARM_CMSIS/CMSIS/DSP/Source/ComplexMathFunctions/arm_cmplx_conj_q31.c **** #else
 181:Middlewares/Third_Party/ARM_CMSIS/CMSIS/DSP/Source/ComplexMathFunctions/arm_cmplx_conj_q31.c ****     *pDst++ = (in == INT32_MIN) ? INT32_MAX : -in;
 182:Middlewares/Third_Party/ARM_CMSIS/CMSIS/DSP/Source/ComplexMathFunctions/arm_cmplx_conj_q31.c **** #endif
 183:Middlewares/Third_Party/ARM_CMSIS/CMSIS/DSP/Source/ComplexMathFunctions/arm_cmplx_conj_q31.c **** 
 184:Middlewares/Third_Party/ARM_CMSIS/CMSIS/DSP/Source/ComplexMathFunctions/arm_cmplx_conj_q31.c ****     /* Decrement loop counter */
 185:Middlewares/Third_Party/ARM_CMSIS/CMSIS/DSP/Source/ComplexMathFunctions/arm_cmplx_conj_q31.c ****     blkCnt--;
 230              		.loc 3 185 5 is_stmt 1 view .LVU64
 231              		.loc 3 185 11 is_stmt 0 view .LVU65
 232 001a 013A     		subs	r2, r2, #1
 233              	.LVL20:
 179:Middlewares/Third_Party/ARM_CMSIS/CMSIS/DSP/Source/ComplexMathFunctions/arm_cmplx_conj_q31.c **** #else
 234              		.loc 3 179 10 view .LVU66
 235 001c 6146     		mov	r1, ip
 177:Middlewares/Third_Party/ARM_CMSIS/CMSIS/DSP/Source/ComplexMathFunctions/arm_cmplx_conj_q31.c **** #if defined (ARM_MATH_DSP)
 236              		.loc 3 177 15 view .LVU67
 237 001e 1846     		mov	r0, r3
 171:Middlewares/Third_Party/ARM_CMSIS/CMSIS/DSP/Source/ComplexMathFunctions/arm_cmplx_conj_q31.c ****   {
 238              		.loc 3 171 9 is_stmt 1 view .LVU68
 239 0020 002A     		cmp	r2, #0
 240 0022 EFD1     		bne	.L17
 186:Middlewares/Third_Party/ARM_CMSIS/CMSIS/DSP/Source/ComplexMathFunctions/arm_cmplx_conj_q31.c ****   }
 187:Middlewares/Third_Party/ARM_CMSIS/CMSIS/DSP/Source/ComplexMathFunctions/arm_cmplx_conj_q31.c **** 
 188:Middlewares/Third_Party/ARM_CMSIS/CMSIS/DSP/Source/ComplexMathFunctions/arm_cmplx_conj_q31.c **** }
 241              		.loc 3 188 1 is_stmt 0 view .LVU69
 242 0024 5DF8044B 		ldr	r4, [sp], #4
 243              	.LCFI5:
 244              		.cfi_restore 4
 245              		.cfi_def_cfa_offset 0
 246              	.LVL21:
 247              		.loc 3 188 1 view .LVU70
 248 0028 7047     		bx	lr
 249              	.LVL22:
 250              	.L21:
 251              		.loc 3 188 1 view .LVU71
 252 002a 7047     		bx	lr
 253              		.cfi_endproc
 254              	.LFE122:
 256              		.section	.text.arm_cmplx_dot_prod_f32,"ax",%progbits
 257              		.align	1
 258              		.global	arm_cmplx_dot_prod_f32
 259              		.syntax unified
 260              		.thumb
ARM GAS  C:\Users\7636~1\AppData\Local\Temp\ccloz7r5.s 			page 52


 261              		.thumb_func
 263              	arm_cmplx_dot_prod_f32:
 264              	.LVL23:
 265              	.LFB123:
 266              		.file 5 "Middlewares/Third_Party/ARM_CMSIS/CMSIS/DSP/Source/ComplexMathFunctions/arm_cmplx_dot_pro
   1:Middlewares/Third_Party/ARM_CMSIS/CMSIS/DSP/Source/ComplexMathFunctions/arm_cmplx_dot_prod_f32.c **** /* ----------------------------------------------------------------------
   2:Middlewares/Third_Party/ARM_CMSIS/CMSIS/DSP/Source/ComplexMathFunctions/arm_cmplx_dot_prod_f32.c ****  * Project:      CMSIS DSP Library
   3:Middlewares/Third_Party/ARM_CMSIS/CMSIS/DSP/Source/ComplexMathFunctions/arm_cmplx_dot_prod_f32.c ****  * Title:        arm_cmplx_dot_prod_f32.c
   4:Middlewares/Third_Party/ARM_CMSIS/CMSIS/DSP/Source/ComplexMathFunctions/arm_cmplx_dot_prod_f32.c ****  * Description:  Floating-point complex dot product
   5:Middlewares/Third_Party/ARM_CMSIS/CMSIS/DSP/Source/ComplexMathFunctions/arm_cmplx_dot_prod_f32.c ****  *
   6:Middlewares/Third_Party/ARM_CMSIS/CMSIS/DSP/Source/ComplexMathFunctions/arm_cmplx_dot_prod_f32.c ****  * $Date:        23 April 2021
   7:Middlewares/Third_Party/ARM_CMSIS/CMSIS/DSP/Source/ComplexMathFunctions/arm_cmplx_dot_prod_f32.c ****  * $Revision:    V1.9.0
   8:Middlewares/Third_Party/ARM_CMSIS/CMSIS/DSP/Source/ComplexMathFunctions/arm_cmplx_dot_prod_f32.c ****  *
   9:Middlewares/Third_Party/ARM_CMSIS/CMSIS/DSP/Source/ComplexMathFunctions/arm_cmplx_dot_prod_f32.c ****  * Target Processor: Cortex-M and Cortex-A cores
  10:Middlewares/Third_Party/ARM_CMSIS/CMSIS/DSP/Source/ComplexMathFunctions/arm_cmplx_dot_prod_f32.c ****  * -------------------------------------------------------------------- */
  11:Middlewares/Third_Party/ARM_CMSIS/CMSIS/DSP/Source/ComplexMathFunctions/arm_cmplx_dot_prod_f32.c **** /*
  12:Middlewares/Third_Party/ARM_CMSIS/CMSIS/DSP/Source/ComplexMathFunctions/arm_cmplx_dot_prod_f32.c ****  * Copyright (C) 2010-2021 ARM Limited or its affiliates. All rights reserved.
  13:Middlewares/Third_Party/ARM_CMSIS/CMSIS/DSP/Source/ComplexMathFunctions/arm_cmplx_dot_prod_f32.c ****  *
  14:Middlewares/Third_Party/ARM_CMSIS/CMSIS/DSP/Source/ComplexMathFunctions/arm_cmplx_dot_prod_f32.c ****  * SPDX-License-Identifier: Apache-2.0
  15:Middlewares/Third_Party/ARM_CMSIS/CMSIS/DSP/Source/ComplexMathFunctions/arm_cmplx_dot_prod_f32.c ****  *
  16:Middlewares/Third_Party/ARM_CMSIS/CMSIS/DSP/Source/ComplexMathFunctions/arm_cmplx_dot_prod_f32.c ****  * Licensed under the Apache License, Version 2.0 (the License); you may
  17:Middlewares/Third_Party/ARM_CMSIS/CMSIS/DSP/Source/ComplexMathFunctions/arm_cmplx_dot_prod_f32.c ****  * not use this file except in compliance with the License.
  18:Middlewares/Third_Party/ARM_CMSIS/CMSIS/DSP/Source/ComplexMathFunctions/arm_cmplx_dot_prod_f32.c ****  * You may obtain a copy of the License at
  19:Middlewares/Third_Party/ARM_CMSIS/CMSIS/DSP/Source/ComplexMathFunctions/arm_cmplx_dot_prod_f32.c ****  *
  20:Middlewares/Third_Party/ARM_CMSIS/CMSIS/DSP/Source/ComplexMathFunctions/arm_cmplx_dot_prod_f32.c ****  * www.apache.org/licenses/LICENSE-2.0
  21:Middlewares/Third_Party/ARM_CMSIS/CMSIS/DSP/Source/ComplexMathFunctions/arm_cmplx_dot_prod_f32.c ****  *
  22:Middlewares/Third_Party/ARM_CMSIS/CMSIS/DSP/Source/ComplexMathFunctions/arm_cmplx_dot_prod_f32.c ****  * Unless required by applicable law or agreed to in writing, software
  23:Middlewares/Third_Party/ARM_CMSIS/CMSIS/DSP/Source/ComplexMathFunctions/arm_cmplx_dot_prod_f32.c ****  * distributed under the License is distributed on an AS IS BASIS, WITHOUT
  24:Middlewares/Third_Party/ARM_CMSIS/CMSIS/DSP/Source/ComplexMathFunctions/arm_cmplx_dot_prod_f32.c ****  * WARRANTIES OR CONDITIONS OF ANY KIND, either express or implied.
  25:Middlewares/Third_Party/ARM_CMSIS/CMSIS/DSP/Source/ComplexMathFunctions/arm_cmplx_dot_prod_f32.c ****  * See the License for the specific language governing permissions and
  26:Middlewares/Third_Party/ARM_CMSIS/CMSIS/DSP/Source/ComplexMathFunctions/arm_cmplx_dot_prod_f32.c ****  * limitations under the License.
  27:Middlewares/Third_Party/ARM_CMSIS/CMSIS/DSP/Source/ComplexMathFunctions/arm_cmplx_dot_prod_f32.c ****  */
  28:Middlewares/Third_Party/ARM_CMSIS/CMSIS/DSP/Source/ComplexMathFunctions/arm_cmplx_dot_prod_f32.c **** 
  29:Middlewares/Third_Party/ARM_CMSIS/CMSIS/DSP/Source/ComplexMathFunctions/arm_cmplx_dot_prod_f32.c **** #include "dsp/complex_math_functions.h"
  30:Middlewares/Third_Party/ARM_CMSIS/CMSIS/DSP/Source/ComplexMathFunctions/arm_cmplx_dot_prod_f32.c **** 
  31:Middlewares/Third_Party/ARM_CMSIS/CMSIS/DSP/Source/ComplexMathFunctions/arm_cmplx_dot_prod_f32.c **** /**
  32:Middlewares/Third_Party/ARM_CMSIS/CMSIS/DSP/Source/ComplexMathFunctions/arm_cmplx_dot_prod_f32.c ****   @ingroup groupCmplxMath
  33:Middlewares/Third_Party/ARM_CMSIS/CMSIS/DSP/Source/ComplexMathFunctions/arm_cmplx_dot_prod_f32.c ****  */
  34:Middlewares/Third_Party/ARM_CMSIS/CMSIS/DSP/Source/ComplexMathFunctions/arm_cmplx_dot_prod_f32.c **** 
  35:Middlewares/Third_Party/ARM_CMSIS/CMSIS/DSP/Source/ComplexMathFunctions/arm_cmplx_dot_prod_f32.c **** /**
  36:Middlewares/Third_Party/ARM_CMSIS/CMSIS/DSP/Source/ComplexMathFunctions/arm_cmplx_dot_prod_f32.c ****   @defgroup cmplx_dot_prod Complex Dot Product
  37:Middlewares/Third_Party/ARM_CMSIS/CMSIS/DSP/Source/ComplexMathFunctions/arm_cmplx_dot_prod_f32.c **** 
  38:Middlewares/Third_Party/ARM_CMSIS/CMSIS/DSP/Source/ComplexMathFunctions/arm_cmplx_dot_prod_f32.c ****   Computes the dot product of two complex vectors.
  39:Middlewares/Third_Party/ARM_CMSIS/CMSIS/DSP/Source/ComplexMathFunctions/arm_cmplx_dot_prod_f32.c ****   The vectors are multiplied element-by-element and then summed.
  40:Middlewares/Third_Party/ARM_CMSIS/CMSIS/DSP/Source/ComplexMathFunctions/arm_cmplx_dot_prod_f32.c **** 
  41:Middlewares/Third_Party/ARM_CMSIS/CMSIS/DSP/Source/ComplexMathFunctions/arm_cmplx_dot_prod_f32.c ****   The <code>pSrcA</code> points to the first complex input vector and
  42:Middlewares/Third_Party/ARM_CMSIS/CMSIS/DSP/Source/ComplexMathFunctions/arm_cmplx_dot_prod_f32.c ****   <code>pSrcB</code> points to the second complex input vector.
  43:Middlewares/Third_Party/ARM_CMSIS/CMSIS/DSP/Source/ComplexMathFunctions/arm_cmplx_dot_prod_f32.c ****   <code>numSamples</code> specifies the number of complex samples
  44:Middlewares/Third_Party/ARM_CMSIS/CMSIS/DSP/Source/ComplexMathFunctions/arm_cmplx_dot_prod_f32.c ****   and the data in each array is stored in an interleaved fashion
  45:Middlewares/Third_Party/ARM_CMSIS/CMSIS/DSP/Source/ComplexMathFunctions/arm_cmplx_dot_prod_f32.c ****   (real, imag, real, imag, ...).
  46:Middlewares/Third_Party/ARM_CMSIS/CMSIS/DSP/Source/ComplexMathFunctions/arm_cmplx_dot_prod_f32.c ****   Each array has a total of <code>2*numSamples</code> values.
  47:Middlewares/Third_Party/ARM_CMSIS/CMSIS/DSP/Source/ComplexMathFunctions/arm_cmplx_dot_prod_f32.c **** 
  48:Middlewares/Third_Party/ARM_CMSIS/CMSIS/DSP/Source/ComplexMathFunctions/arm_cmplx_dot_prod_f32.c ****   The underlying algorithm is used:
  49:Middlewares/Third_Party/ARM_CMSIS/CMSIS/DSP/Source/ComplexMathFunctions/arm_cmplx_dot_prod_f32.c **** 
  50:Middlewares/Third_Party/ARM_CMSIS/CMSIS/DSP/Source/ComplexMathFunctions/arm_cmplx_dot_prod_f32.c ****   <pre>
  51:Middlewares/Third_Party/ARM_CMSIS/CMSIS/DSP/Source/ComplexMathFunctions/arm_cmplx_dot_prod_f32.c ****   realResult = 0;
  52:Middlewares/Third_Party/ARM_CMSIS/CMSIS/DSP/Source/ComplexMathFunctions/arm_cmplx_dot_prod_f32.c ****   imagResult = 0;
ARM GAS  C:\Users\7636~1\AppData\Local\Temp\ccloz7r5.s 			page 53


  53:Middlewares/Third_Party/ARM_CMSIS/CMSIS/DSP/Source/ComplexMathFunctions/arm_cmplx_dot_prod_f32.c ****   for (n = 0; n < numSamples; n++) {
  54:Middlewares/Third_Party/ARM_CMSIS/CMSIS/DSP/Source/ComplexMathFunctions/arm_cmplx_dot_prod_f32.c ****       realResult += pSrcA[(2*n)+0] * pSrcB[(2*n)+0] - pSrcA[(2*n)+1] * pSrcB[(2*n)+1];
  55:Middlewares/Third_Party/ARM_CMSIS/CMSIS/DSP/Source/ComplexMathFunctions/arm_cmplx_dot_prod_f32.c ****       imagResult += pSrcA[(2*n)+0] * pSrcB[(2*n)+1] + pSrcA[(2*n)+1] * pSrcB[(2*n)+0];
  56:Middlewares/Third_Party/ARM_CMSIS/CMSIS/DSP/Source/ComplexMathFunctions/arm_cmplx_dot_prod_f32.c ****   }
  57:Middlewares/Third_Party/ARM_CMSIS/CMSIS/DSP/Source/ComplexMathFunctions/arm_cmplx_dot_prod_f32.c ****   </pre>
  58:Middlewares/Third_Party/ARM_CMSIS/CMSIS/DSP/Source/ComplexMathFunctions/arm_cmplx_dot_prod_f32.c **** 
  59:Middlewares/Third_Party/ARM_CMSIS/CMSIS/DSP/Source/ComplexMathFunctions/arm_cmplx_dot_prod_f32.c ****   There are separate functions for floating-point, Q15, and Q31 data types.
  60:Middlewares/Third_Party/ARM_CMSIS/CMSIS/DSP/Source/ComplexMathFunctions/arm_cmplx_dot_prod_f32.c ****  */
  61:Middlewares/Third_Party/ARM_CMSIS/CMSIS/DSP/Source/ComplexMathFunctions/arm_cmplx_dot_prod_f32.c **** 
  62:Middlewares/Third_Party/ARM_CMSIS/CMSIS/DSP/Source/ComplexMathFunctions/arm_cmplx_dot_prod_f32.c **** /**
  63:Middlewares/Third_Party/ARM_CMSIS/CMSIS/DSP/Source/ComplexMathFunctions/arm_cmplx_dot_prod_f32.c ****   @addtogroup cmplx_dot_prod
  64:Middlewares/Third_Party/ARM_CMSIS/CMSIS/DSP/Source/ComplexMathFunctions/arm_cmplx_dot_prod_f32.c ****   @{
  65:Middlewares/Third_Party/ARM_CMSIS/CMSIS/DSP/Source/ComplexMathFunctions/arm_cmplx_dot_prod_f32.c ****  */
