ARM GAS  C:\Users\7636~1\AppData\Local\Temp\cchYtD0a.s 			page 1


   1              		.cpu cortex-m4
   2              		.arch armv7e-m
   3              		.fpu fpv4-sp-d16
   4              		.eabi_attribute 27, 1
   5              		.eabi_attribute 28, 1
   6              		.eabi_attribute 20, 1
   7              		.eabi_attribute 21, 1
   8              		.eabi_attribute 23, 3
   9              		.eabi_attribute 24, 1
  10              		.eabi_attribute 25, 1
  11              		.eabi_attribute 26, 1
  12              		.eabi_attribute 30, 1
  13              		.eabi_attribute 34, 1
  14              		.eabi_attribute 18, 4
  15              		.file	"main.cpp"
  16              		.text
  17              		.section	.text._ZL12MX_GPIO_Initv,"ax",%progbits
  18              		.align	1
  19              		.syntax unified
  20              		.thumb
  21              		.thumb_func
  23              	_ZL12MX_GPIO_Initv:
  24              		.fnstart
  25              	.LFB662:
  26              		@ args = 0, pretend = 0, frame = 40
  27              		@ frame_needed = 0, uses_anonymous_args = 0
  28 0000 F0B5     		push	{r4, r5, r6, r7, lr}
  29              		.save {r4, r5, r6, r7, lr}
  30              		.pad #44
  31 0002 8BB0     		sub	sp, sp, #44
  32 0004 0024     		movs	r4, #0
  33 0006 0494     		str	r4, [sp, #16]
  34 0008 0594     		str	r4, [sp, #20]
  35 000a 0694     		str	r4, [sp, #24]
  36 000c 0794     		str	r4, [sp, #28]
  37 000e 0894     		str	r4, [sp, #32]
  38 0010 0994     		str	r4, [sp, #36]
  39 0012 304B     		ldr	r3, .L3
  40 0014 1A6B     		ldr	r2, [r3, #48]
  41 0016 42F00402 		orr	r2, r2, #4
  42 001a 1A63     		str	r2, [r3, #48]
  43 001c 1A6B     		ldr	r2, [r3, #48]
  44 001e 02F00402 		and	r2, r2, #4
  45 0022 0392     		str	r2, [sp, #12]
  46 0024 039A     		ldr	r2, [sp, #12]
  47 0026 1A6B     		ldr	r2, [r3, #48]
  48 0028 42F08002 		orr	r2, r2, #128
  49 002c 1A63     		str	r2, [r3, #48]
  50 002e 1A6B     		ldr	r2, [r3, #48]
  51 0030 02F08002 		and	r2, r2, #128
  52 0034 0292     		str	r2, [sp, #8]
  53 0036 029A     		ldr	r2, [sp, #8]
  54 0038 1A6B     		ldr	r2, [r3, #48]
  55 003a 42F00102 		orr	r2, r2, #1
  56 003e 1A63     		str	r2, [r3, #48]
  57 0040 1A6B     		ldr	r2, [r3, #48]
  58 0042 02F00102 		and	r2, r2, #1
ARM GAS  C:\Users\7636~1\AppData\Local\Temp\cchYtD0a.s 			page 2


  59 0046 0192     		str	r2, [sp, #4]
  60 0048 019A     		ldr	r2, [sp, #4]
  61 004a 1A6B     		ldr	r2, [r3, #48]
  62 004c 42F00202 		orr	r2, r2, #2
  63 0050 1A63     		str	r2, [r3, #48]
  64 0052 1B6B     		ldr	r3, [r3, #48]
  65 0054 03F00203 		and	r3, r3, #2
  66 0058 0093     		str	r3, [sp]
  67 005a 009B     		ldr	r3, [sp]
  68 005c 1E48     		ldr	r0, .L3+4
  69 005e 4FF00053 		mov	r3, #536870912
  70 0062 8361     		str	r3, [r0, #24]
  71 0064 1D4F     		ldr	r7, .L3+8
  72 0066 1E4B     		ldr	r3, .L3+12
  73 0068 BB61     		str	r3, [r7, #24]
  74 006a 1E4E     		ldr	r6, .L3+16
  75 006c 4FF06043 		mov	r3, #-536870912
  76 0070 B361     		str	r3, [r6, #24]
  77 0072 4FF40053 		mov	r3, #8192
  78 0076 0493     		str	r3, [sp, #16]
  79 0078 0125     		movs	r5, #1
  80 007a 0595     		str	r5, [sp, #20]
  81 007c 04A9     		add	r1, sp, #16
  82 007e FFF7FEFF 		bl	LL_GPIO_Init
  83 0082 0495     		str	r5, [sp, #16]
  84 0084 0594     		str	r4, [sp, #20]
  85 0086 0895     		str	r5, [sp, #32]
  86 0088 04A9     		add	r1, sp, #16
  87 008a 3846     		mov	r0, r7
  88 008c FFF7FEFF 		bl	LL_GPIO_Init
  89 0090 48F23A03 		movw	r3, #32826
  90 0094 0493     		str	r3, [sp, #16]
  91 0096 0595     		str	r5, [sp, #20]
  92 0098 0694     		str	r4, [sp, #24]
  93 009a 0794     		str	r4, [sp, #28]
  94 009c 0894     		str	r4, [sp, #32]
  95 009e 04A9     		add	r1, sp, #16
  96 00a0 3846     		mov	r0, r7
  97 00a2 FFF7FEFF 		bl	LL_GPIO_Init
  98 00a6 4FF48053 		mov	r3, #4096
  99 00aa 0493     		str	r3, [sp, #16]
 100 00ac 0594     		str	r4, [sp, #20]
 101 00ae 0894     		str	r4, [sp, #32]
 102 00b0 04A9     		add	r1, sp, #16
 103 00b2 3046     		mov	r0, r6
 104 00b4 FFF7FEFF 		bl	LL_GPIO_Init
 105 00b8 4FF46043 		mov	r3, #57344
 106 00bc 0493     		str	r3, [sp, #16]
 107 00be 0595     		str	r5, [sp, #20]
 108 00c0 0694     		str	r4, [sp, #24]
 109 00c2 0794     		str	r4, [sp, #28]
 110 00c4 0894     		str	r4, [sp, #32]
 111 00c6 04A9     		add	r1, sp, #16
 112 00c8 3046     		mov	r0, r6
 113 00ca FFF7FEFF 		bl	LL_GPIO_Init
 114 00ce 0BB0     		add	sp, sp, #44
 115              		@ sp needed
ARM GAS  C:\Users\7636~1\AppData\Local\Temp\cchYtD0a.s 			page 3


 116 00d0 F0BD     		pop	{r4, r5, r6, r7, pc}
 117              	.L4:
 118 00d2 00BF     		.align	2
 119              	.L3:
 120 00d4 00380240 		.word	1073887232
 121 00d8 00080240 		.word	1073874944
 122 00dc 00000240 		.word	1073872896
 123 00e0 00003A80 		.word	-2143682560
 124 00e4 00040240 		.word	1073873920
 125              		.fnend
 127              		.section	.text._ZL11MX_DMA_Initv,"ax",%progbits
 128              		.align	1
 129              		.syntax unified
 130              		.thumb
 131              		.thumb_func
 133              	_ZL11MX_DMA_Initv:
 134              		.fnstart
 135              	.LFB661:
 136              		@ args = 0, pretend = 0, frame = 8
 137              		@ frame_needed = 0, uses_anonymous_args = 0
 138 0000 10B5     		push	{r4, lr}
 139              		.save {r4, lr}
 140              		.pad #8
 141 0002 82B0     		sub	sp, sp, #8
 142 0004 0024     		movs	r4, #0
 143 0006 0094     		str	r4, [sp]
 144 0008 264B     		ldr	r3, .L7
 145 000a 1A6B     		ldr	r2, [r3, #48]
 146 000c 42F48002 		orr	r2, r2, #4194304
 147 0010 1A63     		str	r2, [r3, #48]
 148 0012 1A6B     		ldr	r2, [r3, #48]
 149 0014 02F48002 		and	r2, r2, #4194304
 150 0018 0092     		str	r2, [sp]
 151 001a 009A     		ldr	r2, [sp]
 152 001c 0194     		str	r4, [sp, #4]
 153 001e 1A6B     		ldr	r2, [r3, #48]
 154 0020 42F40012 		orr	r2, r2, #2097152
 155 0024 1A63     		str	r2, [r3, #48]
 156 0026 1B6B     		ldr	r3, [r3, #48]
 157 0028 03F40013 		and	r3, r3, #2097152
 158 002c 0193     		str	r3, [sp, #4]
 159 002e 019B     		ldr	r3, [sp, #4]
 160 0030 2246     		mov	r2, r4
 161 0032 0121     		movs	r1, #1
 162 0034 0B20     		movs	r0, #11
 163 0036 FFF7FEFF 		bl	HAL_NVIC_SetPriority
 164 003a 0B20     		movs	r0, #11
 165 003c FFF7FEFF 		bl	HAL_NVIC_EnableIRQ
 166 0040 2246     		mov	r2, r4
 167 0042 0321     		movs	r1, #3
 168 0044 2F20     		movs	r0, #47
 169 0046 FFF7FEFF 		bl	HAL_NVIC_SetPriority
 170 004a 2F20     		movs	r0, #47
 171 004c FFF7FEFF 		bl	HAL_NVIC_EnableIRQ
 172 0050 2246     		mov	r2, r4
 173 0052 0121     		movs	r1, #1
 174 0054 3820     		movs	r0, #56
ARM GAS  C:\Users\7636~1\AppData\Local\Temp\cchYtD0a.s 			page 4


 175 0056 FFF7FEFF 		bl	HAL_NVIC_SetPriority
 176 005a 3820     		movs	r0, #56
 177 005c FFF7FEFF 		bl	HAL_NVIC_EnableIRQ
 178 0060 2246     		mov	r2, r4
 179 0062 0221     		movs	r1, #2
 180 0064 3A20     		movs	r0, #58
 181 0066 FFF7FEFF 		bl	HAL_NVIC_SetPriority
 182 006a 3A20     		movs	r0, #58
 183 006c FFF7FEFF 		bl	HAL_NVIC_EnableIRQ
 184 0070 2246     		mov	r2, r4
 185 0072 0321     		movs	r1, #3
 186 0074 3B20     		movs	r0, #59
 187 0076 FFF7FEFF 		bl	HAL_NVIC_SetPriority
 188 007a 3B20     		movs	r0, #59
 189 007c FFF7FEFF 		bl	HAL_NVIC_EnableIRQ
 190 0080 2246     		mov	r2, r4
 191 0082 0221     		movs	r1, #2
 192 0084 3C20     		movs	r0, #60
 193 0086 FFF7FEFF 		bl	HAL_NVIC_SetPriority
 194 008a 3C20     		movs	r0, #60
 195 008c FFF7FEFF 		bl	HAL_NVIC_EnableIRQ
 196 0090 2246     		mov	r2, r4
 197 0092 0321     		movs	r1, #3
 198 0094 4620     		movs	r0, #70
 199 0096 FFF7FEFF 		bl	HAL_NVIC_SetPriority
 200 009a 4620     		movs	r0, #70
 201 009c FFF7FEFF 		bl	HAL_NVIC_EnableIRQ
 202 00a0 02B0     		add	sp, sp, #8
 203              		@ sp needed
 204 00a2 10BD     		pop	{r4, pc}
 205              	.L8:
 206              		.align	2
 207              	.L7:
 208 00a4 00380240 		.word	1073887232
 209              		.fnend
 211              		.section	.text.Error_Handler,"ax",%progbits
 212              		.align	1
 213              		.global	Error_Handler
 214              		.syntax unified
 215              		.thumb
 216              		.thumb_func
 218              	Error_Handler:
 219              		.fnstart
 220              	.LFB663:
 221              		@ Volatile: function does not return.
 222              		@ args = 0, pretend = 0, frame = 0
 223              		@ frame_needed = 0, uses_anonymous_args = 0
 224              		@ link register save eliminated.
 225              		.syntax unified
 226              	@ 142 "Drivers/CMSIS/Include/cmsis_gcc.h" 1
 227 0000 72B6     		cpsid i
 228              	@ 0 "" 2
 229              		.thumb
 230              		.syntax unified
 231              	.L10:
 232 0002 FEE7     		b	.L10
 233              		.cantunwind
ARM GAS  C:\Users\7636~1\AppData\Local\Temp\cchYtD0a.s 			page 5


 234              		.fnend
 236              		.section	.text._ZL12MX_ADC1_Initv,"ax",%progbits
 237              		.align	1
 238              		.syntax unified
 239              		.thumb
 240              		.thumb_func
 242              	_ZL12MX_ADC1_Initv:
 243              		.fnstart
 244              	.LFB650:
 245              		@ args = 0, pretend = 0, frame = 16
 246              		@ frame_needed = 0, uses_anonymous_args = 0
 247 0000 00B5     		push	{lr}
 248              		.save {lr}
 249              		.pad #20
 250 0002 85B0     		sub	sp, sp, #20
 251 0004 0023     		movs	r3, #0
 252 0006 0093     		str	r3, [sp]
 253 0008 0193     		str	r3, [sp, #4]
 254 000a 0293     		str	r3, [sp, #8]
 255 000c 0393     		str	r3, [sp, #12]
 256 000e 3F48     		ldr	r0, .L31
 257 0010 3F4A     		ldr	r2, .L31+4
 258 0012 0260     		str	r2, [r0]
 259 0014 4FF44032 		mov	r2, #196608
 260 0018 4260     		str	r2, [r0, #4]
 261 001a 8360     		str	r3, [r0, #8]
 262 001c 0122     		movs	r2, #1
 263 001e 0261     		str	r2, [r0, #16]
 264 0020 0376     		strb	r3, [r0, #24]
 265 0022 80F82030 		strb	r3, [r0, #32]
 266 0026 4FF08051 		mov	r1, #268435456
 267 002a C162     		str	r1, [r0, #44]
 268 002c 4FF00061 		mov	r1, #134217728
 269 0030 8162     		str	r1, [r0, #40]
 270 0032 C360     		str	r3, [r0, #12]
 271 0034 0821     		movs	r1, #8
 272 0036 C161     		str	r1, [r0, #28]
 273 0038 80F83020 		strb	r2, [r0, #48]
 274 003c 4361     		str	r3, [r0, #20]
 275 003e FFF7FEFF 		bl	HAL_ADC_Init
 276 0042 0028     		cmp	r0, #0
 277 0044 4FD1     		bne	.L22
 278 0046 1123     		movs	r3, #17
 279 0048 0093     		str	r3, [sp]
 280 004a 0123     		movs	r3, #1
 281 004c 0193     		str	r3, [sp, #4]
 282 004e 0723     		movs	r3, #7
 283 0050 0293     		str	r3, [sp, #8]
 284 0052 6946     		mov	r1, sp
 285 0054 2D48     		ldr	r0, .L31
 286 0056 FFF7FEFF 		bl	HAL_ADC_ConfigChannel
 287 005a 0028     		cmp	r0, #0
 288 005c 45D1     		bne	.L23
 289 005e 0623     		movs	r3, #6
 290 0060 0093     		str	r3, [sp]
 291 0062 0223     		movs	r3, #2
 292 0064 0193     		str	r3, [sp, #4]
ARM GAS  C:\Users\7636~1\AppData\Local\Temp\cchYtD0a.s 			page 6


 293 0066 6946     		mov	r1, sp
 294 0068 2848     		ldr	r0, .L31
 295 006a FFF7FEFF 		bl	HAL_ADC_ConfigChannel
 296 006e 0028     		cmp	r0, #0
 297 0070 3DD1     		bne	.L24
 298 0072 0723     		movs	r3, #7
 299 0074 0093     		str	r3, [sp]
 300 0076 0323     		movs	r3, #3
 301 0078 0193     		str	r3, [sp, #4]
 302 007a 6946     		mov	r1, sp
 303 007c 2348     		ldr	r0, .L31
 304 007e FFF7FEFF 		bl	HAL_ADC_ConfigChannel
 305 0082 0028     		cmp	r0, #0
 306 0084 35D1     		bne	.L25
 307 0086 1123     		movs	r3, #17
 308 0088 0093     		str	r3, [sp]
 309 008a 0423     		movs	r3, #4
 310 008c 0193     		str	r3, [sp, #4]
 311 008e 6946     		mov	r1, sp
 312 0090 1E48     		ldr	r0, .L31
 313 0092 FFF7FEFF 		bl	HAL_ADC_ConfigChannel
 314 0096 70BB     		cbnz	r0, .L26
 315 0098 0823     		movs	r3, #8
 316 009a 0093     		str	r3, [sp]
 317 009c 0523     		movs	r3, #5
 318 009e 0193     		str	r3, [sp, #4]
 319 00a0 6946     		mov	r1, sp
 320 00a2 1A48     		ldr	r0, .L31
 321 00a4 FFF7FEFF 		bl	HAL_ADC_ConfigChannel
 322 00a8 38BB     		cbnz	r0, .L27
 323 00aa 0923     		movs	r3, #9
 324 00ac 0093     		str	r3, [sp]
 325 00ae 0623     		movs	r3, #6
 326 00b0 0193     		str	r3, [sp, #4]
 327 00b2 6946     		mov	r1, sp
 328 00b4 1548     		ldr	r0, .L31
 329 00b6 FFF7FEFF 		bl	HAL_ADC_ConfigChannel
 330 00ba 00BB     		cbnz	r0, .L28
 331 00bc 1023     		movs	r3, #16
 332 00be 0093     		str	r3, [sp]
 333 00c0 0723     		movs	r3, #7
 334 00c2 0193     		str	r3, [sp, #4]
 335 00c4 6946     		mov	r1, sp
 336 00c6 1148     		ldr	r0, .L31
 337 00c8 FFF7FEFF 		bl	HAL_ADC_ConfigChannel
 338 00cc C8B9     		cbnz	r0, .L29
 339 00ce 1123     		movs	r3, #17
 340 00d0 0093     		str	r3, [sp]
 341 00d2 0823     		movs	r3, #8
 342 00d4 0193     		str	r3, [sp, #4]
 343 00d6 6946     		mov	r1, sp
 344 00d8 0C48     		ldr	r0, .L31
 345 00da FFF7FEFF 		bl	HAL_ADC_ConfigChannel
 346 00de 90B9     		cbnz	r0, .L30
 347 00e0 05B0     		add	sp, sp, #20
 348              		@ sp needed
 349 00e2 5DF804FB 		ldr	pc, [sp], #4
ARM GAS  C:\Users\7636~1\AppData\Local\Temp\cchYtD0a.s 			page 7


 350              	.L22:
 351 00e6 FFF7FEFF 		bl	Error_Handler
 352              	.L23:
 353 00ea FFF7FEFF 		bl	Error_Handler
 354              	.L24:
 355 00ee FFF7FEFF 		bl	Error_Handler
 356              	.L25:
 357 00f2 FFF7FEFF 		bl	Error_Handler
 358              	.L26:
 359 00f6 FFF7FEFF 		bl	Error_Handler
 360              	.L27:
 361 00fa FFF7FEFF 		bl	Error_Handler
 362              	.L28:
 363 00fe FFF7FEFF 		bl	Error_Handler
 364              	.L29:
 365 0102 FFF7FEFF 		bl	Error_Handler
 366              	.L30:
 367 0106 FFF7FEFF 		bl	Error_Handler
 368              	.L32:
 369 010a 00BF     		.align	2
 370              	.L31:
 371 010c 00000000 		.word	.LANCHOR0
 372 0110 00200140 		.word	1073815552
 373              		.fnend
 375              		.section	.text._ZL12MX_I2C1_Initv,"ax",%progbits
 376              		.align	1
 377              		.syntax unified
 378              		.thumb
 379              		.thumb_func
 381              	_ZL12MX_I2C1_Initv:
 382              		.fnstart
 383              	.LFB651:
 384              		@ args = 0, pretend = 0, frame = 0
 385              		@ frame_needed = 0, uses_anonymous_args = 0
 386 0000 08B5     		push	{r3, lr}
 387              		.save {r3, lr}
 388 0002 0A48     		ldr	r0, .L37
 389 0004 0A4B     		ldr	r3, .L37+4
 390 0006 0360     		str	r3, [r0]
 391 0008 0A4B     		ldr	r3, .L37+8
 392 000a 4360     		str	r3, [r0, #4]
 393 000c 0023     		movs	r3, #0
 394 000e 8360     		str	r3, [r0, #8]
 395 0010 C360     		str	r3, [r0, #12]
 396 0012 4FF48042 		mov	r2, #16384
 397 0016 0261     		str	r2, [r0, #16]
 398 0018 4361     		str	r3, [r0, #20]
 399 001a 8361     		str	r3, [r0, #24]
 400 001c C361     		str	r3, [r0, #28]
 401 001e 0362     		str	r3, [r0, #32]
 402 0020 FFF7FEFF 		bl	HAL_I2C_Init
 403 0024 00B9     		cbnz	r0, .L36
 404 0026 08BD     		pop	{r3, pc}
 405              	.L36:
 406 0028 FFF7FEFF 		bl	Error_Handler
 407              	.L38:
 408              		.align	2
ARM GAS  C:\Users\7636~1\AppData\Local\Temp\cchYtD0a.s 			page 8


 409              	.L37:
 410 002c 00000000 		.word	.LANCHOR1
 411 0030 00540040 		.word	1073763328
 412 0034 801A0600 		.word	400000
 413              		.fnend
 415              		.section	.text._ZL12MX_SPI1_Initv,"ax",%progbits
 416              		.align	1
 417              		.syntax unified
 418              		.thumb
 419              		.thumb_func
 421              	_ZL12MX_SPI1_Initv:
 422              		.fnstart
 423              	.LFB653:
 424              		@ args = 0, pretend = 0, frame = 0
 425              		@ frame_needed = 0, uses_anonymous_args = 0
 426 0000 08B5     		push	{r3, lr}
 427              		.save {r3, lr}
 428 0002 0D48     		ldr	r0, .L43
 429 0004 0D4B     		ldr	r3, .L43+4
 430 0006 0360     		str	r3, [r0]
 431 0008 4FF48273 		mov	r3, #260
 432 000c 4360     		str	r3, [r0, #4]
 433 000e 0023     		movs	r3, #0
 434 0010 8360     		str	r3, [r0, #8]
 435 0012 C360     		str	r3, [r0, #12]
 436 0014 0361     		str	r3, [r0, #16]
 437 0016 4361     		str	r3, [r0, #20]
 438 0018 4FF40072 		mov	r2, #512
 439 001c 8261     		str	r2, [r0, #24]
 440 001e 3022     		movs	r2, #48
 441 0020 C261     		str	r2, [r0, #28]
 442 0022 0362     		str	r3, [r0, #32]
 443 0024 4362     		str	r3, [r0, #36]
 444 0026 8362     		str	r3, [r0, #40]
 445 0028 0A23     		movs	r3, #10
 446 002a C362     		str	r3, [r0, #44]
 447 002c FFF7FEFF 		bl	HAL_SPI_Init
 448 0030 00B9     		cbnz	r0, .L42
 449 0032 08BD     		pop	{r3, pc}
 450              	.L42:
 451 0034 FFF7FEFF 		bl	Error_Handler
 452              	.L44:
 453              		.align	2
 454              	.L43:
 455 0038 00000000 		.word	.LANCHOR2
 456 003c 00300140 		.word	1073819648
 457              		.fnend
 459              		.section	.text._ZL12MX_TIM1_Initv,"ax",%progbits
 460              		.align	1
 461              		.syntax unified
 462              		.thumb
 463              		.thumb_func
 465              	_ZL12MX_TIM1_Initv:
 466              		.fnstart
 467              	.LFB654:
 468              		@ args = 0, pretend = 0, frame = 48
 469              		@ frame_needed = 0, uses_anonymous_args = 0
ARM GAS  C:\Users\7636~1\AppData\Local\Temp\cchYtD0a.s 			page 9


 470 0000 00B5     		push	{lr}
 471              		.save {lr}
 472              		.pad #52
 473 0002 8DB0     		sub	sp, sp, #52
 474 0004 0023     		movs	r3, #0
 475 0006 0893     		str	r3, [sp, #32]
 476 0008 0993     		str	r3, [sp, #36]
 477 000a 0A93     		str	r3, [sp, #40]
 478 000c 0B93     		str	r3, [sp, #44]
 479 000e 0393     		str	r3, [sp, #12]
 480 0010 0493     		str	r3, [sp, #16]
 481 0012 0593     		str	r3, [sp, #20]
 482 0014 0693     		str	r3, [sp, #24]
 483 0016 0793     		str	r3, [sp, #28]
 484 0018 0193     		str	r3, [sp, #4]
 485 001a 0293     		str	r3, [sp, #8]
 486 001c 1B48     		ldr	r0, .L55
 487 001e 1C4A     		ldr	r2, .L55+4
 488 0020 0260     		str	r2, [r0]
 489 0022 0122     		movs	r2, #1
 490 0024 4260     		str	r2, [r0, #4]
 491 0026 8360     		str	r3, [r0, #8]
 492 0028 4AF20F42 		movw	r2, #41999
 493 002c C260     		str	r2, [r0, #12]
 494 002e 0361     		str	r3, [r0, #16]
 495 0030 4361     		str	r3, [r0, #20]
 496 0032 8361     		str	r3, [r0, #24]
 497 0034 FFF7FEFF 		bl	HAL_TIM_Base_Init
 498 0038 F8B9     		cbnz	r0, .L51
 499 003a 4FF48053 		mov	r3, #4096
 500 003e 0893     		str	r3, [sp, #32]
 501 0040 08A9     		add	r1, sp, #32
 502 0042 1248     		ldr	r0, .L55
 503 0044 FFF7FEFF 		bl	HAL_TIM_ConfigClockSource
 504 0048 C8B9     		cbnz	r0, .L52
 505 004a 0623     		movs	r3, #6
 506 004c 0393     		str	r3, [sp, #12]
 507 004e 5023     		movs	r3, #80
 508 0050 0493     		str	r3, [sp, #16]
 509 0052 0223     		movs	r3, #2
 510 0054 0593     		str	r3, [sp, #20]
 511 0056 0F23     		movs	r3, #15
 512 0058 0793     		str	r3, [sp, #28]
 513 005a 03A9     		add	r1, sp, #12
 514 005c 0B48     		ldr	r0, .L55
 515 005e FFF7FEFF 		bl	HAL_TIM_SlaveConfigSynchro
 516 0062 70B9     		cbnz	r0, .L53
 517 0064 0023     		movs	r3, #0
 518 0066 0193     		str	r3, [sp, #4]
 519 0068 0293     		str	r3, [sp, #8]
 520 006a 01A9     		add	r1, sp, #4
 521 006c 0748     		ldr	r0, .L55
 522 006e FFF7FEFF 		bl	HAL_TIMEx_MasterConfigSynchronization
 523 0072 40B9     		cbnz	r0, .L54
 524 0074 0DB0     		add	sp, sp, #52
 525              		@ sp needed
 526 0076 5DF804FB 		ldr	pc, [sp], #4
ARM GAS  C:\Users\7636~1\AppData\Local\Temp\cchYtD0a.s 			page 10


 527              	.L51:
 528 007a FFF7FEFF 		bl	Error_Handler
 529              	.L52:
 530 007e FFF7FEFF 		bl	Error_Handler
 531              	.L53:
 532 0082 FFF7FEFF 		bl	Error_Handler
 533              	.L54:
 534 0086 FFF7FEFF 		bl	Error_Handler
 535              	.L56:
 536 008a 00BF     		.align	2
 537              	.L55:
 538 008c 00000000 		.word	.LANCHOR3
 539 0090 00000140 		.word	1073807360
 540              		.fnend
 542              		.section	.text._ZL12MX_TIM3_Initv,"ax",%progbits
 543              		.align	1
 544              		.syntax unified
 545              		.thumb
 546              		.thumb_func
 548              	_ZL12MX_TIM3_Initv:
 549              		.fnstart
 550              	.LFB655:
 551              		@ args = 0, pretend = 0, frame = 24
 552              		@ frame_needed = 0, uses_anonymous_args = 0
 553 0000 00B5     		push	{lr}
 554              		.save {lr}
 555              		.pad #28
 556 0002 87B0     		sub	sp, sp, #28
 557 0004 0023     		movs	r3, #0
 558 0006 0293     		str	r3, [sp, #8]
 559 0008 0393     		str	r3, [sp, #12]
 560 000a 0493     		str	r3, [sp, #16]
 561 000c 0593     		str	r3, [sp, #20]
 562 000e 0093     		str	r3, [sp]
 563 0010 0193     		str	r3, [sp, #4]
 564 0012 1448     		ldr	r0, .L65
 565 0014 144A     		ldr	r2, .L65+4
 566 0016 0260     		str	r2, [r0]
 567 0018 8B22     		movs	r2, #139
 568 001a 4260     		str	r2, [r0, #4]
 569 001c 8360     		str	r3, [r0, #8]
 570 001e 4EF65F22 		movw	r2, #59999
 571 0022 C260     		str	r2, [r0, #12]
 572 0024 0361     		str	r3, [r0, #16]
 573 0026 8361     		str	r3, [r0, #24]
 574 0028 FFF7FEFF 		bl	HAL_TIM_Base_Init
 575 002c 98B9     		cbnz	r0, .L62
 576 002e 4FF48053 		mov	r3, #4096
 577 0032 0293     		str	r3, [sp, #8]
 578 0034 02A9     		add	r1, sp, #8
 579 0036 0B48     		ldr	r0, .L65
 580 0038 FFF7FEFF 		bl	HAL_TIM_ConfigClockSource
 581 003c 68B9     		cbnz	r0, .L63
 582 003e 2023     		movs	r3, #32
 583 0040 0093     		str	r3, [sp]
 584 0042 0023     		movs	r3, #0
 585 0044 0193     		str	r3, [sp, #4]
ARM GAS  C:\Users\7636~1\AppData\Local\Temp\cchYtD0a.s 			page 11


 586 0046 6946     		mov	r1, sp
 587 0048 0648     		ldr	r0, .L65
 588 004a FFF7FEFF 		bl	HAL_TIMEx_MasterConfigSynchronization
 589 004e 30B9     		cbnz	r0, .L64
 590 0050 07B0     		add	sp, sp, #28
 591              		@ sp needed
 592 0052 5DF804FB 		ldr	pc, [sp], #4
 593              	.L62:
 594 0056 FFF7FEFF 		bl	Error_Handler
 595              	.L63:
 596 005a FFF7FEFF 		bl	Error_Handler
 597              	.L64:
 598 005e FFF7FEFF 		bl	Error_Handler
 599              	.L66:
 600 0062 00BF     		.align	2
 601              	.L65:
 602 0064 00000000 		.word	.LANCHOR4
 603 0068 00040040 		.word	1073742848
 604              		.fnend
 606              		.section	.text._ZL12MX_TIM9_Initv,"ax",%progbits
 607              		.align	1
 608              		.syntax unified
 609              		.thumb
 610              		.thumb_func
 612              	_ZL12MX_TIM9_Initv:
 613              		.fnstart
 614              	.LFB657:
 615              		@ args = 0, pretend = 0, frame = 48
 616              		@ frame_needed = 0, uses_anonymous_args = 0
 617 0000 00B5     		push	{lr}
 618              		.save {lr}
 619              		.pad #52
 620 0002 8DB0     		sub	sp, sp, #52
 621 0004 0023     		movs	r3, #0
 622 0006 0893     		str	r3, [sp, #32]
 623 0008 0993     		str	r3, [sp, #36]
 624 000a 0A93     		str	r3, [sp, #40]
 625 000c 0B93     		str	r3, [sp, #44]
 626 000e 0193     		str	r3, [sp, #4]
 627 0010 0293     		str	r3, [sp, #8]
 628 0012 0393     		str	r3, [sp, #12]
 629 0014 0493     		str	r3, [sp, #16]
 630 0016 0593     		str	r3, [sp, #20]
 631 0018 0693     		str	r3, [sp, #24]
 632 001a 0793     		str	r3, [sp, #28]
 633 001c 1948     		ldr	r0, .L77
 634 001e 1A4A     		ldr	r2, .L77+4
 635 0020 0260     		str	r2, [r0]
 636 0022 8122     		movs	r2, #129
 637 0024 4260     		str	r2, [r0, #4]
 638 0026 8360     		str	r3, [r0, #8]
 639 0028 4FF6FF72 		movw	r2, #65535
 640 002c C260     		str	r2, [r0, #12]
 641 002e 0361     		str	r3, [r0, #16]
 642 0030 8361     		str	r3, [r0, #24]
 643 0032 FFF7FEFF 		bl	HAL_TIM_Base_Init
 644 0036 E0B9     		cbnz	r0, .L73
ARM GAS  C:\Users\7636~1\AppData\Local\Temp\cchYtD0a.s 			page 12


 645 0038 4FF48053 		mov	r3, #4096
 646 003c 0893     		str	r3, [sp, #32]
 647 003e 08A9     		add	r1, sp, #32
 648 0040 1048     		ldr	r0, .L77
 649 0042 FFF7FEFF 		bl	HAL_TIM_ConfigClockSource
 650 0046 B0B9     		cbnz	r0, .L74
 651 0048 0E48     		ldr	r0, .L77
 652 004a FFF7FEFF 		bl	HAL_TIM_PWM_Init
 653 004e A0B9     		cbnz	r0, .L75
 654 0050 6023     		movs	r3, #96
 655 0052 0193     		str	r3, [sp, #4]
 656 0054 0022     		movs	r2, #0
 657 0056 0292     		str	r2, [sp, #8]
 658 0058 0392     		str	r2, [sp, #12]
 659 005a 0592     		str	r2, [sp, #20]
 660 005c 01A9     		add	r1, sp, #4
 661 005e 0948     		ldr	r0, .L77
 662 0060 FFF7FEFF 		bl	HAL_TIM_PWM_ConfigChannel
 663 0064 58B9     		cbnz	r0, .L76
 664 0066 0748     		ldr	r0, .L77
 665 0068 FFF7FEFF 		bl	HAL_TIM_MspPostInit
 666 006c 0DB0     		add	sp, sp, #52
 667              		@ sp needed
 668 006e 5DF804FB 		ldr	pc, [sp], #4
 669              	.L73:
 670 0072 FFF7FEFF 		bl	Error_Handler
 671              	.L74:
 672 0076 FFF7FEFF 		bl	Error_Handler
 673              	.L75:
 674 007a FFF7FEFF 		bl	Error_Handler
 675              	.L76:
 676 007e FFF7FEFF 		bl	Error_Handler
 677              	.L78:
 678 0082 00BF     		.align	2
 679              	.L77:
 680 0084 00000000 		.word	.LANCHOR5
 681 0088 00400140 		.word	1073823744
 682              		.fnend
 684              		.section	.text._ZL13MX_TIM10_Initv,"ax",%progbits
 685              		.align	1
 686              		.syntax unified
 687              		.thumb
 688              		.thumb_func
 690              	_ZL13MX_TIM10_Initv:
 691              		.fnstart
 692              	.LFB658:
 693              		@ args = 0, pretend = 0, frame = 32
 694              		@ frame_needed = 0, uses_anonymous_args = 0
 695 0000 00B5     		push	{lr}
 696              		.save {lr}
 697              		.pad #36
 698 0002 89B0     		sub	sp, sp, #36
 699 0004 0023     		movs	r3, #0
 700 0006 0193     		str	r3, [sp, #4]
 701 0008 0293     		str	r3, [sp, #8]
 702 000a 0393     		str	r3, [sp, #12]
 703 000c 0493     		str	r3, [sp, #16]
ARM GAS  C:\Users\7636~1\AppData\Local\Temp\cchYtD0a.s 			page 13


 704 000e 0593     		str	r3, [sp, #20]
 705 0010 0693     		str	r3, [sp, #24]
 706 0012 0793     		str	r3, [sp, #28]
 707 0014 1448     		ldr	r0, .L87
 708 0016 154A     		ldr	r2, .L87+4
 709 0018 0260     		str	r2, [r0]
 710 001a 8122     		movs	r2, #129
 711 001c 4260     		str	r2, [r0, #4]
 712 001e 8360     		str	r3, [r0, #8]
 713 0020 4FF6FF72 		movw	r2, #65535
 714 0024 C260     		str	r2, [r0, #12]
 715 0026 0361     		str	r3, [r0, #16]
 716 0028 8361     		str	r3, [r0, #24]
 717 002a FFF7FEFF 		bl	HAL_TIM_Base_Init
 718 002e A0B9     		cbnz	r0, .L84
 719 0030 0D48     		ldr	r0, .L87
 720 0032 FFF7FEFF 		bl	HAL_TIM_PWM_Init
 721 0036 90B9     		cbnz	r0, .L85
 722 0038 6023     		movs	r3, #96
 723 003a 0193     		str	r3, [sp, #4]
 724 003c 0022     		movs	r2, #0
 725 003e 0292     		str	r2, [sp, #8]
 726 0040 0392     		str	r2, [sp, #12]
 727 0042 0592     		str	r2, [sp, #20]
 728 0044 01A9     		add	r1, sp, #4
 729 0046 0848     		ldr	r0, .L87
 730 0048 FFF7FEFF 		bl	HAL_TIM_PWM_ConfigChannel
 731 004c 48B9     		cbnz	r0, .L86
 732 004e 0648     		ldr	r0, .L87
 733 0050 FFF7FEFF 		bl	HAL_TIM_MspPostInit
 734 0054 09B0     		add	sp, sp, #36
 735              		@ sp needed
 736 0056 5DF804FB 		ldr	pc, [sp], #4
 737              	.L84:
 738 005a FFF7FEFF 		bl	Error_Handler
 739              	.L85:
 740 005e FFF7FEFF 		bl	Error_Handler
 741              	.L86:
 742 0062 FFF7FEFF 		bl	Error_Handler
 743              	.L88:
 744 0066 00BF     		.align	2
 745              	.L87:
 746 0068 00000000 		.word	.LANCHOR6
 747 006c 00440140 		.word	1073824768
 748              		.fnend
 750              		.section	.text._ZL13MX_TIM11_Initv,"ax",%progbits
 751              		.align	1
 752              		.syntax unified
 753              		.thumb
 754              		.thumb_func
 756              	_ZL13MX_TIM11_Initv:
 757              		.fnstart
 758              	.LFB659:
 759              		@ args = 0, pretend = 0, frame = 32
 760              		@ frame_needed = 0, uses_anonymous_args = 0
 761 0000 00B5     		push	{lr}
 762              		.save {lr}
ARM GAS  C:\Users\7636~1\AppData\Local\Temp\cchYtD0a.s 			page 14


 763              		.pad #36
 764 0002 89B0     		sub	sp, sp, #36
 765 0004 0023     		movs	r3, #0
 766 0006 0193     		str	r3, [sp, #4]
 767 0008 0293     		str	r3, [sp, #8]
 768 000a 0393     		str	r3, [sp, #12]
 769 000c 0493     		str	r3, [sp, #16]
 770 000e 0593     		str	r3, [sp, #20]
 771 0010 0693     		str	r3, [sp, #24]
 772 0012 0793     		str	r3, [sp, #28]
 773 0014 1448     		ldr	r0, .L97
 774 0016 154A     		ldr	r2, .L97+4
 775 0018 0260     		str	r2, [r0]
 776 001a 8122     		movs	r2, #129
 777 001c 4260     		str	r2, [r0, #4]
 778 001e 8360     		str	r3, [r0, #8]
 779 0020 4FF6FF72 		movw	r2, #65535
 780 0024 C260     		str	r2, [r0, #12]
 781 0026 0361     		str	r3, [r0, #16]
 782 0028 8361     		str	r3, [r0, #24]
 783 002a FFF7FEFF 		bl	HAL_TIM_Base_Init
 784 002e A0B9     		cbnz	r0, .L94
 785 0030 0D48     		ldr	r0, .L97
 786 0032 FFF7FEFF 		bl	HAL_TIM_PWM_Init
 787 0036 90B9     		cbnz	r0, .L95
 788 0038 6023     		movs	r3, #96
 789 003a 0193     		str	r3, [sp, #4]
 790 003c 0022     		movs	r2, #0
 791 003e 0292     		str	r2, [sp, #8]
 792 0040 0392     		str	r2, [sp, #12]
 793 0042 0592     		str	r2, [sp, #20]
 794 0044 01A9     		add	r1, sp, #4
 795 0046 0848     		ldr	r0, .L97
 796 0048 FFF7FEFF 		bl	HAL_TIM_PWM_ConfigChannel
 797 004c 48B9     		cbnz	r0, .L96
 798 004e 0648     		ldr	r0, .L97
 799 0050 FFF7FEFF 		bl	HAL_TIM_MspPostInit
 800 0054 09B0     		add	sp, sp, #36
 801              		@ sp needed
 802 0056 5DF804FB 		ldr	pc, [sp], #4
 803              	.L94:
 804 005a FFF7FEFF 		bl	Error_Handler
 805              	.L95:
 806 005e FFF7FEFF 		bl	Error_Handler
 807              	.L96:
 808 0062 FFF7FEFF 		bl	Error_Handler
 809              	.L98:
 810 0066 00BF     		.align	2
 811              	.L97:
 812 0068 00000000 		.word	.LANCHOR7
 813 006c 00480140 		.word	1073825792
 814              		.fnend
 816              		.section	.text._ZL11MX_RTC_Initv,"ax",%progbits
 817              		.align	1
 818              		.syntax unified
 819              		.thumb
 820              		.thumb_func
ARM GAS  C:\Users\7636~1\AppData\Local\Temp\cchYtD0a.s 			page 15


 822              	_ZL11MX_RTC_Initv:
 823              		.fnstart
 824              	.LFB652:
 825              		@ args = 0, pretend = 0, frame = 64
 826              		@ frame_needed = 0, uses_anonymous_args = 0
 827 0000 10B5     		push	{r4, lr}
 828              		.save {r4, lr}
 829              		.pad #64
 830 0002 90B0     		sub	sp, sp, #64
 831 0004 0024     		movs	r4, #0
 832 0006 0B94     		str	r4, [sp, #44]
 833 0008 0C94     		str	r4, [sp, #48]
 834 000a 0D94     		str	r4, [sp, #52]
 835 000c 0E94     		str	r4, [sp, #56]
 836 000e 0F94     		str	r4, [sp, #60]
 837 0010 0A94     		str	r4, [sp, #40]
 838 0012 2822     		movs	r2, #40
 839 0014 2146     		mov	r1, r4
 840 0016 6846     		mov	r0, sp
 841 0018 FFF7FEFF 		bl	memset
 842 001c 2748     		ldr	r0, .L109
 843 001e 284B     		ldr	r3, .L109+4
 844 0020 0360     		str	r3, [r0]
 845 0022 4460     		str	r4, [r0, #4]
 846 0024 7F23     		movs	r3, #127
 847 0026 8360     		str	r3, [r0, #8]
 848 0028 FF23     		movs	r3, #255
 849 002a C360     		str	r3, [r0, #12]
 850 002c 0461     		str	r4, [r0, #16]
 851 002e 4461     		str	r4, [r0, #20]
 852 0030 8461     		str	r4, [r0, #24]
 853 0032 FFF7FEFF 		bl	HAL_RTC_Init
 854 0036 0028     		cmp	r0, #0
 855 0038 38D1     		bne	.L105
 856 003a 0023     		movs	r3, #0
 857 003c 8DF82C30 		strb	r3, [sp, #44]
 858 0040 8DF82D30 		strb	r3, [sp, #45]
 859 0044 8DF82E30 		strb	r3, [sp, #46]
 860 0048 0E93     		str	r3, [sp, #56]
 861 004a 0F93     		str	r3, [sp, #60]
 862 004c 0122     		movs	r2, #1
 863 004e 0BA9     		add	r1, sp, #44
 864 0050 1A48     		ldr	r0, .L109
 865 0052 FFF7FEFF 		bl	HAL_RTC_SetTime
 866 0056 58BB     		cbnz	r0, .L106
 867 0058 0122     		movs	r2, #1
 868 005a 8DF82820 		strb	r2, [sp, #40]
 869 005e 8DF82920 		strb	r2, [sp, #41]
 870 0062 8DF82A20 		strb	r2, [sp, #42]
 871 0066 2123     		movs	r3, #33
 872 0068 8DF82B30 		strb	r3, [sp, #43]
 873 006c 0AA9     		add	r1, sp, #40
 874 006e 1348     		ldr	r0, .L109
 875 0070 FFF7FEFF 		bl	HAL_RTC_SetDate
 876 0074 F0B9     		cbnz	r0, .L107
 877 0076 0023     		movs	r3, #0
 878 0078 8DF80030 		strb	r3, [sp]
ARM GAS  C:\Users\7636~1\AppData\Local\Temp\cchYtD0a.s 			page 16


 879 007c 8DF80130 		strb	r3, [sp, #1]
 880 0080 8DF80230 		strb	r3, [sp, #2]
 881 0084 0193     		str	r3, [sp, #4]
 882 0086 0393     		str	r3, [sp, #12]
 883 0088 0493     		str	r3, [sp, #16]
 884 008a 0E4A     		ldr	r2, .L109+8
 885 008c 0592     		str	r2, [sp, #20]
 886 008e 0693     		str	r3, [sp, #24]
 887 0090 0793     		str	r3, [sp, #28]
 888 0092 0122     		movs	r2, #1
 889 0094 8DF82020 		strb	r2, [sp, #32]
 890 0098 4FF48073 		mov	r3, #256
 891 009c 0993     		str	r3, [sp, #36]
 892 009e 6946     		mov	r1, sp
 893 00a0 0648     		ldr	r0, .L109
 894 00a2 FFF7FEFF 		bl	HAL_RTC_SetAlarm_IT
 895 00a6 38B9     		cbnz	r0, .L108
 896 00a8 10B0     		add	sp, sp, #64
 897              		@ sp needed
 898 00aa 10BD     		pop	{r4, pc}
 899              	.L105:
 900 00ac FFF7FEFF 		bl	Error_Handler
 901              	.L106:
 902 00b0 FFF7FEFF 		bl	Error_Handler
 903              	.L107:
 904 00b4 FFF7FEFF 		bl	Error_Handler
 905              	.L108:
 906 00b8 FFF7FEFF 		bl	Error_Handler
 907              	.L110:
 908              		.align	2
 909              	.L109:
 910 00bc 00000000 		.word	.LANCHOR8
 911 00c0 00280040 		.word	1073752064
 912 00c4 00808080 		.word	-2139062272
 913              		.fnend
 915              		.section	.text._ZL19MX_USART1_UART_Initv,"ax",%progbits
 916              		.align	1
 917              		.syntax unified
 918              		.thumb
 919              		.thumb_func
 921              	_ZL19MX_USART1_UART_Initv:
 922              		.fnstart
 923              	.LFB660:
 924              		@ args = 0, pretend = 0, frame = 0
 925              		@ frame_needed = 0, uses_anonymous_args = 0
 926 0000 08B5     		push	{r3, lr}
 927              		.save {r3, lr}
 928 0002 0B48     		ldr	r0, .L115
 929 0004 0B4B     		ldr	r3, .L115+4
 930 0006 0360     		str	r3, [r0]
 931 0008 4FF4E133 		mov	r3, #115200
 932 000c 4360     		str	r3, [r0, #4]
 933 000e 0023     		movs	r3, #0
 934 0010 8360     		str	r3, [r0, #8]
 935 0012 C360     		str	r3, [r0, #12]
 936 0014 4FF4C062 		mov	r2, #1536
 937 0018 0261     		str	r2, [r0, #16]
ARM GAS  C:\Users\7636~1\AppData\Local\Temp\cchYtD0a.s 			page 17


 938 001a 0C22     		movs	r2, #12
 939 001c 4261     		str	r2, [r0, #20]
 940 001e 8361     		str	r3, [r0, #24]
 941 0020 C361     		str	r3, [r0, #28]
 942 0022 FFF7FEFF 		bl	HAL_UART_Init
 943 0026 00B9     		cbnz	r0, .L114
 944 0028 08BD     		pop	{r3, pc}
 945              	.L114:
 946 002a FFF7FEFF 		bl	Error_Handler
 947              	.L116:
 948 002e 00BF     		.align	2
 949              	.L115:
 950 0030 00000000 		.word	.LANCHOR9
 951 0034 00100140 		.word	1073811456
 952              		.fnend
 954              		.section	.text._ZL12MX_TIM5_Initv,"ax",%progbits
 955              		.align	1
 956              		.syntax unified
 957              		.thumb
 958              		.thumb_func
 960              	_ZL12MX_TIM5_Initv:
 961              		.fnstart
 962              	.LFB656:
 963              		@ args = 0, pretend = 0, frame = 24
 964              		@ frame_needed = 0, uses_anonymous_args = 0
 965 0000 00B5     		push	{lr}
 966              		.save {lr}
 967              		.pad #28
 968 0002 87B0     		sub	sp, sp, #28
 969 0004 0023     		movs	r3, #0
 970 0006 0293     		str	r3, [sp, #8]
 971 0008 0393     		str	r3, [sp, #12]
 972 000a 0493     		str	r3, [sp, #16]
 973 000c 0593     		str	r3, [sp, #20]
 974 000e 0093     		str	r3, [sp]
 975 0010 0193     		str	r3, [sp, #4]
 976 0012 1348     		ldr	r0, .L125
 977 0014 134A     		ldr	r2, .L125+4
 978 0016 0260     		str	r2, [r0]
 979 0018 5322     		movs	r2, #83
 980 001a 4260     		str	r2, [r0, #4]
 981 001c 8360     		str	r3, [r0, #8]
 982 001e 4FF0FF32 		mov	r2, #-1
 983 0022 C260     		str	r2, [r0, #12]
 984 0024 0361     		str	r3, [r0, #16]
 985 0026 8361     		str	r3, [r0, #24]
 986 0028 FFF7FEFF 		bl	HAL_TIM_Base_Init
 987 002c 90B9     		cbnz	r0, .L122
 988 002e 4FF48053 		mov	r3, #4096
 989 0032 0293     		str	r3, [sp, #8]
 990 0034 02A9     		add	r1, sp, #8
 991 0036 0A48     		ldr	r0, .L125
 992 0038 FFF7FEFF 		bl	HAL_TIM_ConfigClockSource
 993 003c 60B9     		cbnz	r0, .L123
 994 003e 0023     		movs	r3, #0
 995 0040 0093     		str	r3, [sp]
 996 0042 0193     		str	r3, [sp, #4]
ARM GAS  C:\Users\7636~1\AppData\Local\Temp\cchYtD0a.s 			page 18


 997 0044 6946     		mov	r1, sp
 998 0046 0648     		ldr	r0, .L125
 999 0048 FFF7FEFF 		bl	HAL_TIMEx_MasterConfigSynchronization
 1000 004c 30B9     		cbnz	r0, .L124
 1001 004e 07B0     		add	sp, sp, #28
 1002              		@ sp needed
 1003 0050 5DF804FB 		ldr	pc, [sp], #4
 1004              	.L122:
 1005 0054 FFF7FEFF 		bl	Error_Handler
 1006              	.L123:
 1007 0058 FFF7FEFF 		bl	Error_Handler
 1008              	.L124:
 1009 005c FFF7FEFF 		bl	Error_Handler
 1010              	.L126:
 1011              		.align	2
 1012              	.L125:
 1013 0060 00000000 		.word	.LANCHOR10
 1014 0064 000C0040 		.word	1073744896
 1015              		.fnend
 1017              		.section	.text._Z18SystemClock_Configv,"ax",%progbits
 1018              		.align	1
 1019              		.global	_Z18SystemClock_Configv
 1020              		.syntax unified
 1021              		.thumb
 1022              		.thumb_func
 1024              	_Z18SystemClock_Configv:
 1025              		.fnstart
 1026              	.LFB649:
 1027              		@ args = 0, pretend = 0, frame = 96
 1028              		@ frame_needed = 0, uses_anonymous_args = 0
 1029 0000 00B5     		push	{lr}
 1030              		.save {lr}
 1031              		.pad #100
 1032 0002 99B0     		sub	sp, sp, #100
 1033 0004 3022     		movs	r2, #48
 1034 0006 0021     		movs	r1, #0
 1035 0008 0DEB0200 		add	r0, sp, r2
 1036 000c FFF7FEFF 		bl	memset
 1037 0010 0023     		movs	r3, #0
 1038 0012 0793     		str	r3, [sp, #28]
 1039 0014 0893     		str	r3, [sp, #32]
 1040 0016 0993     		str	r3, [sp, #36]
 1041 0018 0A93     		str	r3, [sp, #40]
 1042 001a 0B93     		str	r3, [sp, #44]
 1043 001c 0293     		str	r3, [sp, #8]
 1044 001e 0393     		str	r3, [sp, #12]
 1045 0020 0493     		str	r3, [sp, #16]
 1046 0022 0593     		str	r3, [sp, #20]
 1047 0024 0693     		str	r3, [sp, #24]
 1048 0026 0093     		str	r3, [sp]
 1049 0028 284A     		ldr	r2, .L135
 1050 002a 116C     		ldr	r1, [r2, #64]
 1051 002c 41F08051 		orr	r1, r1, #268435456
 1052 0030 1164     		str	r1, [r2, #64]
 1053 0032 126C     		ldr	r2, [r2, #64]
 1054 0034 02F08052 		and	r2, r2, #268435456
 1055 0038 0092     		str	r2, [sp]
ARM GAS  C:\Users\7636~1\AppData\Local\Temp\cchYtD0a.s 			page 19


 1056 003a 009A     		ldr	r2, [sp]
 1057 003c 0193     		str	r3, [sp, #4]
 1058 003e 244A     		ldr	r2, .L135+4
 1059 0040 1368     		ldr	r3, [r2]
 1060 0042 23F44043 		bic	r3, r3, #49152
 1061 0046 43F40043 		orr	r3, r3, #32768
 1062 004a 1360     		str	r3, [r2]
 1063 004c 1368     		ldr	r3, [r2]
 1064 004e 03F44043 		and	r3, r3, #49152
 1065 0052 0193     		str	r3, [sp, #4]
 1066 0054 019B     		ldr	r3, [sp, #4]
 1067 0056 0523     		movs	r3, #5
 1068 0058 0C93     		str	r3, [sp, #48]
 1069 005a 4FF48033 		mov	r3, #65536
 1070 005e 0D93     		str	r3, [sp, #52]
 1071 0060 0123     		movs	r3, #1
 1072 0062 0E93     		str	r3, [sp, #56]
 1073 0064 0223     		movs	r3, #2
 1074 0066 1293     		str	r3, [sp, #72]
 1075 0068 4FF48003 		mov	r3, #4194304
 1076 006c 1393     		str	r3, [sp, #76]
 1077 006e 1923     		movs	r3, #25
 1078 0070 1493     		str	r3, [sp, #80]
 1079 0072 4FF4A873 		mov	r3, #336
 1080 0076 1593     		str	r3, [sp, #84]
 1081 0078 0423     		movs	r3, #4
 1082 007a 1693     		str	r3, [sp, #88]
 1083 007c 0723     		movs	r3, #7
 1084 007e 1793     		str	r3, [sp, #92]
 1085 0080 0CA8     		add	r0, sp, #48
 1086 0082 FFF7FEFF 		bl	HAL_RCC_OscConfig
 1087 0086 D8B9     		cbnz	r0, .L132
 1088 0088 0F23     		movs	r3, #15
 1089 008a 0793     		str	r3, [sp, #28]
 1090 008c 0221     		movs	r1, #2
 1091 008e 0891     		str	r1, [sp, #32]
 1092 0090 0023     		movs	r3, #0
 1093 0092 0993     		str	r3, [sp, #36]
 1094 0094 4FF48052 		mov	r2, #4096
 1095 0098 0A92     		str	r2, [sp, #40]
 1096 009a 0B93     		str	r3, [sp, #44]
 1097 009c 07A8     		add	r0, sp, #28
 1098 009e FFF7FEFF 		bl	HAL_RCC_ClockConfig
 1099 00a2 78B9     		cbnz	r0, .L133
 1100 00a4 0223     		movs	r3, #2
 1101 00a6 0293     		str	r3, [sp, #8]
 1102 00a8 4FF48073 		mov	r3, #256
 1103 00ac 0593     		str	r3, [sp, #20]
 1104 00ae 02A8     		add	r0, sp, #8
 1105 00b0 FFF7FEFF 		bl	HAL_RCCEx_PeriphCLKConfig
 1106 00b4 40B9     		cbnz	r0, .L134
 1107 00b6 FFF7FEFF 		bl	HAL_RCC_EnableCSS
 1108 00ba 19B0     		add	sp, sp, #100
 1109              		@ sp needed
 1110 00bc 5DF804FB 		ldr	pc, [sp], #4
 1111              	.L132:
 1112 00c0 FFF7FEFF 		bl	Error_Handler
ARM GAS  C:\Users\7636~1\AppData\Local\Temp\cchYtD0a.s 			page 20


 1113              	.L133:
 1114 00c4 FFF7FEFF 		bl	Error_Handler
 1115              	.L134:
 1116 00c8 FFF7FEFF 		bl	Error_Handler
 1117              	.L136:
 1118              		.align	2
 1119              	.L135:
 1120 00cc 00380240 		.word	1073887232
 1121 00d0 00700040 		.word	1073770496
 1122              		.fnend
 1124              		.section	.text.main,"ax",%progbits
 1125              		.align	1
 1126              		.global	main
 1127              		.syntax unified
 1128              		.thumb
 1129              		.thumb_func
 1131              	main:
 1132              		.fnstart
 1133              	.LFB648:
 1134              		@ args = 0, pretend = 0, frame = 0
 1135              		@ frame_needed = 0, uses_anonymous_args = 0
 1136 0000 08B5     		push	{r3, lr}
 1137              		.save {r3, lr}
 1138 0002 FFF7FEFF 		bl	HAL_Init
 1139 0006 FFF7FEFF 		bl	_Z18SystemClock_Configv
 1140 000a FFF7FEFF 		bl	_ZL12MX_GPIO_Initv
 1141 000e FFF7FEFF 		bl	_ZL11MX_DMA_Initv
 1142 0012 FFF7FEFF 		bl	_ZL12MX_ADC1_Initv
 1143 0016 FFF7FEFF 		bl	_ZL12MX_I2C1_Initv
 1144 001a FFF7FEFF 		bl	_ZL12MX_SPI1_Initv
 1145 001e FFF7FEFF 		bl	_ZL12MX_TIM1_Initv
 1146 0022 FFF7FEFF 		bl	_ZL12MX_TIM3_Initv
 1147 0026 FFF7FEFF 		bl	_ZL12MX_TIM9_Initv
 1148 002a FFF7FEFF 		bl	_ZL13MX_TIM10_Initv
 1149 002e FFF7FEFF 		bl	_ZL13MX_TIM11_Initv
 1150 0032 FFF7FEFF 		bl	_ZL11MX_RTC_Initv
 1151 0036 FFF7FEFF 		bl	_ZL19MX_USART1_UART_Initv
 1152 003a FFF7FEFF 		bl	MX_USB_DEVICE_Init
 1153 003e FFF7FEFF 		bl	_ZL12MX_TIM5_Initv
 1154 0042 0448     		ldr	r0, .L140
 1155 0044 044A     		ldr	r2, .L140+4
 1156 0046 0146     		mov	r1, r0
 1157 0048 FFF7FEFF 		bl	_ZN4user5setupEP19__SPI_HandleTypeDefS1_P17I2C_HandleTypeDef
 1158              	.L138:
 1159 004c FFF7FEFF 		bl	_ZN4user4mainEv
 1160 0050 FCE7     		b	.L138
 1161              	.L141:
 1162 0052 00BF     		.align	2
 1163              	.L140:
 1164 0054 00000000 		.word	.LANCHOR2
 1165 0058 00000000 		.word	.LANCHOR1
 1166              		.fnend
 1168              		.global	hdma_usart1_tx
 1169              		.global	hdma_usart1_rx
 1170              		.global	huart1
 1171              		.global	htim11
 1172              		.global	htim10
ARM GAS  C:\Users\7636~1\AppData\Local\Temp\cchYtD0a.s 			page 21


 1173              		.global	htim9
 1174              		.global	htim5
 1175              		.global	htim3
 1176              		.global	htim1
 1177              		.global	hdma_spi1_tx
 1178              		.global	hdma_spi1_rx
 1179              		.global	hspi1
 1180              		.global	hrtc
 1181              		.global	hdma_i2c1_tx
 1182              		.global	hdma_i2c1_rx
 1183              		.global	hi2c1
 1184              		.global	hdma_adc1
 1185              		.global	hadc1
 1186              		.section	.bss.hadc1,"aw",%nobits
 1187              		.align	2
 1188              		.set	.LANCHOR0,. + 0
 1191              	hadc1:
 1192 0000 00000000 		.space	72
 1192      00000000 
 1192      00000000 
 1192      00000000 
 1192      00000000 
 1193              		.section	.bss.hdma_adc1,"aw",%nobits
 1194              		.align	2
 1197              	hdma_adc1:
 1198 0000 00000000 		.space	96
 1198      00000000 
 1198      00000000 
 1198      00000000 
 1198      00000000 
 1199              		.section	.bss.hdma_i2c1_rx,"aw",%nobits
 1200              		.align	2
 1203              	hdma_i2c1_rx:
 1204 0000 00000000 		.space	96
 1204      00000000 
 1204      00000000 
 1204      00000000 
 1204      00000000 
 1205              		.section	.bss.hdma_i2c1_tx,"aw",%nobits
 1206              		.align	2
 1209              	hdma_i2c1_tx:
 1210 0000 00000000 		.space	96
 1210      00000000 
 1210      00000000 
 1210      00000000 
 1210      00000000 
 1211              		.section	.bss.hdma_spi1_rx,"aw",%nobits
 1212              		.align	2
 1215              	hdma_spi1_rx:
 1216 0000 00000000 		.space	96
 1216      00000000 
 1216      00000000 
 1216      00000000 
 1216      00000000 
 1217              		.section	.bss.hdma_spi1_tx,"aw",%nobits
 1218              		.align	2
 1221              	hdma_spi1_tx:
ARM GAS  C:\Users\7636~1\AppData\Local\Temp\cchYtD0a.s 			page 22


 1222 0000 00000000 		.space	96
 1222      00000000 
 1222      00000000 
 1222      00000000 
 1222      00000000 
 1223              		.section	.bss.hdma_usart1_rx,"aw",%nobits
 1224              		.align	2
 1227              	hdma_usart1_rx:
 1228 0000 00000000 		.space	96
 1228      00000000 
 1228      00000000 
 1228      00000000 
 1228      00000000 
 1229              		.section	.bss.hdma_usart1_tx,"aw",%nobits
 1230              		.align	2
 1233              	hdma_usart1_tx:
 1234 0000 00000000 		.space	96
 1234      00000000 
 1234      00000000 
 1234      00000000 
 1234      00000000 
 1235              		.section	.bss.hi2c1,"aw",%nobits
 1236              		.align	2
 1237              		.set	.LANCHOR1,. + 0
 1240              	hi2c1:
 1241 0000 00000000 		.space	84
 1241      00000000 
 1241      00000000 
 1241      00000000 
 1241      00000000 
 1242              		.section	.bss.hrtc,"aw",%nobits
 1243              		.align	2
 1244              		.set	.LANCHOR8,. + 0
 1247              	hrtc:
 1248 0000 00000000 		.space	32
 1248      00000000 
 1248      00000000 
 1248      00000000 
 1248      00000000 
 1249              		.section	.bss.hspi1,"aw",%nobits
 1250              		.align	2
 1251              		.set	.LANCHOR2,. + 0
 1254              	hspi1:
 1255 0000 00000000 		.space	88
 1255      00000000 
 1255      00000000 
 1255      00000000 
 1255      00000000 
 1256              		.section	.bss.htim1,"aw",%nobits
 1257              		.align	2
 1258              		.set	.LANCHOR3,. + 0
 1261              	htim1:
 1262 0000 00000000 		.space	72
 1262      00000000 
 1262      00000000 
 1262      00000000 
 1262      00000000 
ARM GAS  C:\Users\7636~1\AppData\Local\Temp\cchYtD0a.s 			page 23


 1263              		.section	.bss.htim10,"aw",%nobits
 1264              		.align	2
 1265              		.set	.LANCHOR6,. + 0
 1268              	htim10:
 1269 0000 00000000 		.space	72
 1269      00000000 
 1269      00000000 
 1269      00000000 
 1269      00000000 
 1270              		.section	.bss.htim11,"aw",%nobits
 1271              		.align	2
 1272              		.set	.LANCHOR7,. + 0
 1275              	htim11:
 1276 0000 00000000 		.space	72
 1276      00000000 
 1276      00000000 
 1276      00000000 
 1276      00000000 
 1277              		.section	.bss.htim3,"aw",%nobits
 1278              		.align	2
 1279              		.set	.LANCHOR4,. + 0
 1282              	htim3:
 1283 0000 00000000 		.space	72
 1283      00000000 
 1283      00000000 
 1283      00000000 
 1283      00000000 
 1284              		.section	.bss.htim5,"aw",%nobits
 1285              		.align	2
 1286              		.set	.LANCHOR10,. + 0
 1289              	htim5:
 1290 0000 00000000 		.space	72
 1290      00000000 
 1290      00000000 
 1290      00000000 
 1290      00000000 
 1291              		.section	.bss.htim9,"aw",%nobits
 1292              		.align	2
 1293              		.set	.LANCHOR5,. + 0
 1296              	htim9:
 1297 0000 00000000 		.space	72
 1297      00000000 
 1297      00000000 
 1297      00000000 
 1297      00000000 
 1298              		.section	.bss.huart1,"aw",%nobits
 1299              		.align	2
 1300              		.set	.LANCHOR9,. + 0
 1303              	huart1:
 1304 0000 00000000 		.space	68
 1304      00000000 
 1304      00000000 
 1304      00000000 
 1304      00000000 
 1305              		.ident	"GCC: (xPack GNU Arm Embedded GCC i386) 10.3.1 20210824 (release)"
ARM GAS  C:\Users\7636~1\AppData\Local\Temp\cchYtD0a.s 			page 24


DEFINED SYMBOLS
                            *ABS*:00000000 main.cpp
C:\Users\7636~1\AppData\Local\Temp\cchYtD0a.s:18     .text._ZL12MX_GPIO_Initv:00000000 $t
C:\Users\7636~1\AppData\Local\Temp\cchYtD0a.s:23     .text._ZL12MX_GPIO_Initv:00000000 _ZL12MX_GPIO_Initv
C:\Users\7636~1\AppData\Local\Temp\cchYtD0a.s:120    .text._ZL12MX_GPIO_Initv:000000d4 $d
.ARM.exidx.text._ZL12MX_GPIO_Initv:00000000 $d
C:\Users\7636~1\AppData\Local\Temp\cchYtD0a.s:128    .text._ZL11MX_DMA_Initv:00000000 $t
C:\Users\7636~1\AppData\Local\Temp\cchYtD0a.s:133    .text._ZL11MX_DMA_Initv:00000000 _ZL11MX_DMA_Initv
C:\Users\7636~1\AppData\Local\Temp\cchYtD0a.s:208    .text._ZL11MX_DMA_Initv:000000a4 $d
.ARM.exidx.text._ZL11MX_DMA_Initv:00000000 $d
C:\Users\7636~1\AppData\Local\Temp\cchYtD0a.s:212    .text.Error_Handler:00000000 $t
C:\Users\7636~1\AppData\Local\Temp\cchYtD0a.s:218    .text.Error_Handler:00000000 Error_Handler
    .ARM.exidx.text.Error_Handler:00000000 $d
C:\Users\7636~1\AppData\Local\Temp\cchYtD0a.s:237    .text._ZL12MX_ADC1_Initv:00000000 $t
C:\Users\7636~1\AppData\Local\Temp\cchYtD0a.s:242    .text._ZL12MX_ADC1_Initv:00000000 _ZL12MX_ADC1_Initv
C:\Users\7636~1\AppData\Local\Temp\cchYtD0a.s:371    .text._ZL12MX_ADC1_Initv:0000010c $d
.ARM.exidx.text._ZL12MX_ADC1_Initv:00000000 $d
C:\Users\7636~1\AppData\Local\Temp\cchYtD0a.s:376    .text._ZL12MX_I2C1_Initv:00000000 $t
C:\Users\7636~1\AppData\Local\Temp\cchYtD0a.s:381    .text._ZL12MX_I2C1_Initv:00000000 _ZL12MX_I2C1_Initv
C:\Users\7636~1\AppData\Local\Temp\cchYtD0a.s:410    .text._ZL12MX_I2C1_Initv:0000002c $d
.ARM.extab.text._ZL12MX_I2C1_Initv:00000000 $d
.ARM.exidx.text._ZL12MX_I2C1_Initv:00000000 $d
C:\Users\7636~1\AppData\Local\Temp\cchYtD0a.s:416    .text._ZL12MX_SPI1_Initv:00000000 $t
C:\Users\7636~1\AppData\Local\Temp\cchYtD0a.s:421    .text._ZL12MX_SPI1_Initv:00000000 _ZL12MX_SPI1_Initv
C:\Users\7636~1\AppData\Local\Temp\cchYtD0a.s:455    .text._ZL12MX_SPI1_Initv:00000038 $d
.ARM.extab.text._ZL12MX_SPI1_Initv:00000000 $d
.ARM.exidx.text._ZL12MX_SPI1_Initv:00000000 $d
C:\Users\7636~1\AppData\Local\Temp\cchYtD0a.s:460    .text._ZL12MX_TIM1_Initv:00000000 $t
C:\Users\7636~1\AppData\Local\Temp\cchYtD0a.s:465    .text._ZL12MX_TIM1_Initv:00000000 _ZL12MX_TIM1_Initv
C:\Users\7636~1\AppData\Local\Temp\cchYtD0a.s:538    .text._ZL12MX_TIM1_Initv:0000008c $d
.ARM.exidx.text._ZL12MX_TIM1_Initv:00000000 $d
C:\Users\7636~1\AppData\Local\Temp\cchYtD0a.s:543    .text._ZL12MX_TIM3_Initv:00000000 $t
C:\Users\7636~1\AppData\Local\Temp\cchYtD0a.s:548    .text._ZL12MX_TIM3_Initv:00000000 _ZL12MX_TIM3_Initv
C:\Users\7636~1\AppData\Local\Temp\cchYtD0a.s:602    .text._ZL12MX_TIM3_Initv:00000064 $d
.ARM.exidx.text._ZL12MX_TIM3_Initv:00000000 $d
C:\Users\7636~1\AppData\Local\Temp\cchYtD0a.s:607    .text._ZL12MX_TIM9_Initv:00000000 $t
C:\Users\7636~1\AppData\Local\Temp\cchYtD0a.s:612    .text._ZL12MX_TIM9_Initv:00000000 _ZL12MX_TIM9_Initv
C:\Users\7636~1\AppData\Local\Temp\cchYtD0a.s:680    .text._ZL12MX_TIM9_Initv:00000084 $d
.ARM.exidx.text._ZL12MX_TIM9_Initv:00000000 $d
C:\Users\7636~1\AppData\Local\Temp\cchYtD0a.s:685    .text._ZL13MX_TIM10_Initv:00000000 $t
C:\Users\7636~1\AppData\Local\Temp\cchYtD0a.s:690    .text._ZL13MX_TIM10_Initv:00000000 _ZL13MX_TIM10_Initv
C:\Users\7636~1\AppData\Local\Temp\cchYtD0a.s:746    .text._ZL13MX_TIM10_Initv:00000068 $d
.ARM.exidx.text._ZL13MX_TIM10_Initv:00000000 $d
C:\Users\7636~1\AppData\Local\Temp\cchYtD0a.s:751    .text._ZL13MX_TIM11_Initv:00000000 $t
C:\Users\7636~1\AppData\Local\Temp\cchYtD0a.s:756    .text._ZL13MX_TIM11_Initv:00000000 _ZL13MX_TIM11_Initv
C:\Users\7636~1\AppData\Local\Temp\cchYtD0a.s:812    .text._ZL13MX_TIM11_Initv:00000068 $d
.ARM.exidx.text._ZL13MX_TIM11_Initv:00000000 $d
C:\Users\7636~1\AppData\Local\Temp\cchYtD0a.s:817    .text._ZL11MX_RTC_Initv:00000000 $t
C:\Users\7636~1\AppData\Local\Temp\cchYtD0a.s:822    .text._ZL11MX_RTC_Initv:00000000 _ZL11MX_RTC_Initv
C:\Users\7636~1\AppData\Local\Temp\cchYtD0a.s:910    .text._ZL11MX_RTC_Initv:000000bc $d
.ARM.exidx.text._ZL11MX_RTC_Initv:00000000 $d
C:\Users\7636~1\AppData\Local\Temp\cchYtD0a.s:916    .text._ZL19MX_USART1_UART_Initv:00000000 $t
C:\Users\7636~1\AppData\Local\Temp\cchYtD0a.s:921    .text._ZL19MX_USART1_UART_Initv:00000000 _ZL19MX_USART1_UART_Initv
C:\Users\7636~1\AppData\Local\Temp\cchYtD0a.s:950    .text._ZL19MX_USART1_UART_Initv:00000030 $d
.ARM.extab.text._ZL19MX_USART1_UART_Initv:00000000 $d
.ARM.exidx.text._ZL19MX_USART1_UART_Initv:00000000 $d
C:\Users\7636~1\AppData\Local\Temp\cchYtD0a.s:955    .text._ZL12MX_TIM5_Initv:00000000 $t
ARM GAS  C:\Users\7636~1\AppData\Local\Temp\cchYtD0a.s 			page 25


C:\Users\7636~1\AppData\Local\Temp\cchYtD0a.s:960    .text._ZL12MX_TIM5_Initv:00000000 _ZL12MX_TIM5_Initv
C:\Users\7636~1\AppData\Local\Temp\cchYtD0a.s:1013   .text._ZL12MX_TIM5_Initv:00000060 $d
.ARM.exidx.text._ZL12MX_TIM5_Initv:00000000 $d
C:\Users\7636~1\AppData\Local\Temp\cchYtD0a.s:1018   .text._Z18SystemClock_Configv:00000000 $t
C:\Users\7636~1\AppData\Local\Temp\cchYtD0a.s:1024   .text._Z18SystemClock_Configv:00000000 _Z18SystemClock_Configv
C:\Users\7636~1\AppData\Local\Temp\cchYtD0a.s:1120   .text._Z18SystemClock_Configv:000000cc $d
.ARM.exidx.text._Z18SystemClock_Configv:00000000 $d
C:\Users\7636~1\AppData\Local\Temp\cchYtD0a.s:1125   .text.main:00000000 $t
C:\Users\7636~1\AppData\Local\Temp\cchYtD0a.s:1131   .text.main:00000000 main
C:\Users\7636~1\AppData\Local\Temp\cchYtD0a.s:1164   .text.main:00000054 $d
             .ARM.extab.text.main:00000000 $d
             .ARM.exidx.text.main:00000000 $d
C:\Users\7636~1\AppData\Local\Temp\cchYtD0a.s:1233   .bss.hdma_usart1_tx:00000000 hdma_usart1_tx
C:\Users\7636~1\AppData\Local\Temp\cchYtD0a.s:1227   .bss.hdma_usart1_rx:00000000 hdma_usart1_rx
C:\Users\7636~1\AppData\Local\Temp\cchYtD0a.s:1303   .bss.huart1:00000000 huart1
C:\Users\7636~1\AppData\Local\Temp\cchYtD0a.s:1275   .bss.htim11:00000000 htim11
C:\Users\7636~1\AppData\Local\Temp\cchYtD0a.s:1268   .bss.htim10:00000000 htim10
C:\Users\7636~1\AppData\Local\Temp\cchYtD0a.s:1296   .bss.htim9:00000000 htim9
C:\Users\7636~1\AppData\Local\Temp\cchYtD0a.s:1289   .bss.htim5:00000000 htim5
C:\Users\7636~1\AppData\Local\Temp\cchYtD0a.s:1282   .bss.htim3:00000000 htim3
C:\Users\7636~1\AppData\Local\Temp\cchYtD0a.s:1261   .bss.htim1:00000000 htim1
C:\Users\7636~1\AppData\Local\Temp\cchYtD0a.s:1221   .bss.hdma_spi1_tx:00000000 hdma_spi1_tx
C:\Users\7636~1\AppData\Local\Temp\cchYtD0a.s:1215   .bss.hdma_spi1_rx:00000000 hdma_spi1_rx
C:\Users\7636~1\AppData\Local\Temp\cchYtD0a.s:1254   .bss.hspi1:00000000 hspi1
C:\Users\7636~1\AppData\Local\Temp\cchYtD0a.s:1247   .bss.hrtc:00000000 hrtc
C:\Users\7636~1\AppData\Local\Temp\cchYtD0a.s:1209   .bss.hdma_i2c1_tx:00000000 hdma_i2c1_tx
C:\Users\7636~1\AppData\Local\Temp\cchYtD0a.s:1203   .bss.hdma_i2c1_rx:00000000 hdma_i2c1_rx
C:\Users\7636~1\AppData\Local\Temp\cchYtD0a.s:1240   .bss.hi2c1:00000000 hi2c1
C:\Users\7636~1\AppData\Local\Temp\cchYtD0a.s:1197   .bss.hdma_adc1:00000000 hdma_adc1
C:\Users\7636~1\AppData\Local\Temp\cchYtD0a.s:1191   .bss.hadc1:00000000 hadc1
C:\Users\7636~1\AppData\Local\Temp\cchYtD0a.s:1187   .bss.hadc1:00000000 $d
C:\Users\7636~1\AppData\Local\Temp\cchYtD0a.s:1194   .bss.hdma_adc1:00000000 $d
C:\Users\7636~1\AppData\Local\Temp\cchYtD0a.s:1200   .bss.hdma_i2c1_rx:00000000 $d
C:\Users\7636~1\AppData\Local\Temp\cchYtD0a.s:1206   .bss.hdma_i2c1_tx:00000000 $d
C:\Users\7636~1\AppData\Local\Temp\cchYtD0a.s:1212   .bss.hdma_spi1_rx:00000000 $d
C:\Users\7636~1\AppData\Local\Temp\cchYtD0a.s:1218   .bss.hdma_spi1_tx:00000000 $d
C:\Users\7636~1\AppData\Local\Temp\cchYtD0a.s:1224   .bss.hdma_usart1_rx:00000000 $d
C:\Users\7636~1\AppData\Local\Temp\cchYtD0a.s:1230   .bss.hdma_usart1_tx:00000000 $d
C:\Users\7636~1\AppData\Local\Temp\cchYtD0a.s:1236   .bss.hi2c1:00000000 $d
C:\Users\7636~1\AppData\Local\Temp\cchYtD0a.s:1243   .bss.hrtc:00000000 $d
C:\Users\7636~1\AppData\Local\Temp\cchYtD0a.s:1250   .bss.hspi1:00000000 $d
C:\Users\7636~1\AppData\Local\Temp\cchYtD0a.s:1257   .bss.htim1:00000000 $d
C:\Users\7636~1\AppData\Local\Temp\cchYtD0a.s:1264   .bss.htim10:00000000 $d
C:\Users\7636~1\AppData\Local\Temp\cchYtD0a.s:1271   .bss.htim11:00000000 $d
C:\Users\7636~1\AppData\Local\Temp\cchYtD0a.s:1278   .bss.htim3:00000000 $d
C:\Users\7636~1\AppData\Local\Temp\cchYtD0a.s:1285   .bss.htim5:00000000 $d
C:\Users\7636~1\AppData\Local\Temp\cchYtD0a.s:1292   .bss.htim9:00000000 $d
C:\Users\7636~1\AppData\Local\Temp\cchYtD0a.s:1299   .bss.huart1:00000000 $d

UNDEFINED SYMBOLS
LL_GPIO_Init
__aeabi_unwind_cpp_pr0
HAL_NVIC_SetPriority
HAL_NVIC_EnableIRQ
HAL_ADC_Init
HAL_ADC_ConfigChannel
HAL_I2C_Init
ARM GAS  C:\Users\7636~1\AppData\Local\Temp\cchYtD0a.s 			page 26


__aeabi_unwind_cpp_pr1
HAL_SPI_Init
HAL_TIM_Base_Init
HAL_TIM_ConfigClockSource
HAL_TIM_SlaveConfigSynchro
HAL_TIMEx_MasterConfigSynchronization
HAL_TIM_PWM_Init
HAL_TIM_PWM_ConfigChannel
HAL_TIM_MspPostInit
memset
HAL_RTC_Init
HAL_RTC_SetTime
HAL_RTC_SetDate
HAL_RTC_SetAlarm_IT
HAL_UART_Init
HAL_RCC_OscConfig
HAL_RCC_ClockConfig
HAL_RCCEx_PeriphCLKConfig
HAL_RCC_EnableCSS
HAL_Init
MX_USB_DEVICE_Init
_ZN4user5setupEP19__SPI_HandleTypeDefS1_P17I2C_HandleTypeDef
_ZN4user4mainEv
