ARM GAS  C:\Users\7636~1\AppData\Local\Temp\ccHxmuM0.s 			page 1


   1              		.cpu cortex-m4
   2              		.arch armv7e-m
   3              		.fpu fpv4-sp-d16
   4              		.eabi_attribute 27, 1
   5              		.eabi_attribute 28, 1
   6              		.eabi_attribute 20, 1
   7              		.eabi_attribute 21, 1
   8              		.eabi_attribute 23, 3
   9              		.eabi_attribute 24, 1
  10              		.eabi_attribute 25, 1
  11              		.eabi_attribute 26, 1
  12              		.eabi_attribute 30, 1
  13              		.eabi_attribute 34, 1
  14              		.eabi_attribute 18, 4
  15              		.file	"main.cpp"
  16              		.text
  17              	.Ltext0:
  18              		.cfi_sections	.debug_frame
  19              		.section	.text._ZL12MX_GPIO_Initv,"ax",%progbits
  20              		.align	1
  21              		.syntax unified
  22              		.thumb
  23              		.thumb_func
  25              	_ZL12MX_GPIO_Initv:
  26              		.fnstart
  27              	.LFB657:
  28              		.file 1 "Src/main.cpp"
   1:Src/main.cpp  **** /* USER CODE BEGIN Header */
   2:Src/main.cpp  **** /**
   3:Src/main.cpp  ****   ******************************************************************************
   4:Src/main.cpp  ****   * @file           : main.c
   5:Src/main.cpp  ****   * @brief          : Main program body
   6:Src/main.cpp  ****   ******************************************************************************
   7:Src/main.cpp  ****   * @attention
   8:Src/main.cpp  ****   *
   9:Src/main.cpp  ****   * <h2><center>&copy; Copyright (c) 2021 STMicroelectronics.
  10:Src/main.cpp  ****   * All rights reserved.</center></h2>
  11:Src/main.cpp  ****   *
  12:Src/main.cpp  ****   * This software component is licensed by ST under Ultimate Liberty license
  13:Src/main.cpp  ****   * SLA0044, the "License"; You may not use this file except in compliance with
  14:Src/main.cpp  ****   * the License. You may obtain a copy of the License at:
  15:Src/main.cpp  ****   *                             www.st.com/SLA0044
  16:Src/main.cpp  ****   *
  17:Src/main.cpp  ****   ******************************************************************************
  18:Src/main.cpp  ****   */
  19:Src/main.cpp  **** /* USER CODE END Header */
  20:Src/main.cpp  **** /* Includes ------------------------------------------------------------------*/
  21:Src/main.cpp  **** #include "main.h"
  22:Src/main.cpp  **** #include "usb_device.h"
  23:Src/main.cpp  **** 
  24:Src/main.cpp  **** /* Private includes ----------------------------------------------------------*/
  25:Src/main.cpp  **** /* USER CODE BEGIN Includes */
  26:Src/main.cpp  **** 
  27:Src/main.cpp  **** #include "user.h"
  28:Src/main.cpp  **** 
  29:Src/main.cpp  **** /* USER CODE END Includes */
  30:Src/main.cpp  **** 
ARM GAS  C:\Users\7636~1\AppData\Local\Temp\ccHxmuM0.s 			page 2


  31:Src/main.cpp  **** /* Private typedef -----------------------------------------------------------*/
  32:Src/main.cpp  **** /* USER CODE BEGIN PTD */
  33:Src/main.cpp  **** 
  34:Src/main.cpp  **** /* USER CODE END PTD */
  35:Src/main.cpp  **** 
  36:Src/main.cpp  **** /* Private define ------------------------------------------------------------*/
  37:Src/main.cpp  **** /* USER CODE BEGIN PD */
  38:Src/main.cpp  **** /* USER CODE END PD */
  39:Src/main.cpp  **** 
  40:Src/main.cpp  **** /* Private macro -------------------------------------------------------------*/
  41:Src/main.cpp  **** /* USER CODE BEGIN PM */
  42:Src/main.cpp  **** 
  43:Src/main.cpp  **** /* USER CODE END PM */
  44:Src/main.cpp  **** 
  45:Src/main.cpp  **** /* Private variables ---------------------------------------------------------*/
  46:Src/main.cpp  **** ADC_HandleTypeDef hadc1;
  47:Src/main.cpp  **** DMA_HandleTypeDef hdma_adc1;
  48:Src/main.cpp  **** 
  49:Src/main.cpp  **** I2C_HandleTypeDef hi2c1;
  50:Src/main.cpp  **** DMA_HandleTypeDef hdma_i2c1_rx;
  51:Src/main.cpp  **** DMA_HandleTypeDef hdma_i2c1_tx;
  52:Src/main.cpp  **** 
  53:Src/main.cpp  **** RTC_HandleTypeDef hrtc;
  54:Src/main.cpp  **** 
  55:Src/main.cpp  **** SPI_HandleTypeDef hspi1;
  56:Src/main.cpp  **** DMA_HandleTypeDef hdma_spi1_rx;
  57:Src/main.cpp  **** DMA_HandleTypeDef hdma_spi1_tx;
  58:Src/main.cpp  **** 
  59:Src/main.cpp  **** TIM_HandleTypeDef htim1;
  60:Src/main.cpp  **** TIM_HandleTypeDef htim3;
  61:Src/main.cpp  **** TIM_HandleTypeDef htim9;
  62:Src/main.cpp  **** TIM_HandleTypeDef htim10;
  63:Src/main.cpp  **** TIM_HandleTypeDef htim11;
  64:Src/main.cpp  **** 
  65:Src/main.cpp  **** UART_HandleTypeDef huart1;
  66:Src/main.cpp  **** DMA_HandleTypeDef hdma_usart1_rx;
  67:Src/main.cpp  **** DMA_HandleTypeDef hdma_usart1_tx;
  68:Src/main.cpp  **** 
  69:Src/main.cpp  **** /* USER CODE BEGIN PV */
  70:Src/main.cpp  **** 
  71:Src/main.cpp  **** /* USER CODE END PV */
  72:Src/main.cpp  **** 
  73:Src/main.cpp  **** /* Private function prototypes -----------------------------------------------*/
  74:Src/main.cpp  **** void SystemClock_Config(void);
  75:Src/main.cpp  **** static void MX_GPIO_Init(void);
  76:Src/main.cpp  **** static void MX_DMA_Init(void);
  77:Src/main.cpp  **** static void MX_ADC1_Init(void);
  78:Src/main.cpp  **** static void MX_I2C1_Init(void);
  79:Src/main.cpp  **** static void MX_SPI1_Init(void);
  80:Src/main.cpp  **** static void MX_TIM1_Init(void);
  81:Src/main.cpp  **** static void MX_TIM3_Init(void);
  82:Src/main.cpp  **** static void MX_TIM9_Init(void);
  83:Src/main.cpp  **** static void MX_TIM10_Init(void);
  84:Src/main.cpp  **** static void MX_TIM11_Init(void);
  85:Src/main.cpp  **** static void MX_RTC_Init(void);
  86:Src/main.cpp  **** static void MX_USART1_UART_Init(void);
  87:Src/main.cpp  **** /* USER CODE BEGIN PFP */
ARM GAS  C:\Users\7636~1\AppData\Local\Temp\ccHxmuM0.s 			page 3


  88:Src/main.cpp  **** 
  89:Src/main.cpp  **** /* USER CODE END PFP */
  90:Src/main.cpp  **** 
  91:Src/main.cpp  **** /* Private user code ---------------------------------------------------------*/
  92:Src/main.cpp  **** /* USER CODE BEGIN 0 */
  93:Src/main.cpp  **** 
  94:Src/main.cpp  **** /* USER CODE END 0 */
  95:Src/main.cpp  **** 
  96:Src/main.cpp  **** /**
  97:Src/main.cpp  ****   * @brief  The application entry point.
  98:Src/main.cpp  ****   * @retval int
  99:Src/main.cpp  ****   */
 100:Src/main.cpp  **** int main(void)
 101:Src/main.cpp  **** {
 102:Src/main.cpp  ****   /* USER CODE BEGIN 1 */
 103:Src/main.cpp  **** 
 104:Src/main.cpp  ****   /* USER CODE END 1 */
 105:Src/main.cpp  **** 
 106:Src/main.cpp  ****   /* MCU Configuration--------------------------------------------------------*/
 107:Src/main.cpp  **** 
 108:Src/main.cpp  ****   /* Reset of all peripherals, Initializes the Flash interface and the Systick. */
 109:Src/main.cpp  ****   HAL_Init();
 110:Src/main.cpp  **** 
 111:Src/main.cpp  ****   /* USER CODE BEGIN Init */
 112:Src/main.cpp  **** 
 113:Src/main.cpp  ****   /* USER CODE END Init */
 114:Src/main.cpp  **** 
 115:Src/main.cpp  ****   /* Configure the system clock */
 116:Src/main.cpp  ****   SystemClock_Config();
 117:Src/main.cpp  **** 
 118:Src/main.cpp  ****   /* USER CODE BEGIN SysInit */
 119:Src/main.cpp  **** 
 120:Src/main.cpp  ****   /* USER CODE END SysInit */
 121:Src/main.cpp  **** 
 122:Src/main.cpp  ****   /* Initialize all configured peripherals */
 123:Src/main.cpp  ****   MX_GPIO_Init();
 124:Src/main.cpp  ****   MX_DMA_Init();
 125:Src/main.cpp  ****   MX_ADC1_Init();
 126:Src/main.cpp  ****   MX_I2C1_Init();
 127:Src/main.cpp  ****   MX_SPI1_Init();
 128:Src/main.cpp  ****   MX_TIM1_Init();
 129:Src/main.cpp  ****   MX_TIM3_Init();
 130:Src/main.cpp  ****   MX_TIM9_Init();
 131:Src/main.cpp  ****   MX_TIM10_Init();
 132:Src/main.cpp  ****   MX_TIM11_Init();
 133:Src/main.cpp  ****   MX_RTC_Init();
 134:Src/main.cpp  ****   MX_USART1_UART_Init();
 135:Src/main.cpp  ****   MX_USB_DEVICE_Init();
 136:Src/main.cpp  ****   
 137:Src/main.cpp  ****   /* USER CODE BEGIN 2 */
 138:Src/main.cpp  ****   user_setup();
 139:Src/main.cpp  ****   /* USER CODE END 2 */
 140:Src/main.cpp  **** 
 141:Src/main.cpp  ****   /* Infinite loop */
 142:Src/main.cpp  ****   /* USER CODE BEGIN WHILE */
 143:Src/main.cpp  ****   while (1)
 144:Src/main.cpp  ****   {
ARM GAS  C:\Users\7636~1\AppData\Local\Temp\ccHxmuM0.s 			page 4


 145:Src/main.cpp  ****     /* USER CODE END WHILE */
 146:Src/main.cpp  ****     user_main();
 147:Src/main.cpp  ****     /* USER CODE BEGIN 3 */
 148:Src/main.cpp  ****   }
 149:Src/main.cpp  ****   /* USER CODE END 3 */
 150:Src/main.cpp  **** }
 151:Src/main.cpp  **** 
 152:Src/main.cpp  **** /**
 153:Src/main.cpp  ****   * @brief System Clock Configuration
 154:Src/main.cpp  ****   * @retval None
 155:Src/main.cpp  ****   */
 156:Src/main.cpp  **** void SystemClock_Config(void)
 157:Src/main.cpp  **** {
 158:Src/main.cpp  ****   RCC_OscInitTypeDef RCC_OscInitStruct = {0};
 159:Src/main.cpp  ****   RCC_ClkInitTypeDef RCC_ClkInitStruct = {0};
 160:Src/main.cpp  ****   RCC_PeriphCLKInitTypeDef PeriphClkInitStruct = {0};
 161:Src/main.cpp  **** 
 162:Src/main.cpp  ****   /** Configure the main internal regulator output voltage
 163:Src/main.cpp  ****   */
 164:Src/main.cpp  ****   __HAL_RCC_PWR_CLK_ENABLE();
 165:Src/main.cpp  ****   __HAL_PWR_VOLTAGESCALING_CONFIG(PWR_REGULATOR_VOLTAGE_SCALE2);
 166:Src/main.cpp  ****   /** Initializes the RCC Oscillators according to the specified parameters
 167:Src/main.cpp  ****   * in the RCC_OscInitTypeDef structure.
 168:Src/main.cpp  ****   */
 169:Src/main.cpp  ****   RCC_OscInitStruct.OscillatorType = RCC_OSCILLATORTYPE_HSE|RCC_OSCILLATORTYPE_LSE;
 170:Src/main.cpp  ****   RCC_OscInitStruct.HSEState = RCC_HSE_ON;
 171:Src/main.cpp  ****   RCC_OscInitStruct.LSEState = RCC_LSE_ON;
 172:Src/main.cpp  ****   RCC_OscInitStruct.PLL.PLLState = RCC_PLL_ON;
 173:Src/main.cpp  ****   RCC_OscInitStruct.PLL.PLLSource = RCC_PLLSOURCE_HSE;
 174:Src/main.cpp  ****   RCC_OscInitStruct.PLL.PLLM = 25;
 175:Src/main.cpp  ****   RCC_OscInitStruct.PLL.PLLN = 336;
 176:Src/main.cpp  ****   RCC_OscInitStruct.PLL.PLLP = RCC_PLLP_DIV4;
 177:Src/main.cpp  ****   RCC_OscInitStruct.PLL.PLLQ = 7;
 178:Src/main.cpp  ****   if (HAL_RCC_OscConfig(&RCC_OscInitStruct) != HAL_OK)
 179:Src/main.cpp  ****   {
 180:Src/main.cpp  ****     Error_Handler();
 181:Src/main.cpp  ****   }
 182:Src/main.cpp  ****   /** Initializes the CPU, AHB and APB buses clocks
 183:Src/main.cpp  ****   */
 184:Src/main.cpp  ****   RCC_ClkInitStruct.ClockType = RCC_CLOCKTYPE_HCLK|RCC_CLOCKTYPE_SYSCLK
 185:Src/main.cpp  ****                               |RCC_CLOCKTYPE_PCLK1|RCC_CLOCKTYPE_PCLK2;
 186:Src/main.cpp  ****   RCC_ClkInitStruct.SYSCLKSource = RCC_SYSCLKSOURCE_PLLCLK;
 187:Src/main.cpp  ****   RCC_ClkInitStruct.AHBCLKDivider = RCC_SYSCLK_DIV1;
 188:Src/main.cpp  ****   RCC_ClkInitStruct.APB1CLKDivider = RCC_HCLK_DIV2;
 189:Src/main.cpp  ****   RCC_ClkInitStruct.APB2CLKDivider = RCC_HCLK_DIV1;
 190:Src/main.cpp  **** 
 191:Src/main.cpp  ****   if (HAL_RCC_ClockConfig(&RCC_ClkInitStruct, FLASH_LATENCY_2) != HAL_OK)
 192:Src/main.cpp  ****   {
 193:Src/main.cpp  ****     Error_Handler();
 194:Src/main.cpp  ****   }
 195:Src/main.cpp  ****   PeriphClkInitStruct.PeriphClockSelection = RCC_PERIPHCLK_RTC;
 196:Src/main.cpp  ****   PeriphClkInitStruct.RTCClockSelection = RCC_RTCCLKSOURCE_LSE;
 197:Src/main.cpp  ****   if (HAL_RCCEx_PeriphCLKConfig(&PeriphClkInitStruct) != HAL_OK)
 198:Src/main.cpp  ****   {
 199:Src/main.cpp  ****     Error_Handler();
 200:Src/main.cpp  ****   }
 201:Src/main.cpp  ****   /** Enables the Clock Security System
ARM GAS  C:\Users\7636~1\AppData\Local\Temp\ccHxmuM0.s 			page 5


 202:Src/main.cpp  ****   */
 203:Src/main.cpp  ****   HAL_RCC_EnableCSS();
 204:Src/main.cpp  **** }
 205:Src/main.cpp  **** 
 206:Src/main.cpp  **** /**
 207:Src/main.cpp  ****   * @brief ADC1 Initialization Function
 208:Src/main.cpp  ****   * @param None
 209:Src/main.cpp  ****   * @retval None
 210:Src/main.cpp  ****   */
 211:Src/main.cpp  **** static void MX_ADC1_Init(void)
 212:Src/main.cpp  **** {
 213:Src/main.cpp  **** 
 214:Src/main.cpp  ****   /* USER CODE BEGIN ADC1_Init 0 */
 215:Src/main.cpp  **** 
 216:Src/main.cpp  ****   /* USER CODE END ADC1_Init 0 */
 217:Src/main.cpp  **** 
 218:Src/main.cpp  ****   ADC_ChannelConfTypeDef sConfig = {0};
 219:Src/main.cpp  **** 
 220:Src/main.cpp  ****   /* USER CODE BEGIN ADC1_Init 1 */
 221:Src/main.cpp  **** 
 222:Src/main.cpp  ****   /* USER CODE END ADC1_Init 1 */
 223:Src/main.cpp  ****   /** Configure the global features of the ADC (Clock, Resolution, Data Alignment and number of con
 224:Src/main.cpp  ****   */
 225:Src/main.cpp  ****   hadc1.Instance = ADC1;
 226:Src/main.cpp  ****   hadc1.Init.ClockPrescaler = ADC_CLOCK_SYNC_PCLK_DIV8;
 227:Src/main.cpp  ****   hadc1.Init.Resolution = ADC_RESOLUTION_12B;
 228:Src/main.cpp  ****   hadc1.Init.ScanConvMode = ENABLE;
 229:Src/main.cpp  ****   hadc1.Init.ContinuousConvMode = DISABLE;
 230:Src/main.cpp  ****   hadc1.Init.DiscontinuousConvMode = DISABLE;
 231:Src/main.cpp  ****   hadc1.Init.ExternalTrigConvEdge = ADC_EXTERNALTRIGCONVEDGE_RISING;
 232:Src/main.cpp  ****   hadc1.Init.ExternalTrigConv = ADC_EXTERNALTRIGCONV_T3_TRGO;
 233:Src/main.cpp  ****   hadc1.Init.DataAlign = ADC_DATAALIGN_RIGHT;
 234:Src/main.cpp  ****   hadc1.Init.NbrOfConversion = 8;
 235:Src/main.cpp  ****   hadc1.Init.DMAContinuousRequests = ENABLE;
 236:Src/main.cpp  ****   hadc1.Init.EOCSelection = ADC_EOC_SEQ_CONV;
 237:Src/main.cpp  ****   if (HAL_ADC_Init(&hadc1) != HAL_OK)
 238:Src/main.cpp  ****   {
 239:Src/main.cpp  ****     Error_Handler();
 240:Src/main.cpp  ****   }
 241:Src/main.cpp  ****   /** Configure for the selected ADC regular channel its corresponding rank in the sequencer and it
 242:Src/main.cpp  ****   */
 243:Src/main.cpp  ****   sConfig.Channel = ADC_CHANNEL_VREFINT;
 244:Src/main.cpp  ****   sConfig.Rank = 1;
 245:Src/main.cpp  ****   sConfig.SamplingTime = ADC_SAMPLETIME_480CYCLES;
 246:Src/main.cpp  ****   if (HAL_ADC_ConfigChannel(&hadc1, &sConfig) != HAL_OK)
 247:Src/main.cpp  ****   {
 248:Src/main.cpp  ****     Error_Handler();
 249:Src/main.cpp  ****   }
 250:Src/main.cpp  ****   /** Configure for the selected ADC regular channel its corresponding rank in the sequencer and it
 251:Src/main.cpp  ****   */
 252:Src/main.cpp  ****   sConfig.Channel = ADC_CHANNEL_6;
 253:Src/main.cpp  ****   sConfig.Rank = 2;
 254:Src/main.cpp  ****   if (HAL_ADC_ConfigChannel(&hadc1, &sConfig) != HAL_OK)
 255:Src/main.cpp  ****   {
 256:Src/main.cpp  ****     Error_Handler();
 257:Src/main.cpp  ****   }
 258:Src/main.cpp  ****   /** Configure for the selected ADC regular channel its corresponding rank in the sequencer and it
ARM GAS  C:\Users\7636~1\AppData\Local\Temp\ccHxmuM0.s 			page 6


 259:Src/main.cpp  ****   */
 260:Src/main.cpp  ****   sConfig.Channel = ADC_CHANNEL_7;
 261:Src/main.cpp  ****   sConfig.Rank = 3;
 262:Src/main.cpp  ****   if (HAL_ADC_ConfigChannel(&hadc1, &sConfig) != HAL_OK)
 263:Src/main.cpp  ****   {
 264:Src/main.cpp  ****     Error_Handler();
 265:Src/main.cpp  ****   }
 266:Src/main.cpp  ****   /** Configure for the selected ADC regular channel its corresponding rank in the sequencer and it
 267:Src/main.cpp  ****   */
 268:Src/main.cpp  ****   sConfig.Channel = ADC_CHANNEL_VREFINT;
 269:Src/main.cpp  ****   sConfig.Rank = 4;
 270:Src/main.cpp  ****   if (HAL_ADC_ConfigChannel(&hadc1, &sConfig) != HAL_OK)
 271:Src/main.cpp  ****   {
 272:Src/main.cpp  ****     Error_Handler();
 273:Src/main.cpp  ****   }
 274:Src/main.cpp  ****   /** Configure for the selected ADC regular channel its corresponding rank in the sequencer and it
 275:Src/main.cpp  ****   */
 276:Src/main.cpp  ****   sConfig.Channel = ADC_CHANNEL_8;
 277:Src/main.cpp  ****   sConfig.Rank = 5;
 278:Src/main.cpp  ****   if (HAL_ADC_ConfigChannel(&hadc1, &sConfig) != HAL_OK)
 279:Src/main.cpp  ****   {
 280:Src/main.cpp  ****     Error_Handler();
 281:Src/main.cpp  ****   }
 282:Src/main.cpp  ****   /** Configure for the selected ADC regular channel its corresponding rank in the sequencer and it
 283:Src/main.cpp  ****   */
 284:Src/main.cpp  ****   sConfig.Channel = ADC_CHANNEL_9;
 285:Src/main.cpp  ****   sConfig.Rank = 6;
 286:Src/main.cpp  ****   if (HAL_ADC_ConfigChannel(&hadc1, &sConfig) != HAL_OK)
 287:Src/main.cpp  ****   {
 288:Src/main.cpp  ****     Error_Handler();
 289:Src/main.cpp  ****   }
 290:Src/main.cpp  ****   /** Configure for the selected ADC regular channel its corresponding rank in the sequencer and it
 291:Src/main.cpp  ****   */
 292:Src/main.cpp  ****   sConfig.Channel = ADC_CHANNEL_TEMPSENSOR;
 293:Src/main.cpp  ****   sConfig.Rank = 7;
 294:Src/main.cpp  ****   if (HAL_ADC_ConfigChannel(&hadc1, &sConfig) != HAL_OK)
 295:Src/main.cpp  ****   {
 296:Src/main.cpp  ****     Error_Handler();
 297:Src/main.cpp  ****   }
 298:Src/main.cpp  ****   /** Configure for the selected ADC regular channel its corresponding rank in the sequencer and it
 299:Src/main.cpp  ****   */
 300:Src/main.cpp  ****   sConfig.Channel = ADC_CHANNEL_VREFINT;
 301:Src/main.cpp  ****   sConfig.Rank = 8;
 302:Src/main.cpp  ****   if (HAL_ADC_ConfigChannel(&hadc1, &sConfig) != HAL_OK)
 303:Src/main.cpp  ****   {
 304:Src/main.cpp  ****     Error_Handler();
 305:Src/main.cpp  ****   }
 306:Src/main.cpp  ****   /* USER CODE BEGIN ADC1_Init 2 */
 307:Src/main.cpp  **** 
 308:Src/main.cpp  ****   /* USER CODE END ADC1_Init 2 */
 309:Src/main.cpp  **** 
 310:Src/main.cpp  **** }
 311:Src/main.cpp  **** 
 312:Src/main.cpp  **** /**
 313:Src/main.cpp  ****   * @brief I2C1 Initialization Function
 314:Src/main.cpp  ****   * @param None
 315:Src/main.cpp  ****   * @retval None
ARM GAS  C:\Users\7636~1\AppData\Local\Temp\ccHxmuM0.s 			page 7


 316:Src/main.cpp  ****   */
 317:Src/main.cpp  **** static void MX_I2C1_Init(void)
 318:Src/main.cpp  **** {
 319:Src/main.cpp  **** 
 320:Src/main.cpp  ****   /* USER CODE BEGIN I2C1_Init 0 */
 321:Src/main.cpp  **** 
 322:Src/main.cpp  ****   /* USER CODE END I2C1_Init 0 */
 323:Src/main.cpp  **** 
 324:Src/main.cpp  ****   /* USER CODE BEGIN I2C1_Init 1 */
 325:Src/main.cpp  **** 
 326:Src/main.cpp  ****   /* USER CODE END I2C1_Init 1 */
 327:Src/main.cpp  ****   hi2c1.Instance = I2C1;
 328:Src/main.cpp  ****   hi2c1.Init.ClockSpeed = 400000;
 329:Src/main.cpp  ****   hi2c1.Init.DutyCycle = I2C_DUTYCYCLE_2;
 330:Src/main.cpp  ****   hi2c1.Init.OwnAddress1 = 0;
 331:Src/main.cpp  ****   hi2c1.Init.AddressingMode = I2C_ADDRESSINGMODE_7BIT;
 332:Src/main.cpp  ****   hi2c1.Init.DualAddressMode = I2C_DUALADDRESS_DISABLE;
 333:Src/main.cpp  ****   hi2c1.Init.OwnAddress2 = 0;
 334:Src/main.cpp  ****   hi2c1.Init.GeneralCallMode = I2C_GENERALCALL_DISABLE;
 335:Src/main.cpp  ****   hi2c1.Init.NoStretchMode = I2C_NOSTRETCH_DISABLE;
 336:Src/main.cpp  ****   if (HAL_I2C_Init(&hi2c1) != HAL_OK)
 337:Src/main.cpp  ****   {
 338:Src/main.cpp  ****     Error_Handler();
 339:Src/main.cpp  ****   }
 340:Src/main.cpp  ****   /* USER CODE BEGIN I2C1_Init 2 */
 341:Src/main.cpp  **** 
 342:Src/main.cpp  ****   /* USER CODE END I2C1_Init 2 */
 343:Src/main.cpp  **** 
 344:Src/main.cpp  **** }
 345:Src/main.cpp  **** 
 346:Src/main.cpp  **** /**
 347:Src/main.cpp  ****   * @brief RTC Initialization Function
 348:Src/main.cpp  ****   * @param None
 349:Src/main.cpp  ****   * @retval None
 350:Src/main.cpp  ****   */
 351:Src/main.cpp  **** static void MX_RTC_Init(void)
 352:Src/main.cpp  **** {
 353:Src/main.cpp  **** 
 354:Src/main.cpp  ****   /* USER CODE BEGIN RTC_Init 0 */
 355:Src/main.cpp  **** 
 356:Src/main.cpp  ****   /* USER CODE END RTC_Init 0 */
 357:Src/main.cpp  **** 
 358:Src/main.cpp  ****   RTC_TimeTypeDef sTime = {0};
 359:Src/main.cpp  ****   RTC_DateTypeDef sDate = {0};
 360:Src/main.cpp  ****   RTC_AlarmTypeDef sAlarm = {0};
 361:Src/main.cpp  **** 
 362:Src/main.cpp  ****   /* USER CODE BEGIN RTC_Init 1 */
 363:Src/main.cpp  **** 
 364:Src/main.cpp  ****   /* USER CODE END RTC_Init 1 */
 365:Src/main.cpp  ****   /** Initialize RTC Only
 366:Src/main.cpp  ****   */
 367:Src/main.cpp  ****   hrtc.Instance = RTC;
 368:Src/main.cpp  ****   hrtc.Init.HourFormat = RTC_HOURFORMAT_24;
 369:Src/main.cpp  ****   hrtc.Init.AsynchPrediv = 127;
 370:Src/main.cpp  ****   hrtc.Init.SynchPrediv = 255;
 371:Src/main.cpp  ****   hrtc.Init.OutPut = RTC_OUTPUT_DISABLE;
 372:Src/main.cpp  ****   hrtc.Init.OutPutPolarity = RTC_OUTPUT_POLARITY_HIGH;
ARM GAS  C:\Users\7636~1\AppData\Local\Temp\ccHxmuM0.s 			page 8


 373:Src/main.cpp  ****   hrtc.Init.OutPutType = RTC_OUTPUT_TYPE_OPENDRAIN;
 374:Src/main.cpp  ****   if (HAL_RTC_Init(&hrtc) != HAL_OK)
 375:Src/main.cpp  ****   {
 376:Src/main.cpp  ****     Error_Handler();
 377:Src/main.cpp  ****   }
 378:Src/main.cpp  **** 
 379:Src/main.cpp  ****   /* USER CODE BEGIN Check_RTC_BKUP */
 380:Src/main.cpp  **** 
 381:Src/main.cpp  ****   /* USER CODE END Check_RTC_BKUP */
 382:Src/main.cpp  **** 
 383:Src/main.cpp  ****   /** Initialize RTC and set the Time and Date
 384:Src/main.cpp  ****   */
 385:Src/main.cpp  ****   sTime.Hours = 0x0;
 386:Src/main.cpp  ****   sTime.Minutes = 0x0;
 387:Src/main.cpp  ****   sTime.Seconds = 0x0;
 388:Src/main.cpp  ****   sTime.DayLightSaving = RTC_DAYLIGHTSAVING_NONE;
 389:Src/main.cpp  ****   sTime.StoreOperation = RTC_STOREOPERATION_RESET;
 390:Src/main.cpp  ****   if (HAL_RTC_SetTime(&hrtc, &sTime, RTC_FORMAT_BCD) != HAL_OK)
 391:Src/main.cpp  ****   {
 392:Src/main.cpp  ****     Error_Handler();
 393:Src/main.cpp  ****   }
 394:Src/main.cpp  ****   sDate.WeekDay = RTC_WEEKDAY_MONDAY;
 395:Src/main.cpp  ****   sDate.Month = RTC_MONTH_JANUARY;
 396:Src/main.cpp  ****   sDate.Date = 0x1;
 397:Src/main.cpp  ****   sDate.Year = 0x21;
 398:Src/main.cpp  **** 
 399:Src/main.cpp  ****   if (HAL_RTC_SetDate(&hrtc, &sDate, RTC_FORMAT_BCD) != HAL_OK)
 400:Src/main.cpp  ****   {
 401:Src/main.cpp  ****     Error_Handler();
 402:Src/main.cpp  ****   }
 403:Src/main.cpp  ****   /** Enable the Alarm A
 404:Src/main.cpp  ****   */
 405:Src/main.cpp  ****   sAlarm.AlarmTime.Hours = 0x0;
 406:Src/main.cpp  ****   sAlarm.AlarmTime.Minutes = 0x0;
 407:Src/main.cpp  ****   sAlarm.AlarmTime.Seconds = 0x0;
 408:Src/main.cpp  ****   sAlarm.AlarmTime.SubSeconds = 0x0;
 409:Src/main.cpp  ****   sAlarm.AlarmTime.DayLightSaving = RTC_DAYLIGHTSAVING_NONE;
 410:Src/main.cpp  ****   sAlarm.AlarmTime.StoreOperation = RTC_STOREOPERATION_RESET;
 411:Src/main.cpp  ****   sAlarm.AlarmMask = RTC_ALARMMASK_ALL;
 412:Src/main.cpp  ****   sAlarm.AlarmSubSecondMask = RTC_ALARMSUBSECONDMASK_ALL;
 413:Src/main.cpp  ****   sAlarm.AlarmDateWeekDaySel = RTC_ALARMDATEWEEKDAYSEL_DATE;
 414:Src/main.cpp  ****   sAlarm.AlarmDateWeekDay = 0x1;
 415:Src/main.cpp  ****   sAlarm.Alarm = RTC_ALARM_A;
 416:Src/main.cpp  ****   if (HAL_RTC_SetAlarm_IT(&hrtc, &sAlarm, RTC_FORMAT_BCD) != HAL_OK)
 417:Src/main.cpp  ****   {
 418:Src/main.cpp  ****     Error_Handler();
 419:Src/main.cpp  ****   }
 420:Src/main.cpp  ****   /* USER CODE BEGIN RTC_Init 2 */
 421:Src/main.cpp  **** 
 422:Src/main.cpp  ****   /* USER CODE END RTC_Init 2 */
 423:Src/main.cpp  **** 
 424:Src/main.cpp  **** }
 425:Src/main.cpp  **** 
 426:Src/main.cpp  **** /**
 427:Src/main.cpp  ****   * @brief SPI1 Initialization Function
 428:Src/main.cpp  ****   * @param None
 429:Src/main.cpp  ****   * @retval None
ARM GAS  C:\Users\7636~1\AppData\Local\Temp\ccHxmuM0.s 			page 9


 430:Src/main.cpp  ****   */
 431:Src/main.cpp  **** static void MX_SPI1_Init(void)
 432:Src/main.cpp  **** {
 433:Src/main.cpp  **** 
 434:Src/main.cpp  ****   /* USER CODE BEGIN SPI1_Init 0 */
 435:Src/main.cpp  **** 
 436:Src/main.cpp  ****   /* USER CODE END SPI1_Init 0 */
 437:Src/main.cpp  **** 
 438:Src/main.cpp  ****   /* USER CODE BEGIN SPI1_Init 1 */
 439:Src/main.cpp  **** 
 440:Src/main.cpp  ****   /* USER CODE END SPI1_Init 1 */
 441:Src/main.cpp  ****   /* SPI1 parameter configuration*/
 442:Src/main.cpp  ****   hspi1.Instance = SPI1;
 443:Src/main.cpp  ****   hspi1.Init.Mode = SPI_MODE_MASTER;
 444:Src/main.cpp  ****   hspi1.Init.Direction = SPI_DIRECTION_2LINES;
 445:Src/main.cpp  ****   hspi1.Init.DataSize = SPI_DATASIZE_8BIT;
 446:Src/main.cpp  ****   hspi1.Init.CLKPolarity = SPI_POLARITY_LOW;
 447:Src/main.cpp  ****   hspi1.Init.CLKPhase = SPI_PHASE_1EDGE;
 448:Src/main.cpp  ****   hspi1.Init.NSS = SPI_NSS_SOFT;
 449:Src/main.cpp  ****   hspi1.Init.BaudRatePrescaler = SPI_BAUDRATEPRESCALER_128;
 450:Src/main.cpp  ****   hspi1.Init.FirstBit = SPI_FIRSTBIT_MSB;
 451:Src/main.cpp  ****   hspi1.Init.TIMode = SPI_TIMODE_DISABLE;
 452:Src/main.cpp  ****   hspi1.Init.CRCCalculation = SPI_CRCCALCULATION_DISABLE;
 453:Src/main.cpp  ****   hspi1.Init.CRCPolynomial = 10;
 454:Src/main.cpp  ****   if (HAL_SPI_Init(&hspi1) != HAL_OK)
 455:Src/main.cpp  ****   {
 456:Src/main.cpp  ****     Error_Handler();
 457:Src/main.cpp  ****   }
 458:Src/main.cpp  ****   /* USER CODE BEGIN SPI1_Init 2 */
 459:Src/main.cpp  **** 
 460:Src/main.cpp  ****   /* USER CODE END SPI1_Init 2 */
 461:Src/main.cpp  **** 
 462:Src/main.cpp  **** }
 463:Src/main.cpp  **** 
 464:Src/main.cpp  **** /**
 465:Src/main.cpp  ****   * @brief TIM1 Initialization Function
 466:Src/main.cpp  ****   * @param None
 467:Src/main.cpp  ****   * @retval None
 468:Src/main.cpp  ****   */
 469:Src/main.cpp  **** static void MX_TIM1_Init(void)
 470:Src/main.cpp  **** {
 471:Src/main.cpp  **** 
 472:Src/main.cpp  ****   /* USER CODE BEGIN TIM1_Init 0 */
 473:Src/main.cpp  **** 
 474:Src/main.cpp  ****   /* USER CODE END TIM1_Init 0 */
 475:Src/main.cpp  **** 
 476:Src/main.cpp  ****   TIM_ClockConfigTypeDef sClockSourceConfig = {0};
 477:Src/main.cpp  ****   TIM_SlaveConfigTypeDef sSlaveConfig = {0};
 478:Src/main.cpp  ****   TIM_MasterConfigTypeDef sMasterConfig = {0};
 479:Src/main.cpp  **** 
 480:Src/main.cpp  ****   /* USER CODE BEGIN TIM1_Init 1 */
 481:Src/main.cpp  **** 
 482:Src/main.cpp  ****   /* USER CODE END TIM1_Init 1 */
 483:Src/main.cpp  ****   htim1.Instance = TIM1;
 484:Src/main.cpp  ****   htim1.Init.Prescaler = 0;
 485:Src/main.cpp  ****   htim1.Init.CounterMode = TIM_COUNTERMODE_UP;
 486:Src/main.cpp  ****   htim1.Init.Period = 42000-1;
ARM GAS  C:\Users\7636~1\AppData\Local\Temp\ccHxmuM0.s 			page 10


 487:Src/main.cpp  ****   htim1.Init.ClockDivision = TIM_CLOCKDIVISION_DIV4;
 488:Src/main.cpp  ****   htim1.Init.RepetitionCounter = 0;
 489:Src/main.cpp  ****   htim1.Init.AutoReloadPreload = TIM_AUTORELOAD_PRELOAD_DISABLE;
 490:Src/main.cpp  ****   if (HAL_TIM_Base_Init(&htim1) != HAL_OK)
 491:Src/main.cpp  ****   {
 492:Src/main.cpp  ****     Error_Handler();
 493:Src/main.cpp  ****   }
 494:Src/main.cpp  ****   sClockSourceConfig.ClockSource = TIM_CLOCKSOURCE_INTERNAL;
 495:Src/main.cpp  ****   if (HAL_TIM_ConfigClockSource(&htim1, &sClockSourceConfig) != HAL_OK)
 496:Src/main.cpp  ****   {
 497:Src/main.cpp  ****     Error_Handler();
 498:Src/main.cpp  ****   }
 499:Src/main.cpp  ****   sSlaveConfig.SlaveMode = TIM_SLAVEMODE_TRIGGER;
 500:Src/main.cpp  ****   sSlaveConfig.InputTrigger = TIM_TS_TI1FP1;
 501:Src/main.cpp  ****   sSlaveConfig.TriggerPolarity = TIM_TRIGGERPOLARITY_FALLING;
 502:Src/main.cpp  ****   sSlaveConfig.TriggerFilter = 15;
 503:Src/main.cpp  ****   if (HAL_TIM_SlaveConfigSynchro(&htim1, &sSlaveConfig) != HAL_OK)
 504:Src/main.cpp  ****   {
 505:Src/main.cpp  ****     Error_Handler();
 506:Src/main.cpp  ****   }
 507:Src/main.cpp  ****   sMasterConfig.MasterOutputTrigger = TIM_TRGO_RESET;
 508:Src/main.cpp  ****   sMasterConfig.MasterSlaveMode = TIM_MASTERSLAVEMODE_DISABLE;
 509:Src/main.cpp  ****   if (HAL_TIMEx_MasterConfigSynchronization(&htim1, &sMasterConfig) != HAL_OK)
 510:Src/main.cpp  ****   {
 511:Src/main.cpp  ****     Error_Handler();
 512:Src/main.cpp  ****   }
 513:Src/main.cpp  ****   /* USER CODE BEGIN TIM1_Init 2 */
 514:Src/main.cpp  **** 
 515:Src/main.cpp  ****   /* USER CODE END TIM1_Init 2 */
 516:Src/main.cpp  **** 
 517:Src/main.cpp  **** }
 518:Src/main.cpp  **** 
 519:Src/main.cpp  **** /**
 520:Src/main.cpp  ****   * @brief TIM3 Initialization Function
 521:Src/main.cpp  ****   * @param None
 522:Src/main.cpp  ****   * @retval None
 523:Src/main.cpp  ****   */
 524:Src/main.cpp  **** static void MX_TIM3_Init(void)
 525:Src/main.cpp  **** {
 526:Src/main.cpp  **** 
 527:Src/main.cpp  ****   /* USER CODE BEGIN TIM3_Init 0 */
 528:Src/main.cpp  **** 
 529:Src/main.cpp  ****   /* USER CODE END TIM3_Init 0 */
 530:Src/main.cpp  **** 
 531:Src/main.cpp  ****   TIM_ClockConfigTypeDef sClockSourceConfig = {0};
 532:Src/main.cpp  ****   TIM_MasterConfigTypeDef sMasterConfig = {0};
 533:Src/main.cpp  **** 
 534:Src/main.cpp  ****   /* USER CODE BEGIN TIM3_Init 1 */
 535:Src/main.cpp  **** 
 536:Src/main.cpp  ****   /* USER CODE END TIM3_Init 1 */
 537:Src/main.cpp  ****   htim3.Instance = TIM3;
 538:Src/main.cpp  ****   htim3.Init.Prescaler = 140-1;
 539:Src/main.cpp  ****   htim3.Init.CounterMode = TIM_COUNTERMODE_UP;
 540:Src/main.cpp  ****   htim3.Init.Period = 60000-1;
 541:Src/main.cpp  ****   htim3.Init.ClockDivision = TIM_CLOCKDIVISION_DIV1;
 542:Src/main.cpp  ****   htim3.Init.AutoReloadPreload = TIM_AUTORELOAD_PRELOAD_DISABLE;
 543:Src/main.cpp  ****   if (HAL_TIM_Base_Init(&htim3) != HAL_OK)
ARM GAS  C:\Users\7636~1\AppData\Local\Temp\ccHxmuM0.s 			page 11


 544:Src/main.cpp  ****   {
 545:Src/main.cpp  ****     Error_Handler();
 546:Src/main.cpp  ****   }
 547:Src/main.cpp  ****   sClockSourceConfig.ClockSource = TIM_CLOCKSOURCE_INTERNAL;
 548:Src/main.cpp  ****   if (HAL_TIM_ConfigClockSource(&htim3, &sClockSourceConfig) != HAL_OK)
 549:Src/main.cpp  ****   {
 550:Src/main.cpp  ****     Error_Handler();
 551:Src/main.cpp  ****   }
 552:Src/main.cpp  ****   sMasterConfig.MasterOutputTrigger = TIM_TRGO_UPDATE;
 553:Src/main.cpp  ****   sMasterConfig.MasterSlaveMode = TIM_MASTERSLAVEMODE_DISABLE;
 554:Src/main.cpp  ****   if (HAL_TIMEx_MasterConfigSynchronization(&htim3, &sMasterConfig) != HAL_OK)
 555:Src/main.cpp  ****   {
 556:Src/main.cpp  ****     Error_Handler();
 557:Src/main.cpp  ****   }
 558:Src/main.cpp  ****   /* USER CODE BEGIN TIM3_Init 2 */
 559:Src/main.cpp  **** 
 560:Src/main.cpp  ****   /* USER CODE END TIM3_Init 2 */
 561:Src/main.cpp  **** 
 562:Src/main.cpp  **** }
 563:Src/main.cpp  **** 
 564:Src/main.cpp  **** /**
 565:Src/main.cpp  ****   * @brief TIM9 Initialization Function
 566:Src/main.cpp  ****   * @param None
 567:Src/main.cpp  ****   * @retval None
 568:Src/main.cpp  ****   */
 569:Src/main.cpp  **** static void MX_TIM9_Init(void)
 570:Src/main.cpp  **** {
 571:Src/main.cpp  **** 
 572:Src/main.cpp  ****   /* USER CODE BEGIN TIM9_Init 0 */
 573:Src/main.cpp  **** 
 574:Src/main.cpp  ****   /* USER CODE END TIM9_Init 0 */
 575:Src/main.cpp  **** 
 576:Src/main.cpp  ****   TIM_ClockConfigTypeDef sClockSourceConfig = {0};
 577:Src/main.cpp  ****   TIM_OC_InitTypeDef sConfigOC = {0};
 578:Src/main.cpp  **** 
 579:Src/main.cpp  ****   /* USER CODE BEGIN TIM9_Init 1 */
 580:Src/main.cpp  **** 
 581:Src/main.cpp  ****   /* USER CODE END TIM9_Init 1 */
 582:Src/main.cpp  ****   htim9.Instance = TIM9;
 583:Src/main.cpp  ****   htim9.Init.Prescaler = 130-1;
 584:Src/main.cpp  ****   htim9.Init.CounterMode = TIM_COUNTERMODE_UP;
 585:Src/main.cpp  ****   htim9.Init.Period = 65535;
 586:Src/main.cpp  ****   htim9.Init.ClockDivision = TIM_CLOCKDIVISION_DIV1;
 587:Src/main.cpp  ****   htim9.Init.AutoReloadPreload = TIM_AUTORELOAD_PRELOAD_DISABLE;
 588:Src/main.cpp  ****   if (HAL_TIM_Base_Init(&htim9) != HAL_OK)
 589:Src/main.cpp  ****   {
 590:Src/main.cpp  ****     Error_Handler();
 591:Src/main.cpp  ****   }
 592:Src/main.cpp  ****   sClockSourceConfig.ClockSource = TIM_CLOCKSOURCE_INTERNAL;
 593:Src/main.cpp  ****   if (HAL_TIM_ConfigClockSource(&htim9, &sClockSourceConfig) != HAL_OK)
 594:Src/main.cpp  ****   {
 595:Src/main.cpp  ****     Error_Handler();
 596:Src/main.cpp  ****   }
 597:Src/main.cpp  ****   if (HAL_TIM_PWM_Init(&htim9) != HAL_OK)
 598:Src/main.cpp  ****   {
 599:Src/main.cpp  ****     Error_Handler();
 600:Src/main.cpp  ****   }
ARM GAS  C:\Users\7636~1\AppData\Local\Temp\ccHxmuM0.s 			page 12


 601:Src/main.cpp  ****   sConfigOC.OCMode = TIM_OCMODE_PWM1;
 602:Src/main.cpp  ****   sConfigOC.Pulse = 0;
 603:Src/main.cpp  ****   sConfigOC.OCPolarity = TIM_OCPOLARITY_HIGH;
 604:Src/main.cpp  ****   sConfigOC.OCFastMode = TIM_OCFAST_DISABLE;
 605:Src/main.cpp  ****   if (HAL_TIM_PWM_ConfigChannel(&htim9, &sConfigOC, TIM_CHANNEL_1) != HAL_OK)
 606:Src/main.cpp  ****   {
 607:Src/main.cpp  ****     Error_Handler();
 608:Src/main.cpp  ****   }
 609:Src/main.cpp  ****   /* USER CODE BEGIN TIM9_Init 2 */
 610:Src/main.cpp  **** 
 611:Src/main.cpp  ****   /* USER CODE END TIM9_Init 2 */
 612:Src/main.cpp  ****   HAL_TIM_MspPostInit(&htim9);
 613:Src/main.cpp  **** 
 614:Src/main.cpp  **** }
 615:Src/main.cpp  **** 
 616:Src/main.cpp  **** /**
 617:Src/main.cpp  ****   * @brief TIM10 Initialization Function
 618:Src/main.cpp  ****   * @param None
 619:Src/main.cpp  ****   * @retval None
 620:Src/main.cpp  ****   */
 621:Src/main.cpp  **** static void MX_TIM10_Init(void)
 622:Src/main.cpp  **** {
 623:Src/main.cpp  **** 
 624:Src/main.cpp  ****   /* USER CODE BEGIN TIM10_Init 0 */
 625:Src/main.cpp  **** 
 626:Src/main.cpp  ****   /* USER CODE END TIM10_Init 0 */
 627:Src/main.cpp  **** 
 628:Src/main.cpp  ****   TIM_OC_InitTypeDef sConfigOC = {0};
 629:Src/main.cpp  **** 
 630:Src/main.cpp  ****   /* USER CODE BEGIN TIM10_Init 1 */
 631:Src/main.cpp  **** 
 632:Src/main.cpp  ****   /* USER CODE END TIM10_Init 1 */
 633:Src/main.cpp  ****   htim10.Instance = TIM10;
 634:Src/main.cpp  ****   htim10.Init.Prescaler = 130-1;
 635:Src/main.cpp  ****   htim10.Init.CounterMode = TIM_COUNTERMODE_UP;
 636:Src/main.cpp  ****   htim10.Init.Period = 65535;
 637:Src/main.cpp  ****   htim10.Init.ClockDivision = TIM_CLOCKDIVISION_DIV1;
 638:Src/main.cpp  ****   htim10.Init.AutoReloadPreload = TIM_AUTORELOAD_PRELOAD_DISABLE;
 639:Src/main.cpp  ****   if (HAL_TIM_Base_Init(&htim10) != HAL_OK)
 640:Src/main.cpp  ****   {
 641:Src/main.cpp  ****     Error_Handler();
 642:Src/main.cpp  ****   }
 643:Src/main.cpp  ****   if (HAL_TIM_PWM_Init(&htim10) != HAL_OK)
 644:Src/main.cpp  ****   {
 645:Src/main.cpp  ****     Error_Handler();
 646:Src/main.cpp  ****   }
 647:Src/main.cpp  ****   sConfigOC.OCMode = TIM_OCMODE_PWM1;
 648:Src/main.cpp  ****   sConfigOC.Pulse = 0;
 649:Src/main.cpp  ****   sConfigOC.OCPolarity = TIM_OCPOLARITY_HIGH;
 650:Src/main.cpp  ****   sConfigOC.OCFastMode = TIM_OCFAST_DISABLE;
 651:Src/main.cpp  ****   if (HAL_TIM_PWM_ConfigChannel(&htim10, &sConfigOC, TIM_CHANNEL_1) != HAL_OK)
 652:Src/main.cpp  ****   {
 653:Src/main.cpp  ****     Error_Handler();
 654:Src/main.cpp  ****   }
 655:Src/main.cpp  ****   /* USER CODE BEGIN TIM10_Init 2 */
 656:Src/main.cpp  **** 
 657:Src/main.cpp  ****   /* USER CODE END TIM10_Init 2 */
ARM GAS  C:\Users\7636~1\AppData\Local\Temp\ccHxmuM0.s 			page 13


 658:Src/main.cpp  ****   HAL_TIM_MspPostInit(&htim10);
 659:Src/main.cpp  **** 
 660:Src/main.cpp  **** }
 661:Src/main.cpp  **** 
 662:Src/main.cpp  **** /**
 663:Src/main.cpp  ****   * @brief TIM11 Initialization Function
 664:Src/main.cpp  ****   * @param None
 665:Src/main.cpp  ****   * @retval None
 666:Src/main.cpp  ****   */
 667:Src/main.cpp  **** static void MX_TIM11_Init(void)
 668:Src/main.cpp  **** {
 669:Src/main.cpp  **** 
 670:Src/main.cpp  ****   /* USER CODE BEGIN TIM11_Init 0 */
 671:Src/main.cpp  **** 
 672:Src/main.cpp  ****   /* USER CODE END TIM11_Init 0 */
 673:Src/main.cpp  **** 
 674:Src/main.cpp  ****   TIM_OC_InitTypeDef sConfigOC = {0};
 675:Src/main.cpp  **** 
 676:Src/main.cpp  ****   /* USER CODE BEGIN TIM11_Init 1 */
 677:Src/main.cpp  **** 
 678:Src/main.cpp  ****   /* USER CODE END TIM11_Init 1 */
 679:Src/main.cpp  ****   htim11.Instance = TIM11;
 680:Src/main.cpp  ****   htim11.Init.Prescaler = 130-1;
 681:Src/main.cpp  ****   htim11.Init.CounterMode = TIM_COUNTERMODE_UP;
 682:Src/main.cpp  ****   htim11.Init.Period = 65535;
 683:Src/main.cpp  ****   htim11.Init.ClockDivision = TIM_CLOCKDIVISION_DIV1;
 684:Src/main.cpp  ****   htim11.Init.AutoReloadPreload = TIM_AUTORELOAD_PRELOAD_DISABLE;
 685:Src/main.cpp  ****   if (HAL_TIM_Base_Init(&htim11) != HAL_OK)
 686:Src/main.cpp  ****   {
 687:Src/main.cpp  ****     Error_Handler();
 688:Src/main.cpp  ****   }
 689:Src/main.cpp  ****   if (HAL_TIM_PWM_Init(&htim11) != HAL_OK)
 690:Src/main.cpp  ****   {
 691:Src/main.cpp  ****     Error_Handler();
 692:Src/main.cpp  ****   }
 693:Src/main.cpp  ****   sConfigOC.OCMode = TIM_OCMODE_PWM1;
 694:Src/main.cpp  ****   sConfigOC.Pulse = 0;
 695:Src/main.cpp  ****   sConfigOC.OCPolarity = TIM_OCPOLARITY_HIGH;
 696:Src/main.cpp  ****   sConfigOC.OCFastMode = TIM_OCFAST_DISABLE;
 697:Src/main.cpp  ****   if (HAL_TIM_PWM_ConfigChannel(&htim11, &sConfigOC, TIM_CHANNEL_1) != HAL_OK)
 698:Src/main.cpp  ****   {
 699:Src/main.cpp  ****     Error_Handler();
 700:Src/main.cpp  ****   }
 701:Src/main.cpp  ****   /* USER CODE BEGIN TIM11_Init 2 */
 702:Src/main.cpp  **** 
 703:Src/main.cpp  ****   /* USER CODE END TIM11_Init 2 */
 704:Src/main.cpp  ****   HAL_TIM_MspPostInit(&htim11);
 705:Src/main.cpp  **** 
 706:Src/main.cpp  **** }
 707:Src/main.cpp  **** 
 708:Src/main.cpp  **** /**
 709:Src/main.cpp  ****   * @brief USART1 Initialization Function
 710:Src/main.cpp  ****   * @param None
 711:Src/main.cpp  ****   * @retval None
 712:Src/main.cpp  ****   */
 713:Src/main.cpp  **** static void MX_USART1_UART_Init(void)
 714:Src/main.cpp  **** {
ARM GAS  C:\Users\7636~1\AppData\Local\Temp\ccHxmuM0.s 			page 14


 715:Src/main.cpp  **** 
 716:Src/main.cpp  ****   /* USER CODE BEGIN USART1_Init 0 */
 717:Src/main.cpp  **** 
 718:Src/main.cpp  ****   /* USER CODE END USART1_Init 0 */
 719:Src/main.cpp  **** 
 720:Src/main.cpp  ****   /* USER CODE BEGIN USART1_Init 1 */
 721:Src/main.cpp  **** 
 722:Src/main.cpp  ****   /* USER CODE END USART1_Init 1 */
 723:Src/main.cpp  ****   huart1.Instance = USART1;
 724:Src/main.cpp  ****   huart1.Init.BaudRate = 115200;
 725:Src/main.cpp  ****   huart1.Init.WordLength = UART_WORDLENGTH_8B;
 726:Src/main.cpp  ****   huart1.Init.StopBits = UART_STOPBITS_1;
 727:Src/main.cpp  ****   huart1.Init.Parity = UART_PARITY_ODD;
 728:Src/main.cpp  ****   huart1.Init.Mode = UART_MODE_TX_RX;
 729:Src/main.cpp  ****   huart1.Init.HwFlowCtl = UART_HWCONTROL_NONE;
 730:Src/main.cpp  ****   huart1.Init.OverSampling = UART_OVERSAMPLING_16;
 731:Src/main.cpp  ****   if (HAL_UART_Init(&huart1) != HAL_OK)
 732:Src/main.cpp  ****   {
 733:Src/main.cpp  ****     Error_Handler();
 734:Src/main.cpp  ****   }
 735:Src/main.cpp  ****   /* USER CODE BEGIN USART1_Init 2 */
 736:Src/main.cpp  **** 
 737:Src/main.cpp  ****   /* USER CODE END USART1_Init 2 */
 738:Src/main.cpp  **** 
 739:Src/main.cpp  **** }
 740:Src/main.cpp  **** 
 741:Src/main.cpp  **** /**
 742:Src/main.cpp  ****   * Enable DMA controller clock
 743:Src/main.cpp  ****   */
 744:Src/main.cpp  **** static void MX_DMA_Init(void)
 745:Src/main.cpp  **** {
 746:Src/main.cpp  **** 
 747:Src/main.cpp  ****   /* DMA controller clock enable */
 748:Src/main.cpp  ****   __HAL_RCC_DMA2_CLK_ENABLE();
 749:Src/main.cpp  ****   __HAL_RCC_DMA1_CLK_ENABLE();
 750:Src/main.cpp  **** 
 751:Src/main.cpp  ****   /* DMA interrupt init */
 752:Src/main.cpp  ****   /* DMA1_Stream0_IRQn interrupt configuration */
 753:Src/main.cpp  ****   HAL_NVIC_SetPriority(DMA1_Stream0_IRQn, 1, 0);
 754:Src/main.cpp  ****   HAL_NVIC_EnableIRQ(DMA1_Stream0_IRQn);
 755:Src/main.cpp  ****   /* DMA1_Stream7_IRQn interrupt configuration */
 756:Src/main.cpp  ****   HAL_NVIC_SetPriority(DMA1_Stream7_IRQn, 3, 0);
 757:Src/main.cpp  ****   HAL_NVIC_EnableIRQ(DMA1_Stream7_IRQn);
 758:Src/main.cpp  ****   /* DMA2_Stream0_IRQn interrupt configuration */
 759:Src/main.cpp  ****   HAL_NVIC_SetPriority(DMA2_Stream0_IRQn, 1, 0);
 760:Src/main.cpp  ****   HAL_NVIC_EnableIRQ(DMA2_Stream0_IRQn);
 761:Src/main.cpp  ****   /* DMA2_Stream2_IRQn interrupt configuration */
 762:Src/main.cpp  ****   HAL_NVIC_SetPriority(DMA2_Stream2_IRQn, 2, 0);
 763:Src/main.cpp  ****   HAL_NVIC_EnableIRQ(DMA2_Stream2_IRQn);
 764:Src/main.cpp  ****   /* DMA2_Stream3_IRQn interrupt configuration */
 765:Src/main.cpp  ****   HAL_NVIC_SetPriority(DMA2_Stream3_IRQn, 3, 0);
 766:Src/main.cpp  ****   HAL_NVIC_EnableIRQ(DMA2_Stream3_IRQn);
 767:Src/main.cpp  ****   /* DMA2_Stream4_IRQn interrupt configuration */
 768:Src/main.cpp  ****   HAL_NVIC_SetPriority(DMA2_Stream4_IRQn, 2, 0);
 769:Src/main.cpp  ****   HAL_NVIC_EnableIRQ(DMA2_Stream4_IRQn);
 770:Src/main.cpp  ****   /* DMA2_Stream7_IRQn interrupt configuration */
 771:Src/main.cpp  ****   HAL_NVIC_SetPriority(DMA2_Stream7_IRQn, 3, 0);
ARM GAS  C:\Users\7636~1\AppData\Local\Temp\ccHxmuM0.s 			page 15


 772:Src/main.cpp  ****   HAL_NVIC_EnableIRQ(DMA2_Stream7_IRQn);
 773:Src/main.cpp  **** 
 774:Src/main.cpp  **** }
 775:Src/main.cpp  **** 
 776:Src/main.cpp  **** /**
 777:Src/main.cpp  ****   * @brief GPIO Initialization Function
 778:Src/main.cpp  ****   * @param None
 779:Src/main.cpp  ****   * @retval None
 780:Src/main.cpp  ****   */
 781:Src/main.cpp  **** static void MX_GPIO_Init(void)
 782:Src/main.cpp  **** {
  29              		.loc 1 782 1 view -0
  30              		.cfi_startproc
  31              		@ args = 0, pretend = 0, frame = 40
  32              		@ frame_needed = 0, uses_anonymous_args = 0
  33 0000 F0B5     		push	{r4, r5, r6, r7, lr}
  34              		.save {r4, r5, r6, r7, lr}
  35              	.LCFI0:
  36              		.cfi_def_cfa_offset 20
  37              		.cfi_offset 4, -20
  38              		.cfi_offset 5, -16
  39              		.cfi_offset 6, -12
  40              		.cfi_offset 7, -8
  41              		.cfi_offset 14, -4
  42              		.pad #44
  43 0002 8BB0     		sub	sp, sp, #44
  44              	.LCFI1:
  45              		.cfi_def_cfa_offset 64
 783:Src/main.cpp  ****   LL_GPIO_InitTypeDef GPIO_InitStruct = {0};
  46              		.loc 1 783 3 view .LVU1
  47              		.loc 1 783 23 is_stmt 0 view .LVU2
  48 0004 0024     		movs	r4, #0
  49 0006 0494     		str	r4, [sp, #16]
  50 0008 0594     		str	r4, [sp, #20]
  51 000a 0694     		str	r4, [sp, #24]
  52 000c 0794     		str	r4, [sp, #28]
  53 000e 0894     		str	r4, [sp, #32]
  54 0010 0994     		str	r4, [sp, #36]
 784:Src/main.cpp  **** 
 785:Src/main.cpp  ****   /* GPIO Ports Clock Enable */
 786:Src/main.cpp  ****   LL_AHB1_GRP1_EnableClock(LL_AHB1_GRP1_PERIPH_GPIOC);
  55              		.loc 1 786 3 is_stmt 1 view .LVU3
  56              	.LVL0:
  57              	.LBB18:
  58              	.LBI18:
  59              		.file 2 "Drivers/STM32F4xx_HAL_Driver/Inc/stm32f4xx_ll_bus.h"
   1:Drivers/STM32F4xx_HAL_Driver/Inc/stm32f4xx_ll_bus.h **** /**
   2:Drivers/STM32F4xx_HAL_Driver/Inc/stm32f4xx_ll_bus.h ****   ******************************************************************************
   3:Drivers/STM32F4xx_HAL_Driver/Inc/stm32f4xx_ll_bus.h ****   * @file    stm32f4xx_ll_bus.h
   4:Drivers/STM32F4xx_HAL_Driver/Inc/stm32f4xx_ll_bus.h ****   * @author  MCD Application Team
   5:Drivers/STM32F4xx_HAL_Driver/Inc/stm32f4xx_ll_bus.h ****   * @brief   Header file of BUS LL module.
   6:Drivers/STM32F4xx_HAL_Driver/Inc/stm32f4xx_ll_bus.h **** 
   7:Drivers/STM32F4xx_HAL_Driver/Inc/stm32f4xx_ll_bus.h ****   @verbatim
   8:Drivers/STM32F4xx_HAL_Driver/Inc/stm32f4xx_ll_bus.h ****                       ##### RCC Limitations #####
   9:Drivers/STM32F4xx_HAL_Driver/Inc/stm32f4xx_ll_bus.h ****   ==============================================================================
  10:Drivers/STM32F4xx_HAL_Driver/Inc/stm32f4xx_ll_bus.h ****     [..]
  11:Drivers/STM32F4xx_HAL_Driver/Inc/stm32f4xx_ll_bus.h ****       A delay between an RCC peripheral clock enable and the effective peripheral
ARM GAS  C:\Users\7636~1\AppData\Local\Temp\ccHxmuM0.s 			page 16


  12:Drivers/STM32F4xx_HAL_Driver/Inc/stm32f4xx_ll_bus.h ****       enabling should be taken into account in order to manage the peripheral read/write
  13:Drivers/STM32F4xx_HAL_Driver/Inc/stm32f4xx_ll_bus.h ****       from/to registers.
  14:Drivers/STM32F4xx_HAL_Driver/Inc/stm32f4xx_ll_bus.h ****       (+) This delay depends on the peripheral mapping.
  15:Drivers/STM32F4xx_HAL_Driver/Inc/stm32f4xx_ll_bus.h ****         (++) AHB & APB peripherals, 1 dummy read is necessary
  16:Drivers/STM32F4xx_HAL_Driver/Inc/stm32f4xx_ll_bus.h **** 
  17:Drivers/STM32F4xx_HAL_Driver/Inc/stm32f4xx_ll_bus.h ****     [..]
  18:Drivers/STM32F4xx_HAL_Driver/Inc/stm32f4xx_ll_bus.h ****       Workarounds:
  19:Drivers/STM32F4xx_HAL_Driver/Inc/stm32f4xx_ll_bus.h ****       (#) For AHB & APB peripherals, a dummy read to the peripheral register has been
  20:Drivers/STM32F4xx_HAL_Driver/Inc/stm32f4xx_ll_bus.h ****           inserted in each LL_{BUS}_GRP{x}_EnableClock() function.
  21:Drivers/STM32F4xx_HAL_Driver/Inc/stm32f4xx_ll_bus.h **** 
  22:Drivers/STM32F4xx_HAL_Driver/Inc/stm32f4xx_ll_bus.h ****   @endverbatim
  23:Drivers/STM32F4xx_HAL_Driver/Inc/stm32f4xx_ll_bus.h ****   ******************************************************************************
  24:Drivers/STM32F4xx_HAL_Driver/Inc/stm32f4xx_ll_bus.h ****   * @attention
  25:Drivers/STM32F4xx_HAL_Driver/Inc/stm32f4xx_ll_bus.h ****   *
  26:Drivers/STM32F4xx_HAL_Driver/Inc/stm32f4xx_ll_bus.h ****   * <h2><center>&copy; Copyright (c) 2017 STMicroelectronics.
  27:Drivers/STM32F4xx_HAL_Driver/Inc/stm32f4xx_ll_bus.h ****   * All rights reserved.</center></h2>
  28:Drivers/STM32F4xx_HAL_Driver/Inc/stm32f4xx_ll_bus.h ****   *
  29:Drivers/STM32F4xx_HAL_Driver/Inc/stm32f4xx_ll_bus.h ****   * This software component is licensed by ST under BSD 3-Clause license,
  30:Drivers/STM32F4xx_HAL_Driver/Inc/stm32f4xx_ll_bus.h ****   * the "License"; You may not use this file except in compliance with the
  31:Drivers/STM32F4xx_HAL_Driver/Inc/stm32f4xx_ll_bus.h ****   * License. You may obtain a copy of the License at:
  32:Drivers/STM32F4xx_HAL_Driver/Inc/stm32f4xx_ll_bus.h ****   *                        opensource.org/licenses/BSD-3-Clause
  33:Drivers/STM32F4xx_HAL_Driver/Inc/stm32f4xx_ll_bus.h ****   *
  34:Drivers/STM32F4xx_HAL_Driver/Inc/stm32f4xx_ll_bus.h ****   ******************************************************************************
  35:Drivers/STM32F4xx_HAL_Driver/Inc/stm32f4xx_ll_bus.h ****   */
  36:Drivers/STM32F4xx_HAL_Driver/Inc/stm32f4xx_ll_bus.h **** 
  37:Drivers/STM32F4xx_HAL_Driver/Inc/stm32f4xx_ll_bus.h **** /* Define to prevent recursive inclusion -------------------------------------*/
  38:Drivers/STM32F4xx_HAL_Driver/Inc/stm32f4xx_ll_bus.h **** #ifndef __STM32F4xx_LL_BUS_H
  39:Drivers/STM32F4xx_HAL_Driver/Inc/stm32f4xx_ll_bus.h **** #define __STM32F4xx_LL_BUS_H
  40:Drivers/STM32F4xx_HAL_Driver/Inc/stm32f4xx_ll_bus.h **** 
  41:Drivers/STM32F4xx_HAL_Driver/Inc/stm32f4xx_ll_bus.h **** #ifdef __cplusplus
  42:Drivers/STM32F4xx_HAL_Driver/Inc/stm32f4xx_ll_bus.h **** extern "C" {
  43:Drivers/STM32F4xx_HAL_Driver/Inc/stm32f4xx_ll_bus.h **** #endif
  44:Drivers/STM32F4xx_HAL_Driver/Inc/stm32f4xx_ll_bus.h **** 
  45:Drivers/STM32F4xx_HAL_Driver/Inc/stm32f4xx_ll_bus.h **** /* Includes ------------------------------------------------------------------*/
  46:Drivers/STM32F4xx_HAL_Driver/Inc/stm32f4xx_ll_bus.h **** #include "stm32f4xx.h"
  47:Drivers/STM32F4xx_HAL_Driver/Inc/stm32f4xx_ll_bus.h **** 
  48:Drivers/STM32F4xx_HAL_Driver/Inc/stm32f4xx_ll_bus.h **** /** @addtogroup STM32F4xx_LL_Driver
  49:Drivers/STM32F4xx_HAL_Driver/Inc/stm32f4xx_ll_bus.h ****   * @{
  50:Drivers/STM32F4xx_HAL_Driver/Inc/stm32f4xx_ll_bus.h ****   */
  51:Drivers/STM32F4xx_HAL_Driver/Inc/stm32f4xx_ll_bus.h **** 
  52:Drivers/STM32F4xx_HAL_Driver/Inc/stm32f4xx_ll_bus.h **** #if defined(RCC)
  53:Drivers/STM32F4xx_HAL_Driver/Inc/stm32f4xx_ll_bus.h **** 
  54:Drivers/STM32F4xx_HAL_Driver/Inc/stm32f4xx_ll_bus.h **** /** @defgroup BUS_LL BUS
  55:Drivers/STM32F4xx_HAL_Driver/Inc/stm32f4xx_ll_bus.h ****   * @{
  56:Drivers/STM32F4xx_HAL_Driver/Inc/stm32f4xx_ll_bus.h ****   */
  57:Drivers/STM32F4xx_HAL_Driver/Inc/stm32f4xx_ll_bus.h **** 
  58:Drivers/STM32F4xx_HAL_Driver/Inc/stm32f4xx_ll_bus.h **** /* Private types -------------------------------------------------------------*/
  59:Drivers/STM32F4xx_HAL_Driver/Inc/stm32f4xx_ll_bus.h **** /* Private variables ---------------------------------------------------------*/
  60:Drivers/STM32F4xx_HAL_Driver/Inc/stm32f4xx_ll_bus.h **** /* Private constants ---------------------------------------------------------*/
  61:Drivers/STM32F4xx_HAL_Driver/Inc/stm32f4xx_ll_bus.h **** /* Private macros ------------------------------------------------------------*/
  62:Drivers/STM32F4xx_HAL_Driver/Inc/stm32f4xx_ll_bus.h **** /* Exported types ------------------------------------------------------------*/
  63:Drivers/STM32F4xx_HAL_Driver/Inc/stm32f4xx_ll_bus.h **** /* Exported constants --------------------------------------------------------*/
  64:Drivers/STM32F4xx_HAL_Driver/Inc/stm32f4xx_ll_bus.h **** /** @defgroup BUS_LL_Exported_Constants BUS Exported Constants
  65:Drivers/STM32F4xx_HAL_Driver/Inc/stm32f4xx_ll_bus.h ****   * @{
  66:Drivers/STM32F4xx_HAL_Driver/Inc/stm32f4xx_ll_bus.h ****   */
  67:Drivers/STM32F4xx_HAL_Driver/Inc/stm32f4xx_ll_bus.h **** 
  68:Drivers/STM32F4xx_HAL_Driver/Inc/stm32f4xx_ll_bus.h **** /** @defgroup BUS_LL_EC_AHB1_GRP1_PERIPH  AHB1 GRP1 PERIPH
ARM GAS  C:\Users\7636~1\AppData\Local\Temp\ccHxmuM0.s 			page 17


  69:Drivers/STM32F4xx_HAL_Driver/Inc/stm32f4xx_ll_bus.h ****   * @{
  70:Drivers/STM32F4xx_HAL_Driver/Inc/stm32f4xx_ll_bus.h ****   */
  71:Drivers/STM32F4xx_HAL_Driver/Inc/stm32f4xx_ll_bus.h **** #define LL_AHB1_GRP1_PERIPH_ALL             0xFFFFFFFFU
  72:Drivers/STM32F4xx_HAL_Driver/Inc/stm32f4xx_ll_bus.h **** #define LL_AHB1_GRP1_PERIPH_GPIOA           RCC_AHB1ENR_GPIOAEN
  73:Drivers/STM32F4xx_HAL_Driver/Inc/stm32f4xx_ll_bus.h **** #define LL_AHB1_GRP1_PERIPH_GPIOB           RCC_AHB1ENR_GPIOBEN
  74:Drivers/STM32F4xx_HAL_Driver/Inc/stm32f4xx_ll_bus.h **** #define LL_AHB1_GRP1_PERIPH_GPIOC           RCC_AHB1ENR_GPIOCEN
  75:Drivers/STM32F4xx_HAL_Driver/Inc/stm32f4xx_ll_bus.h **** #if defined(GPIOD)
  76:Drivers/STM32F4xx_HAL_Driver/Inc/stm32f4xx_ll_bus.h **** #define LL_AHB1_GRP1_PERIPH_GPIOD           RCC_AHB1ENR_GPIODEN
  77:Drivers/STM32F4xx_HAL_Driver/Inc/stm32f4xx_ll_bus.h **** #endif /* GPIOD */
  78:Drivers/STM32F4xx_HAL_Driver/Inc/stm32f4xx_ll_bus.h **** #if defined(GPIOE)
  79:Drivers/STM32F4xx_HAL_Driver/Inc/stm32f4xx_ll_bus.h **** #define LL_AHB1_GRP1_PERIPH_GPIOE           RCC_AHB1ENR_GPIOEEN
  80:Drivers/STM32F4xx_HAL_Driver/Inc/stm32f4xx_ll_bus.h **** #endif /* GPIOE */
  81:Drivers/STM32F4xx_HAL_Driver/Inc/stm32f4xx_ll_bus.h **** #if defined(GPIOF)
  82:Drivers/STM32F4xx_HAL_Driver/Inc/stm32f4xx_ll_bus.h **** #define LL_AHB1_GRP1_PERIPH_GPIOF           RCC_AHB1ENR_GPIOFEN
  83:Drivers/STM32F4xx_HAL_Driver/Inc/stm32f4xx_ll_bus.h **** #endif /* GPIOF */
  84:Drivers/STM32F4xx_HAL_Driver/Inc/stm32f4xx_ll_bus.h **** #if defined(GPIOG)
  85:Drivers/STM32F4xx_HAL_Driver/Inc/stm32f4xx_ll_bus.h **** #define LL_AHB1_GRP1_PERIPH_GPIOG           RCC_AHB1ENR_GPIOGEN
  86:Drivers/STM32F4xx_HAL_Driver/Inc/stm32f4xx_ll_bus.h **** #endif /* GPIOG */
  87:Drivers/STM32F4xx_HAL_Driver/Inc/stm32f4xx_ll_bus.h **** #if defined(GPIOH)
  88:Drivers/STM32F4xx_HAL_Driver/Inc/stm32f4xx_ll_bus.h **** #define LL_AHB1_GRP1_PERIPH_GPIOH           RCC_AHB1ENR_GPIOHEN
  89:Drivers/STM32F4xx_HAL_Driver/Inc/stm32f4xx_ll_bus.h **** #endif /* GPIOH */
  90:Drivers/STM32F4xx_HAL_Driver/Inc/stm32f4xx_ll_bus.h **** #if defined(GPIOI)
  91:Drivers/STM32F4xx_HAL_Driver/Inc/stm32f4xx_ll_bus.h **** #define LL_AHB1_GRP1_PERIPH_GPIOI           RCC_AHB1ENR_GPIOIEN
  92:Drivers/STM32F4xx_HAL_Driver/Inc/stm32f4xx_ll_bus.h **** #endif /* GPIOI */
  93:Drivers/STM32F4xx_HAL_Driver/Inc/stm32f4xx_ll_bus.h **** #if defined(GPIOJ)
  94:Drivers/STM32F4xx_HAL_Driver/Inc/stm32f4xx_ll_bus.h **** #define LL_AHB1_GRP1_PERIPH_GPIOJ           RCC_AHB1ENR_GPIOJEN
  95:Drivers/STM32F4xx_HAL_Driver/Inc/stm32f4xx_ll_bus.h **** #endif /* GPIOJ */
  96:Drivers/STM32F4xx_HAL_Driver/Inc/stm32f4xx_ll_bus.h **** #if defined(GPIOK)
  97:Drivers/STM32F4xx_HAL_Driver/Inc/stm32f4xx_ll_bus.h **** #define LL_AHB1_GRP1_PERIPH_GPIOK           RCC_AHB1ENR_GPIOKEN
  98:Drivers/STM32F4xx_HAL_Driver/Inc/stm32f4xx_ll_bus.h **** #endif /* GPIOK */
  99:Drivers/STM32F4xx_HAL_Driver/Inc/stm32f4xx_ll_bus.h **** #define LL_AHB1_GRP1_PERIPH_CRC             RCC_AHB1ENR_CRCEN
 100:Drivers/STM32F4xx_HAL_Driver/Inc/stm32f4xx_ll_bus.h **** #if defined(RCC_AHB1ENR_BKPSRAMEN)
 101:Drivers/STM32F4xx_HAL_Driver/Inc/stm32f4xx_ll_bus.h **** #define LL_AHB1_GRP1_PERIPH_BKPSRAM         RCC_AHB1ENR_BKPSRAMEN
 102:Drivers/STM32F4xx_HAL_Driver/Inc/stm32f4xx_ll_bus.h **** #endif /* RCC_AHB1ENR_BKPSRAMEN */
 103:Drivers/STM32F4xx_HAL_Driver/Inc/stm32f4xx_ll_bus.h **** #if defined(RCC_AHB1ENR_CCMDATARAMEN)
 104:Drivers/STM32F4xx_HAL_Driver/Inc/stm32f4xx_ll_bus.h **** #define LL_AHB1_GRP1_PERIPH_CCMDATARAM      RCC_AHB1ENR_CCMDATARAMEN
 105:Drivers/STM32F4xx_HAL_Driver/Inc/stm32f4xx_ll_bus.h **** #endif /* RCC_AHB1ENR_CCMDATARAMEN */
 106:Drivers/STM32F4xx_HAL_Driver/Inc/stm32f4xx_ll_bus.h **** #define LL_AHB1_GRP1_PERIPH_DMA1            RCC_AHB1ENR_DMA1EN
 107:Drivers/STM32F4xx_HAL_Driver/Inc/stm32f4xx_ll_bus.h **** #define LL_AHB1_GRP1_PERIPH_DMA2            RCC_AHB1ENR_DMA2EN
 108:Drivers/STM32F4xx_HAL_Driver/Inc/stm32f4xx_ll_bus.h **** #if defined(RCC_AHB1ENR_RNGEN)
 109:Drivers/STM32F4xx_HAL_Driver/Inc/stm32f4xx_ll_bus.h **** #define LL_AHB1_GRP1_PERIPH_RNG             RCC_AHB1ENR_RNGEN
 110:Drivers/STM32F4xx_HAL_Driver/Inc/stm32f4xx_ll_bus.h **** #endif /* RCC_AHB1ENR_RNGEN */
 111:Drivers/STM32F4xx_HAL_Driver/Inc/stm32f4xx_ll_bus.h **** #if defined(DMA2D)
 112:Drivers/STM32F4xx_HAL_Driver/Inc/stm32f4xx_ll_bus.h **** #define LL_AHB1_GRP1_PERIPH_DMA2D           RCC_AHB1ENR_DMA2DEN
 113:Drivers/STM32F4xx_HAL_Driver/Inc/stm32f4xx_ll_bus.h **** #endif /* DMA2D */
 114:Drivers/STM32F4xx_HAL_Driver/Inc/stm32f4xx_ll_bus.h **** #if defined(ETH)
 115:Drivers/STM32F4xx_HAL_Driver/Inc/stm32f4xx_ll_bus.h **** #define LL_AHB1_GRP1_PERIPH_ETHMAC          RCC_AHB1ENR_ETHMACEN
 116:Drivers/STM32F4xx_HAL_Driver/Inc/stm32f4xx_ll_bus.h **** #define LL_AHB1_GRP1_PERIPH_ETHMACTX        RCC_AHB1ENR_ETHMACTXEN
 117:Drivers/STM32F4xx_HAL_Driver/Inc/stm32f4xx_ll_bus.h **** #define LL_AHB1_GRP1_PERIPH_ETHMACRX        RCC_AHB1ENR_ETHMACRXEN
 118:Drivers/STM32F4xx_HAL_Driver/Inc/stm32f4xx_ll_bus.h **** #define LL_AHB1_GRP1_PERIPH_ETHMACPTP       RCC_AHB1ENR_ETHMACPTPEN
 119:Drivers/STM32F4xx_HAL_Driver/Inc/stm32f4xx_ll_bus.h **** #endif /* ETH */
 120:Drivers/STM32F4xx_HAL_Driver/Inc/stm32f4xx_ll_bus.h **** #if defined(USB_OTG_HS)
 121:Drivers/STM32F4xx_HAL_Driver/Inc/stm32f4xx_ll_bus.h **** #define LL_AHB1_GRP1_PERIPH_OTGHS           RCC_AHB1ENR_OTGHSEN
 122:Drivers/STM32F4xx_HAL_Driver/Inc/stm32f4xx_ll_bus.h **** #define LL_AHB1_GRP1_PERIPH_OTGHSULPI       RCC_AHB1ENR_OTGHSULPIEN
 123:Drivers/STM32F4xx_HAL_Driver/Inc/stm32f4xx_ll_bus.h **** #endif /* USB_OTG_HS */
 124:Drivers/STM32F4xx_HAL_Driver/Inc/stm32f4xx_ll_bus.h **** #define LL_AHB1_GRP1_PERIPH_FLITF           RCC_AHB1LPENR_FLITFLPEN
 125:Drivers/STM32F4xx_HAL_Driver/Inc/stm32f4xx_ll_bus.h **** #define LL_AHB1_GRP1_PERIPH_SRAM1           RCC_AHB1LPENR_SRAM1LPEN
ARM GAS  C:\Users\7636~1\AppData\Local\Temp\ccHxmuM0.s 			page 18


 126:Drivers/STM32F4xx_HAL_Driver/Inc/stm32f4xx_ll_bus.h **** #if defined(RCC_AHB1LPENR_SRAM2LPEN)
 127:Drivers/STM32F4xx_HAL_Driver/Inc/stm32f4xx_ll_bus.h **** #define LL_AHB1_GRP1_PERIPH_SRAM2           RCC_AHB1LPENR_SRAM2LPEN
 128:Drivers/STM32F4xx_HAL_Driver/Inc/stm32f4xx_ll_bus.h **** #endif /* RCC_AHB1LPENR_SRAM2LPEN */
 129:Drivers/STM32F4xx_HAL_Driver/Inc/stm32f4xx_ll_bus.h **** #if defined(RCC_AHB1LPENR_SRAM3LPEN)
 130:Drivers/STM32F4xx_HAL_Driver/Inc/stm32f4xx_ll_bus.h **** #define LL_AHB1_GRP1_PERIPH_SRAM3           RCC_AHB1LPENR_SRAM3LPEN
 131:Drivers/STM32F4xx_HAL_Driver/Inc/stm32f4xx_ll_bus.h **** #endif /* RCC_AHB1LPENR_SRAM3LPEN */
 132:Drivers/STM32F4xx_HAL_Driver/Inc/stm32f4xx_ll_bus.h **** /**
 133:Drivers/STM32F4xx_HAL_Driver/Inc/stm32f4xx_ll_bus.h ****   * @}
 134:Drivers/STM32F4xx_HAL_Driver/Inc/stm32f4xx_ll_bus.h ****   */
 135:Drivers/STM32F4xx_HAL_Driver/Inc/stm32f4xx_ll_bus.h **** 
 136:Drivers/STM32F4xx_HAL_Driver/Inc/stm32f4xx_ll_bus.h **** #if defined(RCC_AHB2_SUPPORT)
 137:Drivers/STM32F4xx_HAL_Driver/Inc/stm32f4xx_ll_bus.h **** /** @defgroup BUS_LL_EC_AHB2_GRP1_PERIPH  AHB2 GRP1 PERIPH
 138:Drivers/STM32F4xx_HAL_Driver/Inc/stm32f4xx_ll_bus.h ****   * @{
 139:Drivers/STM32F4xx_HAL_Driver/Inc/stm32f4xx_ll_bus.h ****   */
 140:Drivers/STM32F4xx_HAL_Driver/Inc/stm32f4xx_ll_bus.h **** #define LL_AHB2_GRP1_PERIPH_ALL            0xFFFFFFFFU
 141:Drivers/STM32F4xx_HAL_Driver/Inc/stm32f4xx_ll_bus.h **** #if defined(DCMI)
 142:Drivers/STM32F4xx_HAL_Driver/Inc/stm32f4xx_ll_bus.h **** #define LL_AHB2_GRP1_PERIPH_DCMI           RCC_AHB2ENR_DCMIEN
 143:Drivers/STM32F4xx_HAL_Driver/Inc/stm32f4xx_ll_bus.h **** #endif /* DCMI */
 144:Drivers/STM32F4xx_HAL_Driver/Inc/stm32f4xx_ll_bus.h **** #if defined(CRYP)
 145:Drivers/STM32F4xx_HAL_Driver/Inc/stm32f4xx_ll_bus.h **** #define LL_AHB2_GRP1_PERIPH_CRYP           RCC_AHB2ENR_CRYPEN
 146:Drivers/STM32F4xx_HAL_Driver/Inc/stm32f4xx_ll_bus.h **** #endif /* CRYP */
 147:Drivers/STM32F4xx_HAL_Driver/Inc/stm32f4xx_ll_bus.h **** #if defined(AES)
 148:Drivers/STM32F4xx_HAL_Driver/Inc/stm32f4xx_ll_bus.h **** #define LL_AHB2_GRP1_PERIPH_AES            RCC_AHB2ENR_AESEN
 149:Drivers/STM32F4xx_HAL_Driver/Inc/stm32f4xx_ll_bus.h **** #endif /* AES */
 150:Drivers/STM32F4xx_HAL_Driver/Inc/stm32f4xx_ll_bus.h **** #if defined(HASH)
 151:Drivers/STM32F4xx_HAL_Driver/Inc/stm32f4xx_ll_bus.h **** #define LL_AHB2_GRP1_PERIPH_HASH           RCC_AHB2ENR_HASHEN
 152:Drivers/STM32F4xx_HAL_Driver/Inc/stm32f4xx_ll_bus.h **** #endif /* HASH */
 153:Drivers/STM32F4xx_HAL_Driver/Inc/stm32f4xx_ll_bus.h **** #if defined(RCC_AHB2ENR_RNGEN)
 154:Drivers/STM32F4xx_HAL_Driver/Inc/stm32f4xx_ll_bus.h **** #define LL_AHB2_GRP1_PERIPH_RNG            RCC_AHB2ENR_RNGEN
 155:Drivers/STM32F4xx_HAL_Driver/Inc/stm32f4xx_ll_bus.h **** #endif /* RCC_AHB2ENR_RNGEN */
 156:Drivers/STM32F4xx_HAL_Driver/Inc/stm32f4xx_ll_bus.h **** #if defined(USB_OTG_FS)
 157:Drivers/STM32F4xx_HAL_Driver/Inc/stm32f4xx_ll_bus.h **** #define LL_AHB2_GRP1_PERIPH_OTGFS          RCC_AHB2ENR_OTGFSEN
 158:Drivers/STM32F4xx_HAL_Driver/Inc/stm32f4xx_ll_bus.h **** #endif /* USB_OTG_FS */
 159:Drivers/STM32F4xx_HAL_Driver/Inc/stm32f4xx_ll_bus.h **** /**
 160:Drivers/STM32F4xx_HAL_Driver/Inc/stm32f4xx_ll_bus.h ****   * @}
 161:Drivers/STM32F4xx_HAL_Driver/Inc/stm32f4xx_ll_bus.h ****   */
 162:Drivers/STM32F4xx_HAL_Driver/Inc/stm32f4xx_ll_bus.h **** #endif /* RCC_AHB2_SUPPORT */
 163:Drivers/STM32F4xx_HAL_Driver/Inc/stm32f4xx_ll_bus.h **** 
 164:Drivers/STM32F4xx_HAL_Driver/Inc/stm32f4xx_ll_bus.h **** #if defined(RCC_AHB3_SUPPORT)
 165:Drivers/STM32F4xx_HAL_Driver/Inc/stm32f4xx_ll_bus.h **** /** @defgroup BUS_LL_EC_AHB3_GRP1_PERIPH  AHB3 GRP1 PERIPH
 166:Drivers/STM32F4xx_HAL_Driver/Inc/stm32f4xx_ll_bus.h ****   * @{
 167:Drivers/STM32F4xx_HAL_Driver/Inc/stm32f4xx_ll_bus.h ****   */
 168:Drivers/STM32F4xx_HAL_Driver/Inc/stm32f4xx_ll_bus.h **** #define LL_AHB3_GRP1_PERIPH_ALL            0xFFFFFFFFU
 169:Drivers/STM32F4xx_HAL_Driver/Inc/stm32f4xx_ll_bus.h **** #if defined(FSMC_Bank1)
 170:Drivers/STM32F4xx_HAL_Driver/Inc/stm32f4xx_ll_bus.h **** #define LL_AHB3_GRP1_PERIPH_FSMC           RCC_AHB3ENR_FSMCEN
 171:Drivers/STM32F4xx_HAL_Driver/Inc/stm32f4xx_ll_bus.h **** #endif /* FSMC_Bank1 */
 172:Drivers/STM32F4xx_HAL_Driver/Inc/stm32f4xx_ll_bus.h **** #if defined(FMC_Bank1)
 173:Drivers/STM32F4xx_HAL_Driver/Inc/stm32f4xx_ll_bus.h **** #define LL_AHB3_GRP1_PERIPH_FMC            RCC_AHB3ENR_FMCEN
 174:Drivers/STM32F4xx_HAL_Driver/Inc/stm32f4xx_ll_bus.h **** #endif /* FMC_Bank1 */
 175:Drivers/STM32F4xx_HAL_Driver/Inc/stm32f4xx_ll_bus.h **** #if defined(QUADSPI)
 176:Drivers/STM32F4xx_HAL_Driver/Inc/stm32f4xx_ll_bus.h **** #define LL_AHB3_GRP1_PERIPH_QSPI           RCC_AHB3ENR_QSPIEN
 177:Drivers/STM32F4xx_HAL_Driver/Inc/stm32f4xx_ll_bus.h **** #endif /* QUADSPI */
 178:Drivers/STM32F4xx_HAL_Driver/Inc/stm32f4xx_ll_bus.h **** /**
 179:Drivers/STM32F4xx_HAL_Driver/Inc/stm32f4xx_ll_bus.h ****   * @}
 180:Drivers/STM32F4xx_HAL_Driver/Inc/stm32f4xx_ll_bus.h ****   */
 181:Drivers/STM32F4xx_HAL_Driver/Inc/stm32f4xx_ll_bus.h **** #endif /* RCC_AHB3_SUPPORT */
 182:Drivers/STM32F4xx_HAL_Driver/Inc/stm32f4xx_ll_bus.h **** 
ARM GAS  C:\Users\7636~1\AppData\Local\Temp\ccHxmuM0.s 			page 19


 183:Drivers/STM32F4xx_HAL_Driver/Inc/stm32f4xx_ll_bus.h **** /** @defgroup BUS_LL_EC_APB1_GRP1_PERIPH  APB1 GRP1 PERIPH
 184:Drivers/STM32F4xx_HAL_Driver/Inc/stm32f4xx_ll_bus.h ****   * @{
 185:Drivers/STM32F4xx_HAL_Driver/Inc/stm32f4xx_ll_bus.h ****   */
 186:Drivers/STM32F4xx_HAL_Driver/Inc/stm32f4xx_ll_bus.h **** #define LL_APB1_GRP1_PERIPH_ALL            0xFFFFFFFFU
 187:Drivers/STM32F4xx_HAL_Driver/Inc/stm32f4xx_ll_bus.h **** #if defined(TIM2)
 188:Drivers/STM32F4xx_HAL_Driver/Inc/stm32f4xx_ll_bus.h **** #define LL_APB1_GRP1_PERIPH_TIM2           RCC_APB1ENR_TIM2EN
 189:Drivers/STM32F4xx_HAL_Driver/Inc/stm32f4xx_ll_bus.h **** #endif /* TIM2 */
 190:Drivers/STM32F4xx_HAL_Driver/Inc/stm32f4xx_ll_bus.h **** #if defined(TIM3)
 191:Drivers/STM32F4xx_HAL_Driver/Inc/stm32f4xx_ll_bus.h **** #define LL_APB1_GRP1_PERIPH_TIM3           RCC_APB1ENR_TIM3EN
 192:Drivers/STM32F4xx_HAL_Driver/Inc/stm32f4xx_ll_bus.h **** #endif /* TIM3 */
 193:Drivers/STM32F4xx_HAL_Driver/Inc/stm32f4xx_ll_bus.h **** #if defined(TIM4)
 194:Drivers/STM32F4xx_HAL_Driver/Inc/stm32f4xx_ll_bus.h **** #define LL_APB1_GRP1_PERIPH_TIM4           RCC_APB1ENR_TIM4EN
 195:Drivers/STM32F4xx_HAL_Driver/Inc/stm32f4xx_ll_bus.h **** #endif /* TIM4 */
 196:Drivers/STM32F4xx_HAL_Driver/Inc/stm32f4xx_ll_bus.h **** #define LL_APB1_GRP1_PERIPH_TIM5           RCC_APB1ENR_TIM5EN
 197:Drivers/STM32F4xx_HAL_Driver/Inc/stm32f4xx_ll_bus.h **** #if defined(TIM6)
 198:Drivers/STM32F4xx_HAL_Driver/Inc/stm32f4xx_ll_bus.h **** #define LL_APB1_GRP1_PERIPH_TIM6           RCC_APB1ENR_TIM6EN
 199:Drivers/STM32F4xx_HAL_Driver/Inc/stm32f4xx_ll_bus.h **** #endif /* TIM6 */
 200:Drivers/STM32F4xx_HAL_Driver/Inc/stm32f4xx_ll_bus.h **** #if defined(TIM7)
 201:Drivers/STM32F4xx_HAL_Driver/Inc/stm32f4xx_ll_bus.h **** #define LL_APB1_GRP1_PERIPH_TIM7           RCC_APB1ENR_TIM7EN
 202:Drivers/STM32F4xx_HAL_Driver/Inc/stm32f4xx_ll_bus.h **** #endif /* TIM7 */
 203:Drivers/STM32F4xx_HAL_Driver/Inc/stm32f4xx_ll_bus.h **** #if defined(TIM12)
 204:Drivers/STM32F4xx_HAL_Driver/Inc/stm32f4xx_ll_bus.h **** #define LL_APB1_GRP1_PERIPH_TIM12          RCC_APB1ENR_TIM12EN
 205:Drivers/STM32F4xx_HAL_Driver/Inc/stm32f4xx_ll_bus.h **** #endif /* TIM12 */
 206:Drivers/STM32F4xx_HAL_Driver/Inc/stm32f4xx_ll_bus.h **** #if defined(TIM13)
 207:Drivers/STM32F4xx_HAL_Driver/Inc/stm32f4xx_ll_bus.h **** #define LL_APB1_GRP1_PERIPH_TIM13          RCC_APB1ENR_TIM13EN
 208:Drivers/STM32F4xx_HAL_Driver/Inc/stm32f4xx_ll_bus.h **** #endif /* TIM13 */
 209:Drivers/STM32F4xx_HAL_Driver/Inc/stm32f4xx_ll_bus.h **** #if defined(TIM14)
 210:Drivers/STM32F4xx_HAL_Driver/Inc/stm32f4xx_ll_bus.h **** #define LL_APB1_GRP1_PERIPH_TIM14          RCC_APB1ENR_TIM14EN
 211:Drivers/STM32F4xx_HAL_Driver/Inc/stm32f4xx_ll_bus.h **** #endif /* TIM14 */
 212:Drivers/STM32F4xx_HAL_Driver/Inc/stm32f4xx_ll_bus.h **** #if defined(LPTIM1)
 213:Drivers/STM32F4xx_HAL_Driver/Inc/stm32f4xx_ll_bus.h **** #define LL_APB1_GRP1_PERIPH_LPTIM1         RCC_APB1ENR_LPTIM1EN
 214:Drivers/STM32F4xx_HAL_Driver/Inc/stm32f4xx_ll_bus.h **** #endif /* LPTIM1 */
 215:Drivers/STM32F4xx_HAL_Driver/Inc/stm32f4xx_ll_bus.h **** #if defined(RCC_APB1ENR_RTCAPBEN)
 216:Drivers/STM32F4xx_HAL_Driver/Inc/stm32f4xx_ll_bus.h **** #define LL_APB1_GRP1_PERIPH_RTCAPB         RCC_APB1ENR_RTCAPBEN
 217:Drivers/STM32F4xx_HAL_Driver/Inc/stm32f4xx_ll_bus.h **** #endif /* RCC_APB1ENR_RTCAPBEN */
 218:Drivers/STM32F4xx_HAL_Driver/Inc/stm32f4xx_ll_bus.h **** #define LL_APB1_GRP1_PERIPH_WWDG           RCC_APB1ENR_WWDGEN
 219:Drivers/STM32F4xx_HAL_Driver/Inc/stm32f4xx_ll_bus.h **** #if defined(SPI2)
 220:Drivers/STM32F4xx_HAL_Driver/Inc/stm32f4xx_ll_bus.h **** #define LL_APB1_GRP1_PERIPH_SPI2           RCC_APB1ENR_SPI2EN
 221:Drivers/STM32F4xx_HAL_Driver/Inc/stm32f4xx_ll_bus.h **** #endif /* SPI2 */
 222:Drivers/STM32F4xx_HAL_Driver/Inc/stm32f4xx_ll_bus.h **** #if defined(SPI3)
 223:Drivers/STM32F4xx_HAL_Driver/Inc/stm32f4xx_ll_bus.h **** #define LL_APB1_GRP1_PERIPH_SPI3           RCC_APB1ENR_SPI3EN
 224:Drivers/STM32F4xx_HAL_Driver/Inc/stm32f4xx_ll_bus.h **** #endif /* SPI3 */
 225:Drivers/STM32F4xx_HAL_Driver/Inc/stm32f4xx_ll_bus.h **** #if defined(SPDIFRX)
 226:Drivers/STM32F4xx_HAL_Driver/Inc/stm32f4xx_ll_bus.h **** #define LL_APB1_GRP1_PERIPH_SPDIFRX        RCC_APB1ENR_SPDIFRXEN
 227:Drivers/STM32F4xx_HAL_Driver/Inc/stm32f4xx_ll_bus.h **** #endif /* SPDIFRX */
 228:Drivers/STM32F4xx_HAL_Driver/Inc/stm32f4xx_ll_bus.h **** #define LL_APB1_GRP1_PERIPH_USART2         RCC_APB1ENR_USART2EN
 229:Drivers/STM32F4xx_HAL_Driver/Inc/stm32f4xx_ll_bus.h **** #if defined(USART3)
 230:Drivers/STM32F4xx_HAL_Driver/Inc/stm32f4xx_ll_bus.h **** #define LL_APB1_GRP1_PERIPH_USART3         RCC_APB1ENR_USART3EN
 231:Drivers/STM32F4xx_HAL_Driver/Inc/stm32f4xx_ll_bus.h **** #endif /* USART3 */
 232:Drivers/STM32F4xx_HAL_Driver/Inc/stm32f4xx_ll_bus.h **** #if defined(UART4)
 233:Drivers/STM32F4xx_HAL_Driver/Inc/stm32f4xx_ll_bus.h **** #define LL_APB1_GRP1_PERIPH_UART4          RCC_APB1ENR_UART4EN
 234:Drivers/STM32F4xx_HAL_Driver/Inc/stm32f4xx_ll_bus.h **** #endif /* UART4 */
 235:Drivers/STM32F4xx_HAL_Driver/Inc/stm32f4xx_ll_bus.h **** #if defined(UART5)
 236:Drivers/STM32F4xx_HAL_Driver/Inc/stm32f4xx_ll_bus.h **** #define LL_APB1_GRP1_PERIPH_UART5          RCC_APB1ENR_UART5EN
 237:Drivers/STM32F4xx_HAL_Driver/Inc/stm32f4xx_ll_bus.h **** #endif /* UART5 */
 238:Drivers/STM32F4xx_HAL_Driver/Inc/stm32f4xx_ll_bus.h **** #define LL_APB1_GRP1_PERIPH_I2C1           RCC_APB1ENR_I2C1EN
 239:Drivers/STM32F4xx_HAL_Driver/Inc/stm32f4xx_ll_bus.h **** #define LL_APB1_GRP1_PERIPH_I2C2           RCC_APB1ENR_I2C2EN
ARM GAS  C:\Users\7636~1\AppData\Local\Temp\ccHxmuM0.s 			page 20


 240:Drivers/STM32F4xx_HAL_Driver/Inc/stm32f4xx_ll_bus.h **** #if defined(I2C3)
 241:Drivers/STM32F4xx_HAL_Driver/Inc/stm32f4xx_ll_bus.h **** #define LL_APB1_GRP1_PERIPH_I2C3           RCC_APB1ENR_I2C3EN
 242:Drivers/STM32F4xx_HAL_Driver/Inc/stm32f4xx_ll_bus.h **** #endif /* I2C3 */
 243:Drivers/STM32F4xx_HAL_Driver/Inc/stm32f4xx_ll_bus.h **** #if defined(FMPI2C1)
 244:Drivers/STM32F4xx_HAL_Driver/Inc/stm32f4xx_ll_bus.h **** #define LL_APB1_GRP1_PERIPH_FMPI2C1        RCC_APB1ENR_FMPI2C1EN
 245:Drivers/STM32F4xx_HAL_Driver/Inc/stm32f4xx_ll_bus.h **** #endif /* FMPI2C1 */
 246:Drivers/STM32F4xx_HAL_Driver/Inc/stm32f4xx_ll_bus.h **** #if defined(CAN1)
 247:Drivers/STM32F4xx_HAL_Driver/Inc/stm32f4xx_ll_bus.h **** #define LL_APB1_GRP1_PERIPH_CAN1           RCC_APB1ENR_CAN1EN
 248:Drivers/STM32F4xx_HAL_Driver/Inc/stm32f4xx_ll_bus.h **** #endif /* CAN1 */
 249:Drivers/STM32F4xx_HAL_Driver/Inc/stm32f4xx_ll_bus.h **** #if defined(CAN2)
 250:Drivers/STM32F4xx_HAL_Driver/Inc/stm32f4xx_ll_bus.h **** #define LL_APB1_GRP1_PERIPH_CAN2           RCC_APB1ENR_CAN2EN
 251:Drivers/STM32F4xx_HAL_Driver/Inc/stm32f4xx_ll_bus.h **** #endif /* CAN2 */
 252:Drivers/STM32F4xx_HAL_Driver/Inc/stm32f4xx_ll_bus.h **** #if defined(CAN3)
 253:Drivers/STM32F4xx_HAL_Driver/Inc/stm32f4xx_ll_bus.h **** #define LL_APB1_GRP1_PERIPH_CAN3           RCC_APB1ENR_CAN3EN
 254:Drivers/STM32F4xx_HAL_Driver/Inc/stm32f4xx_ll_bus.h **** #endif /* CAN3 */
 255:Drivers/STM32F4xx_HAL_Driver/Inc/stm32f4xx_ll_bus.h **** #if defined(CEC)
 256:Drivers/STM32F4xx_HAL_Driver/Inc/stm32f4xx_ll_bus.h **** #define LL_APB1_GRP1_PERIPH_CEC            RCC_APB1ENR_CECEN
 257:Drivers/STM32F4xx_HAL_Driver/Inc/stm32f4xx_ll_bus.h **** #endif /* CEC */
 258:Drivers/STM32F4xx_HAL_Driver/Inc/stm32f4xx_ll_bus.h **** #define LL_APB1_GRP1_PERIPH_PWR            RCC_APB1ENR_PWREN
 259:Drivers/STM32F4xx_HAL_Driver/Inc/stm32f4xx_ll_bus.h **** #if defined(DAC1)
 260:Drivers/STM32F4xx_HAL_Driver/Inc/stm32f4xx_ll_bus.h **** #define LL_APB1_GRP1_PERIPH_DAC1           RCC_APB1ENR_DACEN
 261:Drivers/STM32F4xx_HAL_Driver/Inc/stm32f4xx_ll_bus.h **** #endif /* DAC1 */
 262:Drivers/STM32F4xx_HAL_Driver/Inc/stm32f4xx_ll_bus.h **** #if defined(UART7)
 263:Drivers/STM32F4xx_HAL_Driver/Inc/stm32f4xx_ll_bus.h **** #define LL_APB1_GRP1_PERIPH_UART7          RCC_APB1ENR_UART7EN
 264:Drivers/STM32F4xx_HAL_Driver/Inc/stm32f4xx_ll_bus.h **** #endif /* UART7 */
 265:Drivers/STM32F4xx_HAL_Driver/Inc/stm32f4xx_ll_bus.h **** #if defined(UART8)
 266:Drivers/STM32F4xx_HAL_Driver/Inc/stm32f4xx_ll_bus.h **** #define LL_APB1_GRP1_PERIPH_UART8          RCC_APB1ENR_UART8EN
 267:Drivers/STM32F4xx_HAL_Driver/Inc/stm32f4xx_ll_bus.h **** #endif /* UART8 */
 268:Drivers/STM32F4xx_HAL_Driver/Inc/stm32f4xx_ll_bus.h **** /**
 269:Drivers/STM32F4xx_HAL_Driver/Inc/stm32f4xx_ll_bus.h ****   * @}
 270:Drivers/STM32F4xx_HAL_Driver/Inc/stm32f4xx_ll_bus.h ****   */
 271:Drivers/STM32F4xx_HAL_Driver/Inc/stm32f4xx_ll_bus.h **** 
 272:Drivers/STM32F4xx_HAL_Driver/Inc/stm32f4xx_ll_bus.h **** /** @defgroup BUS_LL_EC_APB2_GRP1_PERIPH  APB2 GRP1 PERIPH
 273:Drivers/STM32F4xx_HAL_Driver/Inc/stm32f4xx_ll_bus.h ****   * @{
 274:Drivers/STM32F4xx_HAL_Driver/Inc/stm32f4xx_ll_bus.h ****   */
 275:Drivers/STM32F4xx_HAL_Driver/Inc/stm32f4xx_ll_bus.h **** #define LL_APB2_GRP1_PERIPH_ALL          0xFFFFFFFFU
 276:Drivers/STM32F4xx_HAL_Driver/Inc/stm32f4xx_ll_bus.h **** #define LL_APB2_GRP1_PERIPH_TIM1         RCC_APB2ENR_TIM1EN
 277:Drivers/STM32F4xx_HAL_Driver/Inc/stm32f4xx_ll_bus.h **** #if defined(TIM8)
 278:Drivers/STM32F4xx_HAL_Driver/Inc/stm32f4xx_ll_bus.h **** #define LL_APB2_GRP1_PERIPH_TIM8         RCC_APB2ENR_TIM8EN
 279:Drivers/STM32F4xx_HAL_Driver/Inc/stm32f4xx_ll_bus.h **** #endif /* TIM8 */
 280:Drivers/STM32F4xx_HAL_Driver/Inc/stm32f4xx_ll_bus.h **** #define LL_APB2_GRP1_PERIPH_USART1       RCC_APB2ENR_USART1EN
 281:Drivers/STM32F4xx_HAL_Driver/Inc/stm32f4xx_ll_bus.h **** #if defined(USART6)
 282:Drivers/STM32F4xx_HAL_Driver/Inc/stm32f4xx_ll_bus.h **** #define LL_APB2_GRP1_PERIPH_USART6       RCC_APB2ENR_USART6EN
 283:Drivers/STM32F4xx_HAL_Driver/Inc/stm32f4xx_ll_bus.h **** #endif /* USART6 */
 284:Drivers/STM32F4xx_HAL_Driver/Inc/stm32f4xx_ll_bus.h **** #if defined(UART9)
 285:Drivers/STM32F4xx_HAL_Driver/Inc/stm32f4xx_ll_bus.h **** #define LL_APB2_GRP1_PERIPH_UART9        RCC_APB2ENR_UART9EN
 286:Drivers/STM32F4xx_HAL_Driver/Inc/stm32f4xx_ll_bus.h **** #endif /* UART9 */
 287:Drivers/STM32F4xx_HAL_Driver/Inc/stm32f4xx_ll_bus.h **** #if defined(UART10)
 288:Drivers/STM32F4xx_HAL_Driver/Inc/stm32f4xx_ll_bus.h **** #define LL_APB2_GRP1_PERIPH_UART10       RCC_APB2ENR_UART10EN
 289:Drivers/STM32F4xx_HAL_Driver/Inc/stm32f4xx_ll_bus.h **** #endif /* UART10 */
 290:Drivers/STM32F4xx_HAL_Driver/Inc/stm32f4xx_ll_bus.h **** #define LL_APB2_GRP1_PERIPH_ADC1         RCC_APB2ENR_ADC1EN
 291:Drivers/STM32F4xx_HAL_Driver/Inc/stm32f4xx_ll_bus.h **** #if defined(ADC2)
 292:Drivers/STM32F4xx_HAL_Driver/Inc/stm32f4xx_ll_bus.h **** #define LL_APB2_GRP1_PERIPH_ADC2         RCC_APB2ENR_ADC2EN
 293:Drivers/STM32F4xx_HAL_Driver/Inc/stm32f4xx_ll_bus.h **** #endif /* ADC2 */
 294:Drivers/STM32F4xx_HAL_Driver/Inc/stm32f4xx_ll_bus.h **** #if defined(ADC3)
 295:Drivers/STM32F4xx_HAL_Driver/Inc/stm32f4xx_ll_bus.h **** #define LL_APB2_GRP1_PERIPH_ADC3         RCC_APB2ENR_ADC3EN
 296:Drivers/STM32F4xx_HAL_Driver/Inc/stm32f4xx_ll_bus.h **** #endif /* ADC3 */
ARM GAS  C:\Users\7636~1\AppData\Local\Temp\ccHxmuM0.s 			page 21


 297:Drivers/STM32F4xx_HAL_Driver/Inc/stm32f4xx_ll_bus.h **** #if defined(SDIO)
 298:Drivers/STM32F4xx_HAL_Driver/Inc/stm32f4xx_ll_bus.h **** #define LL_APB2_GRP1_PERIPH_SDIO         RCC_APB2ENR_SDIOEN
 299:Drivers/STM32F4xx_HAL_Driver/Inc/stm32f4xx_ll_bus.h **** #endif /* SDIO */
 300:Drivers/STM32F4xx_HAL_Driver/Inc/stm32f4xx_ll_bus.h **** #define LL_APB2_GRP1_PERIPH_SPI1         RCC_APB2ENR_SPI1EN
 301:Drivers/STM32F4xx_HAL_Driver/Inc/stm32f4xx_ll_bus.h **** #if defined(SPI4)
 302:Drivers/STM32F4xx_HAL_Driver/Inc/stm32f4xx_ll_bus.h **** #define LL_APB2_GRP1_PERIPH_SPI4         RCC_APB2ENR_SPI4EN
 303:Drivers/STM32F4xx_HAL_Driver/Inc/stm32f4xx_ll_bus.h **** #endif /* SPI4 */
 304:Drivers/STM32F4xx_HAL_Driver/Inc/stm32f4xx_ll_bus.h **** #define LL_APB2_GRP1_PERIPH_SYSCFG       RCC_APB2ENR_SYSCFGEN
 305:Drivers/STM32F4xx_HAL_Driver/Inc/stm32f4xx_ll_bus.h **** #if defined(RCC_APB2ENR_EXTITEN)
 306:Drivers/STM32F4xx_HAL_Driver/Inc/stm32f4xx_ll_bus.h **** #define LL_APB2_GRP1_PERIPH_EXTI         RCC_APB2ENR_EXTITEN
 307:Drivers/STM32F4xx_HAL_Driver/Inc/stm32f4xx_ll_bus.h **** #endif /* RCC_APB2ENR_EXTITEN */
 308:Drivers/STM32F4xx_HAL_Driver/Inc/stm32f4xx_ll_bus.h **** #define LL_APB2_GRP1_PERIPH_TIM9         RCC_APB2ENR_TIM9EN
 309:Drivers/STM32F4xx_HAL_Driver/Inc/stm32f4xx_ll_bus.h **** #if defined(TIM10)
 310:Drivers/STM32F4xx_HAL_Driver/Inc/stm32f4xx_ll_bus.h **** #define LL_APB2_GRP1_PERIPH_TIM10        RCC_APB2ENR_TIM10EN
 311:Drivers/STM32F4xx_HAL_Driver/Inc/stm32f4xx_ll_bus.h **** #endif /* TIM10 */
 312:Drivers/STM32F4xx_HAL_Driver/Inc/stm32f4xx_ll_bus.h **** #define LL_APB2_GRP1_PERIPH_TIM11        RCC_APB2ENR_TIM11EN
 313:Drivers/STM32F4xx_HAL_Driver/Inc/stm32f4xx_ll_bus.h **** #if defined(SPI5)
 314:Drivers/STM32F4xx_HAL_Driver/Inc/stm32f4xx_ll_bus.h **** #define LL_APB2_GRP1_PERIPH_SPI5         RCC_APB2ENR_SPI5EN
 315:Drivers/STM32F4xx_HAL_Driver/Inc/stm32f4xx_ll_bus.h **** #endif /* SPI5 */
 316:Drivers/STM32F4xx_HAL_Driver/Inc/stm32f4xx_ll_bus.h **** #if defined(SPI6)
 317:Drivers/STM32F4xx_HAL_Driver/Inc/stm32f4xx_ll_bus.h **** #define LL_APB2_GRP1_PERIPH_SPI6         RCC_APB2ENR_SPI6EN
 318:Drivers/STM32F4xx_HAL_Driver/Inc/stm32f4xx_ll_bus.h **** #endif /* SPI6 */
 319:Drivers/STM32F4xx_HAL_Driver/Inc/stm32f4xx_ll_bus.h **** #if defined(SAI1)
 320:Drivers/STM32F4xx_HAL_Driver/Inc/stm32f4xx_ll_bus.h **** #define LL_APB2_GRP1_PERIPH_SAI1         RCC_APB2ENR_SAI1EN
 321:Drivers/STM32F4xx_HAL_Driver/Inc/stm32f4xx_ll_bus.h **** #endif /* SAI1 */
 322:Drivers/STM32F4xx_HAL_Driver/Inc/stm32f4xx_ll_bus.h **** #if defined(SAI2)
 323:Drivers/STM32F4xx_HAL_Driver/Inc/stm32f4xx_ll_bus.h **** #define LL_APB2_GRP1_PERIPH_SAI2         RCC_APB2ENR_SAI2EN
 324:Drivers/STM32F4xx_HAL_Driver/Inc/stm32f4xx_ll_bus.h **** #endif /* SAI2 */
 325:Drivers/STM32F4xx_HAL_Driver/Inc/stm32f4xx_ll_bus.h **** #if defined(LTDC)
 326:Drivers/STM32F4xx_HAL_Driver/Inc/stm32f4xx_ll_bus.h **** #define LL_APB2_GRP1_PERIPH_LTDC         RCC_APB2ENR_LTDCEN
 327:Drivers/STM32F4xx_HAL_Driver/Inc/stm32f4xx_ll_bus.h **** #endif /* LTDC */
 328:Drivers/STM32F4xx_HAL_Driver/Inc/stm32f4xx_ll_bus.h **** #if defined(DSI)
 329:Drivers/STM32F4xx_HAL_Driver/Inc/stm32f4xx_ll_bus.h **** #define LL_APB2_GRP1_PERIPH_DSI          RCC_APB2ENR_DSIEN
 330:Drivers/STM32F4xx_HAL_Driver/Inc/stm32f4xx_ll_bus.h **** #endif /* DSI */
 331:Drivers/STM32F4xx_HAL_Driver/Inc/stm32f4xx_ll_bus.h **** #if defined(DFSDM1_Channel0)
 332:Drivers/STM32F4xx_HAL_Driver/Inc/stm32f4xx_ll_bus.h **** #define LL_APB2_GRP1_PERIPH_DFSDM1       RCC_APB2ENR_DFSDM1EN
 333:Drivers/STM32F4xx_HAL_Driver/Inc/stm32f4xx_ll_bus.h **** #endif /* DFSDM1_Channel0 */
 334:Drivers/STM32F4xx_HAL_Driver/Inc/stm32f4xx_ll_bus.h **** #if defined(DFSDM2_Channel0)
 335:Drivers/STM32F4xx_HAL_Driver/Inc/stm32f4xx_ll_bus.h **** #define LL_APB2_GRP1_PERIPH_DFSDM2       RCC_APB2ENR_DFSDM2EN
 336:Drivers/STM32F4xx_HAL_Driver/Inc/stm32f4xx_ll_bus.h **** #endif /* DFSDM2_Channel0 */
 337:Drivers/STM32F4xx_HAL_Driver/Inc/stm32f4xx_ll_bus.h **** #define LL_APB2_GRP1_PERIPH_ADC          RCC_APB2RSTR_ADCRST
 338:Drivers/STM32F4xx_HAL_Driver/Inc/stm32f4xx_ll_bus.h **** /**
 339:Drivers/STM32F4xx_HAL_Driver/Inc/stm32f4xx_ll_bus.h ****   * @}
 340:Drivers/STM32F4xx_HAL_Driver/Inc/stm32f4xx_ll_bus.h ****   */
 341:Drivers/STM32F4xx_HAL_Driver/Inc/stm32f4xx_ll_bus.h **** 
 342:Drivers/STM32F4xx_HAL_Driver/Inc/stm32f4xx_ll_bus.h **** /**
 343:Drivers/STM32F4xx_HAL_Driver/Inc/stm32f4xx_ll_bus.h ****   * @}
 344:Drivers/STM32F4xx_HAL_Driver/Inc/stm32f4xx_ll_bus.h ****   */
 345:Drivers/STM32F4xx_HAL_Driver/Inc/stm32f4xx_ll_bus.h **** 
 346:Drivers/STM32F4xx_HAL_Driver/Inc/stm32f4xx_ll_bus.h **** /* Exported macro ------------------------------------------------------------*/
 347:Drivers/STM32F4xx_HAL_Driver/Inc/stm32f4xx_ll_bus.h **** /* Exported functions --------------------------------------------------------*/
 348:Drivers/STM32F4xx_HAL_Driver/Inc/stm32f4xx_ll_bus.h **** /** @defgroup BUS_LL_Exported_Functions BUS Exported Functions
 349:Drivers/STM32F4xx_HAL_Driver/Inc/stm32f4xx_ll_bus.h ****   * @{
 350:Drivers/STM32F4xx_HAL_Driver/Inc/stm32f4xx_ll_bus.h ****   */
 351:Drivers/STM32F4xx_HAL_Driver/Inc/stm32f4xx_ll_bus.h **** 
 352:Drivers/STM32F4xx_HAL_Driver/Inc/stm32f4xx_ll_bus.h **** /** @defgroup BUS_LL_EF_AHB1 AHB1
 353:Drivers/STM32F4xx_HAL_Driver/Inc/stm32f4xx_ll_bus.h ****   * @{
ARM GAS  C:\Users\7636~1\AppData\Local\Temp\ccHxmuM0.s 			page 22


 354:Drivers/STM32F4xx_HAL_Driver/Inc/stm32f4xx_ll_bus.h ****   */
 355:Drivers/STM32F4xx_HAL_Driver/Inc/stm32f4xx_ll_bus.h **** 
 356:Drivers/STM32F4xx_HAL_Driver/Inc/stm32f4xx_ll_bus.h **** /**
 357:Drivers/STM32F4xx_HAL_Driver/Inc/stm32f4xx_ll_bus.h ****   * @brief  Enable AHB1 peripherals clock.
 358:Drivers/STM32F4xx_HAL_Driver/Inc/stm32f4xx_ll_bus.h ****   * @rmtoll AHB1ENR      GPIOAEN            LL_AHB1_GRP1_EnableClock\n
 359:Drivers/STM32F4xx_HAL_Driver/Inc/stm32f4xx_ll_bus.h ****   *         AHB1ENR      GPIOBEN            LL_AHB1_GRP1_EnableClock\n
 360:Drivers/STM32F4xx_HAL_Driver/Inc/stm32f4xx_ll_bus.h ****   *         AHB1ENR      GPIOCEN            LL_AHB1_GRP1_EnableClock\n
 361:Drivers/STM32F4xx_HAL_Driver/Inc/stm32f4xx_ll_bus.h ****   *         AHB1ENR      GPIODEN            LL_AHB1_GRP1_EnableClock\n
 362:Drivers/STM32F4xx_HAL_Driver/Inc/stm32f4xx_ll_bus.h ****   *         AHB1ENR      GPIOEEN            LL_AHB1_GRP1_EnableClock\n
 363:Drivers/STM32F4xx_HAL_Driver/Inc/stm32f4xx_ll_bus.h ****   *         AHB1ENR      GPIOFEN            LL_AHB1_GRP1_EnableClock\n
 364:Drivers/STM32F4xx_HAL_Driver/Inc/stm32f4xx_ll_bus.h ****   *         AHB1ENR      GPIOGEN            LL_AHB1_GRP1_EnableClock\n
 365:Drivers/STM32F4xx_HAL_Driver/Inc/stm32f4xx_ll_bus.h ****   *         AHB1ENR      GPIOHEN            LL_AHB1_GRP1_EnableClock\n
 366:Drivers/STM32F4xx_HAL_Driver/Inc/stm32f4xx_ll_bus.h ****   *         AHB1ENR      GPIOIEN            LL_AHB1_GRP1_EnableClock\n
 367:Drivers/STM32F4xx_HAL_Driver/Inc/stm32f4xx_ll_bus.h ****   *         AHB1ENR      GPIOJEN            LL_AHB1_GRP1_EnableClock\n
 368:Drivers/STM32F4xx_HAL_Driver/Inc/stm32f4xx_ll_bus.h ****   *         AHB1ENR      GPIOKEN            LL_AHB1_GRP1_EnableClock\n
 369:Drivers/STM32F4xx_HAL_Driver/Inc/stm32f4xx_ll_bus.h ****   *         AHB1ENR      CRCEN              LL_AHB1_GRP1_EnableClock\n
 370:Drivers/STM32F4xx_HAL_Driver/Inc/stm32f4xx_ll_bus.h ****   *         AHB1ENR      BKPSRAMEN          LL_AHB1_GRP1_EnableClock\n
 371:Drivers/STM32F4xx_HAL_Driver/Inc/stm32f4xx_ll_bus.h ****   *         AHB1ENR      CCMDATARAMEN       LL_AHB1_GRP1_EnableClock\n
 372:Drivers/STM32F4xx_HAL_Driver/Inc/stm32f4xx_ll_bus.h ****   *         AHB1ENR      DMA1EN             LL_AHB1_GRP1_EnableClock\n
 373:Drivers/STM32F4xx_HAL_Driver/Inc/stm32f4xx_ll_bus.h ****   *         AHB1ENR      DMA2EN             LL_AHB1_GRP1_EnableClock\n
 374:Drivers/STM32F4xx_HAL_Driver/Inc/stm32f4xx_ll_bus.h ****   *         AHB1ENR      RNGEN              LL_AHB1_GRP1_EnableClock\n
 375:Drivers/STM32F4xx_HAL_Driver/Inc/stm32f4xx_ll_bus.h ****   *         AHB1ENR      DMA2DEN            LL_AHB1_GRP1_EnableClock\n
 376:Drivers/STM32F4xx_HAL_Driver/Inc/stm32f4xx_ll_bus.h ****   *         AHB1ENR      ETHMACEN           LL_AHB1_GRP1_EnableClock\n
 377:Drivers/STM32F4xx_HAL_Driver/Inc/stm32f4xx_ll_bus.h ****   *         AHB1ENR      ETHMACTXEN         LL_AHB1_GRP1_EnableClock\n
 378:Drivers/STM32F4xx_HAL_Driver/Inc/stm32f4xx_ll_bus.h ****   *         AHB1ENR      ETHMACRXEN         LL_AHB1_GRP1_EnableClock\n
 379:Drivers/STM32F4xx_HAL_Driver/Inc/stm32f4xx_ll_bus.h ****   *         AHB1ENR      ETHMACPTPEN        LL_AHB1_GRP1_EnableClock\n
 380:Drivers/STM32F4xx_HAL_Driver/Inc/stm32f4xx_ll_bus.h ****   *         AHB1ENR      OTGHSEN            LL_AHB1_GRP1_EnableClock\n
 381:Drivers/STM32F4xx_HAL_Driver/Inc/stm32f4xx_ll_bus.h ****   *         AHB1ENR      OTGHSULPIEN        LL_AHB1_GRP1_EnableClock
 382:Drivers/STM32F4xx_HAL_Driver/Inc/stm32f4xx_ll_bus.h ****   * @param  Periphs This parameter can be a combination of the following values:
 383:Drivers/STM32F4xx_HAL_Driver/Inc/stm32f4xx_ll_bus.h ****   *         @arg @ref LL_AHB1_GRP1_PERIPH_GPIOA
 384:Drivers/STM32F4xx_HAL_Driver/Inc/stm32f4xx_ll_bus.h ****   *         @arg @ref LL_AHB1_GRP1_PERIPH_GPIOB
 385:Drivers/STM32F4xx_HAL_Driver/Inc/stm32f4xx_ll_bus.h ****   *         @arg @ref LL_AHB1_GRP1_PERIPH_GPIOC
 386:Drivers/STM32F4xx_HAL_Driver/Inc/stm32f4xx_ll_bus.h ****   *         @arg @ref LL_AHB1_GRP1_PERIPH_GPIOD (*)
 387:Drivers/STM32F4xx_HAL_Driver/Inc/stm32f4xx_ll_bus.h ****   *         @arg @ref LL_AHB1_GRP1_PERIPH_GPIOE (*)
 388:Drivers/STM32F4xx_HAL_Driver/Inc/stm32f4xx_ll_bus.h ****   *         @arg @ref LL_AHB1_GRP1_PERIPH_GPIOF (*)
 389:Drivers/STM32F4xx_HAL_Driver/Inc/stm32f4xx_ll_bus.h ****   *         @arg @ref LL_AHB1_GRP1_PERIPH_GPIOG (*)
 390:Drivers/STM32F4xx_HAL_Driver/Inc/stm32f4xx_ll_bus.h ****   *         @arg @ref LL_AHB1_GRP1_PERIPH_GPIOH (*)
 391:Drivers/STM32F4xx_HAL_Driver/Inc/stm32f4xx_ll_bus.h ****   *         @arg @ref LL_AHB1_GRP1_PERIPH_GPIOI (*)
 392:Drivers/STM32F4xx_HAL_Driver/Inc/stm32f4xx_ll_bus.h ****   *         @arg @ref LL_AHB1_GRP1_PERIPH_GPIOJ (*)
 393:Drivers/STM32F4xx_HAL_Driver/Inc/stm32f4xx_ll_bus.h ****   *         @arg @ref LL_AHB1_GRP1_PERIPH_GPIOK (*)
 394:Drivers/STM32F4xx_HAL_Driver/Inc/stm32f4xx_ll_bus.h ****   *         @arg @ref LL_AHB1_GRP1_PERIPH_CRC
 395:Drivers/STM32F4xx_HAL_Driver/Inc/stm32f4xx_ll_bus.h ****   *         @arg @ref LL_AHB1_GRP1_PERIPH_BKPSRAM (*)
 396:Drivers/STM32F4xx_HAL_Driver/Inc/stm32f4xx_ll_bus.h ****   *         @arg @ref LL_AHB1_GRP1_PERIPH_CCMDATARAM (*)
 397:Drivers/STM32F4xx_HAL_Driver/Inc/stm32f4xx_ll_bus.h ****   *         @arg @ref LL_AHB1_GRP1_PERIPH_DMA1
 398:Drivers/STM32F4xx_HAL_Driver/Inc/stm32f4xx_ll_bus.h ****   *         @arg @ref LL_AHB1_GRP1_PERIPH_DMA2
 399:Drivers/STM32F4xx_HAL_Driver/Inc/stm32f4xx_ll_bus.h ****   *         @arg @ref LL_AHB1_GRP1_PERIPH_RNG (*)
 400:Drivers/STM32F4xx_HAL_Driver/Inc/stm32f4xx_ll_bus.h ****   *         @arg @ref LL_AHB1_GRP1_PERIPH_DMA2D (*)
 401:Drivers/STM32F4xx_HAL_Driver/Inc/stm32f4xx_ll_bus.h ****   *         @arg @ref LL_AHB1_GRP1_PERIPH_ETHMAC (*)
 402:Drivers/STM32F4xx_HAL_Driver/Inc/stm32f4xx_ll_bus.h ****   *         @arg @ref LL_AHB1_GRP1_PERIPH_ETHMACTX (*)
 403:Drivers/STM32F4xx_HAL_Driver/Inc/stm32f4xx_ll_bus.h ****   *         @arg @ref LL_AHB1_GRP1_PERIPH_ETHMACRX (*)
 404:Drivers/STM32F4xx_HAL_Driver/Inc/stm32f4xx_ll_bus.h ****   *         @arg @ref LL_AHB1_GRP1_PERIPH_ETHMACPTP (*)
 405:Drivers/STM32F4xx_HAL_Driver/Inc/stm32f4xx_ll_bus.h ****   *         @arg @ref LL_AHB1_GRP1_PERIPH_OTGHS (*)
 406:Drivers/STM32F4xx_HAL_Driver/Inc/stm32f4xx_ll_bus.h ****   *         @arg @ref LL_AHB1_GRP1_PERIPH_OTGHSULPI (*)
 407:Drivers/STM32F4xx_HAL_Driver/Inc/stm32f4xx_ll_bus.h ****   *
 408:Drivers/STM32F4xx_HAL_Driver/Inc/stm32f4xx_ll_bus.h ****   *         (*) value not defined in all devices.
 409:Drivers/STM32F4xx_HAL_Driver/Inc/stm32f4xx_ll_bus.h ****   * @retval None
 410:Drivers/STM32F4xx_HAL_Driver/Inc/stm32f4xx_ll_bus.h **** */
ARM GAS  C:\Users\7636~1\AppData\Local\Temp\ccHxmuM0.s 			page 23


 411:Drivers/STM32F4xx_HAL_Driver/Inc/stm32f4xx_ll_bus.h **** __STATIC_INLINE void LL_AHB1_GRP1_EnableClock(uint32_t Periphs)
  60              		.loc 2 411 22 view .LVU4
  61              	.LBB19:
 412:Drivers/STM32F4xx_HAL_Driver/Inc/stm32f4xx_ll_bus.h **** {
 413:Drivers/STM32F4xx_HAL_Driver/Inc/stm32f4xx_ll_bus.h ****   __IO uint32_t tmpreg;
  62              		.loc 2 413 3 view .LVU5
 414:Drivers/STM32F4xx_HAL_Driver/Inc/stm32f4xx_ll_bus.h ****   SET_BIT(RCC->AHB1ENR, Periphs);
  63              		.loc 2 414 3 view .LVU6
  64 0012 304B     		ldr	r3, .L3
  65 0014 1A6B     		ldr	r2, [r3, #48]
  66 0016 42F00402 		orr	r2, r2, #4
  67 001a 1A63     		str	r2, [r3, #48]
 415:Drivers/STM32F4xx_HAL_Driver/Inc/stm32f4xx_ll_bus.h ****   /* Delay after an RCC peripheral clock enabling */
 416:Drivers/STM32F4xx_HAL_Driver/Inc/stm32f4xx_ll_bus.h ****   tmpreg = READ_BIT(RCC->AHB1ENR, Periphs);
  68              		.loc 2 416 3 view .LVU7
  69              		.loc 2 416 12 is_stmt 0 view .LVU8
  70 001c 1A6B     		ldr	r2, [r3, #48]
  71 001e 02F00402 		and	r2, r2, #4
  72              		.loc 2 416 10 view .LVU9
  73 0022 0392     		str	r2, [sp, #12]
 417:Drivers/STM32F4xx_HAL_Driver/Inc/stm32f4xx_ll_bus.h ****   (void)tmpreg;
  74              		.loc 2 417 3 is_stmt 1 view .LVU10
  75 0024 039A     		ldr	r2, [sp, #12]
  76              	.LVL1:
  77              		.loc 2 417 3 is_stmt 0 view .LVU11
  78              	.LBE19:
  79              	.LBE18:
 787:Src/main.cpp  ****   LL_AHB1_GRP1_EnableClock(LL_AHB1_GRP1_PERIPH_GPIOH);
  80              		.loc 1 787 3 is_stmt 1 view .LVU12
  81              	.LBB20:
  82              	.LBI20:
 411:Drivers/STM32F4xx_HAL_Driver/Inc/stm32f4xx_ll_bus.h **** {
  83              		.loc 2 411 22 view .LVU13
  84              	.LBB21:
 413:Drivers/STM32F4xx_HAL_Driver/Inc/stm32f4xx_ll_bus.h ****   SET_BIT(RCC->AHB1ENR, Periphs);
  85              		.loc 2 413 3 view .LVU14
 414:Drivers/STM32F4xx_HAL_Driver/Inc/stm32f4xx_ll_bus.h ****   /* Delay after an RCC peripheral clock enabling */
  86              		.loc 2 414 3 view .LVU15
  87 0026 1A6B     		ldr	r2, [r3, #48]
  88 0028 42F08002 		orr	r2, r2, #128
  89 002c 1A63     		str	r2, [r3, #48]
 416:Drivers/STM32F4xx_HAL_Driver/Inc/stm32f4xx_ll_bus.h ****   (void)tmpreg;
  90              		.loc 2 416 3 view .LVU16
 416:Drivers/STM32F4xx_HAL_Driver/Inc/stm32f4xx_ll_bus.h ****   (void)tmpreg;
  91              		.loc 2 416 12 is_stmt 0 view .LVU17
  92 002e 1A6B     		ldr	r2, [r3, #48]
  93 0030 02F08002 		and	r2, r2, #128
 416:Drivers/STM32F4xx_HAL_Driver/Inc/stm32f4xx_ll_bus.h ****   (void)tmpreg;
  94              		.loc 2 416 10 view .LVU18
  95 0034 0292     		str	r2, [sp, #8]
  96              		.loc 2 417 3 is_stmt 1 view .LVU19
  97 0036 029A     		ldr	r2, [sp, #8]
  98              	.LVL2:
  99              		.loc 2 417 3 is_stmt 0 view .LVU20
 100              	.LBE21:
 101              	.LBE20:
 788:Src/main.cpp  ****   LL_AHB1_GRP1_EnableClock(LL_AHB1_GRP1_PERIPH_GPIOA);
ARM GAS  C:\Users\7636~1\AppData\Local\Temp\ccHxmuM0.s 			page 24


 102              		.loc 1 788 3 is_stmt 1 view .LVU21
 103              	.LBB22:
 104              	.LBI22:
 411:Drivers/STM32F4xx_HAL_Driver/Inc/stm32f4xx_ll_bus.h **** {
 105              		.loc 2 411 22 view .LVU22
 106              	.LBB23:
 413:Drivers/STM32F4xx_HAL_Driver/Inc/stm32f4xx_ll_bus.h ****   SET_BIT(RCC->AHB1ENR, Periphs);
 107              		.loc 2 413 3 view .LVU23
 414:Drivers/STM32F4xx_HAL_Driver/Inc/stm32f4xx_ll_bus.h ****   /* Delay after an RCC peripheral clock enabling */
 108              		.loc 2 414 3 view .LVU24
 109 0038 1A6B     		ldr	r2, [r3, #48]
 110 003a 42F00102 		orr	r2, r2, #1
 111 003e 1A63     		str	r2, [r3, #48]
 416:Drivers/STM32F4xx_HAL_Driver/Inc/stm32f4xx_ll_bus.h ****   (void)tmpreg;
 112              		.loc 2 416 3 view .LVU25
 416:Drivers/STM32F4xx_HAL_Driver/Inc/stm32f4xx_ll_bus.h ****   (void)tmpreg;
 113              		.loc 2 416 12 is_stmt 0 view .LVU26
 114 0040 1A6B     		ldr	r2, [r3, #48]
 115 0042 02F00102 		and	r2, r2, #1
 416:Drivers/STM32F4xx_HAL_Driver/Inc/stm32f4xx_ll_bus.h ****   (void)tmpreg;
 116              		.loc 2 416 10 view .LVU27
 117 0046 0192     		str	r2, [sp, #4]
 118              		.loc 2 417 3 is_stmt 1 view .LVU28
 119 0048 019A     		ldr	r2, [sp, #4]
 120              	.LVL3:
 121              		.loc 2 417 3 is_stmt 0 view .LVU29
 122              	.LBE23:
 123              	.LBE22:
 789:Src/main.cpp  ****   LL_AHB1_GRP1_EnableClock(LL_AHB1_GRP1_PERIPH_GPIOB);
 124              		.loc 1 789 3 is_stmt 1 view .LVU30
 125              	.LBB24:
 126              	.LBI24:
 411:Drivers/STM32F4xx_HAL_Driver/Inc/stm32f4xx_ll_bus.h **** {
 127              		.loc 2 411 22 view .LVU31
 128              	.LBB25:
 413:Drivers/STM32F4xx_HAL_Driver/Inc/stm32f4xx_ll_bus.h ****   SET_BIT(RCC->AHB1ENR, Periphs);
 129              		.loc 2 413 3 view .LVU32
 414:Drivers/STM32F4xx_HAL_Driver/Inc/stm32f4xx_ll_bus.h ****   /* Delay after an RCC peripheral clock enabling */
 130              		.loc 2 414 3 view .LVU33
 131 004a 1A6B     		ldr	r2, [r3, #48]
 132 004c 42F00202 		orr	r2, r2, #2
 133 0050 1A63     		str	r2, [r3, #48]
 416:Drivers/STM32F4xx_HAL_Driver/Inc/stm32f4xx_ll_bus.h ****   (void)tmpreg;
 134              		.loc 2 416 3 view .LVU34
 416:Drivers/STM32F4xx_HAL_Driver/Inc/stm32f4xx_ll_bus.h ****   (void)tmpreg;
 135              		.loc 2 416 12 is_stmt 0 view .LVU35
 136 0052 1B6B     		ldr	r3, [r3, #48]
 137 0054 03F00203 		and	r3, r3, #2
 416:Drivers/STM32F4xx_HAL_Driver/Inc/stm32f4xx_ll_bus.h ****   (void)tmpreg;
 138              		.loc 2 416 10 view .LVU36
 139 0058 0093     		str	r3, [sp]
 140              		.loc 2 417 3 is_stmt 1 view .LVU37
 141 005a 009B     		ldr	r3, [sp]
 142              	.LVL4:
 143              		.loc 2 417 3 is_stmt 0 view .LVU38
 144              	.LBE25:
 145              	.LBE24:
ARM GAS  C:\Users\7636~1\AppData\Local\Temp\ccHxmuM0.s 			page 25


 790:Src/main.cpp  **** 
 791:Src/main.cpp  ****   /**/
 792:Src/main.cpp  ****   LL_GPIO_ResetOutputPin(MASTER_ENABLE_GPIO_Port, MASTER_ENABLE_Pin);
 146              		.loc 1 792 3 is_stmt 1 view .LVU39
 147              	.LBB26:
 148              	.LBI26:
 149              		.file 3 "Drivers/STM32F4xx_HAL_Driver/Inc/stm32f4xx_ll_gpio.h"
   1:Drivers/STM32F4xx_HAL_Driver/Inc/stm32f4xx_ll_gpio.h **** /**
   2:Drivers/STM32F4xx_HAL_Driver/Inc/stm32f4xx_ll_gpio.h ****   ******************************************************************************
   3:Drivers/STM32F4xx_HAL_Driver/Inc/stm32f4xx_ll_gpio.h ****   * @file    stm32f4xx_ll_gpio.h
   4:Drivers/STM32F4xx_HAL_Driver/Inc/stm32f4xx_ll_gpio.h ****   * @author  MCD Application Team
   5:Drivers/STM32F4xx_HAL_Driver/Inc/stm32f4xx_ll_gpio.h ****   * @brief   Header file of GPIO LL module.
   6:Drivers/STM32F4xx_HAL_Driver/Inc/stm32f4xx_ll_gpio.h ****   ******************************************************************************
   7:Drivers/STM32F4xx_HAL_Driver/Inc/stm32f4xx_ll_gpio.h ****   * @attention
   8:Drivers/STM32F4xx_HAL_Driver/Inc/stm32f4xx_ll_gpio.h ****   *
   9:Drivers/STM32F4xx_HAL_Driver/Inc/stm32f4xx_ll_gpio.h ****   * <h2><center>&copy; Copyright (c) 2017 STMicroelectronics.
  10:Drivers/STM32F4xx_HAL_Driver/Inc/stm32f4xx_ll_gpio.h ****   * All rights reserved.</center></h2>
  11:Drivers/STM32F4xx_HAL_Driver/Inc/stm32f4xx_ll_gpio.h ****   *
  12:Drivers/STM32F4xx_HAL_Driver/Inc/stm32f4xx_ll_gpio.h ****   * This software component is licensed by ST under BSD 3-Clause license,
  13:Drivers/STM32F4xx_HAL_Driver/Inc/stm32f4xx_ll_gpio.h ****   * the "License"; You may not use this file except in compliance with the
  14:Drivers/STM32F4xx_HAL_Driver/Inc/stm32f4xx_ll_gpio.h ****   * License. You may obtain a copy of the License at:
  15:Drivers/STM32F4xx_HAL_Driver/Inc/stm32f4xx_ll_gpio.h ****   *                        opensource.org/licenses/BSD-3-Clause
  16:Drivers/STM32F4xx_HAL_Driver/Inc/stm32f4xx_ll_gpio.h ****   *
  17:Drivers/STM32F4xx_HAL_Driver/Inc/stm32f4xx_ll_gpio.h ****   ******************************************************************************
  18:Drivers/STM32F4xx_HAL_Driver/Inc/stm32f4xx_ll_gpio.h ****   */
  19:Drivers/STM32F4xx_HAL_Driver/Inc/stm32f4xx_ll_gpio.h **** 
  20:Drivers/STM32F4xx_HAL_Driver/Inc/stm32f4xx_ll_gpio.h **** /* Define to prevent recursive inclusion -------------------------------------*/
  21:Drivers/STM32F4xx_HAL_Driver/Inc/stm32f4xx_ll_gpio.h **** #ifndef __STM32F4xx_LL_GPIO_H
  22:Drivers/STM32F4xx_HAL_Driver/Inc/stm32f4xx_ll_gpio.h **** #define __STM32F4xx_LL_GPIO_H
  23:Drivers/STM32F4xx_HAL_Driver/Inc/stm32f4xx_ll_gpio.h **** 
  24:Drivers/STM32F4xx_HAL_Driver/Inc/stm32f4xx_ll_gpio.h **** #ifdef __cplusplus
  25:Drivers/STM32F4xx_HAL_Driver/Inc/stm32f4xx_ll_gpio.h **** extern "C" {
  26:Drivers/STM32F4xx_HAL_Driver/Inc/stm32f4xx_ll_gpio.h **** #endif
  27:Drivers/STM32F4xx_HAL_Driver/Inc/stm32f4xx_ll_gpio.h **** 
  28:Drivers/STM32F4xx_HAL_Driver/Inc/stm32f4xx_ll_gpio.h **** /* Includes ------------------------------------------------------------------*/
  29:Drivers/STM32F4xx_HAL_Driver/Inc/stm32f4xx_ll_gpio.h **** #include "stm32f4xx.h"
  30:Drivers/STM32F4xx_HAL_Driver/Inc/stm32f4xx_ll_gpio.h **** 
  31:Drivers/STM32F4xx_HAL_Driver/Inc/stm32f4xx_ll_gpio.h **** /** @addtogroup STM32F4xx_LL_Driver
  32:Drivers/STM32F4xx_HAL_Driver/Inc/stm32f4xx_ll_gpio.h ****   * @{
  33:Drivers/STM32F4xx_HAL_Driver/Inc/stm32f4xx_ll_gpio.h ****   */
  34:Drivers/STM32F4xx_HAL_Driver/Inc/stm32f4xx_ll_gpio.h **** 
  35:Drivers/STM32F4xx_HAL_Driver/Inc/stm32f4xx_ll_gpio.h **** #if defined (GPIOA) || defined (GPIOB) || defined (GPIOC) || defined (GPIOD) || defined (GPIOE) || 
  36:Drivers/STM32F4xx_HAL_Driver/Inc/stm32f4xx_ll_gpio.h **** 
  37:Drivers/STM32F4xx_HAL_Driver/Inc/stm32f4xx_ll_gpio.h **** /** @defgroup GPIO_LL GPIO
  38:Drivers/STM32F4xx_HAL_Driver/Inc/stm32f4xx_ll_gpio.h ****   * @{
  39:Drivers/STM32F4xx_HAL_Driver/Inc/stm32f4xx_ll_gpio.h ****   */
  40:Drivers/STM32F4xx_HAL_Driver/Inc/stm32f4xx_ll_gpio.h **** 
  41:Drivers/STM32F4xx_HAL_Driver/Inc/stm32f4xx_ll_gpio.h **** /* Private types -------------------------------------------------------------*/
  42:Drivers/STM32F4xx_HAL_Driver/Inc/stm32f4xx_ll_gpio.h **** /* Private variables ---------------------------------------------------------*/
  43:Drivers/STM32F4xx_HAL_Driver/Inc/stm32f4xx_ll_gpio.h **** /* Private constants ---------------------------------------------------------*/
  44:Drivers/STM32F4xx_HAL_Driver/Inc/stm32f4xx_ll_gpio.h **** /* Private macros ------------------------------------------------------------*/
  45:Drivers/STM32F4xx_HAL_Driver/Inc/stm32f4xx_ll_gpio.h **** #if defined(USE_FULL_LL_DRIVER)
  46:Drivers/STM32F4xx_HAL_Driver/Inc/stm32f4xx_ll_gpio.h **** /** @defgroup GPIO_LL_Private_Macros GPIO Private Macros
  47:Drivers/STM32F4xx_HAL_Driver/Inc/stm32f4xx_ll_gpio.h ****   * @{
  48:Drivers/STM32F4xx_HAL_Driver/Inc/stm32f4xx_ll_gpio.h ****   */
  49:Drivers/STM32F4xx_HAL_Driver/Inc/stm32f4xx_ll_gpio.h **** 
  50:Drivers/STM32F4xx_HAL_Driver/Inc/stm32f4xx_ll_gpio.h **** /**
ARM GAS  C:\Users\7636~1\AppData\Local\Temp\ccHxmuM0.s 			page 26


  51:Drivers/STM32F4xx_HAL_Driver/Inc/stm32f4xx_ll_gpio.h ****   * @}
  52:Drivers/STM32F4xx_HAL_Driver/Inc/stm32f4xx_ll_gpio.h ****   */
  53:Drivers/STM32F4xx_HAL_Driver/Inc/stm32f4xx_ll_gpio.h **** #endif /*USE_FULL_LL_DRIVER*/
  54:Drivers/STM32F4xx_HAL_Driver/Inc/stm32f4xx_ll_gpio.h **** 
  55:Drivers/STM32F4xx_HAL_Driver/Inc/stm32f4xx_ll_gpio.h **** /* Exported types ------------------------------------------------------------*/
  56:Drivers/STM32F4xx_HAL_Driver/Inc/stm32f4xx_ll_gpio.h **** #if defined(USE_FULL_LL_DRIVER)
  57:Drivers/STM32F4xx_HAL_Driver/Inc/stm32f4xx_ll_gpio.h **** /** @defgroup GPIO_LL_ES_INIT GPIO Exported Init structures
  58:Drivers/STM32F4xx_HAL_Driver/Inc/stm32f4xx_ll_gpio.h ****   * @{
  59:Drivers/STM32F4xx_HAL_Driver/Inc/stm32f4xx_ll_gpio.h ****   */
  60:Drivers/STM32F4xx_HAL_Driver/Inc/stm32f4xx_ll_gpio.h **** 
  61:Drivers/STM32F4xx_HAL_Driver/Inc/stm32f4xx_ll_gpio.h **** /**
  62:Drivers/STM32F4xx_HAL_Driver/Inc/stm32f4xx_ll_gpio.h ****   * @brief LL GPIO Init Structure definition
  63:Drivers/STM32F4xx_HAL_Driver/Inc/stm32f4xx_ll_gpio.h ****   */
  64:Drivers/STM32F4xx_HAL_Driver/Inc/stm32f4xx_ll_gpio.h **** typedef struct
  65:Drivers/STM32F4xx_HAL_Driver/Inc/stm32f4xx_ll_gpio.h **** {
  66:Drivers/STM32F4xx_HAL_Driver/Inc/stm32f4xx_ll_gpio.h ****   uint32_t Pin;          /*!< Specifies the GPIO pins to be configured.
  67:Drivers/STM32F4xx_HAL_Driver/Inc/stm32f4xx_ll_gpio.h ****                               This parameter can be any value of @ref GPIO_LL_EC_PIN */
  68:Drivers/STM32F4xx_HAL_Driver/Inc/stm32f4xx_ll_gpio.h **** 
  69:Drivers/STM32F4xx_HAL_Driver/Inc/stm32f4xx_ll_gpio.h ****   uint32_t Mode;         /*!< Specifies the operating mode for the selected pins.
  70:Drivers/STM32F4xx_HAL_Driver/Inc/stm32f4xx_ll_gpio.h ****                               This parameter can be a value of @ref GPIO_LL_EC_MODE.
  71:Drivers/STM32F4xx_HAL_Driver/Inc/stm32f4xx_ll_gpio.h **** 
  72:Drivers/STM32F4xx_HAL_Driver/Inc/stm32f4xx_ll_gpio.h ****                               GPIO HW configuration can be modified afterwards using unitary functi
  73:Drivers/STM32F4xx_HAL_Driver/Inc/stm32f4xx_ll_gpio.h **** 
  74:Drivers/STM32F4xx_HAL_Driver/Inc/stm32f4xx_ll_gpio.h ****   uint32_t Speed;        /*!< Specifies the speed for the selected pins.
  75:Drivers/STM32F4xx_HAL_Driver/Inc/stm32f4xx_ll_gpio.h ****                               This parameter can be a value of @ref GPIO_LL_EC_SPEED.
  76:Drivers/STM32F4xx_HAL_Driver/Inc/stm32f4xx_ll_gpio.h **** 
  77:Drivers/STM32F4xx_HAL_Driver/Inc/stm32f4xx_ll_gpio.h ****                               GPIO HW configuration can be modified afterwards using unitary functi
  78:Drivers/STM32F4xx_HAL_Driver/Inc/stm32f4xx_ll_gpio.h **** 
  79:Drivers/STM32F4xx_HAL_Driver/Inc/stm32f4xx_ll_gpio.h ****   uint32_t OutputType;   /*!< Specifies the operating output type for the selected pins.
  80:Drivers/STM32F4xx_HAL_Driver/Inc/stm32f4xx_ll_gpio.h ****                               This parameter can be a value of @ref GPIO_LL_EC_OUTPUT.
  81:Drivers/STM32F4xx_HAL_Driver/Inc/stm32f4xx_ll_gpio.h **** 
  82:Drivers/STM32F4xx_HAL_Driver/Inc/stm32f4xx_ll_gpio.h ****                               GPIO HW configuration can be modified afterwards using unitary functi
  83:Drivers/STM32F4xx_HAL_Driver/Inc/stm32f4xx_ll_gpio.h **** 
  84:Drivers/STM32F4xx_HAL_Driver/Inc/stm32f4xx_ll_gpio.h ****   uint32_t Pull;         /*!< Specifies the operating Pull-up/Pull down for the selected pins.
  85:Drivers/STM32F4xx_HAL_Driver/Inc/stm32f4xx_ll_gpio.h ****                               This parameter can be a value of @ref GPIO_LL_EC_PULL.
  86:Drivers/STM32F4xx_HAL_Driver/Inc/stm32f4xx_ll_gpio.h **** 
  87:Drivers/STM32F4xx_HAL_Driver/Inc/stm32f4xx_ll_gpio.h ****                               GPIO HW configuration can be modified afterwards using unitary functi
  88:Drivers/STM32F4xx_HAL_Driver/Inc/stm32f4xx_ll_gpio.h **** 
  89:Drivers/STM32F4xx_HAL_Driver/Inc/stm32f4xx_ll_gpio.h ****   uint32_t Alternate;    /*!< Specifies the Peripheral to be connected to the selected pins.
  90:Drivers/STM32F4xx_HAL_Driver/Inc/stm32f4xx_ll_gpio.h ****                               This parameter can be a value of @ref GPIO_LL_EC_AF.
  91:Drivers/STM32F4xx_HAL_Driver/Inc/stm32f4xx_ll_gpio.h **** 
  92:Drivers/STM32F4xx_HAL_Driver/Inc/stm32f4xx_ll_gpio.h ****                               GPIO HW configuration can be modified afterwards using unitary functi
  93:Drivers/STM32F4xx_HAL_Driver/Inc/stm32f4xx_ll_gpio.h **** } LL_GPIO_InitTypeDef;
  94:Drivers/STM32F4xx_HAL_Driver/Inc/stm32f4xx_ll_gpio.h **** 
  95:Drivers/STM32F4xx_HAL_Driver/Inc/stm32f4xx_ll_gpio.h **** /**
  96:Drivers/STM32F4xx_HAL_Driver/Inc/stm32f4xx_ll_gpio.h ****   * @}
  97:Drivers/STM32F4xx_HAL_Driver/Inc/stm32f4xx_ll_gpio.h ****   */
  98:Drivers/STM32F4xx_HAL_Driver/Inc/stm32f4xx_ll_gpio.h **** #endif /* USE_FULL_LL_DRIVER */
  99:Drivers/STM32F4xx_HAL_Driver/Inc/stm32f4xx_ll_gpio.h **** 
 100:Drivers/STM32F4xx_HAL_Driver/Inc/stm32f4xx_ll_gpio.h **** /* Exported constants --------------------------------------------------------*/
 101:Drivers/STM32F4xx_HAL_Driver/Inc/stm32f4xx_ll_gpio.h **** /** @defgroup GPIO_LL_Exported_Constants GPIO Exported Constants
 102:Drivers/STM32F4xx_HAL_Driver/Inc/stm32f4xx_ll_gpio.h ****   * @{
 103:Drivers/STM32F4xx_HAL_Driver/Inc/stm32f4xx_ll_gpio.h ****   */
 104:Drivers/STM32F4xx_HAL_Driver/Inc/stm32f4xx_ll_gpio.h **** 
 105:Drivers/STM32F4xx_HAL_Driver/Inc/stm32f4xx_ll_gpio.h **** /** @defgroup GPIO_LL_EC_PIN PIN
 106:Drivers/STM32F4xx_HAL_Driver/Inc/stm32f4xx_ll_gpio.h ****   * @{
 107:Drivers/STM32F4xx_HAL_Driver/Inc/stm32f4xx_ll_gpio.h ****   */
ARM GAS  C:\Users\7636~1\AppData\Local\Temp\ccHxmuM0.s 			page 27


 108:Drivers/STM32F4xx_HAL_Driver/Inc/stm32f4xx_ll_gpio.h **** #define LL_GPIO_PIN_0                      GPIO_BSRR_BS_0 /*!< Select pin 0 */
 109:Drivers/STM32F4xx_HAL_Driver/Inc/stm32f4xx_ll_gpio.h **** #define LL_GPIO_PIN_1                      GPIO_BSRR_BS_1 /*!< Select pin 1 */
 110:Drivers/STM32F4xx_HAL_Driver/Inc/stm32f4xx_ll_gpio.h **** #define LL_GPIO_PIN_2                      GPIO_BSRR_BS_2 /*!< Select pin 2 */
 111:Drivers/STM32F4xx_HAL_Driver/Inc/stm32f4xx_ll_gpio.h **** #define LL_GPIO_PIN_3                      GPIO_BSRR_BS_3 /*!< Select pin 3 */
 112:Drivers/STM32F4xx_HAL_Driver/Inc/stm32f4xx_ll_gpio.h **** #define LL_GPIO_PIN_4                      GPIO_BSRR_BS_4 /*!< Select pin 4 */
 113:Drivers/STM32F4xx_HAL_Driver/Inc/stm32f4xx_ll_gpio.h **** #define LL_GPIO_PIN_5                      GPIO_BSRR_BS_5 /*!< Select pin 5 */
 114:Drivers/STM32F4xx_HAL_Driver/Inc/stm32f4xx_ll_gpio.h **** #define LL_GPIO_PIN_6                      GPIO_BSRR_BS_6 /*!< Select pin 6 */
 115:Drivers/STM32F4xx_HAL_Driver/Inc/stm32f4xx_ll_gpio.h **** #define LL_GPIO_PIN_7                      GPIO_BSRR_BS_7 /*!< Select pin 7 */
 116:Drivers/STM32F4xx_HAL_Driver/Inc/stm32f4xx_ll_gpio.h **** #define LL_GPIO_PIN_8                      GPIO_BSRR_BS_8 /*!< Select pin 8 */
 117:Drivers/STM32F4xx_HAL_Driver/Inc/stm32f4xx_ll_gpio.h **** #define LL_GPIO_PIN_9                      GPIO_BSRR_BS_9 /*!< Select pin 9 */
 118:Drivers/STM32F4xx_HAL_Driver/Inc/stm32f4xx_ll_gpio.h **** #define LL_GPIO_PIN_10                     GPIO_BSRR_BS_10 /*!< Select pin 10 */
 119:Drivers/STM32F4xx_HAL_Driver/Inc/stm32f4xx_ll_gpio.h **** #define LL_GPIO_PIN_11                     GPIO_BSRR_BS_11 /*!< Select pin 11 */
 120:Drivers/STM32F4xx_HAL_Driver/Inc/stm32f4xx_ll_gpio.h **** #define LL_GPIO_PIN_12                     GPIO_BSRR_BS_12 /*!< Select pin 12 */
 121:Drivers/STM32F4xx_HAL_Driver/Inc/stm32f4xx_ll_gpio.h **** #define LL_GPIO_PIN_13                     GPIO_BSRR_BS_13 /*!< Select pin 13 */
 122:Drivers/STM32F4xx_HAL_Driver/Inc/stm32f4xx_ll_gpio.h **** #define LL_GPIO_PIN_14                     GPIO_BSRR_BS_14 /*!< Select pin 14 */
 123:Drivers/STM32F4xx_HAL_Driver/Inc/stm32f4xx_ll_gpio.h **** #define LL_GPIO_PIN_15                     GPIO_BSRR_BS_15 /*!< Select pin 15 */
 124:Drivers/STM32F4xx_HAL_Driver/Inc/stm32f4xx_ll_gpio.h **** #define LL_GPIO_PIN_ALL                    (GPIO_BSRR_BS_0 | GPIO_BSRR_BS_1  | GPIO_BSRR_BS_2  | \
 125:Drivers/STM32F4xx_HAL_Driver/Inc/stm32f4xx_ll_gpio.h ****                                            GPIO_BSRR_BS_3  | GPIO_BSRR_BS_4  | GPIO_BSRR_BS_5  | \
 126:Drivers/STM32F4xx_HAL_Driver/Inc/stm32f4xx_ll_gpio.h ****                                            GPIO_BSRR_BS_6  | GPIO_BSRR_BS_7  | GPIO_BSRR_BS_8  | \
 127:Drivers/STM32F4xx_HAL_Driver/Inc/stm32f4xx_ll_gpio.h ****                                            GPIO_BSRR_BS_9  | GPIO_BSRR_BS_10 | GPIO_BSRR_BS_11 | \
 128:Drivers/STM32F4xx_HAL_Driver/Inc/stm32f4xx_ll_gpio.h ****                                            GPIO_BSRR_BS_12 | GPIO_BSRR_BS_13 | GPIO_BSRR_BS_14 | \
 129:Drivers/STM32F4xx_HAL_Driver/Inc/stm32f4xx_ll_gpio.h ****                                            GPIO_BSRR_BS_15) /*!< Select all pins */
 130:Drivers/STM32F4xx_HAL_Driver/Inc/stm32f4xx_ll_gpio.h **** /**
 131:Drivers/STM32F4xx_HAL_Driver/Inc/stm32f4xx_ll_gpio.h ****   * @}
 132:Drivers/STM32F4xx_HAL_Driver/Inc/stm32f4xx_ll_gpio.h ****   */
 133:Drivers/STM32F4xx_HAL_Driver/Inc/stm32f4xx_ll_gpio.h **** 
 134:Drivers/STM32F4xx_HAL_Driver/Inc/stm32f4xx_ll_gpio.h **** /** @defgroup GPIO_LL_EC_MODE Mode
 135:Drivers/STM32F4xx_HAL_Driver/Inc/stm32f4xx_ll_gpio.h ****   * @{
 136:Drivers/STM32F4xx_HAL_Driver/Inc/stm32f4xx_ll_gpio.h ****   */
 137:Drivers/STM32F4xx_HAL_Driver/Inc/stm32f4xx_ll_gpio.h **** #define LL_GPIO_MODE_INPUT                 (0x00000000U) /*!< Select input mode */
 138:Drivers/STM32F4xx_HAL_Driver/Inc/stm32f4xx_ll_gpio.h **** #define LL_GPIO_MODE_OUTPUT                GPIO_MODER_MODER0_0  /*!< Select output mode */
 139:Drivers/STM32F4xx_HAL_Driver/Inc/stm32f4xx_ll_gpio.h **** #define LL_GPIO_MODE_ALTERNATE             GPIO_MODER_MODER0_1  /*!< Select alternate function mode
 140:Drivers/STM32F4xx_HAL_Driver/Inc/stm32f4xx_ll_gpio.h **** #define LL_GPIO_MODE_ANALOG                GPIO_MODER_MODER0    /*!< Select analog mode */
 141:Drivers/STM32F4xx_HAL_Driver/Inc/stm32f4xx_ll_gpio.h **** /**
 142:Drivers/STM32F4xx_HAL_Driver/Inc/stm32f4xx_ll_gpio.h ****   * @}
 143:Drivers/STM32F4xx_HAL_Driver/Inc/stm32f4xx_ll_gpio.h ****   */
 144:Drivers/STM32F4xx_HAL_Driver/Inc/stm32f4xx_ll_gpio.h **** 
 145:Drivers/STM32F4xx_HAL_Driver/Inc/stm32f4xx_ll_gpio.h **** /** @defgroup GPIO_LL_EC_OUTPUT Output Type
 146:Drivers/STM32F4xx_HAL_Driver/Inc/stm32f4xx_ll_gpio.h ****   * @{
 147:Drivers/STM32F4xx_HAL_Driver/Inc/stm32f4xx_ll_gpio.h ****   */
 148:Drivers/STM32F4xx_HAL_Driver/Inc/stm32f4xx_ll_gpio.h **** #define LL_GPIO_OUTPUT_PUSHPULL            (0x00000000U) /*!< Select push-pull as output type */
 149:Drivers/STM32F4xx_HAL_Driver/Inc/stm32f4xx_ll_gpio.h **** #define LL_GPIO_OUTPUT_OPENDRAIN           GPIO_OTYPER_OT_0 /*!< Select open-drain as output type *
 150:Drivers/STM32F4xx_HAL_Driver/Inc/stm32f4xx_ll_gpio.h **** /**
 151:Drivers/STM32F4xx_HAL_Driver/Inc/stm32f4xx_ll_gpio.h ****   * @}
 152:Drivers/STM32F4xx_HAL_Driver/Inc/stm32f4xx_ll_gpio.h ****   */
 153:Drivers/STM32F4xx_HAL_Driver/Inc/stm32f4xx_ll_gpio.h **** 
 154:Drivers/STM32F4xx_HAL_Driver/Inc/stm32f4xx_ll_gpio.h **** /** @defgroup GPIO_LL_EC_SPEED Output Speed
 155:Drivers/STM32F4xx_HAL_Driver/Inc/stm32f4xx_ll_gpio.h ****   * @{
 156:Drivers/STM32F4xx_HAL_Driver/Inc/stm32f4xx_ll_gpio.h ****   */
 157:Drivers/STM32F4xx_HAL_Driver/Inc/stm32f4xx_ll_gpio.h **** #define LL_GPIO_SPEED_FREQ_LOW             (0x00000000U) /*!< Select I/O low output speed    */
 158:Drivers/STM32F4xx_HAL_Driver/Inc/stm32f4xx_ll_gpio.h **** #define LL_GPIO_SPEED_FREQ_MEDIUM          GPIO_OSPEEDER_OSPEEDR0_0 /*!< Select I/O medium output s
 159:Drivers/STM32F4xx_HAL_Driver/Inc/stm32f4xx_ll_gpio.h **** #define LL_GPIO_SPEED_FREQ_HIGH            GPIO_OSPEEDER_OSPEEDR0_1 /*!< Select I/O fast output spe
 160:Drivers/STM32F4xx_HAL_Driver/Inc/stm32f4xx_ll_gpio.h **** #define LL_GPIO_SPEED_FREQ_VERY_HIGH       GPIO_OSPEEDER_OSPEEDR0   /*!< Select I/O high output spe
 161:Drivers/STM32F4xx_HAL_Driver/Inc/stm32f4xx_ll_gpio.h **** /**
 162:Drivers/STM32F4xx_HAL_Driver/Inc/stm32f4xx_ll_gpio.h ****   * @}
 163:Drivers/STM32F4xx_HAL_Driver/Inc/stm32f4xx_ll_gpio.h ****   */
 164:Drivers/STM32F4xx_HAL_Driver/Inc/stm32f4xx_ll_gpio.h **** 
ARM GAS  C:\Users\7636~1\AppData\Local\Temp\ccHxmuM0.s 			page 28


 165:Drivers/STM32F4xx_HAL_Driver/Inc/stm32f4xx_ll_gpio.h **** /** @defgroup GPIO_LL_EC_PULL Pull Up Pull Down
 166:Drivers/STM32F4xx_HAL_Driver/Inc/stm32f4xx_ll_gpio.h ****   * @{
 167:Drivers/STM32F4xx_HAL_Driver/Inc/stm32f4xx_ll_gpio.h ****   */
 168:Drivers/STM32F4xx_HAL_Driver/Inc/stm32f4xx_ll_gpio.h **** #define LL_GPIO_PULL_NO                    (0x00000000U) /*!< Select I/O no pull */
 169:Drivers/STM32F4xx_HAL_Driver/Inc/stm32f4xx_ll_gpio.h **** #define LL_GPIO_PULL_UP                    GPIO_PUPDR_PUPDR0_0 /*!< Select I/O pull up */
 170:Drivers/STM32F4xx_HAL_Driver/Inc/stm32f4xx_ll_gpio.h **** #define LL_GPIO_PULL_DOWN                  GPIO_PUPDR_PUPDR0_1 /*!< Select I/O pull down */
 171:Drivers/STM32F4xx_HAL_Driver/Inc/stm32f4xx_ll_gpio.h **** /**
 172:Drivers/STM32F4xx_HAL_Driver/Inc/stm32f4xx_ll_gpio.h ****   * @}
 173:Drivers/STM32F4xx_HAL_Driver/Inc/stm32f4xx_ll_gpio.h ****   */
 174:Drivers/STM32F4xx_HAL_Driver/Inc/stm32f4xx_ll_gpio.h **** 
 175:Drivers/STM32F4xx_HAL_Driver/Inc/stm32f4xx_ll_gpio.h **** /** @defgroup GPIO_LL_EC_AF Alternate Function
 176:Drivers/STM32F4xx_HAL_Driver/Inc/stm32f4xx_ll_gpio.h ****   * @{
 177:Drivers/STM32F4xx_HAL_Driver/Inc/stm32f4xx_ll_gpio.h ****   */
 178:Drivers/STM32F4xx_HAL_Driver/Inc/stm32f4xx_ll_gpio.h **** #define LL_GPIO_AF_0                       (0x0000000U) /*!< Select alternate function 0 */
 179:Drivers/STM32F4xx_HAL_Driver/Inc/stm32f4xx_ll_gpio.h **** #define LL_GPIO_AF_1                       (0x0000001U) /*!< Select alternate function 1 */
 180:Drivers/STM32F4xx_HAL_Driver/Inc/stm32f4xx_ll_gpio.h **** #define LL_GPIO_AF_2                       (0x0000002U) /*!< Select alternate function 2 */
 181:Drivers/STM32F4xx_HAL_Driver/Inc/stm32f4xx_ll_gpio.h **** #define LL_GPIO_AF_3                       (0x0000003U) /*!< Select alternate function 3 */
 182:Drivers/STM32F4xx_HAL_Driver/Inc/stm32f4xx_ll_gpio.h **** #define LL_GPIO_AF_4                       (0x0000004U) /*!< Select alternate function 4 */
 183:Drivers/STM32F4xx_HAL_Driver/Inc/stm32f4xx_ll_gpio.h **** #define LL_GPIO_AF_5                       (0x0000005U) /*!< Select alternate function 5 */
 184:Drivers/STM32F4xx_HAL_Driver/Inc/stm32f4xx_ll_gpio.h **** #define LL_GPIO_AF_6                       (0x0000006U) /*!< Select alternate function 6 */
 185:Drivers/STM32F4xx_HAL_Driver/Inc/stm32f4xx_ll_gpio.h **** #define LL_GPIO_AF_7                       (0x0000007U) /*!< Select alternate function 7 */
 186:Drivers/STM32F4xx_HAL_Driver/Inc/stm32f4xx_ll_gpio.h **** #define LL_GPIO_AF_8                       (0x0000008U) /*!< Select alternate function 8 */
 187:Drivers/STM32F4xx_HAL_Driver/Inc/stm32f4xx_ll_gpio.h **** #define LL_GPIO_AF_9                       (0x0000009U) /*!< Select alternate function 9 */
 188:Drivers/STM32F4xx_HAL_Driver/Inc/stm32f4xx_ll_gpio.h **** #define LL_GPIO_AF_10                      (0x000000AU) /*!< Select alternate function 10 */
 189:Drivers/STM32F4xx_HAL_Driver/Inc/stm32f4xx_ll_gpio.h **** #define LL_GPIO_AF_11                      (0x000000BU) /*!< Select alternate function 11 */
 190:Drivers/STM32F4xx_HAL_Driver/Inc/stm32f4xx_ll_gpio.h **** #define LL_GPIO_AF_12                      (0x000000CU) /*!< Select alternate function 12 */
 191:Drivers/STM32F4xx_HAL_Driver/Inc/stm32f4xx_ll_gpio.h **** #define LL_GPIO_AF_13                      (0x000000DU) /*!< Select alternate function 13 */
 192:Drivers/STM32F4xx_HAL_Driver/Inc/stm32f4xx_ll_gpio.h **** #define LL_GPIO_AF_14                      (0x000000EU) /*!< Select alternate function 14 */
 193:Drivers/STM32F4xx_HAL_Driver/Inc/stm32f4xx_ll_gpio.h **** #define LL_GPIO_AF_15                      (0x000000FU) /*!< Select alternate function 15 */
 194:Drivers/STM32F4xx_HAL_Driver/Inc/stm32f4xx_ll_gpio.h **** /**
 195:Drivers/STM32F4xx_HAL_Driver/Inc/stm32f4xx_ll_gpio.h ****   * @}
 196:Drivers/STM32F4xx_HAL_Driver/Inc/stm32f4xx_ll_gpio.h ****   */
 197:Drivers/STM32F4xx_HAL_Driver/Inc/stm32f4xx_ll_gpio.h **** 
 198:Drivers/STM32F4xx_HAL_Driver/Inc/stm32f4xx_ll_gpio.h **** /**
 199:Drivers/STM32F4xx_HAL_Driver/Inc/stm32f4xx_ll_gpio.h ****   * @}
 200:Drivers/STM32F4xx_HAL_Driver/Inc/stm32f4xx_ll_gpio.h ****   */
 201:Drivers/STM32F4xx_HAL_Driver/Inc/stm32f4xx_ll_gpio.h **** 
 202:Drivers/STM32F4xx_HAL_Driver/Inc/stm32f4xx_ll_gpio.h **** /* Exported macro ------------------------------------------------------------*/
 203:Drivers/STM32F4xx_HAL_Driver/Inc/stm32f4xx_ll_gpio.h **** /** @defgroup GPIO_LL_Exported_Macros GPIO Exported Macros
 204:Drivers/STM32F4xx_HAL_Driver/Inc/stm32f4xx_ll_gpio.h ****   * @{
 205:Drivers/STM32F4xx_HAL_Driver/Inc/stm32f4xx_ll_gpio.h ****   */
 206:Drivers/STM32F4xx_HAL_Driver/Inc/stm32f4xx_ll_gpio.h **** 
 207:Drivers/STM32F4xx_HAL_Driver/Inc/stm32f4xx_ll_gpio.h **** /** @defgroup GPIO_LL_EM_WRITE_READ Common Write and read registers Macros
 208:Drivers/STM32F4xx_HAL_Driver/Inc/stm32f4xx_ll_gpio.h ****   * @{
 209:Drivers/STM32F4xx_HAL_Driver/Inc/stm32f4xx_ll_gpio.h ****   */
 210:Drivers/STM32F4xx_HAL_Driver/Inc/stm32f4xx_ll_gpio.h **** 
 211:Drivers/STM32F4xx_HAL_Driver/Inc/stm32f4xx_ll_gpio.h **** /**
 212:Drivers/STM32F4xx_HAL_Driver/Inc/stm32f4xx_ll_gpio.h ****   * @brief  Write a value in GPIO register
 213:Drivers/STM32F4xx_HAL_Driver/Inc/stm32f4xx_ll_gpio.h ****   * @param  __INSTANCE__ GPIO Instance
 214:Drivers/STM32F4xx_HAL_Driver/Inc/stm32f4xx_ll_gpio.h ****   * @param  __REG__ Register to be written
 215:Drivers/STM32F4xx_HAL_Driver/Inc/stm32f4xx_ll_gpio.h ****   * @param  __VALUE__ Value to be written in the register
 216:Drivers/STM32F4xx_HAL_Driver/Inc/stm32f4xx_ll_gpio.h ****   * @retval None
 217:Drivers/STM32F4xx_HAL_Driver/Inc/stm32f4xx_ll_gpio.h ****   */
 218:Drivers/STM32F4xx_HAL_Driver/Inc/stm32f4xx_ll_gpio.h **** #define LL_GPIO_WriteReg(__INSTANCE__, __REG__, __VALUE__) WRITE_REG(__INSTANCE__->__REG__, (__VALU
 219:Drivers/STM32F4xx_HAL_Driver/Inc/stm32f4xx_ll_gpio.h **** 
 220:Drivers/STM32F4xx_HAL_Driver/Inc/stm32f4xx_ll_gpio.h **** /**
 221:Drivers/STM32F4xx_HAL_Driver/Inc/stm32f4xx_ll_gpio.h ****   * @brief  Read a value in GPIO register
ARM GAS  C:\Users\7636~1\AppData\Local\Temp\ccHxmuM0.s 			page 29


 222:Drivers/STM32F4xx_HAL_Driver/Inc/stm32f4xx_ll_gpio.h ****   * @param  __INSTANCE__ GPIO Instance
 223:Drivers/STM32F4xx_HAL_Driver/Inc/stm32f4xx_ll_gpio.h ****   * @param  __REG__ Register to be read
 224:Drivers/STM32F4xx_HAL_Driver/Inc/stm32f4xx_ll_gpio.h ****   * @retval Register value
 225:Drivers/STM32F4xx_HAL_Driver/Inc/stm32f4xx_ll_gpio.h ****   */
 226:Drivers/STM32F4xx_HAL_Driver/Inc/stm32f4xx_ll_gpio.h **** #define LL_GPIO_ReadReg(__INSTANCE__, __REG__) READ_REG(__INSTANCE__->__REG__)
 227:Drivers/STM32F4xx_HAL_Driver/Inc/stm32f4xx_ll_gpio.h **** /**
 228:Drivers/STM32F4xx_HAL_Driver/Inc/stm32f4xx_ll_gpio.h ****   * @}
 229:Drivers/STM32F4xx_HAL_Driver/Inc/stm32f4xx_ll_gpio.h ****   */
 230:Drivers/STM32F4xx_HAL_Driver/Inc/stm32f4xx_ll_gpio.h **** 
 231:Drivers/STM32F4xx_HAL_Driver/Inc/stm32f4xx_ll_gpio.h **** /**
 232:Drivers/STM32F4xx_HAL_Driver/Inc/stm32f4xx_ll_gpio.h ****   * @}
 233:Drivers/STM32F4xx_HAL_Driver/Inc/stm32f4xx_ll_gpio.h ****   */
 234:Drivers/STM32F4xx_HAL_Driver/Inc/stm32f4xx_ll_gpio.h **** 
 235:Drivers/STM32F4xx_HAL_Driver/Inc/stm32f4xx_ll_gpio.h **** /* Exported functions --------------------------------------------------------*/
 236:Drivers/STM32F4xx_HAL_Driver/Inc/stm32f4xx_ll_gpio.h **** /** @defgroup GPIO_LL_Exported_Functions GPIO Exported Functions
 237:Drivers/STM32F4xx_HAL_Driver/Inc/stm32f4xx_ll_gpio.h ****   * @{
 238:Drivers/STM32F4xx_HAL_Driver/Inc/stm32f4xx_ll_gpio.h ****   */
 239:Drivers/STM32F4xx_HAL_Driver/Inc/stm32f4xx_ll_gpio.h **** 
 240:Drivers/STM32F4xx_HAL_Driver/Inc/stm32f4xx_ll_gpio.h **** /** @defgroup GPIO_LL_EF_Port_Configuration Port Configuration
 241:Drivers/STM32F4xx_HAL_Driver/Inc/stm32f4xx_ll_gpio.h ****   * @{
 242:Drivers/STM32F4xx_HAL_Driver/Inc/stm32f4xx_ll_gpio.h ****   */
 243:Drivers/STM32F4xx_HAL_Driver/Inc/stm32f4xx_ll_gpio.h **** 
 244:Drivers/STM32F4xx_HAL_Driver/Inc/stm32f4xx_ll_gpio.h **** /**
 245:Drivers/STM32F4xx_HAL_Driver/Inc/stm32f4xx_ll_gpio.h ****   * @brief  Configure gpio mode for a dedicated pin on dedicated port.
 246:Drivers/STM32F4xx_HAL_Driver/Inc/stm32f4xx_ll_gpio.h ****   * @note   I/O mode can be Input mode, General purpose output, Alternate function mode or Analog.
 247:Drivers/STM32F4xx_HAL_Driver/Inc/stm32f4xx_ll_gpio.h ****   * @note   Warning: only one pin can be passed as parameter.
 248:Drivers/STM32F4xx_HAL_Driver/Inc/stm32f4xx_ll_gpio.h ****   * @rmtoll MODER        MODEy         LL_GPIO_SetPinMode
 249:Drivers/STM32F4xx_HAL_Driver/Inc/stm32f4xx_ll_gpio.h ****   * @param  GPIOx GPIO Port
 250:Drivers/STM32F4xx_HAL_Driver/Inc/stm32f4xx_ll_gpio.h ****   * @param  Pin This parameter can be one of the following values:
 251:Drivers/STM32F4xx_HAL_Driver/Inc/stm32f4xx_ll_gpio.h ****   *         @arg @ref LL_GPIO_PIN_0
 252:Drivers/STM32F4xx_HAL_Driver/Inc/stm32f4xx_ll_gpio.h ****   *         @arg @ref LL_GPIO_PIN_1
 253:Drivers/STM32F4xx_HAL_Driver/Inc/stm32f4xx_ll_gpio.h ****   *         @arg @ref LL_GPIO_PIN_2
 254:Drivers/STM32F4xx_HAL_Driver/Inc/stm32f4xx_ll_gpio.h ****   *         @arg @ref LL_GPIO_PIN_3
 255:Drivers/STM32F4xx_HAL_Driver/Inc/stm32f4xx_ll_gpio.h ****   *         @arg @ref LL_GPIO_PIN_4
 256:Drivers/STM32F4xx_HAL_Driver/Inc/stm32f4xx_ll_gpio.h ****   *         @arg @ref LL_GPIO_PIN_5
 257:Drivers/STM32F4xx_HAL_Driver/Inc/stm32f4xx_ll_gpio.h ****   *         @arg @ref LL_GPIO_PIN_6
 258:Drivers/STM32F4xx_HAL_Driver/Inc/stm32f4xx_ll_gpio.h ****   *         @arg @ref LL_GPIO_PIN_7
 259:Drivers/STM32F4xx_HAL_Driver/Inc/stm32f4xx_ll_gpio.h ****   *         @arg @ref LL_GPIO_PIN_8
 260:Drivers/STM32F4xx_HAL_Driver/Inc/stm32f4xx_ll_gpio.h ****   *         @arg @ref LL_GPIO_PIN_9
 261:Drivers/STM32F4xx_HAL_Driver/Inc/stm32f4xx_ll_gpio.h ****   *         @arg @ref LL_GPIO_PIN_10
 262:Drivers/STM32F4xx_HAL_Driver/Inc/stm32f4xx_ll_gpio.h ****   *         @arg @ref LL_GPIO_PIN_11
 263:Drivers/STM32F4xx_HAL_Driver/Inc/stm32f4xx_ll_gpio.h ****   *         @arg @ref LL_GPIO_PIN_12
 264:Drivers/STM32F4xx_HAL_Driver/Inc/stm32f4xx_ll_gpio.h ****   *         @arg @ref LL_GPIO_PIN_13
 265:Drivers/STM32F4xx_HAL_Driver/Inc/stm32f4xx_ll_gpio.h ****   *         @arg @ref LL_GPIO_PIN_14
 266:Drivers/STM32F4xx_HAL_Driver/Inc/stm32f4xx_ll_gpio.h ****   *         @arg @ref LL_GPIO_PIN_15
 267:Drivers/STM32F4xx_HAL_Driver/Inc/stm32f4xx_ll_gpio.h ****   * @param  Mode This parameter can be one of the following values:
 268:Drivers/STM32F4xx_HAL_Driver/Inc/stm32f4xx_ll_gpio.h ****   *         @arg @ref LL_GPIO_MODE_INPUT
 269:Drivers/STM32F4xx_HAL_Driver/Inc/stm32f4xx_ll_gpio.h ****   *         @arg @ref LL_GPIO_MODE_OUTPUT
 270:Drivers/STM32F4xx_HAL_Driver/Inc/stm32f4xx_ll_gpio.h ****   *         @arg @ref LL_GPIO_MODE_ALTERNATE
 271:Drivers/STM32F4xx_HAL_Driver/Inc/stm32f4xx_ll_gpio.h ****   *         @arg @ref LL_GPIO_MODE_ANALOG
 272:Drivers/STM32F4xx_HAL_Driver/Inc/stm32f4xx_ll_gpio.h ****   * @retval None
 273:Drivers/STM32F4xx_HAL_Driver/Inc/stm32f4xx_ll_gpio.h ****   */
 274:Drivers/STM32F4xx_HAL_Driver/Inc/stm32f4xx_ll_gpio.h **** __STATIC_INLINE void LL_GPIO_SetPinMode(GPIO_TypeDef *GPIOx, uint32_t Pin, uint32_t Mode)
 275:Drivers/STM32F4xx_HAL_Driver/Inc/stm32f4xx_ll_gpio.h **** {
 276:Drivers/STM32F4xx_HAL_Driver/Inc/stm32f4xx_ll_gpio.h ****   MODIFY_REG(GPIOx->MODER, (GPIO_MODER_MODER0 << (POSITION_VAL(Pin) * 2U)), (Mode << (POSITION_VAL(
 277:Drivers/STM32F4xx_HAL_Driver/Inc/stm32f4xx_ll_gpio.h **** }
 278:Drivers/STM32F4xx_HAL_Driver/Inc/stm32f4xx_ll_gpio.h **** 
ARM GAS  C:\Users\7636~1\AppData\Local\Temp\ccHxmuM0.s 			page 30


 279:Drivers/STM32F4xx_HAL_Driver/Inc/stm32f4xx_ll_gpio.h **** /**
 280:Drivers/STM32F4xx_HAL_Driver/Inc/stm32f4xx_ll_gpio.h ****   * @brief  Return gpio mode for a dedicated pin on dedicated port.
 281:Drivers/STM32F4xx_HAL_Driver/Inc/stm32f4xx_ll_gpio.h ****   * @note   I/O mode can be Input mode, General purpose output, Alternate function mode or Analog.
 282:Drivers/STM32F4xx_HAL_Driver/Inc/stm32f4xx_ll_gpio.h ****   * @note   Warning: only one pin can be passed as parameter.
 283:Drivers/STM32F4xx_HAL_Driver/Inc/stm32f4xx_ll_gpio.h ****   * @rmtoll MODER        MODEy         LL_GPIO_GetPinMode
 284:Drivers/STM32F4xx_HAL_Driver/Inc/stm32f4xx_ll_gpio.h ****   * @param  GPIOx GPIO Port
 285:Drivers/STM32F4xx_HAL_Driver/Inc/stm32f4xx_ll_gpio.h ****   * @param  Pin This parameter can be one of the following values:
 286:Drivers/STM32F4xx_HAL_Driver/Inc/stm32f4xx_ll_gpio.h ****   *         @arg @ref LL_GPIO_PIN_0
 287:Drivers/STM32F4xx_HAL_Driver/Inc/stm32f4xx_ll_gpio.h ****   *         @arg @ref LL_GPIO_PIN_1
 288:Drivers/STM32F4xx_HAL_Driver/Inc/stm32f4xx_ll_gpio.h ****   *         @arg @ref LL_GPIO_PIN_2
 289:Drivers/STM32F4xx_HAL_Driver/Inc/stm32f4xx_ll_gpio.h ****   *         @arg @ref LL_GPIO_PIN_3
 290:Drivers/STM32F4xx_HAL_Driver/Inc/stm32f4xx_ll_gpio.h ****   *         @arg @ref LL_GPIO_PIN_4
 291:Drivers/STM32F4xx_HAL_Driver/Inc/stm32f4xx_ll_gpio.h ****   *         @arg @ref LL_GPIO_PIN_5
 292:Drivers/STM32F4xx_HAL_Driver/Inc/stm32f4xx_ll_gpio.h ****   *         @arg @ref LL_GPIO_PIN_6
 293:Drivers/STM32F4xx_HAL_Driver/Inc/stm32f4xx_ll_gpio.h ****   *         @arg @ref LL_GPIO_PIN_7
 294:Drivers/STM32F4xx_HAL_Driver/Inc/stm32f4xx_ll_gpio.h ****   *         @arg @ref LL_GPIO_PIN_8
 295:Drivers/STM32F4xx_HAL_Driver/Inc/stm32f4xx_ll_gpio.h ****   *         @arg @ref LL_GPIO_PIN_9
 296:Drivers/STM32F4xx_HAL_Driver/Inc/stm32f4xx_ll_gpio.h ****   *         @arg @ref LL_GPIO_PIN_10
 297:Drivers/STM32F4xx_HAL_Driver/Inc/stm32f4xx_ll_gpio.h ****   *         @arg @ref LL_GPIO_PIN_11
 298:Drivers/STM32F4xx_HAL_Driver/Inc/stm32f4xx_ll_gpio.h ****   *         @arg @ref LL_GPIO_PIN_12
 299:Drivers/STM32F4xx_HAL_Driver/Inc/stm32f4xx_ll_gpio.h ****   *         @arg @ref LL_GPIO_PIN_13
 300:Drivers/STM32F4xx_HAL_Driver/Inc/stm32f4xx_ll_gpio.h ****   *         @arg @ref LL_GPIO_PIN_14
 301:Drivers/STM32F4xx_HAL_Driver/Inc/stm32f4xx_ll_gpio.h ****   *         @arg @ref LL_GPIO_PIN_15
 302:Drivers/STM32F4xx_HAL_Driver/Inc/stm32f4xx_ll_gpio.h ****   * @retval Returned value can be one of the following values:
 303:Drivers/STM32F4xx_HAL_Driver/Inc/stm32f4xx_ll_gpio.h ****   *         @arg @ref LL_GPIO_MODE_INPUT
 304:Drivers/STM32F4xx_HAL_Driver/Inc/stm32f4xx_ll_gpio.h ****   *         @arg @ref LL_GPIO_MODE_OUTPUT
 305:Drivers/STM32F4xx_HAL_Driver/Inc/stm32f4xx_ll_gpio.h ****   *         @arg @ref LL_GPIO_MODE_ALTERNATE
 306:Drivers/STM32F4xx_HAL_Driver/Inc/stm32f4xx_ll_gpio.h ****   *         @arg @ref LL_GPIO_MODE_ANALOG
 307:Drivers/STM32F4xx_HAL_Driver/Inc/stm32f4xx_ll_gpio.h ****   */
 308:Drivers/STM32F4xx_HAL_Driver/Inc/stm32f4xx_ll_gpio.h **** __STATIC_INLINE uint32_t LL_GPIO_GetPinMode(GPIO_TypeDef *GPIOx, uint32_t Pin)
 309:Drivers/STM32F4xx_HAL_Driver/Inc/stm32f4xx_ll_gpio.h **** {
 310:Drivers/STM32F4xx_HAL_Driver/Inc/stm32f4xx_ll_gpio.h ****   return (uint32_t)(READ_BIT(GPIOx->MODER,
 311:Drivers/STM32F4xx_HAL_Driver/Inc/stm32f4xx_ll_gpio.h ****                              (GPIO_MODER_MODER0 << (POSITION_VAL(Pin) * 2U))) >> (POSITION_VAL(Pin)
 312:Drivers/STM32F4xx_HAL_Driver/Inc/stm32f4xx_ll_gpio.h **** }
 313:Drivers/STM32F4xx_HAL_Driver/Inc/stm32f4xx_ll_gpio.h **** 
 314:Drivers/STM32F4xx_HAL_Driver/Inc/stm32f4xx_ll_gpio.h **** /**
 315:Drivers/STM32F4xx_HAL_Driver/Inc/stm32f4xx_ll_gpio.h ****   * @brief  Configure gpio output type for several pins on dedicated port.
 316:Drivers/STM32F4xx_HAL_Driver/Inc/stm32f4xx_ll_gpio.h ****   * @note   Output type as to be set when gpio pin is in output or
 317:Drivers/STM32F4xx_HAL_Driver/Inc/stm32f4xx_ll_gpio.h ****   *         alternate modes. Possible type are Push-pull or Open-drain.
 318:Drivers/STM32F4xx_HAL_Driver/Inc/stm32f4xx_ll_gpio.h ****   * @rmtoll OTYPER       OTy           LL_GPIO_SetPinOutputType
 319:Drivers/STM32F4xx_HAL_Driver/Inc/stm32f4xx_ll_gpio.h ****   * @param  GPIOx GPIO Port
 320:Drivers/STM32F4xx_HAL_Driver/Inc/stm32f4xx_ll_gpio.h ****   * @param  PinMask This parameter can be a combination of the following values:
 321:Drivers/STM32F4xx_HAL_Driver/Inc/stm32f4xx_ll_gpio.h ****   *         @arg @ref LL_GPIO_PIN_0
 322:Drivers/STM32F4xx_HAL_Driver/Inc/stm32f4xx_ll_gpio.h ****   *         @arg @ref LL_GPIO_PIN_1
 323:Drivers/STM32F4xx_HAL_Driver/Inc/stm32f4xx_ll_gpio.h ****   *         @arg @ref LL_GPIO_PIN_2
 324:Drivers/STM32F4xx_HAL_Driver/Inc/stm32f4xx_ll_gpio.h ****   *         @arg @ref LL_GPIO_PIN_3
 325:Drivers/STM32F4xx_HAL_Driver/Inc/stm32f4xx_ll_gpio.h ****   *         @arg @ref LL_GPIO_PIN_4
 326:Drivers/STM32F4xx_HAL_Driver/Inc/stm32f4xx_ll_gpio.h ****   *         @arg @ref LL_GPIO_PIN_5
 327:Drivers/STM32F4xx_HAL_Driver/Inc/stm32f4xx_ll_gpio.h ****   *         @arg @ref LL_GPIO_PIN_6
 328:Drivers/STM32F4xx_HAL_Driver/Inc/stm32f4xx_ll_gpio.h ****   *         @arg @ref LL_GPIO_PIN_7
 329:Drivers/STM32F4xx_HAL_Driver/Inc/stm32f4xx_ll_gpio.h ****   *         @arg @ref LL_GPIO_PIN_8
 330:Drivers/STM32F4xx_HAL_Driver/Inc/stm32f4xx_ll_gpio.h ****   *         @arg @ref LL_GPIO_PIN_9
 331:Drivers/STM32F4xx_HAL_Driver/Inc/stm32f4xx_ll_gpio.h ****   *         @arg @ref LL_GPIO_PIN_10
 332:Drivers/STM32F4xx_HAL_Driver/Inc/stm32f4xx_ll_gpio.h ****   *         @arg @ref LL_GPIO_PIN_11
 333:Drivers/STM32F4xx_HAL_Driver/Inc/stm32f4xx_ll_gpio.h ****   *         @arg @ref LL_GPIO_PIN_12
 334:Drivers/STM32F4xx_HAL_Driver/Inc/stm32f4xx_ll_gpio.h ****   *         @arg @ref LL_GPIO_PIN_13
 335:Drivers/STM32F4xx_HAL_Driver/Inc/stm32f4xx_ll_gpio.h ****   *         @arg @ref LL_GPIO_PIN_14
ARM GAS  C:\Users\7636~1\AppData\Local\Temp\ccHxmuM0.s 			page 31


 336:Drivers/STM32F4xx_HAL_Driver/Inc/stm32f4xx_ll_gpio.h ****   *         @arg @ref LL_GPIO_PIN_15
 337:Drivers/STM32F4xx_HAL_Driver/Inc/stm32f4xx_ll_gpio.h ****   *         @arg @ref LL_GPIO_PIN_ALL
 338:Drivers/STM32F4xx_HAL_Driver/Inc/stm32f4xx_ll_gpio.h ****   * @param  OutputType This parameter can be one of the following values:
 339:Drivers/STM32F4xx_HAL_Driver/Inc/stm32f4xx_ll_gpio.h ****   *         @arg @ref LL_GPIO_OUTPUT_PUSHPULL
 340:Drivers/STM32F4xx_HAL_Driver/Inc/stm32f4xx_ll_gpio.h ****   *         @arg @ref LL_GPIO_OUTPUT_OPENDRAIN
 341:Drivers/STM32F4xx_HAL_Driver/Inc/stm32f4xx_ll_gpio.h ****   * @retval None
 342:Drivers/STM32F4xx_HAL_Driver/Inc/stm32f4xx_ll_gpio.h ****   */
 343:Drivers/STM32F4xx_HAL_Driver/Inc/stm32f4xx_ll_gpio.h **** __STATIC_INLINE void LL_GPIO_SetPinOutputType(GPIO_TypeDef *GPIOx, uint32_t PinMask, uint32_t Outpu
 344:Drivers/STM32F4xx_HAL_Driver/Inc/stm32f4xx_ll_gpio.h **** {
 345:Drivers/STM32F4xx_HAL_Driver/Inc/stm32f4xx_ll_gpio.h ****   MODIFY_REG(GPIOx->OTYPER, PinMask, (PinMask * OutputType));
 346:Drivers/STM32F4xx_HAL_Driver/Inc/stm32f4xx_ll_gpio.h **** }
 347:Drivers/STM32F4xx_HAL_Driver/Inc/stm32f4xx_ll_gpio.h **** 
 348:Drivers/STM32F4xx_HAL_Driver/Inc/stm32f4xx_ll_gpio.h **** /**
 349:Drivers/STM32F4xx_HAL_Driver/Inc/stm32f4xx_ll_gpio.h ****   * @brief  Return gpio output type for several pins on dedicated port.
 350:Drivers/STM32F4xx_HAL_Driver/Inc/stm32f4xx_ll_gpio.h ****   * @note   Output type as to be set when gpio pin is in output or
 351:Drivers/STM32F4xx_HAL_Driver/Inc/stm32f4xx_ll_gpio.h ****   *         alternate modes. Possible type are Push-pull or Open-drain.
 352:Drivers/STM32F4xx_HAL_Driver/Inc/stm32f4xx_ll_gpio.h ****   * @note   Warning: only one pin can be passed as parameter.
 353:Drivers/STM32F4xx_HAL_Driver/Inc/stm32f4xx_ll_gpio.h ****   * @rmtoll OTYPER       OTy           LL_GPIO_GetPinOutputType
 354:Drivers/STM32F4xx_HAL_Driver/Inc/stm32f4xx_ll_gpio.h ****   * @param  GPIOx GPIO Port
 355:Drivers/STM32F4xx_HAL_Driver/Inc/stm32f4xx_ll_gpio.h ****   * @param  Pin This parameter can be one of the following values:
 356:Drivers/STM32F4xx_HAL_Driver/Inc/stm32f4xx_ll_gpio.h ****   *         @arg @ref LL_GPIO_PIN_0
 357:Drivers/STM32F4xx_HAL_Driver/Inc/stm32f4xx_ll_gpio.h ****   *         @arg @ref LL_GPIO_PIN_1
 358:Drivers/STM32F4xx_HAL_Driver/Inc/stm32f4xx_ll_gpio.h ****   *         @arg @ref LL_GPIO_PIN_2
 359:Drivers/STM32F4xx_HAL_Driver/Inc/stm32f4xx_ll_gpio.h ****   *         @arg @ref LL_GPIO_PIN_3
 360:Drivers/STM32F4xx_HAL_Driver/Inc/stm32f4xx_ll_gpio.h ****   *         @arg @ref LL_GPIO_PIN_4
 361:Drivers/STM32F4xx_HAL_Driver/Inc/stm32f4xx_ll_gpio.h ****   *         @arg @ref LL_GPIO_PIN_5
 362:Drivers/STM32F4xx_HAL_Driver/Inc/stm32f4xx_ll_gpio.h ****   *         @arg @ref LL_GPIO_PIN_6
 363:Drivers/STM32F4xx_HAL_Driver/Inc/stm32f4xx_ll_gpio.h ****   *         @arg @ref LL_GPIO_PIN_7
 364:Drivers/STM32F4xx_HAL_Driver/Inc/stm32f4xx_ll_gpio.h ****   *         @arg @ref LL_GPIO_PIN_8
 365:Drivers/STM32F4xx_HAL_Driver/Inc/stm32f4xx_ll_gpio.h ****   *         @arg @ref LL_GPIO_PIN_9
 366:Drivers/STM32F4xx_HAL_Driver/Inc/stm32f4xx_ll_gpio.h ****   *         @arg @ref LL_GPIO_PIN_10
 367:Drivers/STM32F4xx_HAL_Driver/Inc/stm32f4xx_ll_gpio.h ****   *         @arg @ref LL_GPIO_PIN_11
 368:Drivers/STM32F4xx_HAL_Driver/Inc/stm32f4xx_ll_gpio.h ****   *         @arg @ref LL_GPIO_PIN_12
 369:Drivers/STM32F4xx_HAL_Driver/Inc/stm32f4xx_ll_gpio.h ****   *         @arg @ref LL_GPIO_PIN_13
 370:Drivers/STM32F4xx_HAL_Driver/Inc/stm32f4xx_ll_gpio.h ****   *         @arg @ref LL_GPIO_PIN_14
 371:Drivers/STM32F4xx_HAL_Driver/Inc/stm32f4xx_ll_gpio.h ****   *         @arg @ref LL_GPIO_PIN_15
 372:Drivers/STM32F4xx_HAL_Driver/Inc/stm32f4xx_ll_gpio.h ****   *         @arg @ref LL_GPIO_PIN_ALL
 373:Drivers/STM32F4xx_HAL_Driver/Inc/stm32f4xx_ll_gpio.h ****   * @retval Returned value can be one of the following values:
 374:Drivers/STM32F4xx_HAL_Driver/Inc/stm32f4xx_ll_gpio.h ****   *         @arg @ref LL_GPIO_OUTPUT_PUSHPULL
 375:Drivers/STM32F4xx_HAL_Driver/Inc/stm32f4xx_ll_gpio.h ****   *         @arg @ref LL_GPIO_OUTPUT_OPENDRAIN
 376:Drivers/STM32F4xx_HAL_Driver/Inc/stm32f4xx_ll_gpio.h ****   */
 377:Drivers/STM32F4xx_HAL_Driver/Inc/stm32f4xx_ll_gpio.h **** __STATIC_INLINE uint32_t LL_GPIO_GetPinOutputType(GPIO_TypeDef *GPIOx, uint32_t Pin)
 378:Drivers/STM32F4xx_HAL_Driver/Inc/stm32f4xx_ll_gpio.h **** {
 379:Drivers/STM32F4xx_HAL_Driver/Inc/stm32f4xx_ll_gpio.h ****   return (uint32_t)(READ_BIT(GPIOx->OTYPER, Pin) >> POSITION_VAL(Pin));
 380:Drivers/STM32F4xx_HAL_Driver/Inc/stm32f4xx_ll_gpio.h **** }
 381:Drivers/STM32F4xx_HAL_Driver/Inc/stm32f4xx_ll_gpio.h **** 
 382:Drivers/STM32F4xx_HAL_Driver/Inc/stm32f4xx_ll_gpio.h **** /**
 383:Drivers/STM32F4xx_HAL_Driver/Inc/stm32f4xx_ll_gpio.h ****   * @brief  Configure gpio speed for a dedicated pin on dedicated port.
 384:Drivers/STM32F4xx_HAL_Driver/Inc/stm32f4xx_ll_gpio.h ****   * @note   I/O speed can be Low, Medium, Fast or High speed.
 385:Drivers/STM32F4xx_HAL_Driver/Inc/stm32f4xx_ll_gpio.h ****   * @note   Warning: only one pin can be passed as parameter.
 386:Drivers/STM32F4xx_HAL_Driver/Inc/stm32f4xx_ll_gpio.h ****   * @note   Refer to datasheet for frequency specifications and the power
 387:Drivers/STM32F4xx_HAL_Driver/Inc/stm32f4xx_ll_gpio.h ****   *         supply and load conditions for each speed.
 388:Drivers/STM32F4xx_HAL_Driver/Inc/stm32f4xx_ll_gpio.h ****   * @rmtoll OSPEEDR      OSPEEDy       LL_GPIO_SetPinSpeed
 389:Drivers/STM32F4xx_HAL_Driver/Inc/stm32f4xx_ll_gpio.h ****   * @param  GPIOx GPIO Port
 390:Drivers/STM32F4xx_HAL_Driver/Inc/stm32f4xx_ll_gpio.h ****   * @param  Pin This parameter can be one of the following values:
 391:Drivers/STM32F4xx_HAL_Driver/Inc/stm32f4xx_ll_gpio.h ****   *         @arg @ref LL_GPIO_PIN_0
 392:Drivers/STM32F4xx_HAL_Driver/Inc/stm32f4xx_ll_gpio.h ****   *         @arg @ref LL_GPIO_PIN_1
ARM GAS  C:\Users\7636~1\AppData\Local\Temp\ccHxmuM0.s 			page 32


 393:Drivers/STM32F4xx_HAL_Driver/Inc/stm32f4xx_ll_gpio.h ****   *         @arg @ref LL_GPIO_PIN_2
 394:Drivers/STM32F4xx_HAL_Driver/Inc/stm32f4xx_ll_gpio.h ****   *         @arg @ref LL_GPIO_PIN_3
 395:Drivers/STM32F4xx_HAL_Driver/Inc/stm32f4xx_ll_gpio.h ****   *         @arg @ref LL_GPIO_PIN_4
 396:Drivers/STM32F4xx_HAL_Driver/Inc/stm32f4xx_ll_gpio.h ****   *         @arg @ref LL_GPIO_PIN_5
 397:Drivers/STM32F4xx_HAL_Driver/Inc/stm32f4xx_ll_gpio.h ****   *         @arg @ref LL_GPIO_PIN_6
 398:Drivers/STM32F4xx_HAL_Driver/Inc/stm32f4xx_ll_gpio.h ****   *         @arg @ref LL_GPIO_PIN_7
 399:Drivers/STM32F4xx_HAL_Driver/Inc/stm32f4xx_ll_gpio.h ****   *         @arg @ref LL_GPIO_PIN_8
 400:Drivers/STM32F4xx_HAL_Driver/Inc/stm32f4xx_ll_gpio.h ****   *         @arg @ref LL_GPIO_PIN_9
 401:Drivers/STM32F4xx_HAL_Driver/Inc/stm32f4xx_ll_gpio.h ****   *         @arg @ref LL_GPIO_PIN_10
 402:Drivers/STM32F4xx_HAL_Driver/Inc/stm32f4xx_ll_gpio.h ****   *         @arg @ref LL_GPIO_PIN_11
 403:Drivers/STM32F4xx_HAL_Driver/Inc/stm32f4xx_ll_gpio.h ****   *         @arg @ref LL_GPIO_PIN_12
 404:Drivers/STM32F4xx_HAL_Driver/Inc/stm32f4xx_ll_gpio.h ****   *         @arg @ref LL_GPIO_PIN_13
 405:Drivers/STM32F4xx_HAL_Driver/Inc/stm32f4xx_ll_gpio.h ****   *         @arg @ref LL_GPIO_PIN_14
 406:Drivers/STM32F4xx_HAL_Driver/Inc/stm32f4xx_ll_gpio.h ****   *         @arg @ref LL_GPIO_PIN_15
 407:Drivers/STM32F4xx_HAL_Driver/Inc/stm32f4xx_ll_gpio.h ****   * @param  Speed This parameter can be one of the following values:
 408:Drivers/STM32F4xx_HAL_Driver/Inc/stm32f4xx_ll_gpio.h ****   *         @arg @ref LL_GPIO_SPEED_FREQ_LOW
 409:Drivers/STM32F4xx_HAL_Driver/Inc/stm32f4xx_ll_gpio.h ****   *         @arg @ref LL_GPIO_SPEED_FREQ_MEDIUM
 410:Drivers/STM32F4xx_HAL_Driver/Inc/stm32f4xx_ll_gpio.h ****   *         @arg @ref LL_GPIO_SPEED_FREQ_HIGH
 411:Drivers/STM32F4xx_HAL_Driver/Inc/stm32f4xx_ll_gpio.h ****   *         @arg @ref LL_GPIO_SPEED_FREQ_VERY_HIGH
 412:Drivers/STM32F4xx_HAL_Driver/Inc/stm32f4xx_ll_gpio.h ****   * @retval None
 413:Drivers/STM32F4xx_HAL_Driver/Inc/stm32f4xx_ll_gpio.h ****   */
 414:Drivers/STM32F4xx_HAL_Driver/Inc/stm32f4xx_ll_gpio.h **** __STATIC_INLINE void LL_GPIO_SetPinSpeed(GPIO_TypeDef *GPIOx, uint32_t Pin, uint32_t  Speed)
 415:Drivers/STM32F4xx_HAL_Driver/Inc/stm32f4xx_ll_gpio.h **** {
 416:Drivers/STM32F4xx_HAL_Driver/Inc/stm32f4xx_ll_gpio.h ****   MODIFY_REG(GPIOx->OSPEEDR, (GPIO_OSPEEDER_OSPEEDR0 << (POSITION_VAL(Pin) * 2U)),
 417:Drivers/STM32F4xx_HAL_Driver/Inc/stm32f4xx_ll_gpio.h ****              (Speed << (POSITION_VAL(Pin) * 2U)));
 418:Drivers/STM32F4xx_HAL_Driver/Inc/stm32f4xx_ll_gpio.h **** }
 419:Drivers/STM32F4xx_HAL_Driver/Inc/stm32f4xx_ll_gpio.h **** 
 420:Drivers/STM32F4xx_HAL_Driver/Inc/stm32f4xx_ll_gpio.h **** /**
 421:Drivers/STM32F4xx_HAL_Driver/Inc/stm32f4xx_ll_gpio.h ****   * @brief  Return gpio speed for a dedicated pin on dedicated port.
 422:Drivers/STM32F4xx_HAL_Driver/Inc/stm32f4xx_ll_gpio.h ****   * @note   I/O speed can be Low, Medium, Fast or High speed.
 423:Drivers/STM32F4xx_HAL_Driver/Inc/stm32f4xx_ll_gpio.h ****   * @note   Warning: only one pin can be passed as parameter.
 424:Drivers/STM32F4xx_HAL_Driver/Inc/stm32f4xx_ll_gpio.h ****   * @note   Refer to datasheet for frequency specifications and the power
 425:Drivers/STM32F4xx_HAL_Driver/Inc/stm32f4xx_ll_gpio.h ****   *         supply and load conditions for each speed.
 426:Drivers/STM32F4xx_HAL_Driver/Inc/stm32f4xx_ll_gpio.h ****   * @rmtoll OSPEEDR      OSPEEDy       LL_GPIO_GetPinSpeed
 427:Drivers/STM32F4xx_HAL_Driver/Inc/stm32f4xx_ll_gpio.h ****   * @param  GPIOx GPIO Port
 428:Drivers/STM32F4xx_HAL_Driver/Inc/stm32f4xx_ll_gpio.h ****   * @param  Pin This parameter can be one of the following values:
 429:Drivers/STM32F4xx_HAL_Driver/Inc/stm32f4xx_ll_gpio.h ****   *         @arg @ref LL_GPIO_PIN_0
 430:Drivers/STM32F4xx_HAL_Driver/Inc/stm32f4xx_ll_gpio.h ****   *         @arg @ref LL_GPIO_PIN_1
 431:Drivers/STM32F4xx_HAL_Driver/Inc/stm32f4xx_ll_gpio.h ****   *         @arg @ref LL_GPIO_PIN_2
 432:Drivers/STM32F4xx_HAL_Driver/Inc/stm32f4xx_ll_gpio.h ****   *         @arg @ref LL_GPIO_PIN_3
 433:Drivers/STM32F4xx_HAL_Driver/Inc/stm32f4xx_ll_gpio.h ****   *         @arg @ref LL_GPIO_PIN_4
 434:Drivers/STM32F4xx_HAL_Driver/Inc/stm32f4xx_ll_gpio.h ****   *         @arg @ref LL_GPIO_PIN_5
 435:Drivers/STM32F4xx_HAL_Driver/Inc/stm32f4xx_ll_gpio.h ****   *         @arg @ref LL_GPIO_PIN_6
 436:Drivers/STM32F4xx_HAL_Driver/Inc/stm32f4xx_ll_gpio.h ****   *         @arg @ref LL_GPIO_PIN_7
 437:Drivers/STM32F4xx_HAL_Driver/Inc/stm32f4xx_ll_gpio.h ****   *         @arg @ref LL_GPIO_PIN_8
 438:Drivers/STM32F4xx_HAL_Driver/Inc/stm32f4xx_ll_gpio.h ****   *         @arg @ref LL_GPIO_PIN_9
 439:Drivers/STM32F4xx_HAL_Driver/Inc/stm32f4xx_ll_gpio.h ****   *         @arg @ref LL_GPIO_PIN_10
 440:Drivers/STM32F4xx_HAL_Driver/Inc/stm32f4xx_ll_gpio.h ****   *         @arg @ref LL_GPIO_PIN_11
 441:Drivers/STM32F4xx_HAL_Driver/Inc/stm32f4xx_ll_gpio.h ****   *         @arg @ref LL_GPIO_PIN_12
 442:Drivers/STM32F4xx_HAL_Driver/Inc/stm32f4xx_ll_gpio.h ****   *         @arg @ref LL_GPIO_PIN_13
 443:Drivers/STM32F4xx_HAL_Driver/Inc/stm32f4xx_ll_gpio.h ****   *         @arg @ref LL_GPIO_PIN_14
 444:Drivers/STM32F4xx_HAL_Driver/Inc/stm32f4xx_ll_gpio.h ****   *         @arg @ref LL_GPIO_PIN_15
 445:Drivers/STM32F4xx_HAL_Driver/Inc/stm32f4xx_ll_gpio.h ****   * @retval Returned value can be one of the following values:
 446:Drivers/STM32F4xx_HAL_Driver/Inc/stm32f4xx_ll_gpio.h ****   *         @arg @ref LL_GPIO_SPEED_FREQ_LOW
 447:Drivers/STM32F4xx_HAL_Driver/Inc/stm32f4xx_ll_gpio.h ****   *         @arg @ref LL_GPIO_SPEED_FREQ_MEDIUM
 448:Drivers/STM32F4xx_HAL_Driver/Inc/stm32f4xx_ll_gpio.h ****   *         @arg @ref LL_GPIO_SPEED_FREQ_HIGH
 449:Drivers/STM32F4xx_HAL_Driver/Inc/stm32f4xx_ll_gpio.h ****   *         @arg @ref LL_GPIO_SPEED_FREQ_VERY_HIGH
ARM GAS  C:\Users\7636~1\AppData\Local\Temp\ccHxmuM0.s 			page 33


 450:Drivers/STM32F4xx_HAL_Driver/Inc/stm32f4xx_ll_gpio.h ****   */
 451:Drivers/STM32F4xx_HAL_Driver/Inc/stm32f4xx_ll_gpio.h **** __STATIC_INLINE uint32_t LL_GPIO_GetPinSpeed(GPIO_TypeDef *GPIOx, uint32_t Pin)
 452:Drivers/STM32F4xx_HAL_Driver/Inc/stm32f4xx_ll_gpio.h **** {
 453:Drivers/STM32F4xx_HAL_Driver/Inc/stm32f4xx_ll_gpio.h ****   return (uint32_t)(READ_BIT(GPIOx->OSPEEDR,
 454:Drivers/STM32F4xx_HAL_Driver/Inc/stm32f4xx_ll_gpio.h ****                              (GPIO_OSPEEDER_OSPEEDR0 << (POSITION_VAL(Pin) * 2U))) >> (POSITION_VAL
 455:Drivers/STM32F4xx_HAL_Driver/Inc/stm32f4xx_ll_gpio.h **** }
 456:Drivers/STM32F4xx_HAL_Driver/Inc/stm32f4xx_ll_gpio.h **** 
 457:Drivers/STM32F4xx_HAL_Driver/Inc/stm32f4xx_ll_gpio.h **** /**
 458:Drivers/STM32F4xx_HAL_Driver/Inc/stm32f4xx_ll_gpio.h ****   * @brief  Configure gpio pull-up or pull-down for a dedicated pin on a dedicated port.
 459:Drivers/STM32F4xx_HAL_Driver/Inc/stm32f4xx_ll_gpio.h ****   * @note   Warning: only one pin can be passed as parameter.
 460:Drivers/STM32F4xx_HAL_Driver/Inc/stm32f4xx_ll_gpio.h ****   * @rmtoll PUPDR        PUPDy         LL_GPIO_SetPinPull
 461:Drivers/STM32F4xx_HAL_Driver/Inc/stm32f4xx_ll_gpio.h ****   * @param  GPIOx GPIO Port
 462:Drivers/STM32F4xx_HAL_Driver/Inc/stm32f4xx_ll_gpio.h ****   * @param  Pin This parameter can be one of the following values:
 463:Drivers/STM32F4xx_HAL_Driver/Inc/stm32f4xx_ll_gpio.h ****   *         @arg @ref LL_GPIO_PIN_0
 464:Drivers/STM32F4xx_HAL_Driver/Inc/stm32f4xx_ll_gpio.h ****   *         @arg @ref LL_GPIO_PIN_1
 465:Drivers/STM32F4xx_HAL_Driver/Inc/stm32f4xx_ll_gpio.h ****   *         @arg @ref LL_GPIO_PIN_2
 466:Drivers/STM32F4xx_HAL_Driver/Inc/stm32f4xx_ll_gpio.h ****   *         @arg @ref LL_GPIO_PIN_3
 467:Drivers/STM32F4xx_HAL_Driver/Inc/stm32f4xx_ll_gpio.h ****   *         @arg @ref LL_GPIO_PIN_4
 468:Drivers/STM32F4xx_HAL_Driver/Inc/stm32f4xx_ll_gpio.h ****   *         @arg @ref LL_GPIO_PIN_5
 469:Drivers/STM32F4xx_HAL_Driver/Inc/stm32f4xx_ll_gpio.h ****   *         @arg @ref LL_GPIO_PIN_6
 470:Drivers/STM32F4xx_HAL_Driver/Inc/stm32f4xx_ll_gpio.h ****   *         @arg @ref LL_GPIO_PIN_7
 471:Drivers/STM32F4xx_HAL_Driver/Inc/stm32f4xx_ll_gpio.h ****   *         @arg @ref LL_GPIO_PIN_8
 472:Drivers/STM32F4xx_HAL_Driver/Inc/stm32f4xx_ll_gpio.h ****   *         @arg @ref LL_GPIO_PIN_9
 473:Drivers/STM32F4xx_HAL_Driver/Inc/stm32f4xx_ll_gpio.h ****   *         @arg @ref LL_GPIO_PIN_10
 474:Drivers/STM32F4xx_HAL_Driver/Inc/stm32f4xx_ll_gpio.h ****   *         @arg @ref LL_GPIO_PIN_11
 475:Drivers/STM32F4xx_HAL_Driver/Inc/stm32f4xx_ll_gpio.h ****   *         @arg @ref LL_GPIO_PIN_12
 476:Drivers/STM32F4xx_HAL_Driver/Inc/stm32f4xx_ll_gpio.h ****   *         @arg @ref LL_GPIO_PIN_13
 477:Drivers/STM32F4xx_HAL_Driver/Inc/stm32f4xx_ll_gpio.h ****   *         @arg @ref LL_GPIO_PIN_14
 478:Drivers/STM32F4xx_HAL_Driver/Inc/stm32f4xx_ll_gpio.h ****   *         @arg @ref LL_GPIO_PIN_15
 479:Drivers/STM32F4xx_HAL_Driver/Inc/stm32f4xx_ll_gpio.h ****   * @param  Pull This parameter can be one of the following values:
 480:Drivers/STM32F4xx_HAL_Driver/Inc/stm32f4xx_ll_gpio.h ****   *         @arg @ref LL_GPIO_PULL_NO
 481:Drivers/STM32F4xx_HAL_Driver/Inc/stm32f4xx_ll_gpio.h ****   *         @arg @ref LL_GPIO_PULL_UP
 482:Drivers/STM32F4xx_HAL_Driver/Inc/stm32f4xx_ll_gpio.h ****   *         @arg @ref LL_GPIO_PULL_DOWN
 483:Drivers/STM32F4xx_HAL_Driver/Inc/stm32f4xx_ll_gpio.h ****   * @retval None
 484:Drivers/STM32F4xx_HAL_Driver/Inc/stm32f4xx_ll_gpio.h ****   */
 485:Drivers/STM32F4xx_HAL_Driver/Inc/stm32f4xx_ll_gpio.h **** __STATIC_INLINE void LL_GPIO_SetPinPull(GPIO_TypeDef *GPIOx, uint32_t Pin, uint32_t Pull)
 486:Drivers/STM32F4xx_HAL_Driver/Inc/stm32f4xx_ll_gpio.h **** {
 487:Drivers/STM32F4xx_HAL_Driver/Inc/stm32f4xx_ll_gpio.h ****   MODIFY_REG(GPIOx->PUPDR, (GPIO_PUPDR_PUPDR0 << (POSITION_VAL(Pin) * 2U)), (Pull << (POSITION_VAL(
 488:Drivers/STM32F4xx_HAL_Driver/Inc/stm32f4xx_ll_gpio.h **** }
 489:Drivers/STM32F4xx_HAL_Driver/Inc/stm32f4xx_ll_gpio.h **** 
 490:Drivers/STM32F4xx_HAL_Driver/Inc/stm32f4xx_ll_gpio.h **** /**
 491:Drivers/STM32F4xx_HAL_Driver/Inc/stm32f4xx_ll_gpio.h ****   * @brief  Return gpio pull-up or pull-down for a dedicated pin on a dedicated port
 492:Drivers/STM32F4xx_HAL_Driver/Inc/stm32f4xx_ll_gpio.h ****   * @note   Warning: only one pin can be passed as parameter.
 493:Drivers/STM32F4xx_HAL_Driver/Inc/stm32f4xx_ll_gpio.h ****   * @rmtoll PUPDR        PUPDy         LL_GPIO_GetPinPull
 494:Drivers/STM32F4xx_HAL_Driver/Inc/stm32f4xx_ll_gpio.h ****   * @param  GPIOx GPIO Port
 495:Drivers/STM32F4xx_HAL_Driver/Inc/stm32f4xx_ll_gpio.h ****   * @param  Pin This parameter can be one of the following values:
 496:Drivers/STM32F4xx_HAL_Driver/Inc/stm32f4xx_ll_gpio.h ****   *         @arg @ref LL_GPIO_PIN_0
 497:Drivers/STM32F4xx_HAL_Driver/Inc/stm32f4xx_ll_gpio.h ****   *         @arg @ref LL_GPIO_PIN_1
 498:Drivers/STM32F4xx_HAL_Driver/Inc/stm32f4xx_ll_gpio.h ****   *         @arg @ref LL_GPIO_PIN_2
 499:Drivers/STM32F4xx_HAL_Driver/Inc/stm32f4xx_ll_gpio.h ****   *         @arg @ref LL_GPIO_PIN_3
 500:Drivers/STM32F4xx_HAL_Driver/Inc/stm32f4xx_ll_gpio.h ****   *         @arg @ref LL_GPIO_PIN_4
 501:Drivers/STM32F4xx_HAL_Driver/Inc/stm32f4xx_ll_gpio.h ****   *         @arg @ref LL_GPIO_PIN_5
 502:Drivers/STM32F4xx_HAL_Driver/Inc/stm32f4xx_ll_gpio.h ****   *         @arg @ref LL_GPIO_PIN_6
 503:Drivers/STM32F4xx_HAL_Driver/Inc/stm32f4xx_ll_gpio.h ****   *         @arg @ref LL_GPIO_PIN_7
 504:Drivers/STM32F4xx_HAL_Driver/Inc/stm32f4xx_ll_gpio.h ****   *         @arg @ref LL_GPIO_PIN_8
 505:Drivers/STM32F4xx_HAL_Driver/Inc/stm32f4xx_ll_gpio.h ****   *         @arg @ref LL_GPIO_PIN_9
 506:Drivers/STM32F4xx_HAL_Driver/Inc/stm32f4xx_ll_gpio.h ****   *         @arg @ref LL_GPIO_PIN_10
ARM GAS  C:\Users\7636~1\AppData\Local\Temp\ccHxmuM0.s 			page 34


 507:Drivers/STM32F4xx_HAL_Driver/Inc/stm32f4xx_ll_gpio.h ****   *         @arg @ref LL_GPIO_PIN_11
 508:Drivers/STM32F4xx_HAL_Driver/Inc/stm32f4xx_ll_gpio.h ****   *         @arg @ref LL_GPIO_PIN_12
 509:Drivers/STM32F4xx_HAL_Driver/Inc/stm32f4xx_ll_gpio.h ****   *         @arg @ref LL_GPIO_PIN_13
 510:Drivers/STM32F4xx_HAL_Driver/Inc/stm32f4xx_ll_gpio.h ****   *         @arg @ref LL_GPIO_PIN_14
 511:Drivers/STM32F4xx_HAL_Driver/Inc/stm32f4xx_ll_gpio.h ****   *         @arg @ref LL_GPIO_PIN_15
 512:Drivers/STM32F4xx_HAL_Driver/Inc/stm32f4xx_ll_gpio.h ****   * @retval Returned value can be one of the following values:
 513:Drivers/STM32F4xx_HAL_Driver/Inc/stm32f4xx_ll_gpio.h ****   *         @arg @ref LL_GPIO_PULL_NO
 514:Drivers/STM32F4xx_HAL_Driver/Inc/stm32f4xx_ll_gpio.h ****   *         @arg @ref LL_GPIO_PULL_UP
 515:Drivers/STM32F4xx_HAL_Driver/Inc/stm32f4xx_ll_gpio.h ****   *         @arg @ref LL_GPIO_PULL_DOWN
 516:Drivers/STM32F4xx_HAL_Driver/Inc/stm32f4xx_ll_gpio.h ****   */
 517:Drivers/STM32F4xx_HAL_Driver/Inc/stm32f4xx_ll_gpio.h **** __STATIC_INLINE uint32_t LL_GPIO_GetPinPull(GPIO_TypeDef *GPIOx, uint32_t Pin)
 518:Drivers/STM32F4xx_HAL_Driver/Inc/stm32f4xx_ll_gpio.h **** {
 519:Drivers/STM32F4xx_HAL_Driver/Inc/stm32f4xx_ll_gpio.h ****   return (uint32_t)(READ_BIT(GPIOx->PUPDR,
 520:Drivers/STM32F4xx_HAL_Driver/Inc/stm32f4xx_ll_gpio.h ****                              (GPIO_PUPDR_PUPDR0 << (POSITION_VAL(Pin) * 2U))) >> (POSITION_VAL(Pin)
 521:Drivers/STM32F4xx_HAL_Driver/Inc/stm32f4xx_ll_gpio.h **** }
 522:Drivers/STM32F4xx_HAL_Driver/Inc/stm32f4xx_ll_gpio.h **** 
 523:Drivers/STM32F4xx_HAL_Driver/Inc/stm32f4xx_ll_gpio.h **** /**
 524:Drivers/STM32F4xx_HAL_Driver/Inc/stm32f4xx_ll_gpio.h ****   * @brief  Configure gpio alternate function of a dedicated pin from 0 to 7 for a dedicated port.
 525:Drivers/STM32F4xx_HAL_Driver/Inc/stm32f4xx_ll_gpio.h ****   * @note   Possible values are from AF0 to AF15 depending on target.
 526:Drivers/STM32F4xx_HAL_Driver/Inc/stm32f4xx_ll_gpio.h ****   * @note   Warning: only one pin can be passed as parameter.
 527:Drivers/STM32F4xx_HAL_Driver/Inc/stm32f4xx_ll_gpio.h ****   * @rmtoll AFRL         AFSELy        LL_GPIO_SetAFPin_0_7
 528:Drivers/STM32F4xx_HAL_Driver/Inc/stm32f4xx_ll_gpio.h ****   * @param  GPIOx GPIO Port
 529:Drivers/STM32F4xx_HAL_Driver/Inc/stm32f4xx_ll_gpio.h ****   * @param  Pin This parameter can be one of the following values:
 530:Drivers/STM32F4xx_HAL_Driver/Inc/stm32f4xx_ll_gpio.h ****   *         @arg @ref LL_GPIO_PIN_0
 531:Drivers/STM32F4xx_HAL_Driver/Inc/stm32f4xx_ll_gpio.h ****   *         @arg @ref LL_GPIO_PIN_1
 532:Drivers/STM32F4xx_HAL_Driver/Inc/stm32f4xx_ll_gpio.h ****   *         @arg @ref LL_GPIO_PIN_2
 533:Drivers/STM32F4xx_HAL_Driver/Inc/stm32f4xx_ll_gpio.h ****   *         @arg @ref LL_GPIO_PIN_3
 534:Drivers/STM32F4xx_HAL_Driver/Inc/stm32f4xx_ll_gpio.h ****   *         @arg @ref LL_GPIO_PIN_4
 535:Drivers/STM32F4xx_HAL_Driver/Inc/stm32f4xx_ll_gpio.h ****   *         @arg @ref LL_GPIO_PIN_5
 536:Drivers/STM32F4xx_HAL_Driver/Inc/stm32f4xx_ll_gpio.h ****   *         @arg @ref LL_GPIO_PIN_6
 537:Drivers/STM32F4xx_HAL_Driver/Inc/stm32f4xx_ll_gpio.h ****   *         @arg @ref LL_GPIO_PIN_7
 538:Drivers/STM32F4xx_HAL_Driver/Inc/stm32f4xx_ll_gpio.h ****   * @param  Alternate This parameter can be one of the following values:
 539:Drivers/STM32F4xx_HAL_Driver/Inc/stm32f4xx_ll_gpio.h ****   *         @arg @ref LL_GPIO_AF_0
 540:Drivers/STM32F4xx_HAL_Driver/Inc/stm32f4xx_ll_gpio.h ****   *         @arg @ref LL_GPIO_AF_1
 541:Drivers/STM32F4xx_HAL_Driver/Inc/stm32f4xx_ll_gpio.h ****   *         @arg @ref LL_GPIO_AF_2
 542:Drivers/STM32F4xx_HAL_Driver/Inc/stm32f4xx_ll_gpio.h ****   *         @arg @ref LL_GPIO_AF_3
 543:Drivers/STM32F4xx_HAL_Driver/Inc/stm32f4xx_ll_gpio.h ****   *         @arg @ref LL_GPIO_AF_4
 544:Drivers/STM32F4xx_HAL_Driver/Inc/stm32f4xx_ll_gpio.h ****   *         @arg @ref LL_GPIO_AF_5
 545:Drivers/STM32F4xx_HAL_Driver/Inc/stm32f4xx_ll_gpio.h ****   *         @arg @ref LL_GPIO_AF_6
 546:Drivers/STM32F4xx_HAL_Driver/Inc/stm32f4xx_ll_gpio.h ****   *         @arg @ref LL_GPIO_AF_7
 547:Drivers/STM32F4xx_HAL_Driver/Inc/stm32f4xx_ll_gpio.h ****   *         @arg @ref LL_GPIO_AF_8
 548:Drivers/STM32F4xx_HAL_Driver/Inc/stm32f4xx_ll_gpio.h ****   *         @arg @ref LL_GPIO_AF_9
 549:Drivers/STM32F4xx_HAL_Driver/Inc/stm32f4xx_ll_gpio.h ****   *         @arg @ref LL_GPIO_AF_10
 550:Drivers/STM32F4xx_HAL_Driver/Inc/stm32f4xx_ll_gpio.h ****   *         @arg @ref LL_GPIO_AF_11
 551:Drivers/STM32F4xx_HAL_Driver/Inc/stm32f4xx_ll_gpio.h ****   *         @arg @ref LL_GPIO_AF_12
 552:Drivers/STM32F4xx_HAL_Driver/Inc/stm32f4xx_ll_gpio.h ****   *         @arg @ref LL_GPIO_AF_13
 553:Drivers/STM32F4xx_HAL_Driver/Inc/stm32f4xx_ll_gpio.h ****   *         @arg @ref LL_GPIO_AF_14
 554:Drivers/STM32F4xx_HAL_Driver/Inc/stm32f4xx_ll_gpio.h ****   *         @arg @ref LL_GPIO_AF_15
 555:Drivers/STM32F4xx_HAL_Driver/Inc/stm32f4xx_ll_gpio.h ****   * @retval None
 556:Drivers/STM32F4xx_HAL_Driver/Inc/stm32f4xx_ll_gpio.h ****   */
 557:Drivers/STM32F4xx_HAL_Driver/Inc/stm32f4xx_ll_gpio.h **** __STATIC_INLINE void LL_GPIO_SetAFPin_0_7(GPIO_TypeDef *GPIOx, uint32_t Pin, uint32_t Alternate)
 558:Drivers/STM32F4xx_HAL_Driver/Inc/stm32f4xx_ll_gpio.h **** {
 559:Drivers/STM32F4xx_HAL_Driver/Inc/stm32f4xx_ll_gpio.h ****   MODIFY_REG(GPIOx->AFR[0], (GPIO_AFRL_AFSEL0 << (POSITION_VAL(Pin) * 4U)),
 560:Drivers/STM32F4xx_HAL_Driver/Inc/stm32f4xx_ll_gpio.h ****              (Alternate << (POSITION_VAL(Pin) * 4U)));
 561:Drivers/STM32F4xx_HAL_Driver/Inc/stm32f4xx_ll_gpio.h **** }
 562:Drivers/STM32F4xx_HAL_Driver/Inc/stm32f4xx_ll_gpio.h **** 
 563:Drivers/STM32F4xx_HAL_Driver/Inc/stm32f4xx_ll_gpio.h **** /**
ARM GAS  C:\Users\7636~1\AppData\Local\Temp\ccHxmuM0.s 			page 35


 564:Drivers/STM32F4xx_HAL_Driver/Inc/stm32f4xx_ll_gpio.h ****   * @brief  Return gpio alternate function of a dedicated pin from 0 to 7 for a dedicated port.
 565:Drivers/STM32F4xx_HAL_Driver/Inc/stm32f4xx_ll_gpio.h ****   * @rmtoll AFRL         AFSELy        LL_GPIO_GetAFPin_0_7
 566:Drivers/STM32F4xx_HAL_Driver/Inc/stm32f4xx_ll_gpio.h ****   * @param  GPIOx GPIO Port
 567:Drivers/STM32F4xx_HAL_Driver/Inc/stm32f4xx_ll_gpio.h ****   * @param  Pin This parameter can be one of the following values:
 568:Drivers/STM32F4xx_HAL_Driver/Inc/stm32f4xx_ll_gpio.h ****   *         @arg @ref LL_GPIO_PIN_0
 569:Drivers/STM32F4xx_HAL_Driver/Inc/stm32f4xx_ll_gpio.h ****   *         @arg @ref LL_GPIO_PIN_1
 570:Drivers/STM32F4xx_HAL_Driver/Inc/stm32f4xx_ll_gpio.h ****   *         @arg @ref LL_GPIO_PIN_2
 571:Drivers/STM32F4xx_HAL_Driver/Inc/stm32f4xx_ll_gpio.h ****   *         @arg @ref LL_GPIO_PIN_3
 572:Drivers/STM32F4xx_HAL_Driver/Inc/stm32f4xx_ll_gpio.h ****   *         @arg @ref LL_GPIO_PIN_4
 573:Drivers/STM32F4xx_HAL_Driver/Inc/stm32f4xx_ll_gpio.h ****   *         @arg @ref LL_GPIO_PIN_5
 574:Drivers/STM32F4xx_HAL_Driver/Inc/stm32f4xx_ll_gpio.h ****   *         @arg @ref LL_GPIO_PIN_6
 575:Drivers/STM32F4xx_HAL_Driver/Inc/stm32f4xx_ll_gpio.h ****   *         @arg @ref LL_GPIO_PIN_7
 576:Drivers/STM32F4xx_HAL_Driver/Inc/stm32f4xx_ll_gpio.h ****   * @retval Returned value can be one of the following values:
 577:Drivers/STM32F4xx_HAL_Driver/Inc/stm32f4xx_ll_gpio.h ****   *         @arg @ref LL_GPIO_AF_0
 578:Drivers/STM32F4xx_HAL_Driver/Inc/stm32f4xx_ll_gpio.h ****   *         @arg @ref LL_GPIO_AF_1
 579:Drivers/STM32F4xx_HAL_Driver/Inc/stm32f4xx_ll_gpio.h ****   *         @arg @ref LL_GPIO_AF_2
 580:Drivers/STM32F4xx_HAL_Driver/Inc/stm32f4xx_ll_gpio.h ****   *         @arg @ref LL_GPIO_AF_3
 581:Drivers/STM32F4xx_HAL_Driver/Inc/stm32f4xx_ll_gpio.h ****   *         @arg @ref LL_GPIO_AF_4
 582:Drivers/STM32F4xx_HAL_Driver/Inc/stm32f4xx_ll_gpio.h ****   *         @arg @ref LL_GPIO_AF_5
 583:Drivers/STM32F4xx_HAL_Driver/Inc/stm32f4xx_ll_gpio.h ****   *         @arg @ref LL_GPIO_AF_6
 584:Drivers/STM32F4xx_HAL_Driver/Inc/stm32f4xx_ll_gpio.h ****   *         @arg @ref LL_GPIO_AF_7
 585:Drivers/STM32F4xx_HAL_Driver/Inc/stm32f4xx_ll_gpio.h ****   *         @arg @ref LL_GPIO_AF_8
 586:Drivers/STM32F4xx_HAL_Driver/Inc/stm32f4xx_ll_gpio.h ****   *         @arg @ref LL_GPIO_AF_9
 587:Drivers/STM32F4xx_HAL_Driver/Inc/stm32f4xx_ll_gpio.h ****   *         @arg @ref LL_GPIO_AF_10
 588:Drivers/STM32F4xx_HAL_Driver/Inc/stm32f4xx_ll_gpio.h ****   *         @arg @ref LL_GPIO_AF_11
 589:Drivers/STM32F4xx_HAL_Driver/Inc/stm32f4xx_ll_gpio.h ****   *         @arg @ref LL_GPIO_AF_12
 590:Drivers/STM32F4xx_HAL_Driver/Inc/stm32f4xx_ll_gpio.h ****   *         @arg @ref LL_GPIO_AF_13
 591:Drivers/STM32F4xx_HAL_Driver/Inc/stm32f4xx_ll_gpio.h ****   *         @arg @ref LL_GPIO_AF_14
 592:Drivers/STM32F4xx_HAL_Driver/Inc/stm32f4xx_ll_gpio.h ****   *         @arg @ref LL_GPIO_AF_15
 593:Drivers/STM32F4xx_HAL_Driver/Inc/stm32f4xx_ll_gpio.h ****   */
 594:Drivers/STM32F4xx_HAL_Driver/Inc/stm32f4xx_ll_gpio.h **** __STATIC_INLINE uint32_t LL_GPIO_GetAFPin_0_7(GPIO_TypeDef *GPIOx, uint32_t Pin)
 595:Drivers/STM32F4xx_HAL_Driver/Inc/stm32f4xx_ll_gpio.h **** {
 596:Drivers/STM32F4xx_HAL_Driver/Inc/stm32f4xx_ll_gpio.h ****   return (uint32_t)(READ_BIT(GPIOx->AFR[0],
 597:Drivers/STM32F4xx_HAL_Driver/Inc/stm32f4xx_ll_gpio.h ****                              (GPIO_AFRL_AFSEL0 << (POSITION_VAL(Pin) * 4U))) >> (POSITION_VAL(Pin) 
 598:Drivers/STM32F4xx_HAL_Driver/Inc/stm32f4xx_ll_gpio.h **** }
 599:Drivers/STM32F4xx_HAL_Driver/Inc/stm32f4xx_ll_gpio.h **** 
 600:Drivers/STM32F4xx_HAL_Driver/Inc/stm32f4xx_ll_gpio.h **** /**
 601:Drivers/STM32F4xx_HAL_Driver/Inc/stm32f4xx_ll_gpio.h ****   * @brief  Configure gpio alternate function of a dedicated pin from 8 to 15 for a dedicated port.
 602:Drivers/STM32F4xx_HAL_Driver/Inc/stm32f4xx_ll_gpio.h ****   * @note   Possible values are from AF0 to AF15 depending on target.
 603:Drivers/STM32F4xx_HAL_Driver/Inc/stm32f4xx_ll_gpio.h ****   * @note   Warning: only one pin can be passed as parameter.
 604:Drivers/STM32F4xx_HAL_Driver/Inc/stm32f4xx_ll_gpio.h ****   * @rmtoll AFRH         AFSELy        LL_GPIO_SetAFPin_8_15
 605:Drivers/STM32F4xx_HAL_Driver/Inc/stm32f4xx_ll_gpio.h ****   * @param  GPIOx GPIO Port
 606:Drivers/STM32F4xx_HAL_Driver/Inc/stm32f4xx_ll_gpio.h ****   * @param  Pin This parameter can be one of the following values:
 607:Drivers/STM32F4xx_HAL_Driver/Inc/stm32f4xx_ll_gpio.h ****   *         @arg @ref LL_GPIO_PIN_8
 608:Drivers/STM32F4xx_HAL_Driver/Inc/stm32f4xx_ll_gpio.h ****   *         @arg @ref LL_GPIO_PIN_9
 609:Drivers/STM32F4xx_HAL_Driver/Inc/stm32f4xx_ll_gpio.h ****   *         @arg @ref LL_GPIO_PIN_10
 610:Drivers/STM32F4xx_HAL_Driver/Inc/stm32f4xx_ll_gpio.h ****   *         @arg @ref LL_GPIO_PIN_11
 611:Drivers/STM32F4xx_HAL_Driver/Inc/stm32f4xx_ll_gpio.h ****   *         @arg @ref LL_GPIO_PIN_12
 612:Drivers/STM32F4xx_HAL_Driver/Inc/stm32f4xx_ll_gpio.h ****   *         @arg @ref LL_GPIO_PIN_13
 613:Drivers/STM32F4xx_HAL_Driver/Inc/stm32f4xx_ll_gpio.h ****   *         @arg @ref LL_GPIO_PIN_14
 614:Drivers/STM32F4xx_HAL_Driver/Inc/stm32f4xx_ll_gpio.h ****   *         @arg @ref LL_GPIO_PIN_15
 615:Drivers/STM32F4xx_HAL_Driver/Inc/stm32f4xx_ll_gpio.h ****   * @param  Alternate This parameter can be one of the following values:
 616:Drivers/STM32F4xx_HAL_Driver/Inc/stm32f4xx_ll_gpio.h ****   *         @arg @ref LL_GPIO_AF_0
 617:Drivers/STM32F4xx_HAL_Driver/Inc/stm32f4xx_ll_gpio.h ****   *         @arg @ref LL_GPIO_AF_1
 618:Drivers/STM32F4xx_HAL_Driver/Inc/stm32f4xx_ll_gpio.h ****   *         @arg @ref LL_GPIO_AF_2
 619:Drivers/STM32F4xx_HAL_Driver/Inc/stm32f4xx_ll_gpio.h ****   *         @arg @ref LL_GPIO_AF_3
 620:Drivers/STM32F4xx_HAL_Driver/Inc/stm32f4xx_ll_gpio.h ****   *         @arg @ref LL_GPIO_AF_4
ARM GAS  C:\Users\7636~1\AppData\Local\Temp\ccHxmuM0.s 			page 36


 621:Drivers/STM32F4xx_HAL_Driver/Inc/stm32f4xx_ll_gpio.h ****   *         @arg @ref LL_GPIO_AF_5
 622:Drivers/STM32F4xx_HAL_Driver/Inc/stm32f4xx_ll_gpio.h ****   *         @arg @ref LL_GPIO_AF_6
 623:Drivers/STM32F4xx_HAL_Driver/Inc/stm32f4xx_ll_gpio.h ****   *         @arg @ref LL_GPIO_AF_7
 624:Drivers/STM32F4xx_HAL_Driver/Inc/stm32f4xx_ll_gpio.h ****   *         @arg @ref LL_GPIO_AF_8
 625:Drivers/STM32F4xx_HAL_Driver/Inc/stm32f4xx_ll_gpio.h ****   *         @arg @ref LL_GPIO_AF_9
 626:Drivers/STM32F4xx_HAL_Driver/Inc/stm32f4xx_ll_gpio.h ****   *         @arg @ref LL_GPIO_AF_10
 627:Drivers/STM32F4xx_HAL_Driver/Inc/stm32f4xx_ll_gpio.h ****   *         @arg @ref LL_GPIO_AF_11
 628:Drivers/STM32F4xx_HAL_Driver/Inc/stm32f4xx_ll_gpio.h ****   *         @arg @ref LL_GPIO_AF_12
 629:Drivers/STM32F4xx_HAL_Driver/Inc/stm32f4xx_ll_gpio.h ****   *         @arg @ref LL_GPIO_AF_13
 630:Drivers/STM32F4xx_HAL_Driver/Inc/stm32f4xx_ll_gpio.h ****   *         @arg @ref LL_GPIO_AF_14
 631:Drivers/STM32F4xx_HAL_Driver/Inc/stm32f4xx_ll_gpio.h ****   *         @arg @ref LL_GPIO_AF_15
 632:Drivers/STM32F4xx_HAL_Driver/Inc/stm32f4xx_ll_gpio.h ****   * @retval None
 633:Drivers/STM32F4xx_HAL_Driver/Inc/stm32f4xx_ll_gpio.h ****   */
 634:Drivers/STM32F4xx_HAL_Driver/Inc/stm32f4xx_ll_gpio.h **** __STATIC_INLINE void LL_GPIO_SetAFPin_8_15(GPIO_TypeDef *GPIOx, uint32_t Pin, uint32_t Alternate)
 635:Drivers/STM32F4xx_HAL_Driver/Inc/stm32f4xx_ll_gpio.h **** {
 636:Drivers/STM32F4xx_HAL_Driver/Inc/stm32f4xx_ll_gpio.h ****   MODIFY_REG(GPIOx->AFR[1], (GPIO_AFRH_AFSEL8 << (POSITION_VAL(Pin >> 8U) * 4U)),
 637:Drivers/STM32F4xx_HAL_Driver/Inc/stm32f4xx_ll_gpio.h ****              (Alternate << (POSITION_VAL(Pin >> 8U) * 4U)));
 638:Drivers/STM32F4xx_HAL_Driver/Inc/stm32f4xx_ll_gpio.h **** }
 639:Drivers/STM32F4xx_HAL_Driver/Inc/stm32f4xx_ll_gpio.h **** 
 640:Drivers/STM32F4xx_HAL_Driver/Inc/stm32f4xx_ll_gpio.h **** /**
 641:Drivers/STM32F4xx_HAL_Driver/Inc/stm32f4xx_ll_gpio.h ****   * @brief  Return gpio alternate function of a dedicated pin from 8 to 15 for a dedicated port.
 642:Drivers/STM32F4xx_HAL_Driver/Inc/stm32f4xx_ll_gpio.h ****   * @note   Possible values are from AF0 to AF15 depending on target.
 643:Drivers/STM32F4xx_HAL_Driver/Inc/stm32f4xx_ll_gpio.h ****   * @rmtoll AFRH         AFSELy        LL_GPIO_GetAFPin_8_15
 644:Drivers/STM32F4xx_HAL_Driver/Inc/stm32f4xx_ll_gpio.h ****   * @param  GPIOx GPIO Port
 645:Drivers/STM32F4xx_HAL_Driver/Inc/stm32f4xx_ll_gpio.h ****   * @param  Pin This parameter can be one of the following values:
 646:Drivers/STM32F4xx_HAL_Driver/Inc/stm32f4xx_ll_gpio.h ****   *         @arg @ref LL_GPIO_PIN_8
 647:Drivers/STM32F4xx_HAL_Driver/Inc/stm32f4xx_ll_gpio.h ****   *         @arg @ref LL_GPIO_PIN_9
 648:Drivers/STM32F4xx_HAL_Driver/Inc/stm32f4xx_ll_gpio.h ****   *         @arg @ref LL_GPIO_PIN_10
 649:Drivers/STM32F4xx_HAL_Driver/Inc/stm32f4xx_ll_gpio.h ****   *         @arg @ref LL_GPIO_PIN_11
 650:Drivers/STM32F4xx_HAL_Driver/Inc/stm32f4xx_ll_gpio.h ****   *         @arg @ref LL_GPIO_PIN_12
 651:Drivers/STM32F4xx_HAL_Driver/Inc/stm32f4xx_ll_gpio.h ****   *         @arg @ref LL_GPIO_PIN_13
 652:Drivers/STM32F4xx_HAL_Driver/Inc/stm32f4xx_ll_gpio.h ****   *         @arg @ref LL_GPIO_PIN_14
 653:Drivers/STM32F4xx_HAL_Driver/Inc/stm32f4xx_ll_gpio.h ****   *         @arg @ref LL_GPIO_PIN_15
 654:Drivers/STM32F4xx_HAL_Driver/Inc/stm32f4xx_ll_gpio.h ****   * @retval Returned value can be one of the following values:
 655:Drivers/STM32F4xx_HAL_Driver/Inc/stm32f4xx_ll_gpio.h ****   *         @arg @ref LL_GPIO_AF_0
 656:Drivers/STM32F4xx_HAL_Driver/Inc/stm32f4xx_ll_gpio.h ****   *         @arg @ref LL_GPIO_AF_1
 657:Drivers/STM32F4xx_HAL_Driver/Inc/stm32f4xx_ll_gpio.h ****   *         @arg @ref LL_GPIO_AF_2
 658:Drivers/STM32F4xx_HAL_Driver/Inc/stm32f4xx_ll_gpio.h ****   *         @arg @ref LL_GPIO_AF_3
 659:Drivers/STM32F4xx_HAL_Driver/Inc/stm32f4xx_ll_gpio.h ****   *         @arg @ref LL_GPIO_AF_4
 660:Drivers/STM32F4xx_HAL_Driver/Inc/stm32f4xx_ll_gpio.h ****   *         @arg @ref LL_GPIO_AF_5
 661:Drivers/STM32F4xx_HAL_Driver/Inc/stm32f4xx_ll_gpio.h ****   *         @arg @ref LL_GPIO_AF_6
 662:Drivers/STM32F4xx_HAL_Driver/Inc/stm32f4xx_ll_gpio.h ****   *         @arg @ref LL_GPIO_AF_7
 663:Drivers/STM32F4xx_HAL_Driver/Inc/stm32f4xx_ll_gpio.h ****   *         @arg @ref LL_GPIO_AF_8
 664:Drivers/STM32F4xx_HAL_Driver/Inc/stm32f4xx_ll_gpio.h ****   *         @arg @ref LL_GPIO_AF_9
 665:Drivers/STM32F4xx_HAL_Driver/Inc/stm32f4xx_ll_gpio.h ****   *         @arg @ref LL_GPIO_AF_10
 666:Drivers/STM32F4xx_HAL_Driver/Inc/stm32f4xx_ll_gpio.h ****   *         @arg @ref LL_GPIO_AF_11
 667:Drivers/STM32F4xx_HAL_Driver/Inc/stm32f4xx_ll_gpio.h ****   *         @arg @ref LL_GPIO_AF_12
 668:Drivers/STM32F4xx_HAL_Driver/Inc/stm32f4xx_ll_gpio.h ****   *         @arg @ref LL_GPIO_AF_13
 669:Drivers/STM32F4xx_HAL_Driver/Inc/stm32f4xx_ll_gpio.h ****   *         @arg @ref LL_GPIO_AF_14
 670:Drivers/STM32F4xx_HAL_Driver/Inc/stm32f4xx_ll_gpio.h ****   *         @arg @ref LL_GPIO_AF_15
 671:Drivers/STM32F4xx_HAL_Driver/Inc/stm32f4xx_ll_gpio.h ****   */
 672:Drivers/STM32F4xx_HAL_Driver/Inc/stm32f4xx_ll_gpio.h **** __STATIC_INLINE uint32_t LL_GPIO_GetAFPin_8_15(GPIO_TypeDef *GPIOx, uint32_t Pin)
 673:Drivers/STM32F4xx_HAL_Driver/Inc/stm32f4xx_ll_gpio.h **** {
 674:Drivers/STM32F4xx_HAL_Driver/Inc/stm32f4xx_ll_gpio.h ****   return (uint32_t)(READ_BIT(GPIOx->AFR[1],
 675:Drivers/STM32F4xx_HAL_Driver/Inc/stm32f4xx_ll_gpio.h ****                              (GPIO_AFRH_AFSEL8 << (POSITION_VAL(Pin >> 8U) * 4U))) >> (POSITION_VAL
 676:Drivers/STM32F4xx_HAL_Driver/Inc/stm32f4xx_ll_gpio.h **** }
 677:Drivers/STM32F4xx_HAL_Driver/Inc/stm32f4xx_ll_gpio.h **** 
ARM GAS  C:\Users\7636~1\AppData\Local\Temp\ccHxmuM0.s 			page 37


 678:Drivers/STM32F4xx_HAL_Driver/Inc/stm32f4xx_ll_gpio.h **** 
 679:Drivers/STM32F4xx_HAL_Driver/Inc/stm32f4xx_ll_gpio.h **** /**
 680:Drivers/STM32F4xx_HAL_Driver/Inc/stm32f4xx_ll_gpio.h ****   * @brief  Lock configuration of several pins for a dedicated port.
 681:Drivers/STM32F4xx_HAL_Driver/Inc/stm32f4xx_ll_gpio.h ****   * @note   When the lock sequence has been applied on a port bit, the
 682:Drivers/STM32F4xx_HAL_Driver/Inc/stm32f4xx_ll_gpio.h ****   *         value of this port bit can no longer be modified until the
 683:Drivers/STM32F4xx_HAL_Driver/Inc/stm32f4xx_ll_gpio.h ****   *         next reset.
 684:Drivers/STM32F4xx_HAL_Driver/Inc/stm32f4xx_ll_gpio.h ****   * @note   Each lock bit freezes a specific configuration register
 685:Drivers/STM32F4xx_HAL_Driver/Inc/stm32f4xx_ll_gpio.h ****   *         (control and alternate function registers).
 686:Drivers/STM32F4xx_HAL_Driver/Inc/stm32f4xx_ll_gpio.h ****   * @rmtoll LCKR         LCKK          LL_GPIO_LockPin
 687:Drivers/STM32F4xx_HAL_Driver/Inc/stm32f4xx_ll_gpio.h ****   * @param  GPIOx GPIO Port
 688:Drivers/STM32F4xx_HAL_Driver/Inc/stm32f4xx_ll_gpio.h ****   * @param  PinMask This parameter can be a combination of the following values:
 689:Drivers/STM32F4xx_HAL_Driver/Inc/stm32f4xx_ll_gpio.h ****   *         @arg @ref LL_GPIO_PIN_0
 690:Drivers/STM32F4xx_HAL_Driver/Inc/stm32f4xx_ll_gpio.h ****   *         @arg @ref LL_GPIO_PIN_1
 691:Drivers/STM32F4xx_HAL_Driver/Inc/stm32f4xx_ll_gpio.h ****   *         @arg @ref LL_GPIO_PIN_2
 692:Drivers/STM32F4xx_HAL_Driver/Inc/stm32f4xx_ll_gpio.h ****   *         @arg @ref LL_GPIO_PIN_3
 693:Drivers/STM32F4xx_HAL_Driver/Inc/stm32f4xx_ll_gpio.h ****   *         @arg @ref LL_GPIO_PIN_4
 694:Drivers/STM32F4xx_HAL_Driver/Inc/stm32f4xx_ll_gpio.h ****   *         @arg @ref LL_GPIO_PIN_5
 695:Drivers/STM32F4xx_HAL_Driver/Inc/stm32f4xx_ll_gpio.h ****   *         @arg @ref LL_GPIO_PIN_6
 696:Drivers/STM32F4xx_HAL_Driver/Inc/stm32f4xx_ll_gpio.h ****   *         @arg @ref LL_GPIO_PIN_7
 697:Drivers/STM32F4xx_HAL_Driver/Inc/stm32f4xx_ll_gpio.h ****   *         @arg @ref LL_GPIO_PIN_8
 698:Drivers/STM32F4xx_HAL_Driver/Inc/stm32f4xx_ll_gpio.h ****   *         @arg @ref LL_GPIO_PIN_9
 699:Drivers/STM32F4xx_HAL_Driver/Inc/stm32f4xx_ll_gpio.h ****   *         @arg @ref LL_GPIO_PIN_10
 700:Drivers/STM32F4xx_HAL_Driver/Inc/stm32f4xx_ll_gpio.h ****   *         @arg @ref LL_GPIO_PIN_11
 701:Drivers/STM32F4xx_HAL_Driver/Inc/stm32f4xx_ll_gpio.h ****   *         @arg @ref LL_GPIO_PIN_12
 702:Drivers/STM32F4xx_HAL_Driver/Inc/stm32f4xx_ll_gpio.h ****   *         @arg @ref LL_GPIO_PIN_13
 703:Drivers/STM32F4xx_HAL_Driver/Inc/stm32f4xx_ll_gpio.h ****   *         @arg @ref LL_GPIO_PIN_14
 704:Drivers/STM32F4xx_HAL_Driver/Inc/stm32f4xx_ll_gpio.h ****   *         @arg @ref LL_GPIO_PIN_15
 705:Drivers/STM32F4xx_HAL_Driver/Inc/stm32f4xx_ll_gpio.h ****   *         @arg @ref LL_GPIO_PIN_ALL
 706:Drivers/STM32F4xx_HAL_Driver/Inc/stm32f4xx_ll_gpio.h ****   * @retval None
 707:Drivers/STM32F4xx_HAL_Driver/Inc/stm32f4xx_ll_gpio.h ****   */
 708:Drivers/STM32F4xx_HAL_Driver/Inc/stm32f4xx_ll_gpio.h **** __STATIC_INLINE void LL_GPIO_LockPin(GPIO_TypeDef *GPIOx, uint32_t PinMask)
 709:Drivers/STM32F4xx_HAL_Driver/Inc/stm32f4xx_ll_gpio.h **** {
 710:Drivers/STM32F4xx_HAL_Driver/Inc/stm32f4xx_ll_gpio.h ****   __IO uint32_t temp;
 711:Drivers/STM32F4xx_HAL_Driver/Inc/stm32f4xx_ll_gpio.h ****   WRITE_REG(GPIOx->LCKR, GPIO_LCKR_LCKK | PinMask);
 712:Drivers/STM32F4xx_HAL_Driver/Inc/stm32f4xx_ll_gpio.h ****   WRITE_REG(GPIOx->LCKR, PinMask);
 713:Drivers/STM32F4xx_HAL_Driver/Inc/stm32f4xx_ll_gpio.h ****   WRITE_REG(GPIOx->LCKR, GPIO_LCKR_LCKK | PinMask);
 714:Drivers/STM32F4xx_HAL_Driver/Inc/stm32f4xx_ll_gpio.h ****   temp = READ_REG(GPIOx->LCKR);
 715:Drivers/STM32F4xx_HAL_Driver/Inc/stm32f4xx_ll_gpio.h ****   (void) temp;
 716:Drivers/STM32F4xx_HAL_Driver/Inc/stm32f4xx_ll_gpio.h **** }
 717:Drivers/STM32F4xx_HAL_Driver/Inc/stm32f4xx_ll_gpio.h **** 
 718:Drivers/STM32F4xx_HAL_Driver/Inc/stm32f4xx_ll_gpio.h **** /**
 719:Drivers/STM32F4xx_HAL_Driver/Inc/stm32f4xx_ll_gpio.h ****   * @brief  Return 1 if all pins passed as parameter, of a dedicated port, are locked. else Return 
 720:Drivers/STM32F4xx_HAL_Driver/Inc/stm32f4xx_ll_gpio.h ****   * @rmtoll LCKR         LCKy          LL_GPIO_IsPinLocked
 721:Drivers/STM32F4xx_HAL_Driver/Inc/stm32f4xx_ll_gpio.h ****   * @param  GPIOx GPIO Port
 722:Drivers/STM32F4xx_HAL_Driver/Inc/stm32f4xx_ll_gpio.h ****   * @param  PinMask This parameter can be a combination of the following values:
 723:Drivers/STM32F4xx_HAL_Driver/Inc/stm32f4xx_ll_gpio.h ****   *         @arg @ref LL_GPIO_PIN_0
 724:Drivers/STM32F4xx_HAL_Driver/Inc/stm32f4xx_ll_gpio.h ****   *         @arg @ref LL_GPIO_PIN_1
 725:Drivers/STM32F4xx_HAL_Driver/Inc/stm32f4xx_ll_gpio.h ****   *         @arg @ref LL_GPIO_PIN_2
 726:Drivers/STM32F4xx_HAL_Driver/Inc/stm32f4xx_ll_gpio.h ****   *         @arg @ref LL_GPIO_PIN_3
 727:Drivers/STM32F4xx_HAL_Driver/Inc/stm32f4xx_ll_gpio.h ****   *         @arg @ref LL_GPIO_PIN_4
 728:Drivers/STM32F4xx_HAL_Driver/Inc/stm32f4xx_ll_gpio.h ****   *         @arg @ref LL_GPIO_PIN_5
 729:Drivers/STM32F4xx_HAL_Driver/Inc/stm32f4xx_ll_gpio.h ****   *         @arg @ref LL_GPIO_PIN_6
 730:Drivers/STM32F4xx_HAL_Driver/Inc/stm32f4xx_ll_gpio.h ****   *         @arg @ref LL_GPIO_PIN_7
 731:Drivers/STM32F4xx_HAL_Driver/Inc/stm32f4xx_ll_gpio.h ****   *         @arg @ref LL_GPIO_PIN_8
 732:Drivers/STM32F4xx_HAL_Driver/Inc/stm32f4xx_ll_gpio.h ****   *         @arg @ref LL_GPIO_PIN_9
 733:Drivers/STM32F4xx_HAL_Driver/Inc/stm32f4xx_ll_gpio.h ****   *         @arg @ref LL_GPIO_PIN_10
 734:Drivers/STM32F4xx_HAL_Driver/Inc/stm32f4xx_ll_gpio.h ****   *         @arg @ref LL_GPIO_PIN_11
ARM GAS  C:\Users\7636~1\AppData\Local\Temp\ccHxmuM0.s 			page 38


 735:Drivers/STM32F4xx_HAL_Driver/Inc/stm32f4xx_ll_gpio.h ****   *         @arg @ref LL_GPIO_PIN_12
 736:Drivers/STM32F4xx_HAL_Driver/Inc/stm32f4xx_ll_gpio.h ****   *         @arg @ref LL_GPIO_PIN_13
 737:Drivers/STM32F4xx_HAL_Driver/Inc/stm32f4xx_ll_gpio.h ****   *         @arg @ref LL_GPIO_PIN_14
 738:Drivers/STM32F4xx_HAL_Driver/Inc/stm32f4xx_ll_gpio.h ****   *         @arg @ref LL_GPIO_PIN_15
 739:Drivers/STM32F4xx_HAL_Driver/Inc/stm32f4xx_ll_gpio.h ****   *         @arg @ref LL_GPIO_PIN_ALL
 740:Drivers/STM32F4xx_HAL_Driver/Inc/stm32f4xx_ll_gpio.h ****   * @retval State of bit (1 or 0).
 741:Drivers/STM32F4xx_HAL_Driver/Inc/stm32f4xx_ll_gpio.h ****   */
 742:Drivers/STM32F4xx_HAL_Driver/Inc/stm32f4xx_ll_gpio.h **** __STATIC_INLINE uint32_t LL_GPIO_IsPinLocked(GPIO_TypeDef *GPIOx, uint32_t PinMask)
 743:Drivers/STM32F4xx_HAL_Driver/Inc/stm32f4xx_ll_gpio.h **** {
 744:Drivers/STM32F4xx_HAL_Driver/Inc/stm32f4xx_ll_gpio.h ****   return (READ_BIT(GPIOx->LCKR, PinMask) == (PinMask));
 745:Drivers/STM32F4xx_HAL_Driver/Inc/stm32f4xx_ll_gpio.h **** }
 746:Drivers/STM32F4xx_HAL_Driver/Inc/stm32f4xx_ll_gpio.h **** 
 747:Drivers/STM32F4xx_HAL_Driver/Inc/stm32f4xx_ll_gpio.h **** /**
 748:Drivers/STM32F4xx_HAL_Driver/Inc/stm32f4xx_ll_gpio.h ****   * @brief  Return 1 if one of the pin of a dedicated port is locked. else return 0.
 749:Drivers/STM32F4xx_HAL_Driver/Inc/stm32f4xx_ll_gpio.h ****   * @rmtoll LCKR         LCKK          LL_GPIO_IsAnyPinLocked
 750:Drivers/STM32F4xx_HAL_Driver/Inc/stm32f4xx_ll_gpio.h ****   * @param  GPIOx GPIO Port
 751:Drivers/STM32F4xx_HAL_Driver/Inc/stm32f4xx_ll_gpio.h ****   * @retval State of bit (1 or 0).
 752:Drivers/STM32F4xx_HAL_Driver/Inc/stm32f4xx_ll_gpio.h ****   */
 753:Drivers/STM32F4xx_HAL_Driver/Inc/stm32f4xx_ll_gpio.h **** __STATIC_INLINE uint32_t LL_GPIO_IsAnyPinLocked(GPIO_TypeDef *GPIOx)
 754:Drivers/STM32F4xx_HAL_Driver/Inc/stm32f4xx_ll_gpio.h **** {
 755:Drivers/STM32F4xx_HAL_Driver/Inc/stm32f4xx_ll_gpio.h ****   return (READ_BIT(GPIOx->LCKR, GPIO_LCKR_LCKK) == (GPIO_LCKR_LCKK));
 756:Drivers/STM32F4xx_HAL_Driver/Inc/stm32f4xx_ll_gpio.h **** }
 757:Drivers/STM32F4xx_HAL_Driver/Inc/stm32f4xx_ll_gpio.h **** 
 758:Drivers/STM32F4xx_HAL_Driver/Inc/stm32f4xx_ll_gpio.h **** /**
 759:Drivers/STM32F4xx_HAL_Driver/Inc/stm32f4xx_ll_gpio.h ****   * @}
 760:Drivers/STM32F4xx_HAL_Driver/Inc/stm32f4xx_ll_gpio.h ****   */
 761:Drivers/STM32F4xx_HAL_Driver/Inc/stm32f4xx_ll_gpio.h **** 
 762:Drivers/STM32F4xx_HAL_Driver/Inc/stm32f4xx_ll_gpio.h **** /** @defgroup GPIO_LL_EF_Data_Access Data Access
 763:Drivers/STM32F4xx_HAL_Driver/Inc/stm32f4xx_ll_gpio.h ****   * @{
 764:Drivers/STM32F4xx_HAL_Driver/Inc/stm32f4xx_ll_gpio.h ****   */
 765:Drivers/STM32F4xx_HAL_Driver/Inc/stm32f4xx_ll_gpio.h **** 
 766:Drivers/STM32F4xx_HAL_Driver/Inc/stm32f4xx_ll_gpio.h **** /**
 767:Drivers/STM32F4xx_HAL_Driver/Inc/stm32f4xx_ll_gpio.h ****   * @brief  Return full input data register value for a dedicated port.
 768:Drivers/STM32F4xx_HAL_Driver/Inc/stm32f4xx_ll_gpio.h ****   * @rmtoll IDR          IDy           LL_GPIO_ReadInputPort
 769:Drivers/STM32F4xx_HAL_Driver/Inc/stm32f4xx_ll_gpio.h ****   * @param  GPIOx GPIO Port
 770:Drivers/STM32F4xx_HAL_Driver/Inc/stm32f4xx_ll_gpio.h ****   * @retval Input data register value of port
 771:Drivers/STM32F4xx_HAL_Driver/Inc/stm32f4xx_ll_gpio.h ****   */
 772:Drivers/STM32F4xx_HAL_Driver/Inc/stm32f4xx_ll_gpio.h **** __STATIC_INLINE uint32_t LL_GPIO_ReadInputPort(GPIO_TypeDef *GPIOx)
 773:Drivers/STM32F4xx_HAL_Driver/Inc/stm32f4xx_ll_gpio.h **** {
 774:Drivers/STM32F4xx_HAL_Driver/Inc/stm32f4xx_ll_gpio.h ****   return (uint32_t)(READ_REG(GPIOx->IDR));
 775:Drivers/STM32F4xx_HAL_Driver/Inc/stm32f4xx_ll_gpio.h **** }
 776:Drivers/STM32F4xx_HAL_Driver/Inc/stm32f4xx_ll_gpio.h **** 
 777:Drivers/STM32F4xx_HAL_Driver/Inc/stm32f4xx_ll_gpio.h **** /**
 778:Drivers/STM32F4xx_HAL_Driver/Inc/stm32f4xx_ll_gpio.h ****   * @brief  Return if input data level for several pins of dedicated port is high or low.
 779:Drivers/STM32F4xx_HAL_Driver/Inc/stm32f4xx_ll_gpio.h ****   * @rmtoll IDR          IDy           LL_GPIO_IsInputPinSet
 780:Drivers/STM32F4xx_HAL_Driver/Inc/stm32f4xx_ll_gpio.h ****   * @param  GPIOx GPIO Port
 781:Drivers/STM32F4xx_HAL_Driver/Inc/stm32f4xx_ll_gpio.h ****   * @param  PinMask This parameter can be a combination of the following values:
 782:Drivers/STM32F4xx_HAL_Driver/Inc/stm32f4xx_ll_gpio.h ****   *         @arg @ref LL_GPIO_PIN_0
 783:Drivers/STM32F4xx_HAL_Driver/Inc/stm32f4xx_ll_gpio.h ****   *         @arg @ref LL_GPIO_PIN_1
 784:Drivers/STM32F4xx_HAL_Driver/Inc/stm32f4xx_ll_gpio.h ****   *         @arg @ref LL_GPIO_PIN_2
 785:Drivers/STM32F4xx_HAL_Driver/Inc/stm32f4xx_ll_gpio.h ****   *         @arg @ref LL_GPIO_PIN_3
 786:Drivers/STM32F4xx_HAL_Driver/Inc/stm32f4xx_ll_gpio.h ****   *         @arg @ref LL_GPIO_PIN_4
 787:Drivers/STM32F4xx_HAL_Driver/Inc/stm32f4xx_ll_gpio.h ****   *         @arg @ref LL_GPIO_PIN_5
 788:Drivers/STM32F4xx_HAL_Driver/Inc/stm32f4xx_ll_gpio.h ****   *         @arg @ref LL_GPIO_PIN_6
 789:Drivers/STM32F4xx_HAL_Driver/Inc/stm32f4xx_ll_gpio.h ****   *         @arg @ref LL_GPIO_PIN_7
 790:Drivers/STM32F4xx_HAL_Driver/Inc/stm32f4xx_ll_gpio.h ****   *         @arg @ref LL_GPIO_PIN_8
 791:Drivers/STM32F4xx_HAL_Driver/Inc/stm32f4xx_ll_gpio.h ****   *         @arg @ref LL_GPIO_PIN_9
ARM GAS  C:\Users\7636~1\AppData\Local\Temp\ccHxmuM0.s 			page 39


 792:Drivers/STM32F4xx_HAL_Driver/Inc/stm32f4xx_ll_gpio.h ****   *         @arg @ref LL_GPIO_PIN_10
 793:Drivers/STM32F4xx_HAL_Driver/Inc/stm32f4xx_ll_gpio.h ****   *         @arg @ref LL_GPIO_PIN_11
 794:Drivers/STM32F4xx_HAL_Driver/Inc/stm32f4xx_ll_gpio.h ****   *         @arg @ref LL_GPIO_PIN_12
 795:Drivers/STM32F4xx_HAL_Driver/Inc/stm32f4xx_ll_gpio.h ****   *         @arg @ref LL_GPIO_PIN_13
 796:Drivers/STM32F4xx_HAL_Driver/Inc/stm32f4xx_ll_gpio.h ****   *         @arg @ref LL_GPIO_PIN_14
 797:Drivers/STM32F4xx_HAL_Driver/Inc/stm32f4xx_ll_gpio.h ****   *         @arg @ref LL_GPIO_PIN_15
 798:Drivers/STM32F4xx_HAL_Driver/Inc/stm32f4xx_ll_gpio.h ****   *         @arg @ref LL_GPIO_PIN_ALL
 799:Drivers/STM32F4xx_HAL_Driver/Inc/stm32f4xx_ll_gpio.h ****   * @retval State of bit (1 or 0).
 800:Drivers/STM32F4xx_HAL_Driver/Inc/stm32f4xx_ll_gpio.h ****   */
 801:Drivers/STM32F4xx_HAL_Driver/Inc/stm32f4xx_ll_gpio.h **** __STATIC_INLINE uint32_t LL_GPIO_IsInputPinSet(GPIO_TypeDef *GPIOx, uint32_t PinMask)
 802:Drivers/STM32F4xx_HAL_Driver/Inc/stm32f4xx_ll_gpio.h **** {
 803:Drivers/STM32F4xx_HAL_Driver/Inc/stm32f4xx_ll_gpio.h ****   return (READ_BIT(GPIOx->IDR, PinMask) == (PinMask));
 804:Drivers/STM32F4xx_HAL_Driver/Inc/stm32f4xx_ll_gpio.h **** }
 805:Drivers/STM32F4xx_HAL_Driver/Inc/stm32f4xx_ll_gpio.h **** 
 806:Drivers/STM32F4xx_HAL_Driver/Inc/stm32f4xx_ll_gpio.h **** /**
 807:Drivers/STM32F4xx_HAL_Driver/Inc/stm32f4xx_ll_gpio.h ****   * @brief  Write output data register for the port.
 808:Drivers/STM32F4xx_HAL_Driver/Inc/stm32f4xx_ll_gpio.h ****   * @rmtoll ODR          ODy           LL_GPIO_WriteOutputPort
 809:Drivers/STM32F4xx_HAL_Driver/Inc/stm32f4xx_ll_gpio.h ****   * @param  GPIOx GPIO Port
 810:Drivers/STM32F4xx_HAL_Driver/Inc/stm32f4xx_ll_gpio.h ****   * @param  PortValue Level value for each pin of the port
 811:Drivers/STM32F4xx_HAL_Driver/Inc/stm32f4xx_ll_gpio.h ****   * @retval None
 812:Drivers/STM32F4xx_HAL_Driver/Inc/stm32f4xx_ll_gpio.h ****   */
 813:Drivers/STM32F4xx_HAL_Driver/Inc/stm32f4xx_ll_gpio.h **** __STATIC_INLINE void LL_GPIO_WriteOutputPort(GPIO_TypeDef *GPIOx, uint32_t PortValue)
 814:Drivers/STM32F4xx_HAL_Driver/Inc/stm32f4xx_ll_gpio.h **** {
 815:Drivers/STM32F4xx_HAL_Driver/Inc/stm32f4xx_ll_gpio.h ****   WRITE_REG(GPIOx->ODR, PortValue);
 816:Drivers/STM32F4xx_HAL_Driver/Inc/stm32f4xx_ll_gpio.h **** }
 817:Drivers/STM32F4xx_HAL_Driver/Inc/stm32f4xx_ll_gpio.h **** 
 818:Drivers/STM32F4xx_HAL_Driver/Inc/stm32f4xx_ll_gpio.h **** /**
 819:Drivers/STM32F4xx_HAL_Driver/Inc/stm32f4xx_ll_gpio.h ****   * @brief  Return full output data register value for a dedicated port.
 820:Drivers/STM32F4xx_HAL_Driver/Inc/stm32f4xx_ll_gpio.h ****   * @rmtoll ODR          ODy           LL_GPIO_ReadOutputPort
 821:Drivers/STM32F4xx_HAL_Driver/Inc/stm32f4xx_ll_gpio.h ****   * @param  GPIOx GPIO Port
 822:Drivers/STM32F4xx_HAL_Driver/Inc/stm32f4xx_ll_gpio.h ****   * @retval Output data register value of port
 823:Drivers/STM32F4xx_HAL_Driver/Inc/stm32f4xx_ll_gpio.h ****   */
 824:Drivers/STM32F4xx_HAL_Driver/Inc/stm32f4xx_ll_gpio.h **** __STATIC_INLINE uint32_t LL_GPIO_ReadOutputPort(GPIO_TypeDef *GPIOx)
 825:Drivers/STM32F4xx_HAL_Driver/Inc/stm32f4xx_ll_gpio.h **** {
 826:Drivers/STM32F4xx_HAL_Driver/Inc/stm32f4xx_ll_gpio.h ****   return (uint32_t)(READ_REG(GPIOx->ODR));
 827:Drivers/STM32F4xx_HAL_Driver/Inc/stm32f4xx_ll_gpio.h **** }
 828:Drivers/STM32F4xx_HAL_Driver/Inc/stm32f4xx_ll_gpio.h **** 
 829:Drivers/STM32F4xx_HAL_Driver/Inc/stm32f4xx_ll_gpio.h **** /**
 830:Drivers/STM32F4xx_HAL_Driver/Inc/stm32f4xx_ll_gpio.h ****   * @brief  Return if input data level for several pins of dedicated port is high or low.
 831:Drivers/STM32F4xx_HAL_Driver/Inc/stm32f4xx_ll_gpio.h ****   * @rmtoll ODR          ODy           LL_GPIO_IsOutputPinSet
 832:Drivers/STM32F4xx_HAL_Driver/Inc/stm32f4xx_ll_gpio.h ****   * @param  GPIOx GPIO Port
 833:Drivers/STM32F4xx_HAL_Driver/Inc/stm32f4xx_ll_gpio.h ****   * @param  PinMask This parameter can be a combination of the following values:
 834:Drivers/STM32F4xx_HAL_Driver/Inc/stm32f4xx_ll_gpio.h ****   *         @arg @ref LL_GPIO_PIN_0
 835:Drivers/STM32F4xx_HAL_Driver/Inc/stm32f4xx_ll_gpio.h ****   *         @arg @ref LL_GPIO_PIN_1
 836:Drivers/STM32F4xx_HAL_Driver/Inc/stm32f4xx_ll_gpio.h ****   *         @arg @ref LL_GPIO_PIN_2
 837:Drivers/STM32F4xx_HAL_Driver/Inc/stm32f4xx_ll_gpio.h ****   *         @arg @ref LL_GPIO_PIN_3
 838:Drivers/STM32F4xx_HAL_Driver/Inc/stm32f4xx_ll_gpio.h ****   *         @arg @ref LL_GPIO_PIN_4
 839:Drivers/STM32F4xx_HAL_Driver/Inc/stm32f4xx_ll_gpio.h ****   *         @arg @ref LL_GPIO_PIN_5
 840:Drivers/STM32F4xx_HAL_Driver/Inc/stm32f4xx_ll_gpio.h ****   *         @arg @ref LL_GPIO_PIN_6
 841:Drivers/STM32F4xx_HAL_Driver/Inc/stm32f4xx_ll_gpio.h ****   *         @arg @ref LL_GPIO_PIN_7
 842:Drivers/STM32F4xx_HAL_Driver/Inc/stm32f4xx_ll_gpio.h ****   *         @arg @ref LL_GPIO_PIN_8
 843:Drivers/STM32F4xx_HAL_Driver/Inc/stm32f4xx_ll_gpio.h ****   *         @arg @ref LL_GPIO_PIN_9
 844:Drivers/STM32F4xx_HAL_Driver/Inc/stm32f4xx_ll_gpio.h ****   *         @arg @ref LL_GPIO_PIN_10
 845:Drivers/STM32F4xx_HAL_Driver/Inc/stm32f4xx_ll_gpio.h ****   *         @arg @ref LL_GPIO_PIN_11
 846:Drivers/STM32F4xx_HAL_Driver/Inc/stm32f4xx_ll_gpio.h ****   *         @arg @ref LL_GPIO_PIN_12
 847:Drivers/STM32F4xx_HAL_Driver/Inc/stm32f4xx_ll_gpio.h ****   *         @arg @ref LL_GPIO_PIN_13
 848:Drivers/STM32F4xx_HAL_Driver/Inc/stm32f4xx_ll_gpio.h ****   *         @arg @ref LL_GPIO_PIN_14
ARM GAS  C:\Users\7636~1\AppData\Local\Temp\ccHxmuM0.s 			page 40


 849:Drivers/STM32F4xx_HAL_Driver/Inc/stm32f4xx_ll_gpio.h ****   *         @arg @ref LL_GPIO_PIN_15
 850:Drivers/STM32F4xx_HAL_Driver/Inc/stm32f4xx_ll_gpio.h ****   *         @arg @ref LL_GPIO_PIN_ALL
 851:Drivers/STM32F4xx_HAL_Driver/Inc/stm32f4xx_ll_gpio.h ****   * @retval State of bit (1 or 0).
 852:Drivers/STM32F4xx_HAL_Driver/Inc/stm32f4xx_ll_gpio.h ****   */
 853:Drivers/STM32F4xx_HAL_Driver/Inc/stm32f4xx_ll_gpio.h **** __STATIC_INLINE uint32_t LL_GPIO_IsOutputPinSet(GPIO_TypeDef *GPIOx, uint32_t PinMask)
 854:Drivers/STM32F4xx_HAL_Driver/Inc/stm32f4xx_ll_gpio.h **** {
 855:Drivers/STM32F4xx_HAL_Driver/Inc/stm32f4xx_ll_gpio.h ****   return (READ_BIT(GPIOx->ODR, PinMask) == (PinMask));
 856:Drivers/STM32F4xx_HAL_Driver/Inc/stm32f4xx_ll_gpio.h **** }
 857:Drivers/STM32F4xx_HAL_Driver/Inc/stm32f4xx_ll_gpio.h **** 
 858:Drivers/STM32F4xx_HAL_Driver/Inc/stm32f4xx_ll_gpio.h **** /**
 859:Drivers/STM32F4xx_HAL_Driver/Inc/stm32f4xx_ll_gpio.h ****   * @brief  Set several pins to high level on dedicated gpio port.
 860:Drivers/STM32F4xx_HAL_Driver/Inc/stm32f4xx_ll_gpio.h ****   * @rmtoll BSRR         BSy           LL_GPIO_SetOutputPin
 861:Drivers/STM32F4xx_HAL_Driver/Inc/stm32f4xx_ll_gpio.h ****   * @param  GPIOx GPIO Port
 862:Drivers/STM32F4xx_HAL_Driver/Inc/stm32f4xx_ll_gpio.h ****   * @param  PinMask This parameter can be a combination of the following values:
 863:Drivers/STM32F4xx_HAL_Driver/Inc/stm32f4xx_ll_gpio.h ****   *         @arg @ref LL_GPIO_PIN_0
 864:Drivers/STM32F4xx_HAL_Driver/Inc/stm32f4xx_ll_gpio.h ****   *         @arg @ref LL_GPIO_PIN_1
 865:Drivers/STM32F4xx_HAL_Driver/Inc/stm32f4xx_ll_gpio.h ****   *         @arg @ref LL_GPIO_PIN_2
 866:Drivers/STM32F4xx_HAL_Driver/Inc/stm32f4xx_ll_gpio.h ****   *         @arg @ref LL_GPIO_PIN_3
 867:Drivers/STM32F4xx_HAL_Driver/Inc/stm32f4xx_ll_gpio.h ****   *         @arg @ref LL_GPIO_PIN_4
 868:Drivers/STM32F4xx_HAL_Driver/Inc/stm32f4xx_ll_gpio.h ****   *         @arg @ref LL_GPIO_PIN_5
 869:Drivers/STM32F4xx_HAL_Driver/Inc/stm32f4xx_ll_gpio.h ****   *         @arg @ref LL_GPIO_PIN_6
 870:Drivers/STM32F4xx_HAL_Driver/Inc/stm32f4xx_ll_gpio.h ****   *         @arg @ref LL_GPIO_PIN_7
 871:Drivers/STM32F4xx_HAL_Driver/Inc/stm32f4xx_ll_gpio.h ****   *         @arg @ref LL_GPIO_PIN_8
 872:Drivers/STM32F4xx_HAL_Driver/Inc/stm32f4xx_ll_gpio.h ****   *         @arg @ref LL_GPIO_PIN_9
 873:Drivers/STM32F4xx_HAL_Driver/Inc/stm32f4xx_ll_gpio.h ****   *         @arg @ref LL_GPIO_PIN_10
 874:Drivers/STM32F4xx_HAL_Driver/Inc/stm32f4xx_ll_gpio.h ****   *         @arg @ref LL_GPIO_PIN_11
 875:Drivers/STM32F4xx_HAL_Driver/Inc/stm32f4xx_ll_gpio.h ****   *         @arg @ref LL_GPIO_PIN_12
 876:Drivers/STM32F4xx_HAL_Driver/Inc/stm32f4xx_ll_gpio.h ****   *         @arg @ref LL_GPIO_PIN_13
 877:Drivers/STM32F4xx_HAL_Driver/Inc/stm32f4xx_ll_gpio.h ****   *         @arg @ref LL_GPIO_PIN_14
 878:Drivers/STM32F4xx_HAL_Driver/Inc/stm32f4xx_ll_gpio.h ****   *         @arg @ref LL_GPIO_PIN_15
 879:Drivers/STM32F4xx_HAL_Driver/Inc/stm32f4xx_ll_gpio.h ****   *         @arg @ref LL_GPIO_PIN_ALL
 880:Drivers/STM32F4xx_HAL_Driver/Inc/stm32f4xx_ll_gpio.h ****   * @retval None
 881:Drivers/STM32F4xx_HAL_Driver/Inc/stm32f4xx_ll_gpio.h ****   */
 882:Drivers/STM32F4xx_HAL_Driver/Inc/stm32f4xx_ll_gpio.h **** __STATIC_INLINE void LL_GPIO_SetOutputPin(GPIO_TypeDef *GPIOx, uint32_t PinMask)
 883:Drivers/STM32F4xx_HAL_Driver/Inc/stm32f4xx_ll_gpio.h **** {
 884:Drivers/STM32F4xx_HAL_Driver/Inc/stm32f4xx_ll_gpio.h ****   WRITE_REG(GPIOx->BSRR, PinMask);
 885:Drivers/STM32F4xx_HAL_Driver/Inc/stm32f4xx_ll_gpio.h **** }
 886:Drivers/STM32F4xx_HAL_Driver/Inc/stm32f4xx_ll_gpio.h **** 
 887:Drivers/STM32F4xx_HAL_Driver/Inc/stm32f4xx_ll_gpio.h **** /**
 888:Drivers/STM32F4xx_HAL_Driver/Inc/stm32f4xx_ll_gpio.h ****   * @brief  Set several pins to low level on dedicated gpio port.
 889:Drivers/STM32F4xx_HAL_Driver/Inc/stm32f4xx_ll_gpio.h ****   * @rmtoll BSRR         BRy           LL_GPIO_ResetOutputPin
 890:Drivers/STM32F4xx_HAL_Driver/Inc/stm32f4xx_ll_gpio.h ****   * @param  GPIOx GPIO Port
 891:Drivers/STM32F4xx_HAL_Driver/Inc/stm32f4xx_ll_gpio.h ****   * @param  PinMask This parameter can be a combination of the following values:
 892:Drivers/STM32F4xx_HAL_Driver/Inc/stm32f4xx_ll_gpio.h ****   *         @arg @ref LL_GPIO_PIN_0
 893:Drivers/STM32F4xx_HAL_Driver/Inc/stm32f4xx_ll_gpio.h ****   *         @arg @ref LL_GPIO_PIN_1
 894:Drivers/STM32F4xx_HAL_Driver/Inc/stm32f4xx_ll_gpio.h ****   *         @arg @ref LL_GPIO_PIN_2
 895:Drivers/STM32F4xx_HAL_Driver/Inc/stm32f4xx_ll_gpio.h ****   *         @arg @ref LL_GPIO_PIN_3
 896:Drivers/STM32F4xx_HAL_Driver/Inc/stm32f4xx_ll_gpio.h ****   *         @arg @ref LL_GPIO_PIN_4
 897:Drivers/STM32F4xx_HAL_Driver/Inc/stm32f4xx_ll_gpio.h ****   *         @arg @ref LL_GPIO_PIN_5
 898:Drivers/STM32F4xx_HAL_Driver/Inc/stm32f4xx_ll_gpio.h ****   *         @arg @ref LL_GPIO_PIN_6
 899:Drivers/STM32F4xx_HAL_Driver/Inc/stm32f4xx_ll_gpio.h ****   *         @arg @ref LL_GPIO_PIN_7
 900:Drivers/STM32F4xx_HAL_Driver/Inc/stm32f4xx_ll_gpio.h ****   *         @arg @ref LL_GPIO_PIN_8
 901:Drivers/STM32F4xx_HAL_Driver/Inc/stm32f4xx_ll_gpio.h ****   *         @arg @ref LL_GPIO_PIN_9
 902:Drivers/STM32F4xx_HAL_Driver/Inc/stm32f4xx_ll_gpio.h ****   *         @arg @ref LL_GPIO_PIN_10
 903:Drivers/STM32F4xx_HAL_Driver/Inc/stm32f4xx_ll_gpio.h ****   *         @arg @ref LL_GPIO_PIN_11
 904:Drivers/STM32F4xx_HAL_Driver/Inc/stm32f4xx_ll_gpio.h ****   *         @arg @ref LL_GPIO_PIN_12
 905:Drivers/STM32F4xx_HAL_Driver/Inc/stm32f4xx_ll_gpio.h ****   *         @arg @ref LL_GPIO_PIN_13
ARM GAS  C:\Users\7636~1\AppData\Local\Temp\ccHxmuM0.s 			page 41


 906:Drivers/STM32F4xx_HAL_Driver/Inc/stm32f4xx_ll_gpio.h ****   *         @arg @ref LL_GPIO_PIN_14
 907:Drivers/STM32F4xx_HAL_Driver/Inc/stm32f4xx_ll_gpio.h ****   *         @arg @ref LL_GPIO_PIN_15
 908:Drivers/STM32F4xx_HAL_Driver/Inc/stm32f4xx_ll_gpio.h ****   *         @arg @ref LL_GPIO_PIN_ALL
 909:Drivers/STM32F4xx_HAL_Driver/Inc/stm32f4xx_ll_gpio.h ****   * @retval None
 910:Drivers/STM32F4xx_HAL_Driver/Inc/stm32f4xx_ll_gpio.h ****   */
 911:Drivers/STM32F4xx_HAL_Driver/Inc/stm32f4xx_ll_gpio.h **** __STATIC_INLINE void LL_GPIO_ResetOutputPin(GPIO_TypeDef *GPIOx, uint32_t PinMask)
 150              		.loc 3 911 22 view .LVU40
 151              	.LBB27:
 912:Drivers/STM32F4xx_HAL_Driver/Inc/stm32f4xx_ll_gpio.h **** {
 913:Drivers/STM32F4xx_HAL_Driver/Inc/stm32f4xx_ll_gpio.h ****   WRITE_REG(GPIOx->BSRR, (PinMask << 16));
 152              		.loc 3 913 3 view .LVU41
 153 005c 1E48     		ldr	r0, .L3+4
 154 005e 4FF00053 		mov	r3, #536870912
 155 0062 8361     		str	r3, [r0, #24]
 156              	.LVL5:
 157              		.loc 3 913 3 is_stmt 0 view .LVU42
 158              	.LBE27:
 159              	.LBE26:
 793:Src/main.cpp  **** 
 794:Src/main.cpp  ****   /**/
 795:Src/main.cpp  ****   LL_GPIO_ResetOutputPin(GPIOA, GPIO_SHIFT_Pin|BOARD_ADDR0_Pin|BOARD_ADDR1_Pin|BOARD_ADDR2_Pin
 160              		.loc 1 795 3 is_stmt 1 view .LVU43
 161              	.LBB28:
 162              	.LBI28:
 911:Drivers/STM32F4xx_HAL_Driver/Inc/stm32f4xx_ll_gpio.h **** {
 163              		.loc 3 911 22 view .LVU44
 164              	.LBB29:
 165              		.loc 3 913 3 view .LVU45
 166 0064 1D4F     		ldr	r7, .L3+8
 167 0066 1E4B     		ldr	r3, .L3+12
 168 0068 BB61     		str	r3, [r7, #24]
 169              	.LVL6:
 170              		.loc 3 913 3 is_stmt 0 view .LVU46
 171              	.LBE29:
 172              	.LBE28:
 796:Src/main.cpp  ****                           |nCS_Pin);
 797:Src/main.cpp  **** 
 798:Src/main.cpp  ****   /**/
 799:Src/main.cpp  ****   LL_GPIO_ResetOutputPin(GPIOB, IN_LOAD_Pin|OUT_STORE_Pin|OUT_DATA_Pin);
 173              		.loc 1 799 3 is_stmt 1 view .LVU47
 174              	.LBB30:
 175              	.LBI30:
 911:Drivers/STM32F4xx_HAL_Driver/Inc/stm32f4xx_ll_gpio.h **** {
 176              		.loc 3 911 22 view .LVU48
 177              	.LBB31:
 178              		.loc 3 913 3 view .LVU49
 179 006a 1E4E     		ldr	r6, .L3+16
 180 006c 4FF06043 		mov	r3, #-536870912
 181 0070 B361     		str	r3, [r6, #24]
 182              	.LVL7:
 183              		.loc 3 913 3 is_stmt 0 view .LVU50
 184              	.LBE31:
 185              	.LBE30:
 800:Src/main.cpp  **** 
 801:Src/main.cpp  ****   /**/
 802:Src/main.cpp  ****   GPIO_InitStruct.Pin = MASTER_ENABLE_Pin;
 186              		.loc 1 802 3 is_stmt 1 view .LVU51
ARM GAS  C:\Users\7636~1\AppData\Local\Temp\ccHxmuM0.s 			page 42


 187              		.loc 1 802 23 is_stmt 0 view .LVU52
 188 0072 4FF40053 		mov	r3, #8192
 189 0076 0493     		str	r3, [sp, #16]
 803:Src/main.cpp  ****   GPIO_InitStruct.Mode = LL_GPIO_MODE_OUTPUT;
 190              		.loc 1 803 3 is_stmt 1 view .LVU53
 191              		.loc 1 803 24 is_stmt 0 view .LVU54
 192 0078 0125     		movs	r5, #1
 193 007a 0595     		str	r5, [sp, #20]
 804:Src/main.cpp  ****   GPIO_InitStruct.Speed = LL_GPIO_SPEED_FREQ_LOW;
 194              		.loc 1 804 3 is_stmt 1 view .LVU55
 805:Src/main.cpp  ****   GPIO_InitStruct.OutputType = LL_GPIO_OUTPUT_PUSHPULL;
 195              		.loc 1 805 3 view .LVU56
 806:Src/main.cpp  ****   GPIO_InitStruct.Pull = LL_GPIO_PULL_NO;
 196              		.loc 1 806 3 view .LVU57
 807:Src/main.cpp  ****   LL_GPIO_Init(MASTER_ENABLE_GPIO_Port, &GPIO_InitStruct);
 197              		.loc 1 807 3 view .LVU58
 198              		.loc 1 807 15 is_stmt 0 view .LVU59
 199 007c 04A9     		add	r1, sp, #16
 200 007e FFF7FEFF 		bl	LL_GPIO_Init
 201              	.LVL8:
 808:Src/main.cpp  **** 
 809:Src/main.cpp  ****   /**/
 810:Src/main.cpp  ****   GPIO_InitStruct.Pin = BUTTON_Pin;
 202              		.loc 1 810 3 is_stmt 1 view .LVU60
 203              		.loc 1 810 23 is_stmt 0 view .LVU61
 204 0082 0495     		str	r5, [sp, #16]
 811:Src/main.cpp  ****   GPIO_InitStruct.Mode = LL_GPIO_MODE_INPUT;
 205              		.loc 1 811 3 is_stmt 1 view .LVU62
 206              		.loc 1 811 24 is_stmt 0 view .LVU63
 207 0084 0594     		str	r4, [sp, #20]
 812:Src/main.cpp  ****   GPIO_InitStruct.Pull = LL_GPIO_PULL_UP;
 208              		.loc 1 812 3 is_stmt 1 view .LVU64
 209              		.loc 1 812 24 is_stmt 0 view .LVU65
 210 0086 0895     		str	r5, [sp, #32]
 813:Src/main.cpp  ****   LL_GPIO_Init(BUTTON_GPIO_Port, &GPIO_InitStruct);
 211              		.loc 1 813 3 is_stmt 1 view .LVU66
 212              		.loc 1 813 15 is_stmt 0 view .LVU67
 213 0088 04A9     		add	r1, sp, #16
 214 008a 3846     		mov	r0, r7
 215 008c FFF7FEFF 		bl	LL_GPIO_Init
 216              	.LVL9:
 814:Src/main.cpp  **** 
 815:Src/main.cpp  ****   /**/
 816:Src/main.cpp  ****   GPIO_InitStruct.Pin = GPIO_SHIFT_Pin|BOARD_ADDR0_Pin|BOARD_ADDR1_Pin|BOARD_ADDR2_Pin
 217              		.loc 1 816 3 is_stmt 1 view .LVU68
 218              		.loc 1 816 23 is_stmt 0 view .LVU69
 219 0090 48F23A03 		movw	r3, #32826
 220 0094 0493     		str	r3, [sp, #16]
 817:Src/main.cpp  ****                           |nCS_Pin;
 818:Src/main.cpp  ****   GPIO_InitStruct.Mode = LL_GPIO_MODE_OUTPUT;
 221              		.loc 1 818 3 is_stmt 1 view .LVU70
 222              		.loc 1 818 24 is_stmt 0 view .LVU71
 223 0096 0595     		str	r5, [sp, #20]
 819:Src/main.cpp  ****   GPIO_InitStruct.Speed = LL_GPIO_SPEED_FREQ_LOW;
 224              		.loc 1 819 3 is_stmt 1 view .LVU72
 225              		.loc 1 819 25 is_stmt 0 view .LVU73
 226 0098 0694     		str	r4, [sp, #24]
ARM GAS  C:\Users\7636~1\AppData\Local\Temp\ccHxmuM0.s 			page 43


 820:Src/main.cpp  ****   GPIO_InitStruct.OutputType = LL_GPIO_OUTPUT_PUSHPULL;
 227              		.loc 1 820 3 is_stmt 1 view .LVU74
 228              		.loc 1 820 30 is_stmt 0 view .LVU75
 229 009a 0794     		str	r4, [sp, #28]
 821:Src/main.cpp  ****   GPIO_InitStruct.Pull = LL_GPIO_PULL_NO;
 230              		.loc 1 821 3 is_stmt 1 view .LVU76
 231              		.loc 1 821 24 is_stmt 0 view .LVU77
 232 009c 0894     		str	r4, [sp, #32]
 822:Src/main.cpp  ****   LL_GPIO_Init(GPIOA, &GPIO_InitStruct);
 233              		.loc 1 822 3 is_stmt 1 view .LVU78
 234              		.loc 1 822 15 is_stmt 0 view .LVU79
 235 009e 04A9     		add	r1, sp, #16
 236 00a0 3846     		mov	r0, r7
 237 00a2 FFF7FEFF 		bl	LL_GPIO_Init
 238              	.LVL10:
 823:Src/main.cpp  **** 
 824:Src/main.cpp  ****   /**/
 825:Src/main.cpp  ****   GPIO_InitStruct.Pin = IN_DATA_Pin;
 239              		.loc 1 825 3 is_stmt 1 view .LVU80
 240              		.loc 1 825 23 is_stmt 0 view .LVU81
 241 00a6 4FF48053 		mov	r3, #4096
 242 00aa 0493     		str	r3, [sp, #16]
 826:Src/main.cpp  ****   GPIO_InitStruct.Mode = LL_GPIO_MODE_INPUT;
 243              		.loc 1 826 3 is_stmt 1 view .LVU82
 244              		.loc 1 826 24 is_stmt 0 view .LVU83
 245 00ac 0594     		str	r4, [sp, #20]
 827:Src/main.cpp  ****   GPIO_InitStruct.Pull = LL_GPIO_PULL_NO;
 246              		.loc 1 827 3 is_stmt 1 view .LVU84
 247              		.loc 1 827 24 is_stmt 0 view .LVU85
 248 00ae 0894     		str	r4, [sp, #32]
 828:Src/main.cpp  ****   LL_GPIO_Init(IN_DATA_GPIO_Port, &GPIO_InitStruct);
 249              		.loc 1 828 3 is_stmt 1 view .LVU86
 250              		.loc 1 828 15 is_stmt 0 view .LVU87
 251 00b0 04A9     		add	r1, sp, #16
 252 00b2 3046     		mov	r0, r6
 253 00b4 FFF7FEFF 		bl	LL_GPIO_Init
 254              	.LVL11:
 829:Src/main.cpp  **** 
 830:Src/main.cpp  ****   /**/
 831:Src/main.cpp  ****   GPIO_InitStruct.Pin = IN_LOAD_Pin|OUT_STORE_Pin|OUT_DATA_Pin;
 255              		.loc 1 831 3 is_stmt 1 view .LVU88
 256              		.loc 1 831 23 is_stmt 0 view .LVU89
 257 00b8 4FF46043 		mov	r3, #57344
 258 00bc 0493     		str	r3, [sp, #16]
 832:Src/main.cpp  ****   GPIO_InitStruct.Mode = LL_GPIO_MODE_OUTPUT;
 259              		.loc 1 832 3 is_stmt 1 view .LVU90
 260              		.loc 1 832 24 is_stmt 0 view .LVU91
 261 00be 0595     		str	r5, [sp, #20]
 833:Src/main.cpp  ****   GPIO_InitStruct.Speed = LL_GPIO_SPEED_FREQ_LOW;
 262              		.loc 1 833 3 is_stmt 1 view .LVU92
 263              		.loc 1 833 25 is_stmt 0 view .LVU93
 264 00c0 0694     		str	r4, [sp, #24]
 834:Src/main.cpp  ****   GPIO_InitStruct.OutputType = LL_GPIO_OUTPUT_PUSHPULL;
 265              		.loc 1 834 3 is_stmt 1 view .LVU94
 266              		.loc 1 834 30 is_stmt 0 view .LVU95
 267 00c2 0794     		str	r4, [sp, #28]
 835:Src/main.cpp  ****   GPIO_InitStruct.Pull = LL_GPIO_PULL_NO;
ARM GAS  C:\Users\7636~1\AppData\Local\Temp\ccHxmuM0.s 			page 44


 268              		.loc 1 835 3 is_stmt 1 view .LVU96
 269              		.loc 1 835 24 is_stmt 0 view .LVU97
 270 00c4 0894     		str	r4, [sp, #32]
 836:Src/main.cpp  ****   LL_GPIO_Init(GPIOB, &GPIO_InitStruct);
 271              		.loc 1 836 3 is_stmt 1 view .LVU98
 272              		.loc 1 836 15 is_stmt 0 view .LVU99
 273 00c6 04A9     		add	r1, sp, #16
 274 00c8 3046     		mov	r0, r6
 275 00ca FFF7FEFF 		bl	LL_GPIO_Init
 276              	.LVL12:
 837:Src/main.cpp  **** 
 838:Src/main.cpp  **** }
 277              		.loc 1 838 1 view .LVU100
 278 00ce 0BB0     		add	sp, sp, #44
 279              	.LCFI2:
 280              		.cfi_def_cfa_offset 20
 281              		@ sp needed
 282 00d0 F0BD     		pop	{r4, r5, r6, r7, pc}
 283              	.L4:
 284 00d2 00BF     		.align	2
 285              	.L3:
 286 00d4 00380240 		.word	1073887232
 287 00d8 00080240 		.word	1073874944
 288 00dc 00000240 		.word	1073872896
 289 00e0 00003A80 		.word	-2143682560
 290 00e4 00040240 		.word	1073873920
 291              		.cfi_endproc
 292              	.LFE657:
 293              		.fnend
 295              		.section	.text._ZL11MX_DMA_Initv,"ax",%progbits
 296              		.align	1
 297              		.syntax unified
 298              		.thumb
 299              		.thumb_func
 301              	_ZL11MX_DMA_Initv:
 302              		.fnstart
 303              	.LFB656:
 745:Src/main.cpp  **** 
 304              		.loc 1 745 1 is_stmt 1 view -0
 305              		.cfi_startproc
 306              		@ args = 0, pretend = 0, frame = 8
 307              		@ frame_needed = 0, uses_anonymous_args = 0
 308 0000 10B5     		push	{r4, lr}
 309              		.save {r4, lr}
 310              	.LCFI3:
 311              		.cfi_def_cfa_offset 8
 312              		.cfi_offset 4, -8
 313              		.cfi_offset 14, -4
 314              		.pad #8
 315 0002 82B0     		sub	sp, sp, #8
 316              	.LCFI4:
 317              		.cfi_def_cfa_offset 16
 748:Src/main.cpp  ****   __HAL_RCC_DMA1_CLK_ENABLE();
 318              		.loc 1 748 3 view .LVU102
 319              	.LBB32:
 748:Src/main.cpp  ****   __HAL_RCC_DMA1_CLK_ENABLE();
 320              		.loc 1 748 3 view .LVU103
ARM GAS  C:\Users\7636~1\AppData\Local\Temp\ccHxmuM0.s 			page 45


 321 0004 0024     		movs	r4, #0
 322 0006 0094     		str	r4, [sp]
 748:Src/main.cpp  ****   __HAL_RCC_DMA1_CLK_ENABLE();
 323              		.loc 1 748 3 view .LVU104
 324 0008 264B     		ldr	r3, .L7
 325 000a 1A6B     		ldr	r2, [r3, #48]
 326 000c 42F48002 		orr	r2, r2, #4194304
 327 0010 1A63     		str	r2, [r3, #48]
 748:Src/main.cpp  ****   __HAL_RCC_DMA1_CLK_ENABLE();
 328              		.loc 1 748 3 view .LVU105
 329 0012 1A6B     		ldr	r2, [r3, #48]
 330 0014 02F48002 		and	r2, r2, #4194304
 331 0018 0092     		str	r2, [sp]
 748:Src/main.cpp  ****   __HAL_RCC_DMA1_CLK_ENABLE();
 332              		.loc 1 748 3 view .LVU106
 333 001a 009A     		ldr	r2, [sp]
 334              	.LBE32:
 749:Src/main.cpp  **** 
 335              		.loc 1 749 3 view .LVU107
 336              	.LBB33:
 749:Src/main.cpp  **** 
 337              		.loc 1 749 3 view .LVU108
 338 001c 0194     		str	r4, [sp, #4]
 749:Src/main.cpp  **** 
 339              		.loc 1 749 3 view .LVU109
 340 001e 1A6B     		ldr	r2, [r3, #48]
 341 0020 42F40012 		orr	r2, r2, #2097152
 342 0024 1A63     		str	r2, [r3, #48]
 749:Src/main.cpp  **** 
 343              		.loc 1 749 3 view .LVU110
 344 0026 1B6B     		ldr	r3, [r3, #48]
 345 0028 03F40013 		and	r3, r3, #2097152
 346 002c 0193     		str	r3, [sp, #4]
 749:Src/main.cpp  **** 
 347              		.loc 1 749 3 view .LVU111
 348 002e 019B     		ldr	r3, [sp, #4]
 349              	.LBE33:
 753:Src/main.cpp  ****   HAL_NVIC_EnableIRQ(DMA1_Stream0_IRQn);
 350              		.loc 1 753 3 view .LVU112
 753:Src/main.cpp  ****   HAL_NVIC_EnableIRQ(DMA1_Stream0_IRQn);
 351              		.loc 1 753 23 is_stmt 0 view .LVU113
 352 0030 2246     		mov	r2, r4
 353 0032 0121     		movs	r1, #1
 354 0034 0B20     		movs	r0, #11
 355 0036 FFF7FEFF 		bl	HAL_NVIC_SetPriority
 356              	.LVL13:
 754:Src/main.cpp  ****   /* DMA1_Stream7_IRQn interrupt configuration */
 357              		.loc 1 754 3 is_stmt 1 view .LVU114
 754:Src/main.cpp  ****   /* DMA1_Stream7_IRQn interrupt configuration */
 358              		.loc 1 754 21 is_stmt 0 view .LVU115
 359 003a 0B20     		movs	r0, #11
 360 003c FFF7FEFF 		bl	HAL_NVIC_EnableIRQ
 361              	.LVL14:
 756:Src/main.cpp  ****   HAL_NVIC_EnableIRQ(DMA1_Stream7_IRQn);
 362              		.loc 1 756 3 is_stmt 1 view .LVU116
 756:Src/main.cpp  ****   HAL_NVIC_EnableIRQ(DMA1_Stream7_IRQn);
 363              		.loc 1 756 23 is_stmt 0 view .LVU117
ARM GAS  C:\Users\7636~1\AppData\Local\Temp\ccHxmuM0.s 			page 46


 364 0040 2246     		mov	r2, r4
 365 0042 0321     		movs	r1, #3
 366 0044 2F20     		movs	r0, #47
 367 0046 FFF7FEFF 		bl	HAL_NVIC_SetPriority
 368              	.LVL15:
 757:Src/main.cpp  ****   /* DMA2_Stream0_IRQn interrupt configuration */
 369              		.loc 1 757 3 is_stmt 1 view .LVU118
 757:Src/main.cpp  ****   /* DMA2_Stream0_IRQn interrupt configuration */
 370              		.loc 1 757 21 is_stmt 0 view .LVU119
 371 004a 2F20     		movs	r0, #47
 372 004c FFF7FEFF 		bl	HAL_NVIC_EnableIRQ
 373              	.LVL16:
 759:Src/main.cpp  ****   HAL_NVIC_EnableIRQ(DMA2_Stream0_IRQn);
 374              		.loc 1 759 3 is_stmt 1 view .LVU120
 759:Src/main.cpp  ****   HAL_NVIC_EnableIRQ(DMA2_Stream0_IRQn);
 375              		.loc 1 759 23 is_stmt 0 view .LVU121
 376 0050 2246     		mov	r2, r4
 377 0052 0121     		movs	r1, #1
 378 0054 3820     		movs	r0, #56
 379 0056 FFF7FEFF 		bl	HAL_NVIC_SetPriority
 380              	.LVL17:
 760:Src/main.cpp  ****   /* DMA2_Stream2_IRQn interrupt configuration */
 381              		.loc 1 760 3 is_stmt 1 view .LVU122
 760:Src/main.cpp  ****   /* DMA2_Stream2_IRQn interrupt configuration */
 382              		.loc 1 760 21 is_stmt 0 view .LVU123
 383 005a 3820     		movs	r0, #56
 384 005c FFF7FEFF 		bl	HAL_NVIC_EnableIRQ
 385              	.LVL18:
 762:Src/main.cpp  ****   HAL_NVIC_EnableIRQ(DMA2_Stream2_IRQn);
 386              		.loc 1 762 3 is_stmt 1 view .LVU124
 762:Src/main.cpp  ****   HAL_NVIC_EnableIRQ(DMA2_Stream2_IRQn);
 387              		.loc 1 762 23 is_stmt 0 view .LVU125
 388 0060 2246     		mov	r2, r4
 389 0062 0221     		movs	r1, #2
 390 0064 3A20     		movs	r0, #58
 391 0066 FFF7FEFF 		bl	HAL_NVIC_SetPriority
 392              	.LVL19:
 763:Src/main.cpp  ****   /* DMA2_Stream3_IRQn interrupt configuration */
 393              		.loc 1 763 3 is_stmt 1 view .LVU126
 763:Src/main.cpp  ****   /* DMA2_Stream3_IRQn interrupt configuration */
 394              		.loc 1 763 21 is_stmt 0 view .LVU127
 395 006a 3A20     		movs	r0, #58
 396 006c FFF7FEFF 		bl	HAL_NVIC_EnableIRQ
 397              	.LVL20:
 765:Src/main.cpp  ****   HAL_NVIC_EnableIRQ(DMA2_Stream3_IRQn);
 398              		.loc 1 765 3 is_stmt 1 view .LVU128
 765:Src/main.cpp  ****   HAL_NVIC_EnableIRQ(DMA2_Stream3_IRQn);
 399              		.loc 1 765 23 is_stmt 0 view .LVU129
 400 0070 2246     		mov	r2, r4
 401 0072 0321     		movs	r1, #3
 402 0074 3B20     		movs	r0, #59
 403 0076 FFF7FEFF 		bl	HAL_NVIC_SetPriority
 404              	.LVL21:
 766:Src/main.cpp  ****   /* DMA2_Stream4_IRQn interrupt configuration */
 405              		.loc 1 766 3 is_stmt 1 view .LVU130
 766:Src/main.cpp  ****   /* DMA2_Stream4_IRQn interrupt configuration */
 406              		.loc 1 766 21 is_stmt 0 view .LVU131
ARM GAS  C:\Users\7636~1\AppData\Local\Temp\ccHxmuM0.s 			page 47


 407 007a 3B20     		movs	r0, #59
 408 007c FFF7FEFF 		bl	HAL_NVIC_EnableIRQ
 409              	.LVL22:
 768:Src/main.cpp  ****   HAL_NVIC_EnableIRQ(DMA2_Stream4_IRQn);
 410              		.loc 1 768 3 is_stmt 1 view .LVU132
 768:Src/main.cpp  ****   HAL_NVIC_EnableIRQ(DMA2_Stream4_IRQn);
 411              		.loc 1 768 23 is_stmt 0 view .LVU133
 412 0080 2246     		mov	r2, r4
 413 0082 0221     		movs	r1, #2
 414 0084 3C20     		movs	r0, #60
 415 0086 FFF7FEFF 		bl	HAL_NVIC_SetPriority
 416              	.LVL23:
 769:Src/main.cpp  ****   /* DMA2_Stream7_IRQn interrupt configuration */
 417              		.loc 1 769 3 is_stmt 1 view .LVU134
 769:Src/main.cpp  ****   /* DMA2_Stream7_IRQn interrupt configuration */
 418              		.loc 1 769 21 is_stmt 0 view .LVU135
 419 008a 3C20     		movs	r0, #60
 420 008c FFF7FEFF 		bl	HAL_NVIC_EnableIRQ
 421              	.LVL24:
 771:Src/main.cpp  ****   HAL_NVIC_EnableIRQ(DMA2_Stream7_IRQn);
 422              		.loc 1 771 3 is_stmt 1 view .LVU136
 771:Src/main.cpp  ****   HAL_NVIC_EnableIRQ(DMA2_Stream7_IRQn);
 423              		.loc 1 771 23 is_stmt 0 view .LVU137
 424 0090 2246     		mov	r2, r4
 425 0092 0321     		movs	r1, #3
 426 0094 4620     		movs	r0, #70
 427 0096 FFF7FEFF 		bl	HAL_NVIC_SetPriority
 428              	.LVL25:
 772:Src/main.cpp  **** 
 429              		.loc 1 772 3 is_stmt 1 view .LVU138
 772:Src/main.cpp  **** 
 430              		.loc 1 772 21 is_stmt 0 view .LVU139
 431 009a 4620     		movs	r0, #70
 432 009c FFF7FEFF 		bl	HAL_NVIC_EnableIRQ
 433              	.LVL26:
 774:Src/main.cpp  **** 
 434              		.loc 1 774 1 view .LVU140
 435 00a0 02B0     		add	sp, sp, #8
 436              	.LCFI5:
 437              		.cfi_def_cfa_offset 8
 438              		@ sp needed
 439 00a2 10BD     		pop	{r4, pc}
 440              	.L8:
 441              		.align	2
 442              	.L7:
 443 00a4 00380240 		.word	1073887232
 444              		.cfi_endproc
 445              	.LFE656:
 446              		.fnend
 448              		.section	.text.Error_Handler,"ax",%progbits
 449              		.align	1
 450              		.global	Error_Handler
 451              		.syntax unified
 452              		.thumb
 453              		.thumb_func
 455              	Error_Handler:
 456              		.fnstart
ARM GAS  C:\Users\7636~1\AppData\Local\Temp\ccHxmuM0.s 			page 48


 457              	.LFB658:
 839:Src/main.cpp  **** 
 840:Src/main.cpp  **** /* USER CODE BEGIN 4 */
 841:Src/main.cpp  **** 
 842:Src/main.cpp  **** /* USER CODE END 4 */
 843:Src/main.cpp  **** 
 844:Src/main.cpp  **** /**
 845:Src/main.cpp  ****   * @brief  This function is executed in case of error occurrence.
 846:Src/main.cpp  ****   * @retval None
 847:Src/main.cpp  ****   */
 848:Src/main.cpp  **** void Error_Handler(void)
 849:Src/main.cpp  **** {
 458              		.loc 1 849 1 is_stmt 1 view -0
 459              		.cfi_startproc
 460              		@ Volatile: function does not return.
 461              		@ args = 0, pretend = 0, frame = 0
 462              		@ frame_needed = 0, uses_anonymous_args = 0
 463              		@ link register save eliminated.
 850:Src/main.cpp  ****   /* USER CODE BEGIN Error_Handler_Debug */
 851:Src/main.cpp  ****   /* User can add his own implementation to report the HAL error return state */
 852:Src/main.cpp  ****   __disable_irq();
 464              		.loc 1 852 3 view .LVU142
 465              	.LBB34:
 466              	.LBI34:
 467              		.file 4 "Drivers/CMSIS/Include/cmsis_gcc.h"
   1:Drivers/CMSIS/Include/cmsis_gcc.h **** /**************************************************************************//**
   2:Drivers/CMSIS/Include/cmsis_gcc.h ****  * @file     cmsis_gcc.h
   3:Drivers/CMSIS/Include/cmsis_gcc.h ****  * @brief    CMSIS compiler GCC header file
   4:Drivers/CMSIS/Include/cmsis_gcc.h ****  * @version  V5.0.4
   5:Drivers/CMSIS/Include/cmsis_gcc.h ****  * @date     09. April 2018
   6:Drivers/CMSIS/Include/cmsis_gcc.h ****  ******************************************************************************/
   7:Drivers/CMSIS/Include/cmsis_gcc.h **** /*
   8:Drivers/CMSIS/Include/cmsis_gcc.h ****  * Copyright (c) 2009-2018 Arm Limited. All rights reserved.
   9:Drivers/CMSIS/Include/cmsis_gcc.h ****  *
  10:Drivers/CMSIS/Include/cmsis_gcc.h ****  * SPDX-License-Identifier: Apache-2.0
  11:Drivers/CMSIS/Include/cmsis_gcc.h ****  *
  12:Drivers/CMSIS/Include/cmsis_gcc.h ****  * Licensed under the Apache License, Version 2.0 (the License); you may
  13:Drivers/CMSIS/Include/cmsis_gcc.h ****  * not use this file except in compliance with the License.
  14:Drivers/CMSIS/Include/cmsis_gcc.h ****  * You may obtain a copy of the License at
  15:Drivers/CMSIS/Include/cmsis_gcc.h ****  *
  16:Drivers/CMSIS/Include/cmsis_gcc.h ****  * www.apache.org/licenses/LICENSE-2.0
  17:Drivers/CMSIS/Include/cmsis_gcc.h ****  *
  18:Drivers/CMSIS/Include/cmsis_gcc.h ****  * Unless required by applicable law or agreed to in writing, software
  19:Drivers/CMSIS/Include/cmsis_gcc.h ****  * distributed under the License is distributed on an AS IS BASIS, WITHOUT
  20:Drivers/CMSIS/Include/cmsis_gcc.h ****  * WARRANTIES OR CONDITIONS OF ANY KIND, either express or implied.
  21:Drivers/CMSIS/Include/cmsis_gcc.h ****  * See the License for the specific language governing permissions and
  22:Drivers/CMSIS/Include/cmsis_gcc.h ****  * limitations under the License.
  23:Drivers/CMSIS/Include/cmsis_gcc.h ****  */
  24:Drivers/CMSIS/Include/cmsis_gcc.h **** 
  25:Drivers/CMSIS/Include/cmsis_gcc.h **** #ifndef __CMSIS_GCC_H
  26:Drivers/CMSIS/Include/cmsis_gcc.h **** #define __CMSIS_GCC_H
  27:Drivers/CMSIS/Include/cmsis_gcc.h **** 
  28:Drivers/CMSIS/Include/cmsis_gcc.h **** /* ignore some GCC warnings */
  29:Drivers/CMSIS/Include/cmsis_gcc.h **** #pragma GCC diagnostic push
  30:Drivers/CMSIS/Include/cmsis_gcc.h **** #pragma GCC diagnostic ignored "-Wsign-conversion"
  31:Drivers/CMSIS/Include/cmsis_gcc.h **** #pragma GCC diagnostic ignored "-Wconversion"
  32:Drivers/CMSIS/Include/cmsis_gcc.h **** #pragma GCC diagnostic ignored "-Wunused-parameter"
ARM GAS  C:\Users\7636~1\AppData\Local\Temp\ccHxmuM0.s 			page 49


  33:Drivers/CMSIS/Include/cmsis_gcc.h **** 
  34:Drivers/CMSIS/Include/cmsis_gcc.h **** /* Fallback for __has_builtin */
  35:Drivers/CMSIS/Include/cmsis_gcc.h **** #ifndef __has_builtin
  36:Drivers/CMSIS/Include/cmsis_gcc.h ****   #define __has_builtin(x) (0)
  37:Drivers/CMSIS/Include/cmsis_gcc.h **** #endif
  38:Drivers/CMSIS/Include/cmsis_gcc.h **** 
  39:Drivers/CMSIS/Include/cmsis_gcc.h **** /* CMSIS compiler specific defines */
  40:Drivers/CMSIS/Include/cmsis_gcc.h **** #ifndef   __ASM
  41:Drivers/CMSIS/Include/cmsis_gcc.h ****   #define __ASM                                  __asm
  42:Drivers/CMSIS/Include/cmsis_gcc.h **** #endif
  43:Drivers/CMSIS/Include/cmsis_gcc.h **** #ifndef   __INLINE
  44:Drivers/CMSIS/Include/cmsis_gcc.h ****   #define __INLINE                               inline
  45:Drivers/CMSIS/Include/cmsis_gcc.h **** #endif
  46:Drivers/CMSIS/Include/cmsis_gcc.h **** #ifndef   __STATIC_INLINE
  47:Drivers/CMSIS/Include/cmsis_gcc.h ****   #define __STATIC_INLINE                        static inline
  48:Drivers/CMSIS/Include/cmsis_gcc.h **** #endif
  49:Drivers/CMSIS/Include/cmsis_gcc.h **** #ifndef   __STATIC_FORCEINLINE                 
  50:Drivers/CMSIS/Include/cmsis_gcc.h ****   #define __STATIC_FORCEINLINE                   __attribute__((always_inline)) static inline
  51:Drivers/CMSIS/Include/cmsis_gcc.h **** #endif                                           
  52:Drivers/CMSIS/Include/cmsis_gcc.h **** #ifndef   __NO_RETURN
  53:Drivers/CMSIS/Include/cmsis_gcc.h ****   #define __NO_RETURN                            __attribute__((__noreturn__))
  54:Drivers/CMSIS/Include/cmsis_gcc.h **** #endif
  55:Drivers/CMSIS/Include/cmsis_gcc.h **** #ifndef   __USED
  56:Drivers/CMSIS/Include/cmsis_gcc.h ****   #define __USED                                 __attribute__((used))
  57:Drivers/CMSIS/Include/cmsis_gcc.h **** #endif
  58:Drivers/CMSIS/Include/cmsis_gcc.h **** #ifndef   __WEAK
  59:Drivers/CMSIS/Include/cmsis_gcc.h ****   #define __WEAK                                 __attribute__((weak))
  60:Drivers/CMSIS/Include/cmsis_gcc.h **** #endif
  61:Drivers/CMSIS/Include/cmsis_gcc.h **** #ifndef   __PACKED
  62:Drivers/CMSIS/Include/cmsis_gcc.h ****   #define __PACKED                               __attribute__((packed, aligned(1)))
  63:Drivers/CMSIS/Include/cmsis_gcc.h **** #endif
  64:Drivers/CMSIS/Include/cmsis_gcc.h **** #ifndef   __PACKED_STRUCT
  65:Drivers/CMSIS/Include/cmsis_gcc.h ****   #define __PACKED_STRUCT                        struct __attribute__((packed, aligned(1)))
  66:Drivers/CMSIS/Include/cmsis_gcc.h **** #endif
  67:Drivers/CMSIS/Include/cmsis_gcc.h **** #ifndef   __PACKED_UNION
  68:Drivers/CMSIS/Include/cmsis_gcc.h ****   #define __PACKED_UNION                         union __attribute__((packed, aligned(1)))
  69:Drivers/CMSIS/Include/cmsis_gcc.h **** #endif
  70:Drivers/CMSIS/Include/cmsis_gcc.h **** #ifndef   __UNALIGNED_UINT32        /* deprecated */
  71:Drivers/CMSIS/Include/cmsis_gcc.h ****   #pragma GCC diagnostic push
  72:Drivers/CMSIS/Include/cmsis_gcc.h ****   #pragma GCC diagnostic ignored "-Wpacked"
  73:Drivers/CMSIS/Include/cmsis_gcc.h ****   #pragma GCC diagnostic ignored "-Wattributes"
  74:Drivers/CMSIS/Include/cmsis_gcc.h ****   struct __attribute__((packed)) T_UINT32 { uint32_t v; };
  75:Drivers/CMSIS/Include/cmsis_gcc.h ****   #pragma GCC diagnostic pop
  76:Drivers/CMSIS/Include/cmsis_gcc.h ****   #define __UNALIGNED_UINT32(x)                  (((struct T_UINT32 *)(x))->v)
  77:Drivers/CMSIS/Include/cmsis_gcc.h **** #endif
  78:Drivers/CMSIS/Include/cmsis_gcc.h **** #ifndef   __UNALIGNED_UINT16_WRITE
  79:Drivers/CMSIS/Include/cmsis_gcc.h ****   #pragma GCC diagnostic push
  80:Drivers/CMSIS/Include/cmsis_gcc.h ****   #pragma GCC diagnostic ignored "-Wpacked"
  81:Drivers/CMSIS/Include/cmsis_gcc.h ****   #pragma GCC diagnostic ignored "-Wattributes"
  82:Drivers/CMSIS/Include/cmsis_gcc.h ****   __PACKED_STRUCT T_UINT16_WRITE { uint16_t v; };
  83:Drivers/CMSIS/Include/cmsis_gcc.h ****   #pragma GCC diagnostic pop
  84:Drivers/CMSIS/Include/cmsis_gcc.h ****   #define __UNALIGNED_UINT16_WRITE(addr, val)    (void)((((struct T_UINT16_WRITE *)(void *)(addr))-
  85:Drivers/CMSIS/Include/cmsis_gcc.h **** #endif
  86:Drivers/CMSIS/Include/cmsis_gcc.h **** #ifndef   __UNALIGNED_UINT16_READ
  87:Drivers/CMSIS/Include/cmsis_gcc.h ****   #pragma GCC diagnostic push
  88:Drivers/CMSIS/Include/cmsis_gcc.h ****   #pragma GCC diagnostic ignored "-Wpacked"
  89:Drivers/CMSIS/Include/cmsis_gcc.h ****   #pragma GCC diagnostic ignored "-Wattributes"
ARM GAS  C:\Users\7636~1\AppData\Local\Temp\ccHxmuM0.s 			page 50


  90:Drivers/CMSIS/Include/cmsis_gcc.h ****   __PACKED_STRUCT T_UINT16_READ { uint16_t v; };
  91:Drivers/CMSIS/Include/cmsis_gcc.h ****   #pragma GCC diagnostic pop
  92:Drivers/CMSIS/Include/cmsis_gcc.h ****   #define __UNALIGNED_UINT16_READ(addr)          (((const struct T_UINT16_READ *)(const void *)(add
  93:Drivers/CMSIS/Include/cmsis_gcc.h **** #endif
  94:Drivers/CMSIS/Include/cmsis_gcc.h **** #ifndef   __UNALIGNED_UINT32_WRITE
  95:Drivers/CMSIS/Include/cmsis_gcc.h ****   #pragma GCC diagnostic push
  96:Drivers/CMSIS/Include/cmsis_gcc.h ****   #pragma GCC diagnostic ignored "-Wpacked"
  97:Drivers/CMSIS/Include/cmsis_gcc.h ****   #pragma GCC diagnostic ignored "-Wattributes"
  98:Drivers/CMSIS/Include/cmsis_gcc.h ****   __PACKED_STRUCT T_UINT32_WRITE { uint32_t v; };
  99:Drivers/CMSIS/Include/cmsis_gcc.h ****   #pragma GCC diagnostic pop
 100:Drivers/CMSIS/Include/cmsis_gcc.h ****   #define __UNALIGNED_UINT32_WRITE(addr, val)    (void)((((struct T_UINT32_WRITE *)(void *)(addr))-
 101:Drivers/CMSIS/Include/cmsis_gcc.h **** #endif
 102:Drivers/CMSIS/Include/cmsis_gcc.h **** #ifndef   __UNALIGNED_UINT32_READ
 103:Drivers/CMSIS/Include/cmsis_gcc.h ****   #pragma GCC diagnostic push
 104:Drivers/CMSIS/Include/cmsis_gcc.h ****   #pragma GCC diagnostic ignored "-Wpacked"
 105:Drivers/CMSIS/Include/cmsis_gcc.h ****   #pragma GCC diagnostic ignored "-Wattributes"
 106:Drivers/CMSIS/Include/cmsis_gcc.h ****   __PACKED_STRUCT T_UINT32_READ { uint32_t v; };
 107:Drivers/CMSIS/Include/cmsis_gcc.h ****   #pragma GCC diagnostic pop
 108:Drivers/CMSIS/Include/cmsis_gcc.h ****   #define __UNALIGNED_UINT32_READ(addr)          (((const struct T_UINT32_READ *)(const void *)(add
 109:Drivers/CMSIS/Include/cmsis_gcc.h **** #endif
 110:Drivers/CMSIS/Include/cmsis_gcc.h **** #ifndef   __ALIGNED
 111:Drivers/CMSIS/Include/cmsis_gcc.h ****   #define __ALIGNED(x)                           __attribute__((aligned(x)))
 112:Drivers/CMSIS/Include/cmsis_gcc.h **** #endif
 113:Drivers/CMSIS/Include/cmsis_gcc.h **** #ifndef   __RESTRICT
 114:Drivers/CMSIS/Include/cmsis_gcc.h ****   #define __RESTRICT                             __restrict
 115:Drivers/CMSIS/Include/cmsis_gcc.h **** #endif
 116:Drivers/CMSIS/Include/cmsis_gcc.h **** 
 117:Drivers/CMSIS/Include/cmsis_gcc.h **** 
 118:Drivers/CMSIS/Include/cmsis_gcc.h **** /* ###########################  Core Function Access  ########################### */
 119:Drivers/CMSIS/Include/cmsis_gcc.h **** /** \ingroup  CMSIS_Core_FunctionInterface
 120:Drivers/CMSIS/Include/cmsis_gcc.h ****     \defgroup CMSIS_Core_RegAccFunctions CMSIS Core Register Access Functions
 121:Drivers/CMSIS/Include/cmsis_gcc.h ****   @{
 122:Drivers/CMSIS/Include/cmsis_gcc.h ****  */
 123:Drivers/CMSIS/Include/cmsis_gcc.h **** 
 124:Drivers/CMSIS/Include/cmsis_gcc.h **** /**
 125:Drivers/CMSIS/Include/cmsis_gcc.h ****   \brief   Enable IRQ Interrupts
 126:Drivers/CMSIS/Include/cmsis_gcc.h ****   \details Enables IRQ interrupts by clearing the I-bit in the CPSR.
 127:Drivers/CMSIS/Include/cmsis_gcc.h ****            Can only be executed in Privileged modes.
 128:Drivers/CMSIS/Include/cmsis_gcc.h ****  */
 129:Drivers/CMSIS/Include/cmsis_gcc.h **** __STATIC_FORCEINLINE void __enable_irq(void)
 130:Drivers/CMSIS/Include/cmsis_gcc.h **** {
 131:Drivers/CMSIS/Include/cmsis_gcc.h ****   __ASM volatile ("cpsie i" : : : "memory");
 132:Drivers/CMSIS/Include/cmsis_gcc.h **** }
 133:Drivers/CMSIS/Include/cmsis_gcc.h **** 
 134:Drivers/CMSIS/Include/cmsis_gcc.h **** 
 135:Drivers/CMSIS/Include/cmsis_gcc.h **** /**
 136:Drivers/CMSIS/Include/cmsis_gcc.h ****   \brief   Disable IRQ Interrupts
 137:Drivers/CMSIS/Include/cmsis_gcc.h ****   \details Disables IRQ interrupts by setting the I-bit in the CPSR.
 138:Drivers/CMSIS/Include/cmsis_gcc.h ****            Can only be executed in Privileged modes.
 139:Drivers/CMSIS/Include/cmsis_gcc.h ****  */
 140:Drivers/CMSIS/Include/cmsis_gcc.h **** __STATIC_FORCEINLINE void __disable_irq(void)
 468              		.loc 4 140 27 view .LVU143
 469              	.LBB35:
 141:Drivers/CMSIS/Include/cmsis_gcc.h **** {
 142:Drivers/CMSIS/Include/cmsis_gcc.h ****   __ASM volatile ("cpsid i" : : : "memory");
 470              		.loc 4 142 3 view .LVU144
 471              		.syntax unified
ARM GAS  C:\Users\7636~1\AppData\Local\Temp\ccHxmuM0.s 			page 51


 472              	@ 142 "Drivers/CMSIS/Include/cmsis_gcc.h" 1
 473 0000 72B6     		cpsid i
 474              	@ 0 "" 2
 475              		.thumb
 476              		.syntax unified
 477              	.L10:
 478              	.LBE35:
 479              	.LBE34:
 853:Src/main.cpp  ****   while (1)
 480              		.loc 1 853 3 discriminator 1 view .LVU145
 481              		.loc 1 853 3 discriminator 1 view .LVU146
 482 0002 FEE7     		b	.L10
 483              		.cfi_endproc
 484              	.LFE658:
 485              		.cantunwind
 486              		.fnend
 488              		.section	.text._ZL12MX_ADC1_Initv,"ax",%progbits
 489              		.align	1
 490              		.syntax unified
 491              		.thumb
 492              		.thumb_func
 494              	_ZL12MX_ADC1_Initv:
 495              		.fnstart
 496              	.LFB646:
 212:Src/main.cpp  **** 
 497              		.loc 1 212 1 view -0
 498              		.cfi_startproc
 499              		@ args = 0, pretend = 0, frame = 16
 500              		@ frame_needed = 0, uses_anonymous_args = 0
 501 0000 00B5     		push	{lr}
 502              		.save {lr}
 503              	.LCFI6:
 504              		.cfi_def_cfa_offset 4
 505              		.cfi_offset 14, -4
 506              		.pad #20
 507 0002 85B0     		sub	sp, sp, #20
 508              	.LCFI7:
 509              		.cfi_def_cfa_offset 24
 218:Src/main.cpp  **** 
 510              		.loc 1 218 3 view .LVU148
 218:Src/main.cpp  **** 
 511              		.loc 1 218 26 is_stmt 0 view .LVU149
 512 0004 0023     		movs	r3, #0
 513 0006 0093     		str	r3, [sp]
 514 0008 0193     		str	r3, [sp, #4]
 515 000a 0293     		str	r3, [sp, #8]
 516 000c 0393     		str	r3, [sp, #12]
 225:Src/main.cpp  ****   hadc1.Init.ClockPrescaler = ADC_CLOCK_SYNC_PCLK_DIV8;
 517              		.loc 1 225 3 is_stmt 1 view .LVU150
 225:Src/main.cpp  ****   hadc1.Init.ClockPrescaler = ADC_CLOCK_SYNC_PCLK_DIV8;
 518              		.loc 1 225 18 is_stmt 0 view .LVU151
 519 000e 3F48     		ldr	r0, .L31
 520 0010 3F4A     		ldr	r2, .L31+4
 521 0012 0260     		str	r2, [r0]
 226:Src/main.cpp  ****   hadc1.Init.Resolution = ADC_RESOLUTION_12B;
 522              		.loc 1 226 3 is_stmt 1 view .LVU152
 226:Src/main.cpp  ****   hadc1.Init.Resolution = ADC_RESOLUTION_12B;
ARM GAS  C:\Users\7636~1\AppData\Local\Temp\ccHxmuM0.s 			page 52


 523              		.loc 1 226 29 is_stmt 0 view .LVU153
 524 0014 4FF44032 		mov	r2, #196608
 525 0018 4260     		str	r2, [r0, #4]
 227:Src/main.cpp  ****   hadc1.Init.ScanConvMode = ENABLE;
 526              		.loc 1 227 3 is_stmt 1 view .LVU154
 227:Src/main.cpp  ****   hadc1.Init.ScanConvMode = ENABLE;
 527              		.loc 1 227 25 is_stmt 0 view .LVU155
 528 001a 8360     		str	r3, [r0, #8]
 228:Src/main.cpp  ****   hadc1.Init.ContinuousConvMode = DISABLE;
 529              		.loc 1 228 3 is_stmt 1 view .LVU156
 228:Src/main.cpp  ****   hadc1.Init.ContinuousConvMode = DISABLE;
 530              		.loc 1 228 27 is_stmt 0 view .LVU157
 531 001c 0122     		movs	r2, #1
 532 001e 0261     		str	r2, [r0, #16]
 229:Src/main.cpp  ****   hadc1.Init.DiscontinuousConvMode = DISABLE;
 533              		.loc 1 229 3 is_stmt 1 view .LVU158
 229:Src/main.cpp  ****   hadc1.Init.DiscontinuousConvMode = DISABLE;
 534              		.loc 1 229 33 is_stmt 0 view .LVU159
 535 0020 0376     		strb	r3, [r0, #24]
 230:Src/main.cpp  ****   hadc1.Init.ExternalTrigConvEdge = ADC_EXTERNALTRIGCONVEDGE_RISING;
 536              		.loc 1 230 3 is_stmt 1 view .LVU160
 230:Src/main.cpp  ****   hadc1.Init.ExternalTrigConvEdge = ADC_EXTERNALTRIGCONVEDGE_RISING;
 537              		.loc 1 230 36 is_stmt 0 view .LVU161
 538 0022 80F82030 		strb	r3, [r0, #32]
 231:Src/main.cpp  ****   hadc1.Init.ExternalTrigConv = ADC_EXTERNALTRIGCONV_T3_TRGO;
 539              		.loc 1 231 3 is_stmt 1 view .LVU162
 231:Src/main.cpp  ****   hadc1.Init.ExternalTrigConv = ADC_EXTERNALTRIGCONV_T3_TRGO;
 540              		.loc 1 231 35 is_stmt 0 view .LVU163
 541 0026 4FF08051 		mov	r1, #268435456
 542 002a C162     		str	r1, [r0, #44]
 232:Src/main.cpp  ****   hadc1.Init.DataAlign = ADC_DATAALIGN_RIGHT;
 543              		.loc 1 232 3 is_stmt 1 view .LVU164
 232:Src/main.cpp  ****   hadc1.Init.DataAlign = ADC_DATAALIGN_RIGHT;
 544              		.loc 1 232 31 is_stmt 0 view .LVU165
 545 002c 4FF00061 		mov	r1, #134217728
 546 0030 8162     		str	r1, [r0, #40]
 233:Src/main.cpp  ****   hadc1.Init.NbrOfConversion = 8;
 547              		.loc 1 233 3 is_stmt 1 view .LVU166
 233:Src/main.cpp  ****   hadc1.Init.NbrOfConversion = 8;
 548              		.loc 1 233 24 is_stmt 0 view .LVU167
 549 0032 C360     		str	r3, [r0, #12]
 234:Src/main.cpp  ****   hadc1.Init.DMAContinuousRequests = ENABLE;
 550              		.loc 1 234 3 is_stmt 1 view .LVU168
 234:Src/main.cpp  ****   hadc1.Init.DMAContinuousRequests = ENABLE;
 551              		.loc 1 234 30 is_stmt 0 view .LVU169
 552 0034 0821     		movs	r1, #8
 553 0036 C161     		str	r1, [r0, #28]
 235:Src/main.cpp  ****   hadc1.Init.EOCSelection = ADC_EOC_SEQ_CONV;
 554              		.loc 1 235 3 is_stmt 1 view .LVU170
 235:Src/main.cpp  ****   hadc1.Init.EOCSelection = ADC_EOC_SEQ_CONV;
 555              		.loc 1 235 36 is_stmt 0 view .LVU171
 556 0038 80F83020 		strb	r2, [r0, #48]
 236:Src/main.cpp  ****   if (HAL_ADC_Init(&hadc1) != HAL_OK)
 557              		.loc 1 236 3 is_stmt 1 view .LVU172
 236:Src/main.cpp  ****   if (HAL_ADC_Init(&hadc1) != HAL_OK)
 558              		.loc 1 236 27 is_stmt 0 view .LVU173
 559 003c 4361     		str	r3, [r0, #20]
ARM GAS  C:\Users\7636~1\AppData\Local\Temp\ccHxmuM0.s 			page 53


 237:Src/main.cpp  ****   {
 560              		.loc 1 237 3 is_stmt 1 view .LVU174
 237:Src/main.cpp  ****   {
 561              		.loc 1 237 19 is_stmt 0 view .LVU175
 562 003e FFF7FEFF 		bl	HAL_ADC_Init
 563              	.LVL27:
 237:Src/main.cpp  ****   {
 564              		.loc 1 237 3 view .LVU176
 565 0042 0028     		cmp	r0, #0
 566 0044 4FD1     		bne	.L22
 243:Src/main.cpp  ****   sConfig.Rank = 1;
 567              		.loc 1 243 3 is_stmt 1 view .LVU177
 243:Src/main.cpp  ****   sConfig.Rank = 1;
 568              		.loc 1 243 19 is_stmt 0 view .LVU178
 569 0046 1123     		movs	r3, #17
 570 0048 0093     		str	r3, [sp]
 244:Src/main.cpp  ****   sConfig.SamplingTime = ADC_SAMPLETIME_480CYCLES;
 571              		.loc 1 244 3 is_stmt 1 view .LVU179
 244:Src/main.cpp  ****   sConfig.SamplingTime = ADC_SAMPLETIME_480CYCLES;
 572              		.loc 1 244 16 is_stmt 0 view .LVU180
 573 004a 0123     		movs	r3, #1
 574 004c 0193     		str	r3, [sp, #4]
 245:Src/main.cpp  ****   if (HAL_ADC_ConfigChannel(&hadc1, &sConfig) != HAL_OK)
 575              		.loc 1 245 3 is_stmt 1 view .LVU181
 245:Src/main.cpp  ****   if (HAL_ADC_ConfigChannel(&hadc1, &sConfig) != HAL_OK)
 576              		.loc 1 245 24 is_stmt 0 view .LVU182
 577 004e 0723     		movs	r3, #7
 578 0050 0293     		str	r3, [sp, #8]
 246:Src/main.cpp  ****   {
 579              		.loc 1 246 3 is_stmt 1 view .LVU183
 246:Src/main.cpp  ****   {
 580              		.loc 1 246 28 is_stmt 0 view .LVU184
 581 0052 6946     		mov	r1, sp
 582 0054 2D48     		ldr	r0, .L31
 583 0056 FFF7FEFF 		bl	HAL_ADC_ConfigChannel
 584              	.LVL28:
 246:Src/main.cpp  ****   {
 585              		.loc 1 246 3 view .LVU185
 586 005a 0028     		cmp	r0, #0
 587 005c 45D1     		bne	.L23
 252:Src/main.cpp  ****   sConfig.Rank = 2;
 588              		.loc 1 252 3 is_stmt 1 view .LVU186
 252:Src/main.cpp  ****   sConfig.Rank = 2;
 589              		.loc 1 252 19 is_stmt 0 view .LVU187
 590 005e 0623     		movs	r3, #6
 591 0060 0093     		str	r3, [sp]
 253:Src/main.cpp  ****   if (HAL_ADC_ConfigChannel(&hadc1, &sConfig) != HAL_OK)
 592              		.loc 1 253 3 is_stmt 1 view .LVU188
 253:Src/main.cpp  ****   if (HAL_ADC_ConfigChannel(&hadc1, &sConfig) != HAL_OK)
 593              		.loc 1 253 16 is_stmt 0 view .LVU189
 594 0062 0223     		movs	r3, #2
 595 0064 0193     		str	r3, [sp, #4]
 254:Src/main.cpp  ****   {
 596              		.loc 1 254 3 is_stmt 1 view .LVU190
 254:Src/main.cpp  ****   {
 597              		.loc 1 254 28 is_stmt 0 view .LVU191
 598 0066 6946     		mov	r1, sp
ARM GAS  C:\Users\7636~1\AppData\Local\Temp\ccHxmuM0.s 			page 54


 599 0068 2848     		ldr	r0, .L31
 600 006a FFF7FEFF 		bl	HAL_ADC_ConfigChannel
 601              	.LVL29:
 254:Src/main.cpp  ****   {
 602              		.loc 1 254 3 view .LVU192
 603 006e 0028     		cmp	r0, #0
 604 0070 3DD1     		bne	.L24
 260:Src/main.cpp  ****   sConfig.Rank = 3;
 605              		.loc 1 260 3 is_stmt 1 view .LVU193
 260:Src/main.cpp  ****   sConfig.Rank = 3;
 606              		.loc 1 260 19 is_stmt 0 view .LVU194
 607 0072 0723     		movs	r3, #7
 608 0074 0093     		str	r3, [sp]
 261:Src/main.cpp  ****   if (HAL_ADC_ConfigChannel(&hadc1, &sConfig) != HAL_OK)
 609              		.loc 1 261 3 is_stmt 1 view .LVU195
 261:Src/main.cpp  ****   if (HAL_ADC_ConfigChannel(&hadc1, &sConfig) != HAL_OK)
 610              		.loc 1 261 16 is_stmt 0 view .LVU196
 611 0076 0323     		movs	r3, #3
 612 0078 0193     		str	r3, [sp, #4]
 262:Src/main.cpp  ****   {
 613              		.loc 1 262 3 is_stmt 1 view .LVU197
 262:Src/main.cpp  ****   {
 614              		.loc 1 262 28 is_stmt 0 view .LVU198
 615 007a 6946     		mov	r1, sp
 616 007c 2348     		ldr	r0, .L31
 617 007e FFF7FEFF 		bl	HAL_ADC_ConfigChannel
 618              	.LVL30:
 262:Src/main.cpp  ****   {
 619              		.loc 1 262 3 view .LVU199
 620 0082 0028     		cmp	r0, #0
 621 0084 35D1     		bne	.L25
 268:Src/main.cpp  ****   sConfig.Rank = 4;
 622              		.loc 1 268 3 is_stmt 1 view .LVU200
 268:Src/main.cpp  ****   sConfig.Rank = 4;
 623              		.loc 1 268 19 is_stmt 0 view .LVU201
 624 0086 1123     		movs	r3, #17
 625 0088 0093     		str	r3, [sp]
 269:Src/main.cpp  ****   if (HAL_ADC_ConfigChannel(&hadc1, &sConfig) != HAL_OK)
 626              		.loc 1 269 3 is_stmt 1 view .LVU202
 269:Src/main.cpp  ****   if (HAL_ADC_ConfigChannel(&hadc1, &sConfig) != HAL_OK)
 627              		.loc 1 269 16 is_stmt 0 view .LVU203
 628 008a 0423     		movs	r3, #4
 629 008c 0193     		str	r3, [sp, #4]
 270:Src/main.cpp  ****   {
 630              		.loc 1 270 3 is_stmt 1 view .LVU204
 270:Src/main.cpp  ****   {
 631              		.loc 1 270 28 is_stmt 0 view .LVU205
 632 008e 6946     		mov	r1, sp
 633 0090 1E48     		ldr	r0, .L31
 634 0092 FFF7FEFF 		bl	HAL_ADC_ConfigChannel
 635              	.LVL31:
 270:Src/main.cpp  ****   {
 636              		.loc 1 270 3 view .LVU206
 637 0096 70BB     		cbnz	r0, .L26
 276:Src/main.cpp  ****   sConfig.Rank = 5;
 638              		.loc 1 276 3 is_stmt 1 view .LVU207
 276:Src/main.cpp  ****   sConfig.Rank = 5;
ARM GAS  C:\Users\7636~1\AppData\Local\Temp\ccHxmuM0.s 			page 55


 639              		.loc 1 276 19 is_stmt 0 view .LVU208
 640 0098 0823     		movs	r3, #8
 641 009a 0093     		str	r3, [sp]
 277:Src/main.cpp  ****   if (HAL_ADC_ConfigChannel(&hadc1, &sConfig) != HAL_OK)
 642              		.loc 1 277 3 is_stmt 1 view .LVU209
 277:Src/main.cpp  ****   if (HAL_ADC_ConfigChannel(&hadc1, &sConfig) != HAL_OK)
 643              		.loc 1 277 16 is_stmt 0 view .LVU210
 644 009c 0523     		movs	r3, #5
 645 009e 0193     		str	r3, [sp, #4]
 278:Src/main.cpp  ****   {
 646              		.loc 1 278 3 is_stmt 1 view .LVU211
 278:Src/main.cpp  ****   {
 647              		.loc 1 278 28 is_stmt 0 view .LVU212
 648 00a0 6946     		mov	r1, sp
 649 00a2 1A48     		ldr	r0, .L31
 650 00a4 FFF7FEFF 		bl	HAL_ADC_ConfigChannel
 651              	.LVL32:
 278:Src/main.cpp  ****   {
 652              		.loc 1 278 3 view .LVU213
 653 00a8 38BB     		cbnz	r0, .L27
 284:Src/main.cpp  ****   sConfig.Rank = 6;
 654              		.loc 1 284 3 is_stmt 1 view .LVU214
 284:Src/main.cpp  ****   sConfig.Rank = 6;
 655              		.loc 1 284 19 is_stmt 0 view .LVU215
 656 00aa 0923     		movs	r3, #9
 657 00ac 0093     		str	r3, [sp]
 285:Src/main.cpp  ****   if (HAL_ADC_ConfigChannel(&hadc1, &sConfig) != HAL_OK)
 658              		.loc 1 285 3 is_stmt 1 view .LVU216
 285:Src/main.cpp  ****   if (HAL_ADC_ConfigChannel(&hadc1, &sConfig) != HAL_OK)
 659              		.loc 1 285 16 is_stmt 0 view .LVU217
 660 00ae 0623     		movs	r3, #6
 661 00b0 0193     		str	r3, [sp, #4]
 286:Src/main.cpp  ****   {
 662              		.loc 1 286 3 is_stmt 1 view .LVU218
 286:Src/main.cpp  ****   {
 663              		.loc 1 286 28 is_stmt 0 view .LVU219
 664 00b2 6946     		mov	r1, sp
 665 00b4 1548     		ldr	r0, .L31
 666 00b6 FFF7FEFF 		bl	HAL_ADC_ConfigChannel
 667              	.LVL33:
 286:Src/main.cpp  ****   {
 668              		.loc 1 286 3 view .LVU220
 669 00ba 00BB     		cbnz	r0, .L28
 292:Src/main.cpp  ****   sConfig.Rank = 7;
 670              		.loc 1 292 3 is_stmt 1 view .LVU221
 292:Src/main.cpp  ****   sConfig.Rank = 7;
 671              		.loc 1 292 19 is_stmt 0 view .LVU222
 672 00bc 1023     		movs	r3, #16
 673 00be 0093     		str	r3, [sp]
 293:Src/main.cpp  ****   if (HAL_ADC_ConfigChannel(&hadc1, &sConfig) != HAL_OK)
 674              		.loc 1 293 3 is_stmt 1 view .LVU223
 293:Src/main.cpp  ****   if (HAL_ADC_ConfigChannel(&hadc1, &sConfig) != HAL_OK)
 675              		.loc 1 293 16 is_stmt 0 view .LVU224
 676 00c0 0723     		movs	r3, #7
 677 00c2 0193     		str	r3, [sp, #4]
 294:Src/main.cpp  ****   {
 678              		.loc 1 294 3 is_stmt 1 view .LVU225
ARM GAS  C:\Users\7636~1\AppData\Local\Temp\ccHxmuM0.s 			page 56


 294:Src/main.cpp  ****   {
 679              		.loc 1 294 28 is_stmt 0 view .LVU226
 680 00c4 6946     		mov	r1, sp
 681 00c6 1148     		ldr	r0, .L31
 682 00c8 FFF7FEFF 		bl	HAL_ADC_ConfigChannel
 683              	.LVL34:
 294:Src/main.cpp  ****   {
 684              		.loc 1 294 3 view .LVU227
 685 00cc C8B9     		cbnz	r0, .L29
 300:Src/main.cpp  ****   sConfig.Rank = 8;
 686              		.loc 1 300 3 is_stmt 1 view .LVU228
 300:Src/main.cpp  ****   sConfig.Rank = 8;
 687              		.loc 1 300 19 is_stmt 0 view .LVU229
 688 00ce 1123     		movs	r3, #17
 689 00d0 0093     		str	r3, [sp]
 301:Src/main.cpp  ****   if (HAL_ADC_ConfigChannel(&hadc1, &sConfig) != HAL_OK)
 690              		.loc 1 301 3 is_stmt 1 view .LVU230
 301:Src/main.cpp  ****   if (HAL_ADC_ConfigChannel(&hadc1, &sConfig) != HAL_OK)
 691              		.loc 1 301 16 is_stmt 0 view .LVU231
 692 00d2 0823     		movs	r3, #8
 693 00d4 0193     		str	r3, [sp, #4]
 302:Src/main.cpp  ****   {
 694              		.loc 1 302 3 is_stmt 1 view .LVU232
 302:Src/main.cpp  ****   {
 695              		.loc 1 302 28 is_stmt 0 view .LVU233
 696 00d6 6946     		mov	r1, sp
 697 00d8 0C48     		ldr	r0, .L31
 698 00da FFF7FEFF 		bl	HAL_ADC_ConfigChannel
 699              	.LVL35:
 302:Src/main.cpp  ****   {
 700              		.loc 1 302 3 view .LVU234
 701 00de 90B9     		cbnz	r0, .L30
 310:Src/main.cpp  **** 
 702              		.loc 1 310 1 view .LVU235
 703 00e0 05B0     		add	sp, sp, #20
 704              	.LCFI8:
 705              		.cfi_remember_state
 706              		.cfi_def_cfa_offset 4
 707              		@ sp needed
 708 00e2 5DF804FB 		ldr	pc, [sp], #4
 709              	.L22:
 710              	.LCFI9:
 711              		.cfi_restore_state
 239:Src/main.cpp  ****   }
 712              		.loc 1 239 5 is_stmt 1 view .LVU236
 239:Src/main.cpp  ****   }
 713              		.loc 1 239 18 is_stmt 0 view .LVU237
 714 00e6 FFF7FEFF 		bl	Error_Handler
 715              	.LVL36:
 716              	.L23:
 248:Src/main.cpp  ****   }
 717              		.loc 1 248 5 is_stmt 1 view .LVU238
 248:Src/main.cpp  ****   }
 718              		.loc 1 248 18 is_stmt 0 view .LVU239
 719 00ea FFF7FEFF 		bl	Error_Handler
 720              	.LVL37:
 721              	.L24:
ARM GAS  C:\Users\7636~1\AppData\Local\Temp\ccHxmuM0.s 			page 57


 256:Src/main.cpp  ****   }
 722              		.loc 1 256 5 is_stmt 1 view .LVU240
 256:Src/main.cpp  ****   }
 723              		.loc 1 256 18 is_stmt 0 view .LVU241
 724 00ee FFF7FEFF 		bl	Error_Handler
 725              	.LVL38:
 726              	.L25:
 264:Src/main.cpp  ****   }
 727              		.loc 1 264 5 is_stmt 1 view .LVU242
 264:Src/main.cpp  ****   }
 728              		.loc 1 264 18 is_stmt 0 view .LVU243
 729 00f2 FFF7FEFF 		bl	Error_Handler
 730              	.LVL39:
 731              	.L26:
 272:Src/main.cpp  ****   }
 732              		.loc 1 272 5 is_stmt 1 view .LVU244
 272:Src/main.cpp  ****   }
 733              		.loc 1 272 18 is_stmt 0 view .LVU245
 734 00f6 FFF7FEFF 		bl	Error_Handler
 735              	.LVL40:
 736              	.L27:
 280:Src/main.cpp  ****   }
 737              		.loc 1 280 5 is_stmt 1 view .LVU246
 280:Src/main.cpp  ****   }
 738              		.loc 1 280 18 is_stmt 0 view .LVU247
 739 00fa FFF7FEFF 		bl	Error_Handler
 740              	.LVL41:
 741              	.L28:
 288:Src/main.cpp  ****   }
 742              		.loc 1 288 5 is_stmt 1 view .LVU248
 288:Src/main.cpp  ****   }
 743              		.loc 1 288 18 is_stmt 0 view .LVU249
 744 00fe FFF7FEFF 		bl	Error_Handler
 745              	.LVL42:
 746              	.L29:
 296:Src/main.cpp  ****   }
 747              		.loc 1 296 5 is_stmt 1 view .LVU250
 296:Src/main.cpp  ****   }
 748              		.loc 1 296 18 is_stmt 0 view .LVU251
 749 0102 FFF7FEFF 		bl	Error_Handler
 750              	.LVL43:
 751              	.L30:
 304:Src/main.cpp  ****   }
 752              		.loc 1 304 5 is_stmt 1 view .LVU252
 304:Src/main.cpp  ****   }
 753              		.loc 1 304 18 is_stmt 0 view .LVU253
 754 0106 FFF7FEFF 		bl	Error_Handler
 755              	.LVL44:
 756              	.L32:
 757 010a 00BF     		.align	2
 758              	.L31:
 759 010c 00000000 		.word	.LANCHOR0
 760 0110 00200140 		.word	1073815552
 761              		.cfi_endproc
 762              	.LFE646:
 763              		.fnend
 765              		.section	.text._ZL12MX_I2C1_Initv,"ax",%progbits
ARM GAS  C:\Users\7636~1\AppData\Local\Temp\ccHxmuM0.s 			page 58


 766              		.align	1
 767              		.syntax unified
 768              		.thumb
 769              		.thumb_func
 771              	_ZL12MX_I2C1_Initv:
 772              		.fnstart
 773              	.LFB647:
 318:Src/main.cpp  **** 
 774              		.loc 1 318 1 is_stmt 1 view -0
 775              		.cfi_startproc
 776              		@ args = 0, pretend = 0, frame = 0
 777              		@ frame_needed = 0, uses_anonymous_args = 0
 778 0000 08B5     		push	{r3, lr}
 779              		.save {r3, lr}
 780              	.LCFI10:
 781              		.cfi_def_cfa_offset 8
 782              		.cfi_offset 3, -8
 783              		.cfi_offset 14, -4
 327:Src/main.cpp  ****   hi2c1.Init.ClockSpeed = 400000;
 784              		.loc 1 327 3 view .LVU255
 327:Src/main.cpp  ****   hi2c1.Init.ClockSpeed = 400000;
 785              		.loc 1 327 18 is_stmt 0 view .LVU256
 786 0002 0A48     		ldr	r0, .L37
 787 0004 0A4B     		ldr	r3, .L37+4
 788 0006 0360     		str	r3, [r0]
 328:Src/main.cpp  ****   hi2c1.Init.DutyCycle = I2C_DUTYCYCLE_2;
 789              		.loc 1 328 3 is_stmt 1 view .LVU257
 328:Src/main.cpp  ****   hi2c1.Init.DutyCycle = I2C_DUTYCYCLE_2;
 790              		.loc 1 328 25 is_stmt 0 view .LVU258
 791 0008 0A4B     		ldr	r3, .L37+8
 792 000a 4360     		str	r3, [r0, #4]
 329:Src/main.cpp  ****   hi2c1.Init.OwnAddress1 = 0;
 793              		.loc 1 329 3 is_stmt 1 view .LVU259
 329:Src/main.cpp  ****   hi2c1.Init.OwnAddress1 = 0;
 794              		.loc 1 329 24 is_stmt 0 view .LVU260
 795 000c 0023     		movs	r3, #0
 796 000e 8360     		str	r3, [r0, #8]
 330:Src/main.cpp  ****   hi2c1.Init.AddressingMode = I2C_ADDRESSINGMODE_7BIT;
 797              		.loc 1 330 3 is_stmt 1 view .LVU261
 330:Src/main.cpp  ****   hi2c1.Init.AddressingMode = I2C_ADDRESSINGMODE_7BIT;
 798              		.loc 1 330 26 is_stmt 0 view .LVU262
 799 0010 C360     		str	r3, [r0, #12]
 331:Src/main.cpp  ****   hi2c1.Init.DualAddressMode = I2C_DUALADDRESS_DISABLE;
 800              		.loc 1 331 3 is_stmt 1 view .LVU263
 331:Src/main.cpp  ****   hi2c1.Init.DualAddressMode = I2C_DUALADDRESS_DISABLE;
 801              		.loc 1 331 29 is_stmt 0 view .LVU264
 802 0012 4FF48042 		mov	r2, #16384
 803 0016 0261     		str	r2, [r0, #16]
 332:Src/main.cpp  ****   hi2c1.Init.OwnAddress2 = 0;
 804              		.loc 1 332 3 is_stmt 1 view .LVU265
 332:Src/main.cpp  ****   hi2c1.Init.OwnAddress2 = 0;
 805              		.loc 1 332 30 is_stmt 0 view .LVU266
 806 0018 4361     		str	r3, [r0, #20]
 333:Src/main.cpp  ****   hi2c1.Init.GeneralCallMode = I2C_GENERALCALL_DISABLE;
 807              		.loc 1 333 3 is_stmt 1 view .LVU267
 333:Src/main.cpp  ****   hi2c1.Init.GeneralCallMode = I2C_GENERALCALL_DISABLE;
 808              		.loc 1 333 26 is_stmt 0 view .LVU268
ARM GAS  C:\Users\7636~1\AppData\Local\Temp\ccHxmuM0.s 			page 59


 809 001a 8361     		str	r3, [r0, #24]
 334:Src/main.cpp  ****   hi2c1.Init.NoStretchMode = I2C_NOSTRETCH_DISABLE;
 810              		.loc 1 334 3 is_stmt 1 view .LVU269
 334:Src/main.cpp  ****   hi2c1.Init.NoStretchMode = I2C_NOSTRETCH_DISABLE;
 811              		.loc 1 334 30 is_stmt 0 view .LVU270
 812 001c C361     		str	r3, [r0, #28]
 335:Src/main.cpp  ****   if (HAL_I2C_Init(&hi2c1) != HAL_OK)
 813              		.loc 1 335 3 is_stmt 1 view .LVU271
 335:Src/main.cpp  ****   if (HAL_I2C_Init(&hi2c1) != HAL_OK)
 814              		.loc 1 335 28 is_stmt 0 view .LVU272
 815 001e 0362     		str	r3, [r0, #32]
 336:Src/main.cpp  ****   {
 816              		.loc 1 336 3 is_stmt 1 view .LVU273
 336:Src/main.cpp  ****   {
 817              		.loc 1 336 19 is_stmt 0 view .LVU274
 818 0020 FFF7FEFF 		bl	HAL_I2C_Init
 819              	.LVL45:
 336:Src/main.cpp  ****   {
 820              		.loc 1 336 3 view .LVU275
 821 0024 00B9     		cbnz	r0, .L36
 344:Src/main.cpp  **** 
 822              		.loc 1 344 1 view .LVU276
 823 0026 08BD     		pop	{r3, pc}
 824              	.L36:
 338:Src/main.cpp  ****   }
 825              		.loc 1 338 5 is_stmt 1 view .LVU277
 338:Src/main.cpp  ****   }
 826              		.loc 1 338 18 is_stmt 0 view .LVU278
 827 0028 FFF7FEFF 		bl	Error_Handler
 828              	.LVL46:
 829              	.L38:
 830              		.align	2
 831              	.L37:
 832 002c 00000000 		.word	.LANCHOR1
 833 0030 00540040 		.word	1073763328
 834 0034 801A0600 		.word	400000
 835              		.cfi_endproc
 836              	.LFE647:
 837              		.fnend
 839              		.section	.text._ZL12MX_SPI1_Initv,"ax",%progbits
 840              		.align	1
 841              		.syntax unified
 842              		.thumb
 843              		.thumb_func
 845              	_ZL12MX_SPI1_Initv:
 846              		.fnstart
 847              	.LFB649:
 432:Src/main.cpp  **** 
 848              		.loc 1 432 1 is_stmt 1 view -0
 849              		.cfi_startproc
 850              		@ args = 0, pretend = 0, frame = 0
 851              		@ frame_needed = 0, uses_anonymous_args = 0
 852 0000 08B5     		push	{r3, lr}
 853              		.save {r3, lr}
 854              	.LCFI11:
 855              		.cfi_def_cfa_offset 8
 856              		.cfi_offset 3, -8
ARM GAS  C:\Users\7636~1\AppData\Local\Temp\ccHxmuM0.s 			page 60


 857              		.cfi_offset 14, -4
 442:Src/main.cpp  ****   hspi1.Init.Mode = SPI_MODE_MASTER;
 858              		.loc 1 442 3 view .LVU280
 442:Src/main.cpp  ****   hspi1.Init.Mode = SPI_MODE_MASTER;
 859              		.loc 1 442 18 is_stmt 0 view .LVU281
 860 0002 0D48     		ldr	r0, .L43
 861 0004 0D4B     		ldr	r3, .L43+4
 862 0006 0360     		str	r3, [r0]
 443:Src/main.cpp  ****   hspi1.Init.Direction = SPI_DIRECTION_2LINES;
 863              		.loc 1 443 3 is_stmt 1 view .LVU282
 443:Src/main.cpp  ****   hspi1.Init.Direction = SPI_DIRECTION_2LINES;
 864              		.loc 1 443 19 is_stmt 0 view .LVU283
 865 0008 4FF48273 		mov	r3, #260
 866 000c 4360     		str	r3, [r0, #4]
 444:Src/main.cpp  ****   hspi1.Init.DataSize = SPI_DATASIZE_8BIT;
 867              		.loc 1 444 3 is_stmt 1 view .LVU284
 444:Src/main.cpp  ****   hspi1.Init.DataSize = SPI_DATASIZE_8BIT;
 868              		.loc 1 444 24 is_stmt 0 view .LVU285
 869 000e 0023     		movs	r3, #0
 870 0010 8360     		str	r3, [r0, #8]
 445:Src/main.cpp  ****   hspi1.Init.CLKPolarity = SPI_POLARITY_LOW;
 871              		.loc 1 445 3 is_stmt 1 view .LVU286
 445:Src/main.cpp  ****   hspi1.Init.CLKPolarity = SPI_POLARITY_LOW;
 872              		.loc 1 445 23 is_stmt 0 view .LVU287
 873 0012 C360     		str	r3, [r0, #12]
 446:Src/main.cpp  ****   hspi1.Init.CLKPhase = SPI_PHASE_1EDGE;
 874              		.loc 1 446 3 is_stmt 1 view .LVU288
 446:Src/main.cpp  ****   hspi1.Init.CLKPhase = SPI_PHASE_1EDGE;
 875              		.loc 1 446 26 is_stmt 0 view .LVU289
 876 0014 0361     		str	r3, [r0, #16]
 447:Src/main.cpp  ****   hspi1.Init.NSS = SPI_NSS_SOFT;
 877              		.loc 1 447 3 is_stmt 1 view .LVU290
 447:Src/main.cpp  ****   hspi1.Init.NSS = SPI_NSS_SOFT;
 878              		.loc 1 447 23 is_stmt 0 view .LVU291
 879 0016 4361     		str	r3, [r0, #20]
 448:Src/main.cpp  ****   hspi1.Init.BaudRatePrescaler = SPI_BAUDRATEPRESCALER_128;
 880              		.loc 1 448 3 is_stmt 1 view .LVU292
 448:Src/main.cpp  ****   hspi1.Init.BaudRatePrescaler = SPI_BAUDRATEPRESCALER_128;
 881              		.loc 1 448 18 is_stmt 0 view .LVU293
 882 0018 4FF40072 		mov	r2, #512
 883 001c 8261     		str	r2, [r0, #24]
 449:Src/main.cpp  ****   hspi1.Init.FirstBit = SPI_FIRSTBIT_MSB;
 884              		.loc 1 449 3 is_stmt 1 view .LVU294
 449:Src/main.cpp  ****   hspi1.Init.FirstBit = SPI_FIRSTBIT_MSB;
 885              		.loc 1 449 32 is_stmt 0 view .LVU295
 886 001e 3022     		movs	r2, #48
 887 0020 C261     		str	r2, [r0, #28]
 450:Src/main.cpp  ****   hspi1.Init.TIMode = SPI_TIMODE_DISABLE;
 888              		.loc 1 450 3 is_stmt 1 view .LVU296
 450:Src/main.cpp  ****   hspi1.Init.TIMode = SPI_TIMODE_DISABLE;
 889              		.loc 1 450 23 is_stmt 0 view .LVU297
 890 0022 0362     		str	r3, [r0, #32]
 451:Src/main.cpp  ****   hspi1.Init.CRCCalculation = SPI_CRCCALCULATION_DISABLE;
 891              		.loc 1 451 3 is_stmt 1 view .LVU298
 451:Src/main.cpp  ****   hspi1.Init.CRCCalculation = SPI_CRCCALCULATION_DISABLE;
 892              		.loc 1 451 21 is_stmt 0 view .LVU299
 893 0024 4362     		str	r3, [r0, #36]
ARM GAS  C:\Users\7636~1\AppData\Local\Temp\ccHxmuM0.s 			page 61


 452:Src/main.cpp  ****   hspi1.Init.CRCPolynomial = 10;
 894              		.loc 1 452 3 is_stmt 1 view .LVU300
 452:Src/main.cpp  ****   hspi1.Init.CRCPolynomial = 10;
 895              		.loc 1 452 29 is_stmt 0 view .LVU301
 896 0026 8362     		str	r3, [r0, #40]
 453:Src/main.cpp  ****   if (HAL_SPI_Init(&hspi1) != HAL_OK)
 897              		.loc 1 453 3 is_stmt 1 view .LVU302
 453:Src/main.cpp  ****   if (HAL_SPI_Init(&hspi1) != HAL_OK)
 898              		.loc 1 453 28 is_stmt 0 view .LVU303
 899 0028 0A23     		movs	r3, #10
 900 002a C362     		str	r3, [r0, #44]
 454:Src/main.cpp  ****   {
 901              		.loc 1 454 3 is_stmt 1 view .LVU304
 454:Src/main.cpp  ****   {
 902              		.loc 1 454 19 is_stmt 0 view .LVU305
 903 002c FFF7FEFF 		bl	HAL_SPI_Init
 904              	.LVL47:
 454:Src/main.cpp  ****   {
 905              		.loc 1 454 3 view .LVU306
 906 0030 00B9     		cbnz	r0, .L42
 462:Src/main.cpp  **** 
 907              		.loc 1 462 1 view .LVU307
 908 0032 08BD     		pop	{r3, pc}
 909              	.L42:
 456:Src/main.cpp  ****   }
 910              		.loc 1 456 5 is_stmt 1 view .LVU308
 456:Src/main.cpp  ****   }
 911              		.loc 1 456 18 is_stmt 0 view .LVU309
 912 0034 FFF7FEFF 		bl	Error_Handler
 913              	.LVL48:
 914              	.L44:
 915              		.align	2
 916              	.L43:
 917 0038 00000000 		.word	.LANCHOR2
 918 003c 00300140 		.word	1073819648
 919              		.cfi_endproc
 920              	.LFE649:
 921              		.fnend
 923              		.section	.text._ZL12MX_TIM1_Initv,"ax",%progbits
 924              		.align	1
 925              		.syntax unified
 926              		.thumb
 927              		.thumb_func
 929              	_ZL12MX_TIM1_Initv:
 930              		.fnstart
 931              	.LFB650:
 470:Src/main.cpp  **** 
 932              		.loc 1 470 1 is_stmt 1 view -0
 933              		.cfi_startproc
 934              		@ args = 0, pretend = 0, frame = 48
 935              		@ frame_needed = 0, uses_anonymous_args = 0
 936 0000 00B5     		push	{lr}
 937              		.save {lr}
 938              	.LCFI12:
 939              		.cfi_def_cfa_offset 4
 940              		.cfi_offset 14, -4
 941              		.pad #52
ARM GAS  C:\Users\7636~1\AppData\Local\Temp\ccHxmuM0.s 			page 62


 942 0002 8DB0     		sub	sp, sp, #52
 943              	.LCFI13:
 944              		.cfi_def_cfa_offset 56
 476:Src/main.cpp  ****   TIM_SlaveConfigTypeDef sSlaveConfig = {0};
 945              		.loc 1 476 3 view .LVU311
 476:Src/main.cpp  ****   TIM_SlaveConfigTypeDef sSlaveConfig = {0};
 946              		.loc 1 476 26 is_stmt 0 view .LVU312
 947 0004 0023     		movs	r3, #0
 948 0006 0893     		str	r3, [sp, #32]
 949 0008 0993     		str	r3, [sp, #36]
 950 000a 0A93     		str	r3, [sp, #40]
 951 000c 0B93     		str	r3, [sp, #44]
 477:Src/main.cpp  ****   TIM_MasterConfigTypeDef sMasterConfig = {0};
 952              		.loc 1 477 3 is_stmt 1 view .LVU313
 477:Src/main.cpp  ****   TIM_MasterConfigTypeDef sMasterConfig = {0};
 953              		.loc 1 477 26 is_stmt 0 view .LVU314
 954 000e 0393     		str	r3, [sp, #12]
 955 0010 0493     		str	r3, [sp, #16]
 956 0012 0593     		str	r3, [sp, #20]
 957 0014 0693     		str	r3, [sp, #24]
 958 0016 0793     		str	r3, [sp, #28]
 478:Src/main.cpp  **** 
 959              		.loc 1 478 3 is_stmt 1 view .LVU315
 478:Src/main.cpp  **** 
 960              		.loc 1 478 27 is_stmt 0 view .LVU316
 961 0018 0193     		str	r3, [sp, #4]
 962 001a 0293     		str	r3, [sp, #8]
 483:Src/main.cpp  ****   htim1.Init.Prescaler = 0;
 963              		.loc 1 483 3 is_stmt 1 view .LVU317
 483:Src/main.cpp  ****   htim1.Init.Prescaler = 0;
 964              		.loc 1 483 18 is_stmt 0 view .LVU318
 965 001c 1B48     		ldr	r0, .L55
 966 001e 1C4A     		ldr	r2, .L55+4
 967 0020 0260     		str	r2, [r0]
 484:Src/main.cpp  ****   htim1.Init.CounterMode = TIM_COUNTERMODE_UP;
 968              		.loc 1 484 3 is_stmt 1 view .LVU319
 484:Src/main.cpp  ****   htim1.Init.CounterMode = TIM_COUNTERMODE_UP;
 969              		.loc 1 484 24 is_stmt 0 view .LVU320
 970 0022 4360     		str	r3, [r0, #4]
 485:Src/main.cpp  ****   htim1.Init.Period = 42000-1;
 971              		.loc 1 485 3 is_stmt 1 view .LVU321
 485:Src/main.cpp  ****   htim1.Init.Period = 42000-1;
 972              		.loc 1 485 26 is_stmt 0 view .LVU322
 973 0024 8360     		str	r3, [r0, #8]
 486:Src/main.cpp  ****   htim1.Init.ClockDivision = TIM_CLOCKDIVISION_DIV4;
 974              		.loc 1 486 3 is_stmt 1 view .LVU323
 486:Src/main.cpp  ****   htim1.Init.ClockDivision = TIM_CLOCKDIVISION_DIV4;
 975              		.loc 1 486 21 is_stmt 0 view .LVU324
 976 0026 4AF20F42 		movw	r2, #41999
 977 002a C260     		str	r2, [r0, #12]
 487:Src/main.cpp  ****   htim1.Init.RepetitionCounter = 0;
 978              		.loc 1 487 3 is_stmt 1 view .LVU325
 487:Src/main.cpp  ****   htim1.Init.RepetitionCounter = 0;
 979              		.loc 1 487 28 is_stmt 0 view .LVU326
 980 002c 4FF40072 		mov	r2, #512
 981 0030 0261     		str	r2, [r0, #16]
 488:Src/main.cpp  ****   htim1.Init.AutoReloadPreload = TIM_AUTORELOAD_PRELOAD_DISABLE;
ARM GAS  C:\Users\7636~1\AppData\Local\Temp\ccHxmuM0.s 			page 63


 982              		.loc 1 488 3 is_stmt 1 view .LVU327
 488:Src/main.cpp  ****   htim1.Init.AutoReloadPreload = TIM_AUTORELOAD_PRELOAD_DISABLE;
 983              		.loc 1 488 32 is_stmt 0 view .LVU328
 984 0032 4361     		str	r3, [r0, #20]
 489:Src/main.cpp  ****   if (HAL_TIM_Base_Init(&htim1) != HAL_OK)
 985              		.loc 1 489 3 is_stmt 1 view .LVU329
 489:Src/main.cpp  ****   if (HAL_TIM_Base_Init(&htim1) != HAL_OK)
 986              		.loc 1 489 32 is_stmt 0 view .LVU330
 987 0034 8361     		str	r3, [r0, #24]
 490:Src/main.cpp  ****   {
 988              		.loc 1 490 3 is_stmt 1 view .LVU331
 490:Src/main.cpp  ****   {
 989              		.loc 1 490 24 is_stmt 0 view .LVU332
 990 0036 FFF7FEFF 		bl	HAL_TIM_Base_Init
 991              	.LVL49:
 490:Src/main.cpp  ****   {
 992              		.loc 1 490 3 view .LVU333
 993 003a F8B9     		cbnz	r0, .L51
 494:Src/main.cpp  ****   if (HAL_TIM_ConfigClockSource(&htim1, &sClockSourceConfig) != HAL_OK)
 994              		.loc 1 494 3 is_stmt 1 view .LVU334
 494:Src/main.cpp  ****   if (HAL_TIM_ConfigClockSource(&htim1, &sClockSourceConfig) != HAL_OK)
 995              		.loc 1 494 34 is_stmt 0 view .LVU335
 996 003c 4FF48053 		mov	r3, #4096
 997 0040 0893     		str	r3, [sp, #32]
 495:Src/main.cpp  ****   {
 998              		.loc 1 495 3 is_stmt 1 view .LVU336
 495:Src/main.cpp  ****   {
 999              		.loc 1 495 32 is_stmt 0 view .LVU337
 1000 0042 08A9     		add	r1, sp, #32
 1001 0044 1148     		ldr	r0, .L55
 1002 0046 FFF7FEFF 		bl	HAL_TIM_ConfigClockSource
 1003              	.LVL50:
 495:Src/main.cpp  ****   {
 1004              		.loc 1 495 3 view .LVU338
 1005 004a C8B9     		cbnz	r0, .L52
 499:Src/main.cpp  ****   sSlaveConfig.InputTrigger = TIM_TS_TI1FP1;
 1006              		.loc 1 499 3 is_stmt 1 view .LVU339
 499:Src/main.cpp  ****   sSlaveConfig.InputTrigger = TIM_TS_TI1FP1;
 1007              		.loc 1 499 26 is_stmt 0 view .LVU340
 1008 004c 0623     		movs	r3, #6
 1009 004e 0393     		str	r3, [sp, #12]
 500:Src/main.cpp  ****   sSlaveConfig.TriggerPolarity = TIM_TRIGGERPOLARITY_FALLING;
 1010              		.loc 1 500 3 is_stmt 1 view .LVU341
 500:Src/main.cpp  ****   sSlaveConfig.TriggerPolarity = TIM_TRIGGERPOLARITY_FALLING;
 1011              		.loc 1 500 29 is_stmt 0 view .LVU342
 1012 0050 5023     		movs	r3, #80
 1013 0052 0493     		str	r3, [sp, #16]
 501:Src/main.cpp  ****   sSlaveConfig.TriggerFilter = 15;
 1014              		.loc 1 501 3 is_stmt 1 view .LVU343
 501:Src/main.cpp  ****   sSlaveConfig.TriggerFilter = 15;
 1015              		.loc 1 501 32 is_stmt 0 view .LVU344
 1016 0054 0223     		movs	r3, #2
 1017 0056 0593     		str	r3, [sp, #20]
 502:Src/main.cpp  ****   if (HAL_TIM_SlaveConfigSynchro(&htim1, &sSlaveConfig) != HAL_OK)
 1018              		.loc 1 502 3 is_stmt 1 view .LVU345
