ARM GAS  C:\Users\7636~1\AppData\Local\Temp\ccnv92VB.s 			page 1


   1              		.cpu cortex-m4
   2              		.arch armv7e-m
   3              		.fpu fpv4-sp-d16
   4              		.eabi_attribute 27, 1
   5              		.eabi_attribute 28, 1
   6              		.eabi_attribute 20, 1
   7              		.eabi_attribute 21, 1
   8              		.eabi_attribute 23, 3
   9              		.eabi_attribute 24, 1
  10              		.eabi_attribute 25, 1
  11              		.eabi_attribute 26, 1
  12              		.eabi_attribute 30, 1
  13              		.eabi_attribute 34, 1
  14              		.eabi_attribute 18, 4
  15              		.file	"stm32f4xx_ll_usb.c"
  16              		.text
  17              	.Ltext0:
  18              		.cfi_sections	.debug_frame
  19              		.section	.text.USB_CoreReset,"ax",%progbits
  20              		.align	1
  21              		.syntax unified
  22              		.thumb
  23              		.thumb_func
  25              	USB_CoreReset:
  26              	.LVL0:
  27              	.LFB249:
  28              		.file 1 "Drivers/STM32F4xx_HAL_Driver/Src/stm32f4xx_ll_usb.c"
   1:Drivers/STM32F4xx_HAL_Driver/Src/stm32f4xx_ll_usb.c **** /**
   2:Drivers/STM32F4xx_HAL_Driver/Src/stm32f4xx_ll_usb.c ****   ******************************************************************************
   3:Drivers/STM32F4xx_HAL_Driver/Src/stm32f4xx_ll_usb.c ****   * @file    stm32f4xx_ll_usb.c
   4:Drivers/STM32F4xx_HAL_Driver/Src/stm32f4xx_ll_usb.c ****   * @author  MCD Application Team
   5:Drivers/STM32F4xx_HAL_Driver/Src/stm32f4xx_ll_usb.c ****   * @brief   USB Low Layer HAL module driver.
   6:Drivers/STM32F4xx_HAL_Driver/Src/stm32f4xx_ll_usb.c ****   *
   7:Drivers/STM32F4xx_HAL_Driver/Src/stm32f4xx_ll_usb.c ****   *          This file provides firmware functions to manage the following
   8:Drivers/STM32F4xx_HAL_Driver/Src/stm32f4xx_ll_usb.c ****   *          functionalities of the USB Peripheral Controller:
   9:Drivers/STM32F4xx_HAL_Driver/Src/stm32f4xx_ll_usb.c ****   *           + Initialization/de-initialization functions
  10:Drivers/STM32F4xx_HAL_Driver/Src/stm32f4xx_ll_usb.c ****   *           + I/O operation functions
  11:Drivers/STM32F4xx_HAL_Driver/Src/stm32f4xx_ll_usb.c ****   *           + Peripheral Control functions
  12:Drivers/STM32F4xx_HAL_Driver/Src/stm32f4xx_ll_usb.c ****   *           + Peripheral State functions
  13:Drivers/STM32F4xx_HAL_Driver/Src/stm32f4xx_ll_usb.c ****   *
  14:Drivers/STM32F4xx_HAL_Driver/Src/stm32f4xx_ll_usb.c ****   @verbatim
  15:Drivers/STM32F4xx_HAL_Driver/Src/stm32f4xx_ll_usb.c ****   ==============================================================================
  16:Drivers/STM32F4xx_HAL_Driver/Src/stm32f4xx_ll_usb.c ****                     ##### How to use this driver #####
  17:Drivers/STM32F4xx_HAL_Driver/Src/stm32f4xx_ll_usb.c ****   ==============================================================================
  18:Drivers/STM32F4xx_HAL_Driver/Src/stm32f4xx_ll_usb.c ****     [..]
  19:Drivers/STM32F4xx_HAL_Driver/Src/stm32f4xx_ll_usb.c ****       (#) Fill parameters of Init structure in USB_OTG_CfgTypeDef structure.
  20:Drivers/STM32F4xx_HAL_Driver/Src/stm32f4xx_ll_usb.c **** 
  21:Drivers/STM32F4xx_HAL_Driver/Src/stm32f4xx_ll_usb.c ****       (#) Call USB_CoreInit() API to initialize the USB Core peripheral.
  22:Drivers/STM32F4xx_HAL_Driver/Src/stm32f4xx_ll_usb.c **** 
  23:Drivers/STM32F4xx_HAL_Driver/Src/stm32f4xx_ll_usb.c ****       (#) The upper HAL HCD/PCD driver will call the right routines for its internal processes.
  24:Drivers/STM32F4xx_HAL_Driver/Src/stm32f4xx_ll_usb.c **** 
  25:Drivers/STM32F4xx_HAL_Driver/Src/stm32f4xx_ll_usb.c ****   @endverbatim
  26:Drivers/STM32F4xx_HAL_Driver/Src/stm32f4xx_ll_usb.c ****   ******************************************************************************
  27:Drivers/STM32F4xx_HAL_Driver/Src/stm32f4xx_ll_usb.c ****   * @attention
  28:Drivers/STM32F4xx_HAL_Driver/Src/stm32f4xx_ll_usb.c ****   *
  29:Drivers/STM32F4xx_HAL_Driver/Src/stm32f4xx_ll_usb.c ****   * <h2><center>&copy; Copyright (c) 2016 STMicroelectronics.
  30:Drivers/STM32F4xx_HAL_Driver/Src/stm32f4xx_ll_usb.c ****   * All rights reserved.</center></h2>
ARM GAS  C:\Users\7636~1\AppData\Local\Temp\ccnv92VB.s 			page 2


  31:Drivers/STM32F4xx_HAL_Driver/Src/stm32f4xx_ll_usb.c ****   *
  32:Drivers/STM32F4xx_HAL_Driver/Src/stm32f4xx_ll_usb.c ****   * This software component is licensed by ST under BSD 3-Clause license,
  33:Drivers/STM32F4xx_HAL_Driver/Src/stm32f4xx_ll_usb.c ****   * the "License"; You may not use this file except in compliance with the
  34:Drivers/STM32F4xx_HAL_Driver/Src/stm32f4xx_ll_usb.c ****   * License. You may obtain a copy of the License at:
  35:Drivers/STM32F4xx_HAL_Driver/Src/stm32f4xx_ll_usb.c ****   *                        opensource.org/licenses/BSD-3-Clause
  36:Drivers/STM32F4xx_HAL_Driver/Src/stm32f4xx_ll_usb.c ****   *
  37:Drivers/STM32F4xx_HAL_Driver/Src/stm32f4xx_ll_usb.c ****   ******************************************************************************
  38:Drivers/STM32F4xx_HAL_Driver/Src/stm32f4xx_ll_usb.c ****   */
  39:Drivers/STM32F4xx_HAL_Driver/Src/stm32f4xx_ll_usb.c **** 
  40:Drivers/STM32F4xx_HAL_Driver/Src/stm32f4xx_ll_usb.c **** /* Includes ------------------------------------------------------------------*/
  41:Drivers/STM32F4xx_HAL_Driver/Src/stm32f4xx_ll_usb.c **** #include "stm32f4xx_hal.h"
  42:Drivers/STM32F4xx_HAL_Driver/Src/stm32f4xx_ll_usb.c **** 
  43:Drivers/STM32F4xx_HAL_Driver/Src/stm32f4xx_ll_usb.c **** /** @addtogroup STM32F4xx_LL_USB_DRIVER
  44:Drivers/STM32F4xx_HAL_Driver/Src/stm32f4xx_ll_usb.c ****   * @{
  45:Drivers/STM32F4xx_HAL_Driver/Src/stm32f4xx_ll_usb.c ****   */
  46:Drivers/STM32F4xx_HAL_Driver/Src/stm32f4xx_ll_usb.c **** 
  47:Drivers/STM32F4xx_HAL_Driver/Src/stm32f4xx_ll_usb.c **** #if defined (HAL_PCD_MODULE_ENABLED) || defined (HAL_HCD_MODULE_ENABLED)
  48:Drivers/STM32F4xx_HAL_Driver/Src/stm32f4xx_ll_usb.c **** #if defined (USB_OTG_FS) || defined (USB_OTG_HS)
  49:Drivers/STM32F4xx_HAL_Driver/Src/stm32f4xx_ll_usb.c **** /* Private typedef -----------------------------------------------------------*/
  50:Drivers/STM32F4xx_HAL_Driver/Src/stm32f4xx_ll_usb.c **** /* Private define ------------------------------------------------------------*/
  51:Drivers/STM32F4xx_HAL_Driver/Src/stm32f4xx_ll_usb.c **** /* Private macro -------------------------------------------------------------*/
  52:Drivers/STM32F4xx_HAL_Driver/Src/stm32f4xx_ll_usb.c **** /* Private variables ---------------------------------------------------------*/
  53:Drivers/STM32F4xx_HAL_Driver/Src/stm32f4xx_ll_usb.c **** /* Private function prototypes -----------------------------------------------*/
  54:Drivers/STM32F4xx_HAL_Driver/Src/stm32f4xx_ll_usb.c **** /* Private functions ---------------------------------------------------------*/
  55:Drivers/STM32F4xx_HAL_Driver/Src/stm32f4xx_ll_usb.c **** #if defined (USB_OTG_FS) || defined (USB_OTG_HS)
  56:Drivers/STM32F4xx_HAL_Driver/Src/stm32f4xx_ll_usb.c **** static HAL_StatusTypeDef USB_CoreReset(USB_OTG_GlobalTypeDef *USBx);
  57:Drivers/STM32F4xx_HAL_Driver/Src/stm32f4xx_ll_usb.c **** 
  58:Drivers/STM32F4xx_HAL_Driver/Src/stm32f4xx_ll_usb.c **** /* Exported functions --------------------------------------------------------*/
  59:Drivers/STM32F4xx_HAL_Driver/Src/stm32f4xx_ll_usb.c **** /** @defgroup USB_LL_Exported_Functions USB Low Layer Exported Functions
  60:Drivers/STM32F4xx_HAL_Driver/Src/stm32f4xx_ll_usb.c ****   * @{
  61:Drivers/STM32F4xx_HAL_Driver/Src/stm32f4xx_ll_usb.c ****   */
  62:Drivers/STM32F4xx_HAL_Driver/Src/stm32f4xx_ll_usb.c **** 
  63:Drivers/STM32F4xx_HAL_Driver/Src/stm32f4xx_ll_usb.c **** /** @defgroup USB_LL_Exported_Functions_Group1 Initialization/de-initialization functions
  64:Drivers/STM32F4xx_HAL_Driver/Src/stm32f4xx_ll_usb.c ****   *  @brief    Initialization and Configuration functions
  65:Drivers/STM32F4xx_HAL_Driver/Src/stm32f4xx_ll_usb.c ****   *
  66:Drivers/STM32F4xx_HAL_Driver/Src/stm32f4xx_ll_usb.c **** @verbatim
  67:Drivers/STM32F4xx_HAL_Driver/Src/stm32f4xx_ll_usb.c ****  ===============================================================================
  68:Drivers/STM32F4xx_HAL_Driver/Src/stm32f4xx_ll_usb.c ****                       ##### Initialization/de-initialization functions #####
  69:Drivers/STM32F4xx_HAL_Driver/Src/stm32f4xx_ll_usb.c ****  ===============================================================================
  70:Drivers/STM32F4xx_HAL_Driver/Src/stm32f4xx_ll_usb.c **** 
  71:Drivers/STM32F4xx_HAL_Driver/Src/stm32f4xx_ll_usb.c **** @endverbatim
  72:Drivers/STM32F4xx_HAL_Driver/Src/stm32f4xx_ll_usb.c ****   * @{
  73:Drivers/STM32F4xx_HAL_Driver/Src/stm32f4xx_ll_usb.c ****   */
  74:Drivers/STM32F4xx_HAL_Driver/Src/stm32f4xx_ll_usb.c **** 
  75:Drivers/STM32F4xx_HAL_Driver/Src/stm32f4xx_ll_usb.c **** /**
  76:Drivers/STM32F4xx_HAL_Driver/Src/stm32f4xx_ll_usb.c ****   * @brief  Initializes the USB Core
  77:Drivers/STM32F4xx_HAL_Driver/Src/stm32f4xx_ll_usb.c ****   * @param  USBx USB Instance
  78:Drivers/STM32F4xx_HAL_Driver/Src/stm32f4xx_ll_usb.c ****   * @param  cfg pointer to a USB_OTG_CfgTypeDef structure that contains
  79:Drivers/STM32F4xx_HAL_Driver/Src/stm32f4xx_ll_usb.c ****   *         the configuration information for the specified USBx peripheral.
  80:Drivers/STM32F4xx_HAL_Driver/Src/stm32f4xx_ll_usb.c ****   * @retval HAL status
  81:Drivers/STM32F4xx_HAL_Driver/Src/stm32f4xx_ll_usb.c ****   */
  82:Drivers/STM32F4xx_HAL_Driver/Src/stm32f4xx_ll_usb.c **** HAL_StatusTypeDef USB_CoreInit(USB_OTG_GlobalTypeDef *USBx, USB_OTG_CfgTypeDef cfg)
  83:Drivers/STM32F4xx_HAL_Driver/Src/stm32f4xx_ll_usb.c **** {
  84:Drivers/STM32F4xx_HAL_Driver/Src/stm32f4xx_ll_usb.c ****   HAL_StatusTypeDef ret;
  85:Drivers/STM32F4xx_HAL_Driver/Src/stm32f4xx_ll_usb.c **** 
  86:Drivers/STM32F4xx_HAL_Driver/Src/stm32f4xx_ll_usb.c ****   if (cfg.phy_itface == USB_OTG_ULPI_PHY)
  87:Drivers/STM32F4xx_HAL_Driver/Src/stm32f4xx_ll_usb.c ****   {
ARM GAS  C:\Users\7636~1\AppData\Local\Temp\ccnv92VB.s 			page 3


  88:Drivers/STM32F4xx_HAL_Driver/Src/stm32f4xx_ll_usb.c ****     USBx->GCCFG &= ~(USB_OTG_GCCFG_PWRDWN);
  89:Drivers/STM32F4xx_HAL_Driver/Src/stm32f4xx_ll_usb.c **** 
  90:Drivers/STM32F4xx_HAL_Driver/Src/stm32f4xx_ll_usb.c ****     /* Init The ULPI Interface */
  91:Drivers/STM32F4xx_HAL_Driver/Src/stm32f4xx_ll_usb.c ****     USBx->GUSBCFG &= ~(USB_OTG_GUSBCFG_TSDPS | USB_OTG_GUSBCFG_ULPIFSLS | USB_OTG_GUSBCFG_PHYSEL);
  92:Drivers/STM32F4xx_HAL_Driver/Src/stm32f4xx_ll_usb.c **** 
  93:Drivers/STM32F4xx_HAL_Driver/Src/stm32f4xx_ll_usb.c ****     /* Select vbus source */
  94:Drivers/STM32F4xx_HAL_Driver/Src/stm32f4xx_ll_usb.c ****     USBx->GUSBCFG &= ~(USB_OTG_GUSBCFG_ULPIEVBUSD | USB_OTG_GUSBCFG_ULPIEVBUSI);
  95:Drivers/STM32F4xx_HAL_Driver/Src/stm32f4xx_ll_usb.c ****     if (cfg.use_external_vbus == 1U)
  96:Drivers/STM32F4xx_HAL_Driver/Src/stm32f4xx_ll_usb.c ****     {
  97:Drivers/STM32F4xx_HAL_Driver/Src/stm32f4xx_ll_usb.c ****       USBx->GUSBCFG |= USB_OTG_GUSBCFG_ULPIEVBUSD;
  98:Drivers/STM32F4xx_HAL_Driver/Src/stm32f4xx_ll_usb.c ****     }
  99:Drivers/STM32F4xx_HAL_Driver/Src/stm32f4xx_ll_usb.c ****     /* Reset after a PHY select  */
 100:Drivers/STM32F4xx_HAL_Driver/Src/stm32f4xx_ll_usb.c ****     ret = USB_CoreReset(USBx);
 101:Drivers/STM32F4xx_HAL_Driver/Src/stm32f4xx_ll_usb.c ****   }
 102:Drivers/STM32F4xx_HAL_Driver/Src/stm32f4xx_ll_usb.c ****   else /* FS interface (embedded Phy) */
 103:Drivers/STM32F4xx_HAL_Driver/Src/stm32f4xx_ll_usb.c ****   {
 104:Drivers/STM32F4xx_HAL_Driver/Src/stm32f4xx_ll_usb.c ****     /* Select FS Embedded PHY */
 105:Drivers/STM32F4xx_HAL_Driver/Src/stm32f4xx_ll_usb.c ****     USBx->GUSBCFG |= USB_OTG_GUSBCFG_PHYSEL;
 106:Drivers/STM32F4xx_HAL_Driver/Src/stm32f4xx_ll_usb.c **** 
 107:Drivers/STM32F4xx_HAL_Driver/Src/stm32f4xx_ll_usb.c ****     /* Reset after a PHY select */
 108:Drivers/STM32F4xx_HAL_Driver/Src/stm32f4xx_ll_usb.c ****     ret = USB_CoreReset(USBx);
 109:Drivers/STM32F4xx_HAL_Driver/Src/stm32f4xx_ll_usb.c **** 
 110:Drivers/STM32F4xx_HAL_Driver/Src/stm32f4xx_ll_usb.c ****     if (cfg.battery_charging_enable == 0U)
 111:Drivers/STM32F4xx_HAL_Driver/Src/stm32f4xx_ll_usb.c ****     {
 112:Drivers/STM32F4xx_HAL_Driver/Src/stm32f4xx_ll_usb.c ****       /* Activate the USB Transceiver */
 113:Drivers/STM32F4xx_HAL_Driver/Src/stm32f4xx_ll_usb.c ****       USBx->GCCFG |= USB_OTG_GCCFG_PWRDWN;
 114:Drivers/STM32F4xx_HAL_Driver/Src/stm32f4xx_ll_usb.c ****     }
 115:Drivers/STM32F4xx_HAL_Driver/Src/stm32f4xx_ll_usb.c ****     else
 116:Drivers/STM32F4xx_HAL_Driver/Src/stm32f4xx_ll_usb.c ****     {
 117:Drivers/STM32F4xx_HAL_Driver/Src/stm32f4xx_ll_usb.c ****       /* Deactivate the USB Transceiver */
 118:Drivers/STM32F4xx_HAL_Driver/Src/stm32f4xx_ll_usb.c ****       USBx->GCCFG &= ~(USB_OTG_GCCFG_PWRDWN);
 119:Drivers/STM32F4xx_HAL_Driver/Src/stm32f4xx_ll_usb.c ****     }
 120:Drivers/STM32F4xx_HAL_Driver/Src/stm32f4xx_ll_usb.c ****   }
 121:Drivers/STM32F4xx_HAL_Driver/Src/stm32f4xx_ll_usb.c **** 
 122:Drivers/STM32F4xx_HAL_Driver/Src/stm32f4xx_ll_usb.c ****   if (cfg.dma_enable == 1U)
 123:Drivers/STM32F4xx_HAL_Driver/Src/stm32f4xx_ll_usb.c ****   {
 124:Drivers/STM32F4xx_HAL_Driver/Src/stm32f4xx_ll_usb.c ****     USBx->GAHBCFG |= USB_OTG_GAHBCFG_HBSTLEN_2;
 125:Drivers/STM32F4xx_HAL_Driver/Src/stm32f4xx_ll_usb.c ****     USBx->GAHBCFG |= USB_OTG_GAHBCFG_DMAEN;
 126:Drivers/STM32F4xx_HAL_Driver/Src/stm32f4xx_ll_usb.c ****   }
 127:Drivers/STM32F4xx_HAL_Driver/Src/stm32f4xx_ll_usb.c **** 
 128:Drivers/STM32F4xx_HAL_Driver/Src/stm32f4xx_ll_usb.c ****   return ret;
 129:Drivers/STM32F4xx_HAL_Driver/Src/stm32f4xx_ll_usb.c **** }
 130:Drivers/STM32F4xx_HAL_Driver/Src/stm32f4xx_ll_usb.c **** 
 131:Drivers/STM32F4xx_HAL_Driver/Src/stm32f4xx_ll_usb.c **** 
 132:Drivers/STM32F4xx_HAL_Driver/Src/stm32f4xx_ll_usb.c **** /**
 133:Drivers/STM32F4xx_HAL_Driver/Src/stm32f4xx_ll_usb.c ****   * @brief  Set the USB turnaround time
 134:Drivers/STM32F4xx_HAL_Driver/Src/stm32f4xx_ll_usb.c ****   * @param  USBx USB Instance
 135:Drivers/STM32F4xx_HAL_Driver/Src/stm32f4xx_ll_usb.c ****   * @param  hclk: AHB clock frequency
 136:Drivers/STM32F4xx_HAL_Driver/Src/stm32f4xx_ll_usb.c ****   * @retval USB turnaround time In PHY Clocks number
 137:Drivers/STM32F4xx_HAL_Driver/Src/stm32f4xx_ll_usb.c ****   */
 138:Drivers/STM32F4xx_HAL_Driver/Src/stm32f4xx_ll_usb.c **** HAL_StatusTypeDef USB_SetTurnaroundTime(USB_OTG_GlobalTypeDef *USBx,
 139:Drivers/STM32F4xx_HAL_Driver/Src/stm32f4xx_ll_usb.c ****                                         uint32_t hclk, uint8_t speed)
 140:Drivers/STM32F4xx_HAL_Driver/Src/stm32f4xx_ll_usb.c **** {
 141:Drivers/STM32F4xx_HAL_Driver/Src/stm32f4xx_ll_usb.c ****   uint32_t UsbTrd;
 142:Drivers/STM32F4xx_HAL_Driver/Src/stm32f4xx_ll_usb.c **** 
 143:Drivers/STM32F4xx_HAL_Driver/Src/stm32f4xx_ll_usb.c ****   /* The USBTRD is configured according to the tables below, depending on AHB frequency
 144:Drivers/STM32F4xx_HAL_Driver/Src/stm32f4xx_ll_usb.c ****   used by application. In the low AHB frequency range it is used to stretch enough the USB response
ARM GAS  C:\Users\7636~1\AppData\Local\Temp\ccnv92VB.s 			page 4


 145:Drivers/STM32F4xx_HAL_Driver/Src/stm32f4xx_ll_usb.c ****   time to IN tokens, the USB turnaround time, so to compensate for the longer AHB read access
 146:Drivers/STM32F4xx_HAL_Driver/Src/stm32f4xx_ll_usb.c ****   latency to the Data FIFO */
 147:Drivers/STM32F4xx_HAL_Driver/Src/stm32f4xx_ll_usb.c ****   if (speed == USBD_FS_SPEED)
 148:Drivers/STM32F4xx_HAL_Driver/Src/stm32f4xx_ll_usb.c ****   {
 149:Drivers/STM32F4xx_HAL_Driver/Src/stm32f4xx_ll_usb.c ****     if ((hclk >= 14200000U) && (hclk < 15000000U))
 150:Drivers/STM32F4xx_HAL_Driver/Src/stm32f4xx_ll_usb.c ****     {
 151:Drivers/STM32F4xx_HAL_Driver/Src/stm32f4xx_ll_usb.c ****       /* hclk Clock Range between 14.2-15 MHz */
 152:Drivers/STM32F4xx_HAL_Driver/Src/stm32f4xx_ll_usb.c ****       UsbTrd = 0xFU;
 153:Drivers/STM32F4xx_HAL_Driver/Src/stm32f4xx_ll_usb.c ****     }
 154:Drivers/STM32F4xx_HAL_Driver/Src/stm32f4xx_ll_usb.c ****     else if ((hclk >= 15000000U) && (hclk < 16000000U))
 155:Drivers/STM32F4xx_HAL_Driver/Src/stm32f4xx_ll_usb.c ****     {
 156:Drivers/STM32F4xx_HAL_Driver/Src/stm32f4xx_ll_usb.c ****       /* hclk Clock Range between 15-16 MHz */
 157:Drivers/STM32F4xx_HAL_Driver/Src/stm32f4xx_ll_usb.c ****       UsbTrd = 0xEU;
 158:Drivers/STM32F4xx_HAL_Driver/Src/stm32f4xx_ll_usb.c ****     }
 159:Drivers/STM32F4xx_HAL_Driver/Src/stm32f4xx_ll_usb.c ****     else if ((hclk >= 16000000U) && (hclk < 17200000U))
 160:Drivers/STM32F4xx_HAL_Driver/Src/stm32f4xx_ll_usb.c ****     {
 161:Drivers/STM32F4xx_HAL_Driver/Src/stm32f4xx_ll_usb.c ****       /* hclk Clock Range between 16-17.2 MHz */
 162:Drivers/STM32F4xx_HAL_Driver/Src/stm32f4xx_ll_usb.c ****       UsbTrd = 0xDU;
 163:Drivers/STM32F4xx_HAL_Driver/Src/stm32f4xx_ll_usb.c ****     }
 164:Drivers/STM32F4xx_HAL_Driver/Src/stm32f4xx_ll_usb.c ****     else if ((hclk >= 17200000U) && (hclk < 18500000U))
 165:Drivers/STM32F4xx_HAL_Driver/Src/stm32f4xx_ll_usb.c ****     {
 166:Drivers/STM32F4xx_HAL_Driver/Src/stm32f4xx_ll_usb.c ****       /* hclk Clock Range between 17.2-18.5 MHz */
 167:Drivers/STM32F4xx_HAL_Driver/Src/stm32f4xx_ll_usb.c ****       UsbTrd = 0xCU;
 168:Drivers/STM32F4xx_HAL_Driver/Src/stm32f4xx_ll_usb.c ****     }
 169:Drivers/STM32F4xx_HAL_Driver/Src/stm32f4xx_ll_usb.c ****     else if ((hclk >= 18500000U) && (hclk < 20000000U))
 170:Drivers/STM32F4xx_HAL_Driver/Src/stm32f4xx_ll_usb.c ****     {
 171:Drivers/STM32F4xx_HAL_Driver/Src/stm32f4xx_ll_usb.c ****       /* hclk Clock Range between 18.5-20 MHz */
 172:Drivers/STM32F4xx_HAL_Driver/Src/stm32f4xx_ll_usb.c ****       UsbTrd = 0xBU;
 173:Drivers/STM32F4xx_HAL_Driver/Src/stm32f4xx_ll_usb.c ****     }
 174:Drivers/STM32F4xx_HAL_Driver/Src/stm32f4xx_ll_usb.c ****     else if ((hclk >= 20000000U) && (hclk < 21800000U))
 175:Drivers/STM32F4xx_HAL_Driver/Src/stm32f4xx_ll_usb.c ****     {
 176:Drivers/STM32F4xx_HAL_Driver/Src/stm32f4xx_ll_usb.c ****       /* hclk Clock Range between 20-21.8 MHz */
 177:Drivers/STM32F4xx_HAL_Driver/Src/stm32f4xx_ll_usb.c ****       UsbTrd = 0xAU;
 178:Drivers/STM32F4xx_HAL_Driver/Src/stm32f4xx_ll_usb.c ****     }
 179:Drivers/STM32F4xx_HAL_Driver/Src/stm32f4xx_ll_usb.c ****     else if ((hclk >= 21800000U) && (hclk < 24000000U))
 180:Drivers/STM32F4xx_HAL_Driver/Src/stm32f4xx_ll_usb.c ****     {
 181:Drivers/STM32F4xx_HAL_Driver/Src/stm32f4xx_ll_usb.c ****       /* hclk Clock Range between 21.8-24 MHz */
 182:Drivers/STM32F4xx_HAL_Driver/Src/stm32f4xx_ll_usb.c ****       UsbTrd = 0x9U;
 183:Drivers/STM32F4xx_HAL_Driver/Src/stm32f4xx_ll_usb.c ****     }
 184:Drivers/STM32F4xx_HAL_Driver/Src/stm32f4xx_ll_usb.c ****     else if ((hclk >= 24000000U) && (hclk < 27700000U))
 185:Drivers/STM32F4xx_HAL_Driver/Src/stm32f4xx_ll_usb.c ****     {
 186:Drivers/STM32F4xx_HAL_Driver/Src/stm32f4xx_ll_usb.c ****       /* hclk Clock Range between 24-27.7 MHz */
 187:Drivers/STM32F4xx_HAL_Driver/Src/stm32f4xx_ll_usb.c ****       UsbTrd = 0x8U;
 188:Drivers/STM32F4xx_HAL_Driver/Src/stm32f4xx_ll_usb.c ****     }
 189:Drivers/STM32F4xx_HAL_Driver/Src/stm32f4xx_ll_usb.c ****     else if ((hclk >= 27700000U) && (hclk < 32000000U))
 190:Drivers/STM32F4xx_HAL_Driver/Src/stm32f4xx_ll_usb.c ****     {
 191:Drivers/STM32F4xx_HAL_Driver/Src/stm32f4xx_ll_usb.c ****       /* hclk Clock Range between 27.7-32 MHz */
 192:Drivers/STM32F4xx_HAL_Driver/Src/stm32f4xx_ll_usb.c ****       UsbTrd = 0x7U;
 193:Drivers/STM32F4xx_HAL_Driver/Src/stm32f4xx_ll_usb.c ****     }
 194:Drivers/STM32F4xx_HAL_Driver/Src/stm32f4xx_ll_usb.c ****     else /* if(hclk >= 32000000) */
 195:Drivers/STM32F4xx_HAL_Driver/Src/stm32f4xx_ll_usb.c ****     {
 196:Drivers/STM32F4xx_HAL_Driver/Src/stm32f4xx_ll_usb.c ****       /* hclk Clock Range between 32-200 MHz */
 197:Drivers/STM32F4xx_HAL_Driver/Src/stm32f4xx_ll_usb.c ****       UsbTrd = 0x6U;
 198:Drivers/STM32F4xx_HAL_Driver/Src/stm32f4xx_ll_usb.c ****     }
 199:Drivers/STM32F4xx_HAL_Driver/Src/stm32f4xx_ll_usb.c ****   }
 200:Drivers/STM32F4xx_HAL_Driver/Src/stm32f4xx_ll_usb.c ****   else if (speed == USBD_HS_SPEED)
 201:Drivers/STM32F4xx_HAL_Driver/Src/stm32f4xx_ll_usb.c ****   {
ARM GAS  C:\Users\7636~1\AppData\Local\Temp\ccnv92VB.s 			page 5


 202:Drivers/STM32F4xx_HAL_Driver/Src/stm32f4xx_ll_usb.c ****     UsbTrd = USBD_HS_TRDT_VALUE;
 203:Drivers/STM32F4xx_HAL_Driver/Src/stm32f4xx_ll_usb.c ****   }
 204:Drivers/STM32F4xx_HAL_Driver/Src/stm32f4xx_ll_usb.c ****   else
 205:Drivers/STM32F4xx_HAL_Driver/Src/stm32f4xx_ll_usb.c ****   {
 206:Drivers/STM32F4xx_HAL_Driver/Src/stm32f4xx_ll_usb.c ****     UsbTrd = USBD_DEFAULT_TRDT_VALUE;
 207:Drivers/STM32F4xx_HAL_Driver/Src/stm32f4xx_ll_usb.c ****   }
 208:Drivers/STM32F4xx_HAL_Driver/Src/stm32f4xx_ll_usb.c **** 
 209:Drivers/STM32F4xx_HAL_Driver/Src/stm32f4xx_ll_usb.c ****   USBx->GUSBCFG &= ~USB_OTG_GUSBCFG_TRDT;
 210:Drivers/STM32F4xx_HAL_Driver/Src/stm32f4xx_ll_usb.c ****   USBx->GUSBCFG |= (uint32_t)((UsbTrd << 10) & USB_OTG_GUSBCFG_TRDT);
 211:Drivers/STM32F4xx_HAL_Driver/Src/stm32f4xx_ll_usb.c **** 
 212:Drivers/STM32F4xx_HAL_Driver/Src/stm32f4xx_ll_usb.c ****   return HAL_OK;
 213:Drivers/STM32F4xx_HAL_Driver/Src/stm32f4xx_ll_usb.c **** }
 214:Drivers/STM32F4xx_HAL_Driver/Src/stm32f4xx_ll_usb.c **** 
 215:Drivers/STM32F4xx_HAL_Driver/Src/stm32f4xx_ll_usb.c **** /**
 216:Drivers/STM32F4xx_HAL_Driver/Src/stm32f4xx_ll_usb.c ****   * @brief  USB_EnableGlobalInt
 217:Drivers/STM32F4xx_HAL_Driver/Src/stm32f4xx_ll_usb.c ****   *         Enables the controller's Global Int in the AHB Config reg
 218:Drivers/STM32F4xx_HAL_Driver/Src/stm32f4xx_ll_usb.c ****   * @param  USBx  Selected device
 219:Drivers/STM32F4xx_HAL_Driver/Src/stm32f4xx_ll_usb.c ****   * @retval HAL status
 220:Drivers/STM32F4xx_HAL_Driver/Src/stm32f4xx_ll_usb.c ****   */
 221:Drivers/STM32F4xx_HAL_Driver/Src/stm32f4xx_ll_usb.c **** HAL_StatusTypeDef USB_EnableGlobalInt(USB_OTG_GlobalTypeDef *USBx)
 222:Drivers/STM32F4xx_HAL_Driver/Src/stm32f4xx_ll_usb.c **** {
 223:Drivers/STM32F4xx_HAL_Driver/Src/stm32f4xx_ll_usb.c ****   USBx->GAHBCFG |= USB_OTG_GAHBCFG_GINT;
 224:Drivers/STM32F4xx_HAL_Driver/Src/stm32f4xx_ll_usb.c ****   return HAL_OK;
 225:Drivers/STM32F4xx_HAL_Driver/Src/stm32f4xx_ll_usb.c **** }
 226:Drivers/STM32F4xx_HAL_Driver/Src/stm32f4xx_ll_usb.c **** 
 227:Drivers/STM32F4xx_HAL_Driver/Src/stm32f4xx_ll_usb.c **** /**
 228:Drivers/STM32F4xx_HAL_Driver/Src/stm32f4xx_ll_usb.c ****   * @brief  USB_DisableGlobalInt
 229:Drivers/STM32F4xx_HAL_Driver/Src/stm32f4xx_ll_usb.c ****   *         Disable the controller's Global Int in the AHB Config reg
 230:Drivers/STM32F4xx_HAL_Driver/Src/stm32f4xx_ll_usb.c ****   * @param  USBx  Selected device
 231:Drivers/STM32F4xx_HAL_Driver/Src/stm32f4xx_ll_usb.c ****   * @retval HAL status
 232:Drivers/STM32F4xx_HAL_Driver/Src/stm32f4xx_ll_usb.c ****   */
 233:Drivers/STM32F4xx_HAL_Driver/Src/stm32f4xx_ll_usb.c **** HAL_StatusTypeDef USB_DisableGlobalInt(USB_OTG_GlobalTypeDef *USBx)
 234:Drivers/STM32F4xx_HAL_Driver/Src/stm32f4xx_ll_usb.c **** {
 235:Drivers/STM32F4xx_HAL_Driver/Src/stm32f4xx_ll_usb.c ****   USBx->GAHBCFG &= ~USB_OTG_GAHBCFG_GINT;
 236:Drivers/STM32F4xx_HAL_Driver/Src/stm32f4xx_ll_usb.c ****   return HAL_OK;
 237:Drivers/STM32F4xx_HAL_Driver/Src/stm32f4xx_ll_usb.c **** }
 238:Drivers/STM32F4xx_HAL_Driver/Src/stm32f4xx_ll_usb.c **** 
 239:Drivers/STM32F4xx_HAL_Driver/Src/stm32f4xx_ll_usb.c **** /**
 240:Drivers/STM32F4xx_HAL_Driver/Src/stm32f4xx_ll_usb.c ****   * @brief  USB_SetCurrentMode Set functional mode
 241:Drivers/STM32F4xx_HAL_Driver/Src/stm32f4xx_ll_usb.c ****   * @param  USBx  Selected device
 242:Drivers/STM32F4xx_HAL_Driver/Src/stm32f4xx_ll_usb.c ****   * @param  mode  current core mode
 243:Drivers/STM32F4xx_HAL_Driver/Src/stm32f4xx_ll_usb.c ****   *          This parameter can be one of these values:
 244:Drivers/STM32F4xx_HAL_Driver/Src/stm32f4xx_ll_usb.c ****   *            @arg USB_DEVICE_MODE Peripheral mode
 245:Drivers/STM32F4xx_HAL_Driver/Src/stm32f4xx_ll_usb.c ****   *            @arg USB_HOST_MODE Host mode
 246:Drivers/STM32F4xx_HAL_Driver/Src/stm32f4xx_ll_usb.c ****   * @retval HAL status
 247:Drivers/STM32F4xx_HAL_Driver/Src/stm32f4xx_ll_usb.c ****   */
 248:Drivers/STM32F4xx_HAL_Driver/Src/stm32f4xx_ll_usb.c **** HAL_StatusTypeDef USB_SetCurrentMode(USB_OTG_GlobalTypeDef *USBx, USB_OTG_ModeTypeDef mode)
 249:Drivers/STM32F4xx_HAL_Driver/Src/stm32f4xx_ll_usb.c **** {
 250:Drivers/STM32F4xx_HAL_Driver/Src/stm32f4xx_ll_usb.c ****   USBx->GUSBCFG &= ~(USB_OTG_GUSBCFG_FHMOD | USB_OTG_GUSBCFG_FDMOD);
 251:Drivers/STM32F4xx_HAL_Driver/Src/stm32f4xx_ll_usb.c **** 
 252:Drivers/STM32F4xx_HAL_Driver/Src/stm32f4xx_ll_usb.c ****   if (mode == USB_HOST_MODE)
 253:Drivers/STM32F4xx_HAL_Driver/Src/stm32f4xx_ll_usb.c ****   {
 254:Drivers/STM32F4xx_HAL_Driver/Src/stm32f4xx_ll_usb.c ****     USBx->GUSBCFG |= USB_OTG_GUSBCFG_FHMOD;
 255:Drivers/STM32F4xx_HAL_Driver/Src/stm32f4xx_ll_usb.c ****   }
 256:Drivers/STM32F4xx_HAL_Driver/Src/stm32f4xx_ll_usb.c ****   else if (mode == USB_DEVICE_MODE)
 257:Drivers/STM32F4xx_HAL_Driver/Src/stm32f4xx_ll_usb.c ****   {
 258:Drivers/STM32F4xx_HAL_Driver/Src/stm32f4xx_ll_usb.c ****     USBx->GUSBCFG |= USB_OTG_GUSBCFG_FDMOD;
ARM GAS  C:\Users\7636~1\AppData\Local\Temp\ccnv92VB.s 			page 6


 259:Drivers/STM32F4xx_HAL_Driver/Src/stm32f4xx_ll_usb.c ****   }
 260:Drivers/STM32F4xx_HAL_Driver/Src/stm32f4xx_ll_usb.c ****   else
 261:Drivers/STM32F4xx_HAL_Driver/Src/stm32f4xx_ll_usb.c ****   {
 262:Drivers/STM32F4xx_HAL_Driver/Src/stm32f4xx_ll_usb.c ****     return HAL_ERROR;
 263:Drivers/STM32F4xx_HAL_Driver/Src/stm32f4xx_ll_usb.c ****   }
 264:Drivers/STM32F4xx_HAL_Driver/Src/stm32f4xx_ll_usb.c ****   HAL_Delay(50U);
 265:Drivers/STM32F4xx_HAL_Driver/Src/stm32f4xx_ll_usb.c **** 
 266:Drivers/STM32F4xx_HAL_Driver/Src/stm32f4xx_ll_usb.c ****   return HAL_OK;
 267:Drivers/STM32F4xx_HAL_Driver/Src/stm32f4xx_ll_usb.c **** }
 268:Drivers/STM32F4xx_HAL_Driver/Src/stm32f4xx_ll_usb.c **** 
 269:Drivers/STM32F4xx_HAL_Driver/Src/stm32f4xx_ll_usb.c **** /**
 270:Drivers/STM32F4xx_HAL_Driver/Src/stm32f4xx_ll_usb.c ****   * @brief  USB_DevInit Initializes the USB_OTG controller registers
 271:Drivers/STM32F4xx_HAL_Driver/Src/stm32f4xx_ll_usb.c ****   *         for device mode
 272:Drivers/STM32F4xx_HAL_Driver/Src/stm32f4xx_ll_usb.c ****   * @param  USBx  Selected device
 273:Drivers/STM32F4xx_HAL_Driver/Src/stm32f4xx_ll_usb.c ****   * @param  cfg   pointer to a USB_OTG_CfgTypeDef structure that contains
 274:Drivers/STM32F4xx_HAL_Driver/Src/stm32f4xx_ll_usb.c ****   *         the configuration information for the specified USBx peripheral.
 275:Drivers/STM32F4xx_HAL_Driver/Src/stm32f4xx_ll_usb.c ****   * @retval HAL status
 276:Drivers/STM32F4xx_HAL_Driver/Src/stm32f4xx_ll_usb.c ****   */
 277:Drivers/STM32F4xx_HAL_Driver/Src/stm32f4xx_ll_usb.c **** HAL_StatusTypeDef USB_DevInit(USB_OTG_GlobalTypeDef *USBx, USB_OTG_CfgTypeDef cfg)
 278:Drivers/STM32F4xx_HAL_Driver/Src/stm32f4xx_ll_usb.c **** {
 279:Drivers/STM32F4xx_HAL_Driver/Src/stm32f4xx_ll_usb.c ****   HAL_StatusTypeDef ret = HAL_OK;
 280:Drivers/STM32F4xx_HAL_Driver/Src/stm32f4xx_ll_usb.c ****   uint32_t USBx_BASE = (uint32_t)USBx;
 281:Drivers/STM32F4xx_HAL_Driver/Src/stm32f4xx_ll_usb.c ****   uint32_t i;
 282:Drivers/STM32F4xx_HAL_Driver/Src/stm32f4xx_ll_usb.c **** 
 283:Drivers/STM32F4xx_HAL_Driver/Src/stm32f4xx_ll_usb.c ****   for (i = 0U; i < 15U; i++)
 284:Drivers/STM32F4xx_HAL_Driver/Src/stm32f4xx_ll_usb.c ****   {
 285:Drivers/STM32F4xx_HAL_Driver/Src/stm32f4xx_ll_usb.c ****     USBx->DIEPTXF[i] = 0U;
 286:Drivers/STM32F4xx_HAL_Driver/Src/stm32f4xx_ll_usb.c ****   }
 287:Drivers/STM32F4xx_HAL_Driver/Src/stm32f4xx_ll_usb.c **** 
 288:Drivers/STM32F4xx_HAL_Driver/Src/stm32f4xx_ll_usb.c **** #if defined(STM32F446xx) || defined(STM32F469xx) || defined(STM32F479xx) || defined(STM32F412Zx) ||
 289:Drivers/STM32F4xx_HAL_Driver/Src/stm32f4xx_ll_usb.c ****   /* VBUS Sensing setup */
 290:Drivers/STM32F4xx_HAL_Driver/Src/stm32f4xx_ll_usb.c ****   if (cfg.vbus_sensing_enable == 0U)
 291:Drivers/STM32F4xx_HAL_Driver/Src/stm32f4xx_ll_usb.c ****   {
 292:Drivers/STM32F4xx_HAL_Driver/Src/stm32f4xx_ll_usb.c ****     USBx_DEVICE->DCTL |= USB_OTG_DCTL_SDIS;
 293:Drivers/STM32F4xx_HAL_Driver/Src/stm32f4xx_ll_usb.c **** 
 294:Drivers/STM32F4xx_HAL_Driver/Src/stm32f4xx_ll_usb.c ****     /* Deactivate VBUS Sensing B */
 295:Drivers/STM32F4xx_HAL_Driver/Src/stm32f4xx_ll_usb.c ****     USBx->GCCFG &= ~USB_OTG_GCCFG_VBDEN;
 296:Drivers/STM32F4xx_HAL_Driver/Src/stm32f4xx_ll_usb.c **** 
 297:Drivers/STM32F4xx_HAL_Driver/Src/stm32f4xx_ll_usb.c ****     /* B-peripheral session valid override enable */
 298:Drivers/STM32F4xx_HAL_Driver/Src/stm32f4xx_ll_usb.c ****     USBx->GOTGCTL |= USB_OTG_GOTGCTL_BVALOEN;
 299:Drivers/STM32F4xx_HAL_Driver/Src/stm32f4xx_ll_usb.c ****     USBx->GOTGCTL |= USB_OTG_GOTGCTL_BVALOVAL;
 300:Drivers/STM32F4xx_HAL_Driver/Src/stm32f4xx_ll_usb.c ****   }
 301:Drivers/STM32F4xx_HAL_Driver/Src/stm32f4xx_ll_usb.c ****   else
 302:Drivers/STM32F4xx_HAL_Driver/Src/stm32f4xx_ll_usb.c ****   {
 303:Drivers/STM32F4xx_HAL_Driver/Src/stm32f4xx_ll_usb.c ****     /* Enable HW VBUS sensing */
 304:Drivers/STM32F4xx_HAL_Driver/Src/stm32f4xx_ll_usb.c ****     USBx->GCCFG |= USB_OTG_GCCFG_VBDEN;
 305:Drivers/STM32F4xx_HAL_Driver/Src/stm32f4xx_ll_usb.c ****   }
 306:Drivers/STM32F4xx_HAL_Driver/Src/stm32f4xx_ll_usb.c **** #else
 307:Drivers/STM32F4xx_HAL_Driver/Src/stm32f4xx_ll_usb.c ****   /* VBUS Sensing setup */
 308:Drivers/STM32F4xx_HAL_Driver/Src/stm32f4xx_ll_usb.c ****   if (cfg.vbus_sensing_enable == 0U)
 309:Drivers/STM32F4xx_HAL_Driver/Src/stm32f4xx_ll_usb.c ****   {
 310:Drivers/STM32F4xx_HAL_Driver/Src/stm32f4xx_ll_usb.c ****     /*
 311:Drivers/STM32F4xx_HAL_Driver/Src/stm32f4xx_ll_usb.c ****      * Disable HW VBUS sensing. VBUS is internally considered to be always
 312:Drivers/STM32F4xx_HAL_Driver/Src/stm32f4xx_ll_usb.c ****      * at VBUS-Valid level (5V).
 313:Drivers/STM32F4xx_HAL_Driver/Src/stm32f4xx_ll_usb.c ****      */
 314:Drivers/STM32F4xx_HAL_Driver/Src/stm32f4xx_ll_usb.c ****     USBx_DEVICE->DCTL |= USB_OTG_DCTL_SDIS;
 315:Drivers/STM32F4xx_HAL_Driver/Src/stm32f4xx_ll_usb.c ****     USBx->GCCFG |= USB_OTG_GCCFG_NOVBUSSENS;
ARM GAS  C:\Users\7636~1\AppData\Local\Temp\ccnv92VB.s 			page 7


 316:Drivers/STM32F4xx_HAL_Driver/Src/stm32f4xx_ll_usb.c ****     USBx->GCCFG &= ~USB_OTG_GCCFG_VBUSBSEN;
 317:Drivers/STM32F4xx_HAL_Driver/Src/stm32f4xx_ll_usb.c ****     USBx->GCCFG &= ~USB_OTG_GCCFG_VBUSASEN;
 318:Drivers/STM32F4xx_HAL_Driver/Src/stm32f4xx_ll_usb.c ****   }
 319:Drivers/STM32F4xx_HAL_Driver/Src/stm32f4xx_ll_usb.c ****   else
 320:Drivers/STM32F4xx_HAL_Driver/Src/stm32f4xx_ll_usb.c ****   {
 321:Drivers/STM32F4xx_HAL_Driver/Src/stm32f4xx_ll_usb.c ****     /* Enable HW VBUS sensing */
 322:Drivers/STM32F4xx_HAL_Driver/Src/stm32f4xx_ll_usb.c ****     USBx->GCCFG &= ~USB_OTG_GCCFG_NOVBUSSENS;
 323:Drivers/STM32F4xx_HAL_Driver/Src/stm32f4xx_ll_usb.c ****     USBx->GCCFG |= USB_OTG_GCCFG_VBUSBSEN;
 324:Drivers/STM32F4xx_HAL_Driver/Src/stm32f4xx_ll_usb.c ****   }
 325:Drivers/STM32F4xx_HAL_Driver/Src/stm32f4xx_ll_usb.c **** #endif /* defined(STM32F446xx) || defined(STM32F469xx) || defined(STM32F479xx) || defined(STM32F412
 326:Drivers/STM32F4xx_HAL_Driver/Src/stm32f4xx_ll_usb.c **** 
 327:Drivers/STM32F4xx_HAL_Driver/Src/stm32f4xx_ll_usb.c ****   /* Restart the Phy Clock */
 328:Drivers/STM32F4xx_HAL_Driver/Src/stm32f4xx_ll_usb.c ****   USBx_PCGCCTL = 0U;
 329:Drivers/STM32F4xx_HAL_Driver/Src/stm32f4xx_ll_usb.c **** 
 330:Drivers/STM32F4xx_HAL_Driver/Src/stm32f4xx_ll_usb.c ****   /* Device mode configuration */
 331:Drivers/STM32F4xx_HAL_Driver/Src/stm32f4xx_ll_usb.c ****   USBx_DEVICE->DCFG |= DCFG_FRAME_INTERVAL_80;
 332:Drivers/STM32F4xx_HAL_Driver/Src/stm32f4xx_ll_usb.c **** 
 333:Drivers/STM32F4xx_HAL_Driver/Src/stm32f4xx_ll_usb.c ****   if (cfg.phy_itface == USB_OTG_ULPI_PHY)
 334:Drivers/STM32F4xx_HAL_Driver/Src/stm32f4xx_ll_usb.c ****   {
 335:Drivers/STM32F4xx_HAL_Driver/Src/stm32f4xx_ll_usb.c ****     if (cfg.speed == USBD_HS_SPEED)
 336:Drivers/STM32F4xx_HAL_Driver/Src/stm32f4xx_ll_usb.c ****     {
 337:Drivers/STM32F4xx_HAL_Driver/Src/stm32f4xx_ll_usb.c ****       /* Set Core speed to High speed mode */
 338:Drivers/STM32F4xx_HAL_Driver/Src/stm32f4xx_ll_usb.c ****       (void)USB_SetDevSpeed(USBx, USB_OTG_SPEED_HIGH);
 339:Drivers/STM32F4xx_HAL_Driver/Src/stm32f4xx_ll_usb.c ****     }
 340:Drivers/STM32F4xx_HAL_Driver/Src/stm32f4xx_ll_usb.c ****     else
 341:Drivers/STM32F4xx_HAL_Driver/Src/stm32f4xx_ll_usb.c ****     {
 342:Drivers/STM32F4xx_HAL_Driver/Src/stm32f4xx_ll_usb.c ****       /* Set Core speed to Full speed mode */
 343:Drivers/STM32F4xx_HAL_Driver/Src/stm32f4xx_ll_usb.c ****       (void)USB_SetDevSpeed(USBx, USB_OTG_SPEED_HIGH_IN_FULL);
 344:Drivers/STM32F4xx_HAL_Driver/Src/stm32f4xx_ll_usb.c ****     }
 345:Drivers/STM32F4xx_HAL_Driver/Src/stm32f4xx_ll_usb.c ****   }
 346:Drivers/STM32F4xx_HAL_Driver/Src/stm32f4xx_ll_usb.c ****   else
 347:Drivers/STM32F4xx_HAL_Driver/Src/stm32f4xx_ll_usb.c ****   {
 348:Drivers/STM32F4xx_HAL_Driver/Src/stm32f4xx_ll_usb.c ****     /* Set Core speed to Full speed mode */
 349:Drivers/STM32F4xx_HAL_Driver/Src/stm32f4xx_ll_usb.c ****     (void)USB_SetDevSpeed(USBx, USB_OTG_SPEED_FULL);
 350:Drivers/STM32F4xx_HAL_Driver/Src/stm32f4xx_ll_usb.c ****   }
 351:Drivers/STM32F4xx_HAL_Driver/Src/stm32f4xx_ll_usb.c **** 
 352:Drivers/STM32F4xx_HAL_Driver/Src/stm32f4xx_ll_usb.c ****   /* Flush the FIFOs */
 353:Drivers/STM32F4xx_HAL_Driver/Src/stm32f4xx_ll_usb.c ****   if (USB_FlushTxFifo(USBx, 0x10U) != HAL_OK) /* all Tx FIFOs */
 354:Drivers/STM32F4xx_HAL_Driver/Src/stm32f4xx_ll_usb.c ****   {
 355:Drivers/STM32F4xx_HAL_Driver/Src/stm32f4xx_ll_usb.c ****     ret = HAL_ERROR;
 356:Drivers/STM32F4xx_HAL_Driver/Src/stm32f4xx_ll_usb.c ****   }
 357:Drivers/STM32F4xx_HAL_Driver/Src/stm32f4xx_ll_usb.c **** 
 358:Drivers/STM32F4xx_HAL_Driver/Src/stm32f4xx_ll_usb.c ****   if (USB_FlushRxFifo(USBx) != HAL_OK)
 359:Drivers/STM32F4xx_HAL_Driver/Src/stm32f4xx_ll_usb.c ****   {
 360:Drivers/STM32F4xx_HAL_Driver/Src/stm32f4xx_ll_usb.c ****     ret = HAL_ERROR;
 361:Drivers/STM32F4xx_HAL_Driver/Src/stm32f4xx_ll_usb.c ****   }
 362:Drivers/STM32F4xx_HAL_Driver/Src/stm32f4xx_ll_usb.c **** 
 363:Drivers/STM32F4xx_HAL_Driver/Src/stm32f4xx_ll_usb.c ****   /* Clear all pending Device Interrupts */
 364:Drivers/STM32F4xx_HAL_Driver/Src/stm32f4xx_ll_usb.c ****   USBx_DEVICE->DIEPMSK = 0U;
 365:Drivers/STM32F4xx_HAL_Driver/Src/stm32f4xx_ll_usb.c ****   USBx_DEVICE->DOEPMSK = 0U;
 366:Drivers/STM32F4xx_HAL_Driver/Src/stm32f4xx_ll_usb.c ****   USBx_DEVICE->DAINTMSK = 0U;
 367:Drivers/STM32F4xx_HAL_Driver/Src/stm32f4xx_ll_usb.c **** 
 368:Drivers/STM32F4xx_HAL_Driver/Src/stm32f4xx_ll_usb.c ****   for (i = 0U; i < cfg.dev_endpoints; i++)
 369:Drivers/STM32F4xx_HAL_Driver/Src/stm32f4xx_ll_usb.c ****   {
 370:Drivers/STM32F4xx_HAL_Driver/Src/stm32f4xx_ll_usb.c ****     if ((USBx_INEP(i)->DIEPCTL & USB_OTG_DIEPCTL_EPENA) == USB_OTG_DIEPCTL_EPENA)
 371:Drivers/STM32F4xx_HAL_Driver/Src/stm32f4xx_ll_usb.c ****     {
 372:Drivers/STM32F4xx_HAL_Driver/Src/stm32f4xx_ll_usb.c ****       if (i == 0U)
ARM GAS  C:\Users\7636~1\AppData\Local\Temp\ccnv92VB.s 			page 8


 373:Drivers/STM32F4xx_HAL_Driver/Src/stm32f4xx_ll_usb.c ****       {
 374:Drivers/STM32F4xx_HAL_Driver/Src/stm32f4xx_ll_usb.c ****         USBx_INEP(i)->DIEPCTL = USB_OTG_DIEPCTL_SNAK;
 375:Drivers/STM32F4xx_HAL_Driver/Src/stm32f4xx_ll_usb.c ****       }
 376:Drivers/STM32F4xx_HAL_Driver/Src/stm32f4xx_ll_usb.c ****       else
 377:Drivers/STM32F4xx_HAL_Driver/Src/stm32f4xx_ll_usb.c ****       {
 378:Drivers/STM32F4xx_HAL_Driver/Src/stm32f4xx_ll_usb.c ****         USBx_INEP(i)->DIEPCTL = USB_OTG_DIEPCTL_EPDIS | USB_OTG_DIEPCTL_SNAK;
 379:Drivers/STM32F4xx_HAL_Driver/Src/stm32f4xx_ll_usb.c ****       }
 380:Drivers/STM32F4xx_HAL_Driver/Src/stm32f4xx_ll_usb.c ****     }
 381:Drivers/STM32F4xx_HAL_Driver/Src/stm32f4xx_ll_usb.c ****     else
 382:Drivers/STM32F4xx_HAL_Driver/Src/stm32f4xx_ll_usb.c ****     {
 383:Drivers/STM32F4xx_HAL_Driver/Src/stm32f4xx_ll_usb.c ****       USBx_INEP(i)->DIEPCTL = 0U;
 384:Drivers/STM32F4xx_HAL_Driver/Src/stm32f4xx_ll_usb.c ****     }
 385:Drivers/STM32F4xx_HAL_Driver/Src/stm32f4xx_ll_usb.c **** 
 386:Drivers/STM32F4xx_HAL_Driver/Src/stm32f4xx_ll_usb.c ****     USBx_INEP(i)->DIEPTSIZ = 0U;
 387:Drivers/STM32F4xx_HAL_Driver/Src/stm32f4xx_ll_usb.c ****     USBx_INEP(i)->DIEPINT  = 0xFB7FU;
 388:Drivers/STM32F4xx_HAL_Driver/Src/stm32f4xx_ll_usb.c ****   }
 389:Drivers/STM32F4xx_HAL_Driver/Src/stm32f4xx_ll_usb.c **** 
 390:Drivers/STM32F4xx_HAL_Driver/Src/stm32f4xx_ll_usb.c ****   for (i = 0U; i < cfg.dev_endpoints; i++)
 391:Drivers/STM32F4xx_HAL_Driver/Src/stm32f4xx_ll_usb.c ****   {
 392:Drivers/STM32F4xx_HAL_Driver/Src/stm32f4xx_ll_usb.c ****     if ((USBx_OUTEP(i)->DOEPCTL & USB_OTG_DOEPCTL_EPENA) == USB_OTG_DOEPCTL_EPENA)
 393:Drivers/STM32F4xx_HAL_Driver/Src/stm32f4xx_ll_usb.c ****     {
 394:Drivers/STM32F4xx_HAL_Driver/Src/stm32f4xx_ll_usb.c ****       if (i == 0U)
 395:Drivers/STM32F4xx_HAL_Driver/Src/stm32f4xx_ll_usb.c ****       {
 396:Drivers/STM32F4xx_HAL_Driver/Src/stm32f4xx_ll_usb.c ****         USBx_OUTEP(i)->DOEPCTL = USB_OTG_DOEPCTL_SNAK;
 397:Drivers/STM32F4xx_HAL_Driver/Src/stm32f4xx_ll_usb.c ****       }
 398:Drivers/STM32F4xx_HAL_Driver/Src/stm32f4xx_ll_usb.c ****       else
 399:Drivers/STM32F4xx_HAL_Driver/Src/stm32f4xx_ll_usb.c ****       {
 400:Drivers/STM32F4xx_HAL_Driver/Src/stm32f4xx_ll_usb.c ****         USBx_OUTEP(i)->DOEPCTL = USB_OTG_DOEPCTL_EPDIS | USB_OTG_DOEPCTL_SNAK;
 401:Drivers/STM32F4xx_HAL_Driver/Src/stm32f4xx_ll_usb.c ****       }
 402:Drivers/STM32F4xx_HAL_Driver/Src/stm32f4xx_ll_usb.c ****     }
 403:Drivers/STM32F4xx_HAL_Driver/Src/stm32f4xx_ll_usb.c ****     else
 404:Drivers/STM32F4xx_HAL_Driver/Src/stm32f4xx_ll_usb.c ****     {
 405:Drivers/STM32F4xx_HAL_Driver/Src/stm32f4xx_ll_usb.c ****       USBx_OUTEP(i)->DOEPCTL = 0U;
 406:Drivers/STM32F4xx_HAL_Driver/Src/stm32f4xx_ll_usb.c ****     }
 407:Drivers/STM32F4xx_HAL_Driver/Src/stm32f4xx_ll_usb.c **** 
 408:Drivers/STM32F4xx_HAL_Driver/Src/stm32f4xx_ll_usb.c ****     USBx_OUTEP(i)->DOEPTSIZ = 0U;
 409:Drivers/STM32F4xx_HAL_Driver/Src/stm32f4xx_ll_usb.c ****     USBx_OUTEP(i)->DOEPINT  = 0xFB7FU;
 410:Drivers/STM32F4xx_HAL_Driver/Src/stm32f4xx_ll_usb.c ****   }
 411:Drivers/STM32F4xx_HAL_Driver/Src/stm32f4xx_ll_usb.c **** 
 412:Drivers/STM32F4xx_HAL_Driver/Src/stm32f4xx_ll_usb.c ****   USBx_DEVICE->DIEPMSK &= ~(USB_OTG_DIEPMSK_TXFURM);
 413:Drivers/STM32F4xx_HAL_Driver/Src/stm32f4xx_ll_usb.c **** 
 414:Drivers/STM32F4xx_HAL_Driver/Src/stm32f4xx_ll_usb.c ****   /* Disable all interrupts. */
 415:Drivers/STM32F4xx_HAL_Driver/Src/stm32f4xx_ll_usb.c ****   USBx->GINTMSK = 0U;
 416:Drivers/STM32F4xx_HAL_Driver/Src/stm32f4xx_ll_usb.c **** 
 417:Drivers/STM32F4xx_HAL_Driver/Src/stm32f4xx_ll_usb.c ****   /* Clear any pending interrupts */
 418:Drivers/STM32F4xx_HAL_Driver/Src/stm32f4xx_ll_usb.c ****   USBx->GINTSTS = 0xBFFFFFFFU;
 419:Drivers/STM32F4xx_HAL_Driver/Src/stm32f4xx_ll_usb.c **** 
 420:Drivers/STM32F4xx_HAL_Driver/Src/stm32f4xx_ll_usb.c ****   /* Enable the common interrupts */
 421:Drivers/STM32F4xx_HAL_Driver/Src/stm32f4xx_ll_usb.c ****   if (cfg.dma_enable == 0U)
 422:Drivers/STM32F4xx_HAL_Driver/Src/stm32f4xx_ll_usb.c ****   {
 423:Drivers/STM32F4xx_HAL_Driver/Src/stm32f4xx_ll_usb.c ****     USBx->GINTMSK |= USB_OTG_GINTMSK_RXFLVLM;
 424:Drivers/STM32F4xx_HAL_Driver/Src/stm32f4xx_ll_usb.c ****   }
 425:Drivers/STM32F4xx_HAL_Driver/Src/stm32f4xx_ll_usb.c **** 
 426:Drivers/STM32F4xx_HAL_Driver/Src/stm32f4xx_ll_usb.c ****   /* Enable interrupts matching to the Device mode ONLY */
 427:Drivers/STM32F4xx_HAL_Driver/Src/stm32f4xx_ll_usb.c ****   USBx->GINTMSK |= USB_OTG_GINTMSK_USBSUSPM | USB_OTG_GINTMSK_USBRST |
 428:Drivers/STM32F4xx_HAL_Driver/Src/stm32f4xx_ll_usb.c ****                    USB_OTG_GINTMSK_ENUMDNEM | USB_OTG_GINTMSK_IEPINT |
 429:Drivers/STM32F4xx_HAL_Driver/Src/stm32f4xx_ll_usb.c ****                    USB_OTG_GINTMSK_OEPINT   | USB_OTG_GINTMSK_IISOIXFRM |
ARM GAS  C:\Users\7636~1\AppData\Local\Temp\ccnv92VB.s 			page 9


 430:Drivers/STM32F4xx_HAL_Driver/Src/stm32f4xx_ll_usb.c ****                    USB_OTG_GINTMSK_PXFRM_IISOOXFRM | USB_OTG_GINTMSK_WUIM;
 431:Drivers/STM32F4xx_HAL_Driver/Src/stm32f4xx_ll_usb.c **** 
 432:Drivers/STM32F4xx_HAL_Driver/Src/stm32f4xx_ll_usb.c ****   if (cfg.Sof_enable != 0U)
 433:Drivers/STM32F4xx_HAL_Driver/Src/stm32f4xx_ll_usb.c ****   {
 434:Drivers/STM32F4xx_HAL_Driver/Src/stm32f4xx_ll_usb.c ****     USBx->GINTMSK |= USB_OTG_GINTMSK_SOFM;
 435:Drivers/STM32F4xx_HAL_Driver/Src/stm32f4xx_ll_usb.c ****   }
 436:Drivers/STM32F4xx_HAL_Driver/Src/stm32f4xx_ll_usb.c **** 
 437:Drivers/STM32F4xx_HAL_Driver/Src/stm32f4xx_ll_usb.c ****   if (cfg.vbus_sensing_enable == 1U)
 438:Drivers/STM32F4xx_HAL_Driver/Src/stm32f4xx_ll_usb.c ****   {
 439:Drivers/STM32F4xx_HAL_Driver/Src/stm32f4xx_ll_usb.c ****     USBx->GINTMSK |= (USB_OTG_GINTMSK_SRQIM | USB_OTG_GINTMSK_OTGINT);
 440:Drivers/STM32F4xx_HAL_Driver/Src/stm32f4xx_ll_usb.c ****   }
 441:Drivers/STM32F4xx_HAL_Driver/Src/stm32f4xx_ll_usb.c **** 
 442:Drivers/STM32F4xx_HAL_Driver/Src/stm32f4xx_ll_usb.c ****   return ret;
 443:Drivers/STM32F4xx_HAL_Driver/Src/stm32f4xx_ll_usb.c **** }
 444:Drivers/STM32F4xx_HAL_Driver/Src/stm32f4xx_ll_usb.c **** 
 445:Drivers/STM32F4xx_HAL_Driver/Src/stm32f4xx_ll_usb.c **** /**
 446:Drivers/STM32F4xx_HAL_Driver/Src/stm32f4xx_ll_usb.c ****   * @brief  USB_OTG_FlushTxFifo : Flush a Tx FIFO
 447:Drivers/STM32F4xx_HAL_Driver/Src/stm32f4xx_ll_usb.c ****   * @param  USBx  Selected device
 448:Drivers/STM32F4xx_HAL_Driver/Src/stm32f4xx_ll_usb.c ****   * @param  num  FIFO number
 449:Drivers/STM32F4xx_HAL_Driver/Src/stm32f4xx_ll_usb.c ****   *         This parameter can be a value from 1 to 15
 450:Drivers/STM32F4xx_HAL_Driver/Src/stm32f4xx_ll_usb.c ****             15 means Flush all Tx FIFOs
 451:Drivers/STM32F4xx_HAL_Driver/Src/stm32f4xx_ll_usb.c ****   * @retval HAL status
 452:Drivers/STM32F4xx_HAL_Driver/Src/stm32f4xx_ll_usb.c ****   */
 453:Drivers/STM32F4xx_HAL_Driver/Src/stm32f4xx_ll_usb.c **** HAL_StatusTypeDef USB_FlushTxFifo(USB_OTG_GlobalTypeDef *USBx, uint32_t num)
 454:Drivers/STM32F4xx_HAL_Driver/Src/stm32f4xx_ll_usb.c **** {
 455:Drivers/STM32F4xx_HAL_Driver/Src/stm32f4xx_ll_usb.c ****   uint32_t count = 0U;
 456:Drivers/STM32F4xx_HAL_Driver/Src/stm32f4xx_ll_usb.c **** 
 457:Drivers/STM32F4xx_HAL_Driver/Src/stm32f4xx_ll_usb.c ****   USBx->GRSTCTL = (USB_OTG_GRSTCTL_TXFFLSH | (num << 6));
 458:Drivers/STM32F4xx_HAL_Driver/Src/stm32f4xx_ll_usb.c **** 
 459:Drivers/STM32F4xx_HAL_Driver/Src/stm32f4xx_ll_usb.c ****   do
 460:Drivers/STM32F4xx_HAL_Driver/Src/stm32f4xx_ll_usb.c ****   {
 461:Drivers/STM32F4xx_HAL_Driver/Src/stm32f4xx_ll_usb.c ****     if (++count > 200000U)
 462:Drivers/STM32F4xx_HAL_Driver/Src/stm32f4xx_ll_usb.c ****     {
 463:Drivers/STM32F4xx_HAL_Driver/Src/stm32f4xx_ll_usb.c ****       return HAL_TIMEOUT;
 464:Drivers/STM32F4xx_HAL_Driver/Src/stm32f4xx_ll_usb.c ****     }
 465:Drivers/STM32F4xx_HAL_Driver/Src/stm32f4xx_ll_usb.c ****   } while ((USBx->GRSTCTL & USB_OTG_GRSTCTL_TXFFLSH) == USB_OTG_GRSTCTL_TXFFLSH);
 466:Drivers/STM32F4xx_HAL_Driver/Src/stm32f4xx_ll_usb.c **** 
 467:Drivers/STM32F4xx_HAL_Driver/Src/stm32f4xx_ll_usb.c ****   return HAL_OK;
 468:Drivers/STM32F4xx_HAL_Driver/Src/stm32f4xx_ll_usb.c **** }
 469:Drivers/STM32F4xx_HAL_Driver/Src/stm32f4xx_ll_usb.c **** 
 470:Drivers/STM32F4xx_HAL_Driver/Src/stm32f4xx_ll_usb.c **** /**
 471:Drivers/STM32F4xx_HAL_Driver/Src/stm32f4xx_ll_usb.c ****   * @brief  USB_FlushRxFifo : Flush Rx FIFO
 472:Drivers/STM32F4xx_HAL_Driver/Src/stm32f4xx_ll_usb.c ****   * @param  USBx  Selected device
 473:Drivers/STM32F4xx_HAL_Driver/Src/stm32f4xx_ll_usb.c ****   * @retval HAL status
 474:Drivers/STM32F4xx_HAL_Driver/Src/stm32f4xx_ll_usb.c ****   */
 475:Drivers/STM32F4xx_HAL_Driver/Src/stm32f4xx_ll_usb.c **** HAL_StatusTypeDef USB_FlushRxFifo(USB_OTG_GlobalTypeDef *USBx)
 476:Drivers/STM32F4xx_HAL_Driver/Src/stm32f4xx_ll_usb.c **** {
 477:Drivers/STM32F4xx_HAL_Driver/Src/stm32f4xx_ll_usb.c ****   uint32_t count = 0;
 478:Drivers/STM32F4xx_HAL_Driver/Src/stm32f4xx_ll_usb.c **** 
 479:Drivers/STM32F4xx_HAL_Driver/Src/stm32f4xx_ll_usb.c ****   USBx->GRSTCTL = USB_OTG_GRSTCTL_RXFFLSH;
 480:Drivers/STM32F4xx_HAL_Driver/Src/stm32f4xx_ll_usb.c **** 
 481:Drivers/STM32F4xx_HAL_Driver/Src/stm32f4xx_ll_usb.c ****   do
 482:Drivers/STM32F4xx_HAL_Driver/Src/stm32f4xx_ll_usb.c ****   {
 483:Drivers/STM32F4xx_HAL_Driver/Src/stm32f4xx_ll_usb.c ****     if (++count > 200000U)
 484:Drivers/STM32F4xx_HAL_Driver/Src/stm32f4xx_ll_usb.c ****     {
 485:Drivers/STM32F4xx_HAL_Driver/Src/stm32f4xx_ll_usb.c ****       return HAL_TIMEOUT;
 486:Drivers/STM32F4xx_HAL_Driver/Src/stm32f4xx_ll_usb.c ****     }
ARM GAS  C:\Users\7636~1\AppData\Local\Temp\ccnv92VB.s 			page 10


 487:Drivers/STM32F4xx_HAL_Driver/Src/stm32f4xx_ll_usb.c ****   } while ((USBx->GRSTCTL & USB_OTG_GRSTCTL_RXFFLSH) == USB_OTG_GRSTCTL_RXFFLSH);
 488:Drivers/STM32F4xx_HAL_Driver/Src/stm32f4xx_ll_usb.c **** 
 489:Drivers/STM32F4xx_HAL_Driver/Src/stm32f4xx_ll_usb.c ****   return HAL_OK;
 490:Drivers/STM32F4xx_HAL_Driver/Src/stm32f4xx_ll_usb.c **** }
 491:Drivers/STM32F4xx_HAL_Driver/Src/stm32f4xx_ll_usb.c **** 
 492:Drivers/STM32F4xx_HAL_Driver/Src/stm32f4xx_ll_usb.c **** /**
 493:Drivers/STM32F4xx_HAL_Driver/Src/stm32f4xx_ll_usb.c ****   * @brief  USB_SetDevSpeed  Initializes the DevSpd field of DCFG register
 494:Drivers/STM32F4xx_HAL_Driver/Src/stm32f4xx_ll_usb.c ****   *         depending the PHY type and the enumeration speed of the device.
 495:Drivers/STM32F4xx_HAL_Driver/Src/stm32f4xx_ll_usb.c ****   * @param  USBx  Selected device
 496:Drivers/STM32F4xx_HAL_Driver/Src/stm32f4xx_ll_usb.c ****   * @param  speed  device speed
 497:Drivers/STM32F4xx_HAL_Driver/Src/stm32f4xx_ll_usb.c ****   *          This parameter can be one of these values:
 498:Drivers/STM32F4xx_HAL_Driver/Src/stm32f4xx_ll_usb.c ****   *            @arg USB_OTG_SPEED_HIGH: High speed mode
 499:Drivers/STM32F4xx_HAL_Driver/Src/stm32f4xx_ll_usb.c ****   *            @arg USB_OTG_SPEED_HIGH_IN_FULL: High speed core in Full Speed mode
 500:Drivers/STM32F4xx_HAL_Driver/Src/stm32f4xx_ll_usb.c ****   *            @arg USB_OTG_SPEED_FULL: Full speed mode
 501:Drivers/STM32F4xx_HAL_Driver/Src/stm32f4xx_ll_usb.c ****   * @retval  Hal status
 502:Drivers/STM32F4xx_HAL_Driver/Src/stm32f4xx_ll_usb.c ****   */
 503:Drivers/STM32F4xx_HAL_Driver/Src/stm32f4xx_ll_usb.c **** HAL_StatusTypeDef USB_SetDevSpeed(USB_OTG_GlobalTypeDef *USBx, uint8_t speed)
 504:Drivers/STM32F4xx_HAL_Driver/Src/stm32f4xx_ll_usb.c **** {
 505:Drivers/STM32F4xx_HAL_Driver/Src/stm32f4xx_ll_usb.c ****   uint32_t USBx_BASE = (uint32_t)USBx;
 506:Drivers/STM32F4xx_HAL_Driver/Src/stm32f4xx_ll_usb.c **** 
 507:Drivers/STM32F4xx_HAL_Driver/Src/stm32f4xx_ll_usb.c ****   USBx_DEVICE->DCFG |= speed;
 508:Drivers/STM32F4xx_HAL_Driver/Src/stm32f4xx_ll_usb.c ****   return HAL_OK;
 509:Drivers/STM32F4xx_HAL_Driver/Src/stm32f4xx_ll_usb.c **** }
 510:Drivers/STM32F4xx_HAL_Driver/Src/stm32f4xx_ll_usb.c **** 
 511:Drivers/STM32F4xx_HAL_Driver/Src/stm32f4xx_ll_usb.c **** /**
 512:Drivers/STM32F4xx_HAL_Driver/Src/stm32f4xx_ll_usb.c ****   * @brief  USB_GetDevSpeed  Return the Dev Speed
 513:Drivers/STM32F4xx_HAL_Driver/Src/stm32f4xx_ll_usb.c ****   * @param  USBx  Selected device
 514:Drivers/STM32F4xx_HAL_Driver/Src/stm32f4xx_ll_usb.c ****   * @retval speed  device speed
 515:Drivers/STM32F4xx_HAL_Driver/Src/stm32f4xx_ll_usb.c ****   *          This parameter can be one of these values:
 516:Drivers/STM32F4xx_HAL_Driver/Src/stm32f4xx_ll_usb.c ****   *            @arg USBD_HS_SPEED: High speed mode
 517:Drivers/STM32F4xx_HAL_Driver/Src/stm32f4xx_ll_usb.c ****   *            @arg USBD_FS_SPEED: Full speed mode
 518:Drivers/STM32F4xx_HAL_Driver/Src/stm32f4xx_ll_usb.c ****   */
 519:Drivers/STM32F4xx_HAL_Driver/Src/stm32f4xx_ll_usb.c **** uint8_t USB_GetDevSpeed(USB_OTG_GlobalTypeDef *USBx)
 520:Drivers/STM32F4xx_HAL_Driver/Src/stm32f4xx_ll_usb.c **** {
 521:Drivers/STM32F4xx_HAL_Driver/Src/stm32f4xx_ll_usb.c ****   uint32_t USBx_BASE = (uint32_t)USBx;
 522:Drivers/STM32F4xx_HAL_Driver/Src/stm32f4xx_ll_usb.c ****   uint8_t speed;
 523:Drivers/STM32F4xx_HAL_Driver/Src/stm32f4xx_ll_usb.c ****   uint32_t DevEnumSpeed = USBx_DEVICE->DSTS & USB_OTG_DSTS_ENUMSPD;
 524:Drivers/STM32F4xx_HAL_Driver/Src/stm32f4xx_ll_usb.c **** 
 525:Drivers/STM32F4xx_HAL_Driver/Src/stm32f4xx_ll_usb.c ****   if (DevEnumSpeed == DSTS_ENUMSPD_HS_PHY_30MHZ_OR_60MHZ)
 526:Drivers/STM32F4xx_HAL_Driver/Src/stm32f4xx_ll_usb.c ****   {
 527:Drivers/STM32F4xx_HAL_Driver/Src/stm32f4xx_ll_usb.c ****     speed = USBD_HS_SPEED;
 528:Drivers/STM32F4xx_HAL_Driver/Src/stm32f4xx_ll_usb.c ****   }
 529:Drivers/STM32F4xx_HAL_Driver/Src/stm32f4xx_ll_usb.c ****   else if ((DevEnumSpeed == DSTS_ENUMSPD_FS_PHY_30MHZ_OR_60MHZ) ||
 530:Drivers/STM32F4xx_HAL_Driver/Src/stm32f4xx_ll_usb.c ****            (DevEnumSpeed == DSTS_ENUMSPD_FS_PHY_48MHZ))
 531:Drivers/STM32F4xx_HAL_Driver/Src/stm32f4xx_ll_usb.c ****   {
 532:Drivers/STM32F4xx_HAL_Driver/Src/stm32f4xx_ll_usb.c ****     speed = USBD_FS_SPEED;
 533:Drivers/STM32F4xx_HAL_Driver/Src/stm32f4xx_ll_usb.c ****   }
 534:Drivers/STM32F4xx_HAL_Driver/Src/stm32f4xx_ll_usb.c ****   else
 535:Drivers/STM32F4xx_HAL_Driver/Src/stm32f4xx_ll_usb.c ****   {
 536:Drivers/STM32F4xx_HAL_Driver/Src/stm32f4xx_ll_usb.c ****     speed = 0xFU;
 537:Drivers/STM32F4xx_HAL_Driver/Src/stm32f4xx_ll_usb.c ****   }
 538:Drivers/STM32F4xx_HAL_Driver/Src/stm32f4xx_ll_usb.c **** 
 539:Drivers/STM32F4xx_HAL_Driver/Src/stm32f4xx_ll_usb.c ****   return speed;
 540:Drivers/STM32F4xx_HAL_Driver/Src/stm32f4xx_ll_usb.c **** }
 541:Drivers/STM32F4xx_HAL_Driver/Src/stm32f4xx_ll_usb.c **** 
 542:Drivers/STM32F4xx_HAL_Driver/Src/stm32f4xx_ll_usb.c **** /**
 543:Drivers/STM32F4xx_HAL_Driver/Src/stm32f4xx_ll_usb.c ****   * @brief  Activate and configure an endpoint
ARM GAS  C:\Users\7636~1\AppData\Local\Temp\ccnv92VB.s 			page 11


 544:Drivers/STM32F4xx_HAL_Driver/Src/stm32f4xx_ll_usb.c ****   * @param  USBx  Selected device
 545:Drivers/STM32F4xx_HAL_Driver/Src/stm32f4xx_ll_usb.c ****   * @param  ep pointer to endpoint structure
 546:Drivers/STM32F4xx_HAL_Driver/Src/stm32f4xx_ll_usb.c ****   * @retval HAL status
 547:Drivers/STM32F4xx_HAL_Driver/Src/stm32f4xx_ll_usb.c ****   */
 548:Drivers/STM32F4xx_HAL_Driver/Src/stm32f4xx_ll_usb.c **** HAL_StatusTypeDef USB_ActivateEndpoint(USB_OTG_GlobalTypeDef *USBx, USB_OTG_EPTypeDef *ep)
 549:Drivers/STM32F4xx_HAL_Driver/Src/stm32f4xx_ll_usb.c **** {
 550:Drivers/STM32F4xx_HAL_Driver/Src/stm32f4xx_ll_usb.c ****   uint32_t USBx_BASE = (uint32_t)USBx;
 551:Drivers/STM32F4xx_HAL_Driver/Src/stm32f4xx_ll_usb.c ****   uint32_t epnum = (uint32_t)ep->num;
 552:Drivers/STM32F4xx_HAL_Driver/Src/stm32f4xx_ll_usb.c **** 
 553:Drivers/STM32F4xx_HAL_Driver/Src/stm32f4xx_ll_usb.c ****   if (ep->is_in == 1U)
 554:Drivers/STM32F4xx_HAL_Driver/Src/stm32f4xx_ll_usb.c ****   {
 555:Drivers/STM32F4xx_HAL_Driver/Src/stm32f4xx_ll_usb.c ****     USBx_DEVICE->DAINTMSK |= USB_OTG_DAINTMSK_IEPM & (uint32_t)(1UL << (ep->num & EP_ADDR_MSK));
 556:Drivers/STM32F4xx_HAL_Driver/Src/stm32f4xx_ll_usb.c **** 
 557:Drivers/STM32F4xx_HAL_Driver/Src/stm32f4xx_ll_usb.c ****     if ((USBx_INEP(epnum)->DIEPCTL & USB_OTG_DIEPCTL_USBAEP) == 0U)
 558:Drivers/STM32F4xx_HAL_Driver/Src/stm32f4xx_ll_usb.c ****     {
 559:Drivers/STM32F4xx_HAL_Driver/Src/stm32f4xx_ll_usb.c ****       USBx_INEP(epnum)->DIEPCTL |= (ep->maxpacket & USB_OTG_DIEPCTL_MPSIZ) |
 560:Drivers/STM32F4xx_HAL_Driver/Src/stm32f4xx_ll_usb.c ****                                    ((uint32_t)ep->type << 18) | (epnum << 22) |
 561:Drivers/STM32F4xx_HAL_Driver/Src/stm32f4xx_ll_usb.c ****                                    USB_OTG_DIEPCTL_SD0PID_SEVNFRM |
 562:Drivers/STM32F4xx_HAL_Driver/Src/stm32f4xx_ll_usb.c ****                                    USB_OTG_DIEPCTL_USBAEP;
 563:Drivers/STM32F4xx_HAL_Driver/Src/stm32f4xx_ll_usb.c ****     }
 564:Drivers/STM32F4xx_HAL_Driver/Src/stm32f4xx_ll_usb.c ****   }
 565:Drivers/STM32F4xx_HAL_Driver/Src/stm32f4xx_ll_usb.c ****   else
 566:Drivers/STM32F4xx_HAL_Driver/Src/stm32f4xx_ll_usb.c ****   {
 567:Drivers/STM32F4xx_HAL_Driver/Src/stm32f4xx_ll_usb.c ****     USBx_DEVICE->DAINTMSK |= USB_OTG_DAINTMSK_OEPM & ((uint32_t)(1UL << (ep->num & EP_ADDR_MSK)) <<
 568:Drivers/STM32F4xx_HAL_Driver/Src/stm32f4xx_ll_usb.c **** 
 569:Drivers/STM32F4xx_HAL_Driver/Src/stm32f4xx_ll_usb.c ****     if (((USBx_OUTEP(epnum)->DOEPCTL) & USB_OTG_DOEPCTL_USBAEP) == 0U)
 570:Drivers/STM32F4xx_HAL_Driver/Src/stm32f4xx_ll_usb.c ****     {
 571:Drivers/STM32F4xx_HAL_Driver/Src/stm32f4xx_ll_usb.c ****       USBx_OUTEP(epnum)->DOEPCTL |= (ep->maxpacket & USB_OTG_DOEPCTL_MPSIZ) |
 572:Drivers/STM32F4xx_HAL_Driver/Src/stm32f4xx_ll_usb.c ****                                     ((uint32_t)ep->type << 18) |
 573:Drivers/STM32F4xx_HAL_Driver/Src/stm32f4xx_ll_usb.c ****                                     USB_OTG_DIEPCTL_SD0PID_SEVNFRM |
 574:Drivers/STM32F4xx_HAL_Driver/Src/stm32f4xx_ll_usb.c ****                                     USB_OTG_DOEPCTL_USBAEP;
 575:Drivers/STM32F4xx_HAL_Driver/Src/stm32f4xx_ll_usb.c ****     }
 576:Drivers/STM32F4xx_HAL_Driver/Src/stm32f4xx_ll_usb.c ****   }
 577:Drivers/STM32F4xx_HAL_Driver/Src/stm32f4xx_ll_usb.c ****   return HAL_OK;
 578:Drivers/STM32F4xx_HAL_Driver/Src/stm32f4xx_ll_usb.c **** }
 579:Drivers/STM32F4xx_HAL_Driver/Src/stm32f4xx_ll_usb.c **** 
 580:Drivers/STM32F4xx_HAL_Driver/Src/stm32f4xx_ll_usb.c **** /**
 581:Drivers/STM32F4xx_HAL_Driver/Src/stm32f4xx_ll_usb.c ****   * @brief  Activate and configure a dedicated endpoint
 582:Drivers/STM32F4xx_HAL_Driver/Src/stm32f4xx_ll_usb.c ****   * @param  USBx  Selected device
 583:Drivers/STM32F4xx_HAL_Driver/Src/stm32f4xx_ll_usb.c ****   * @param  ep pointer to endpoint structure
 584:Drivers/STM32F4xx_HAL_Driver/Src/stm32f4xx_ll_usb.c ****   * @retval HAL status
 585:Drivers/STM32F4xx_HAL_Driver/Src/stm32f4xx_ll_usb.c ****   */
 586:Drivers/STM32F4xx_HAL_Driver/Src/stm32f4xx_ll_usb.c **** HAL_StatusTypeDef USB_ActivateDedicatedEndpoint(USB_OTG_GlobalTypeDef *USBx, USB_OTG_EPTypeDef *ep)
 587:Drivers/STM32F4xx_HAL_Driver/Src/stm32f4xx_ll_usb.c **** {
 588:Drivers/STM32F4xx_HAL_Driver/Src/stm32f4xx_ll_usb.c ****   uint32_t USBx_BASE = (uint32_t)USBx;
 589:Drivers/STM32F4xx_HAL_Driver/Src/stm32f4xx_ll_usb.c ****   uint32_t epnum = (uint32_t)ep->num;
 590:Drivers/STM32F4xx_HAL_Driver/Src/stm32f4xx_ll_usb.c **** 
 591:Drivers/STM32F4xx_HAL_Driver/Src/stm32f4xx_ll_usb.c ****   /* Read DEPCTLn register */
 592:Drivers/STM32F4xx_HAL_Driver/Src/stm32f4xx_ll_usb.c ****   if (ep->is_in == 1U)
 593:Drivers/STM32F4xx_HAL_Driver/Src/stm32f4xx_ll_usb.c ****   {
 594:Drivers/STM32F4xx_HAL_Driver/Src/stm32f4xx_ll_usb.c ****     if (((USBx_INEP(epnum)->DIEPCTL) & USB_OTG_DIEPCTL_USBAEP) == 0U)
 595:Drivers/STM32F4xx_HAL_Driver/Src/stm32f4xx_ll_usb.c ****     {
 596:Drivers/STM32F4xx_HAL_Driver/Src/stm32f4xx_ll_usb.c ****       USBx_INEP(epnum)->DIEPCTL |= (ep->maxpacket & USB_OTG_DIEPCTL_MPSIZ) |
 597:Drivers/STM32F4xx_HAL_Driver/Src/stm32f4xx_ll_usb.c ****                                    ((uint32_t)ep->type << 18) | (epnum << 22) |
 598:Drivers/STM32F4xx_HAL_Driver/Src/stm32f4xx_ll_usb.c ****                                    USB_OTG_DIEPCTL_SD0PID_SEVNFRM |
 599:Drivers/STM32F4xx_HAL_Driver/Src/stm32f4xx_ll_usb.c ****                                    USB_OTG_DIEPCTL_USBAEP;
 600:Drivers/STM32F4xx_HAL_Driver/Src/stm32f4xx_ll_usb.c ****     }
ARM GAS  C:\Users\7636~1\AppData\Local\Temp\ccnv92VB.s 			page 12


 601:Drivers/STM32F4xx_HAL_Driver/Src/stm32f4xx_ll_usb.c **** 
 602:Drivers/STM32F4xx_HAL_Driver/Src/stm32f4xx_ll_usb.c ****     USBx_DEVICE->DEACHMSK |= USB_OTG_DAINTMSK_IEPM & (uint32_t)(1UL << (ep->num & EP_ADDR_MSK));
 603:Drivers/STM32F4xx_HAL_Driver/Src/stm32f4xx_ll_usb.c ****   }
 604:Drivers/STM32F4xx_HAL_Driver/Src/stm32f4xx_ll_usb.c ****   else
 605:Drivers/STM32F4xx_HAL_Driver/Src/stm32f4xx_ll_usb.c ****   {
 606:Drivers/STM32F4xx_HAL_Driver/Src/stm32f4xx_ll_usb.c ****     if (((USBx_OUTEP(epnum)->DOEPCTL) & USB_OTG_DOEPCTL_USBAEP) == 0U)
 607:Drivers/STM32F4xx_HAL_Driver/Src/stm32f4xx_ll_usb.c ****     {
 608:Drivers/STM32F4xx_HAL_Driver/Src/stm32f4xx_ll_usb.c ****       USBx_OUTEP(epnum)->DOEPCTL |= (ep->maxpacket & USB_OTG_DOEPCTL_MPSIZ) |
 609:Drivers/STM32F4xx_HAL_Driver/Src/stm32f4xx_ll_usb.c ****                                     ((uint32_t)ep->type << 18) | (epnum << 22) |
 610:Drivers/STM32F4xx_HAL_Driver/Src/stm32f4xx_ll_usb.c ****                                     USB_OTG_DOEPCTL_USBAEP;
 611:Drivers/STM32F4xx_HAL_Driver/Src/stm32f4xx_ll_usb.c ****     }
 612:Drivers/STM32F4xx_HAL_Driver/Src/stm32f4xx_ll_usb.c **** 
 613:Drivers/STM32F4xx_HAL_Driver/Src/stm32f4xx_ll_usb.c ****     USBx_DEVICE->DEACHMSK |= USB_OTG_DAINTMSK_OEPM & ((uint32_t)(1UL << (ep->num & EP_ADDR_MSK)) <<
 614:Drivers/STM32F4xx_HAL_Driver/Src/stm32f4xx_ll_usb.c ****   }
 615:Drivers/STM32F4xx_HAL_Driver/Src/stm32f4xx_ll_usb.c **** 
 616:Drivers/STM32F4xx_HAL_Driver/Src/stm32f4xx_ll_usb.c ****   return HAL_OK;
 617:Drivers/STM32F4xx_HAL_Driver/Src/stm32f4xx_ll_usb.c **** }
 618:Drivers/STM32F4xx_HAL_Driver/Src/stm32f4xx_ll_usb.c **** 
 619:Drivers/STM32F4xx_HAL_Driver/Src/stm32f4xx_ll_usb.c **** /**
 620:Drivers/STM32F4xx_HAL_Driver/Src/stm32f4xx_ll_usb.c ****   * @brief  De-activate and de-initialize an endpoint
 621:Drivers/STM32F4xx_HAL_Driver/Src/stm32f4xx_ll_usb.c ****   * @param  USBx  Selected device
 622:Drivers/STM32F4xx_HAL_Driver/Src/stm32f4xx_ll_usb.c ****   * @param  ep pointer to endpoint structure
 623:Drivers/STM32F4xx_HAL_Driver/Src/stm32f4xx_ll_usb.c ****   * @retval HAL status
 624:Drivers/STM32F4xx_HAL_Driver/Src/stm32f4xx_ll_usb.c ****   */
 625:Drivers/STM32F4xx_HAL_Driver/Src/stm32f4xx_ll_usb.c **** HAL_StatusTypeDef USB_DeactivateEndpoint(USB_OTG_GlobalTypeDef *USBx, USB_OTG_EPTypeDef *ep)
 626:Drivers/STM32F4xx_HAL_Driver/Src/stm32f4xx_ll_usb.c **** {
 627:Drivers/STM32F4xx_HAL_Driver/Src/stm32f4xx_ll_usb.c ****   uint32_t USBx_BASE = (uint32_t)USBx;
 628:Drivers/STM32F4xx_HAL_Driver/Src/stm32f4xx_ll_usb.c ****   uint32_t epnum = (uint32_t)ep->num;
 629:Drivers/STM32F4xx_HAL_Driver/Src/stm32f4xx_ll_usb.c **** 
 630:Drivers/STM32F4xx_HAL_Driver/Src/stm32f4xx_ll_usb.c ****   /* Read DEPCTLn register */
 631:Drivers/STM32F4xx_HAL_Driver/Src/stm32f4xx_ll_usb.c ****   if (ep->is_in == 1U)
 632:Drivers/STM32F4xx_HAL_Driver/Src/stm32f4xx_ll_usb.c ****   {
 633:Drivers/STM32F4xx_HAL_Driver/Src/stm32f4xx_ll_usb.c ****     if ((USBx_INEP(epnum)->DIEPCTL & USB_OTG_DIEPCTL_EPENA) == USB_OTG_DIEPCTL_EPENA)
 634:Drivers/STM32F4xx_HAL_Driver/Src/stm32f4xx_ll_usb.c ****     {
 635:Drivers/STM32F4xx_HAL_Driver/Src/stm32f4xx_ll_usb.c ****       USBx_INEP(epnum)->DIEPCTL |= USB_OTG_DIEPCTL_SNAK;
 636:Drivers/STM32F4xx_HAL_Driver/Src/stm32f4xx_ll_usb.c ****       USBx_INEP(epnum)->DIEPCTL |= USB_OTG_DIEPCTL_EPDIS;
 637:Drivers/STM32F4xx_HAL_Driver/Src/stm32f4xx_ll_usb.c ****     }
 638:Drivers/STM32F4xx_HAL_Driver/Src/stm32f4xx_ll_usb.c **** 
 639:Drivers/STM32F4xx_HAL_Driver/Src/stm32f4xx_ll_usb.c ****     USBx_DEVICE->DEACHMSK &= ~(USB_OTG_DAINTMSK_IEPM & (uint32_t)(1UL << (ep->num & EP_ADDR_MSK)));
 640:Drivers/STM32F4xx_HAL_Driver/Src/stm32f4xx_ll_usb.c ****     USBx_DEVICE->DAINTMSK &= ~(USB_OTG_DAINTMSK_IEPM & (uint32_t)(1UL << (ep->num & EP_ADDR_MSK)));
 641:Drivers/STM32F4xx_HAL_Driver/Src/stm32f4xx_ll_usb.c ****     USBx_INEP(epnum)->DIEPCTL &= ~(USB_OTG_DIEPCTL_USBAEP |
 642:Drivers/STM32F4xx_HAL_Driver/Src/stm32f4xx_ll_usb.c ****                                    USB_OTG_DIEPCTL_MPSIZ |
 643:Drivers/STM32F4xx_HAL_Driver/Src/stm32f4xx_ll_usb.c ****                                    USB_OTG_DIEPCTL_TXFNUM |
 644:Drivers/STM32F4xx_HAL_Driver/Src/stm32f4xx_ll_usb.c ****                                    USB_OTG_DIEPCTL_SD0PID_SEVNFRM |
 645:Drivers/STM32F4xx_HAL_Driver/Src/stm32f4xx_ll_usb.c ****                                    USB_OTG_DIEPCTL_EPTYP);
 646:Drivers/STM32F4xx_HAL_Driver/Src/stm32f4xx_ll_usb.c ****   }
 647:Drivers/STM32F4xx_HAL_Driver/Src/stm32f4xx_ll_usb.c ****   else
 648:Drivers/STM32F4xx_HAL_Driver/Src/stm32f4xx_ll_usb.c ****   {
 649:Drivers/STM32F4xx_HAL_Driver/Src/stm32f4xx_ll_usb.c ****     if ((USBx_OUTEP(epnum)->DOEPCTL & USB_OTG_DOEPCTL_EPENA) == USB_OTG_DOEPCTL_EPENA)
 650:Drivers/STM32F4xx_HAL_Driver/Src/stm32f4xx_ll_usb.c ****     {
 651:Drivers/STM32F4xx_HAL_Driver/Src/stm32f4xx_ll_usb.c ****       USBx_OUTEP(epnum)->DOEPCTL |= USB_OTG_DOEPCTL_SNAK;
 652:Drivers/STM32F4xx_HAL_Driver/Src/stm32f4xx_ll_usb.c ****       USBx_OUTEP(epnum)->DOEPCTL |= USB_OTG_DOEPCTL_EPDIS;
 653:Drivers/STM32F4xx_HAL_Driver/Src/stm32f4xx_ll_usb.c ****     }
 654:Drivers/STM32F4xx_HAL_Driver/Src/stm32f4xx_ll_usb.c **** 
 655:Drivers/STM32F4xx_HAL_Driver/Src/stm32f4xx_ll_usb.c ****     USBx_DEVICE->DEACHMSK &= ~(USB_OTG_DAINTMSK_OEPM & ((uint32_t)(1UL << (ep->num & EP_ADDR_MSK)) 
 656:Drivers/STM32F4xx_HAL_Driver/Src/stm32f4xx_ll_usb.c ****     USBx_DEVICE->DAINTMSK &= ~(USB_OTG_DAINTMSK_OEPM & ((uint32_t)(1UL << (ep->num & EP_ADDR_MSK)) 
 657:Drivers/STM32F4xx_HAL_Driver/Src/stm32f4xx_ll_usb.c ****     USBx_OUTEP(epnum)->DOEPCTL &= ~(USB_OTG_DOEPCTL_USBAEP |
ARM GAS  C:\Users\7636~1\AppData\Local\Temp\ccnv92VB.s 			page 13


 658:Drivers/STM32F4xx_HAL_Driver/Src/stm32f4xx_ll_usb.c ****                                     USB_OTG_DOEPCTL_MPSIZ |
 659:Drivers/STM32F4xx_HAL_Driver/Src/stm32f4xx_ll_usb.c ****                                     USB_OTG_DOEPCTL_SD0PID_SEVNFRM |
 660:Drivers/STM32F4xx_HAL_Driver/Src/stm32f4xx_ll_usb.c ****                                     USB_OTG_DOEPCTL_EPTYP);
 661:Drivers/STM32F4xx_HAL_Driver/Src/stm32f4xx_ll_usb.c ****   }
 662:Drivers/STM32F4xx_HAL_Driver/Src/stm32f4xx_ll_usb.c **** 
 663:Drivers/STM32F4xx_HAL_Driver/Src/stm32f4xx_ll_usb.c ****   return HAL_OK;
 664:Drivers/STM32F4xx_HAL_Driver/Src/stm32f4xx_ll_usb.c **** }
 665:Drivers/STM32F4xx_HAL_Driver/Src/stm32f4xx_ll_usb.c **** 
 666:Drivers/STM32F4xx_HAL_Driver/Src/stm32f4xx_ll_usb.c **** /**
 667:Drivers/STM32F4xx_HAL_Driver/Src/stm32f4xx_ll_usb.c ****   * @brief  De-activate and de-initialize a dedicated endpoint
 668:Drivers/STM32F4xx_HAL_Driver/Src/stm32f4xx_ll_usb.c ****   * @param  USBx  Selected device
 669:Drivers/STM32F4xx_HAL_Driver/Src/stm32f4xx_ll_usb.c ****   * @param  ep pointer to endpoint structure
 670:Drivers/STM32F4xx_HAL_Driver/Src/stm32f4xx_ll_usb.c ****   * @retval HAL status
 671:Drivers/STM32F4xx_HAL_Driver/Src/stm32f4xx_ll_usb.c ****   */
 672:Drivers/STM32F4xx_HAL_Driver/Src/stm32f4xx_ll_usb.c **** HAL_StatusTypeDef USB_DeactivateDedicatedEndpoint(USB_OTG_GlobalTypeDef *USBx, USB_OTG_EPTypeDef *e
 673:Drivers/STM32F4xx_HAL_Driver/Src/stm32f4xx_ll_usb.c **** {
 674:Drivers/STM32F4xx_HAL_Driver/Src/stm32f4xx_ll_usb.c ****   uint32_t USBx_BASE = (uint32_t)USBx;
 675:Drivers/STM32F4xx_HAL_Driver/Src/stm32f4xx_ll_usb.c ****   uint32_t epnum = (uint32_t)ep->num;
 676:Drivers/STM32F4xx_HAL_Driver/Src/stm32f4xx_ll_usb.c **** 
 677:Drivers/STM32F4xx_HAL_Driver/Src/stm32f4xx_ll_usb.c ****   /* Read DEPCTLn register */
 678:Drivers/STM32F4xx_HAL_Driver/Src/stm32f4xx_ll_usb.c ****   if (ep->is_in == 1U)
 679:Drivers/STM32F4xx_HAL_Driver/Src/stm32f4xx_ll_usb.c ****   {
 680:Drivers/STM32F4xx_HAL_Driver/Src/stm32f4xx_ll_usb.c ****     if ((USBx_INEP(epnum)->DIEPCTL & USB_OTG_DIEPCTL_EPENA) == USB_OTG_DIEPCTL_EPENA)
 681:Drivers/STM32F4xx_HAL_Driver/Src/stm32f4xx_ll_usb.c ****     {
 682:Drivers/STM32F4xx_HAL_Driver/Src/stm32f4xx_ll_usb.c ****       USBx_INEP(epnum)->DIEPCTL  |= USB_OTG_DIEPCTL_SNAK;
 683:Drivers/STM32F4xx_HAL_Driver/Src/stm32f4xx_ll_usb.c ****       USBx_INEP(epnum)->DIEPCTL  |= USB_OTG_DIEPCTL_EPDIS;
 684:Drivers/STM32F4xx_HAL_Driver/Src/stm32f4xx_ll_usb.c ****     }
 685:Drivers/STM32F4xx_HAL_Driver/Src/stm32f4xx_ll_usb.c **** 
 686:Drivers/STM32F4xx_HAL_Driver/Src/stm32f4xx_ll_usb.c ****     USBx_INEP(epnum)->DIEPCTL &= ~ USB_OTG_DIEPCTL_USBAEP;
 687:Drivers/STM32F4xx_HAL_Driver/Src/stm32f4xx_ll_usb.c ****     USBx_DEVICE->DAINTMSK &= ~(USB_OTG_DAINTMSK_IEPM & (uint32_t)(1UL << (ep->num & EP_ADDR_MSK)));
 688:Drivers/STM32F4xx_HAL_Driver/Src/stm32f4xx_ll_usb.c ****   }
 689:Drivers/STM32F4xx_HAL_Driver/Src/stm32f4xx_ll_usb.c ****   else
 690:Drivers/STM32F4xx_HAL_Driver/Src/stm32f4xx_ll_usb.c ****   {
 691:Drivers/STM32F4xx_HAL_Driver/Src/stm32f4xx_ll_usb.c ****     if ((USBx_OUTEP(epnum)->DOEPCTL & USB_OTG_DOEPCTL_EPENA) == USB_OTG_DOEPCTL_EPENA)
 692:Drivers/STM32F4xx_HAL_Driver/Src/stm32f4xx_ll_usb.c ****     {
 693:Drivers/STM32F4xx_HAL_Driver/Src/stm32f4xx_ll_usb.c ****       USBx_OUTEP(epnum)->DOEPCTL  |= USB_OTG_DOEPCTL_SNAK;
 694:Drivers/STM32F4xx_HAL_Driver/Src/stm32f4xx_ll_usb.c ****       USBx_OUTEP(epnum)->DOEPCTL  |= USB_OTG_DOEPCTL_EPDIS;
 695:Drivers/STM32F4xx_HAL_Driver/Src/stm32f4xx_ll_usb.c ****     }
 696:Drivers/STM32F4xx_HAL_Driver/Src/stm32f4xx_ll_usb.c **** 
 697:Drivers/STM32F4xx_HAL_Driver/Src/stm32f4xx_ll_usb.c ****     USBx_OUTEP(epnum)->DOEPCTL &= ~USB_OTG_DOEPCTL_USBAEP;
 698:Drivers/STM32F4xx_HAL_Driver/Src/stm32f4xx_ll_usb.c ****     USBx_DEVICE->DAINTMSK &= ~(USB_OTG_DAINTMSK_OEPM & ((uint32_t)(1UL << (ep->num & EP_ADDR_MSK)) 
 699:Drivers/STM32F4xx_HAL_Driver/Src/stm32f4xx_ll_usb.c ****   }
 700:Drivers/STM32F4xx_HAL_Driver/Src/stm32f4xx_ll_usb.c **** 
 701:Drivers/STM32F4xx_HAL_Driver/Src/stm32f4xx_ll_usb.c ****   return HAL_OK;
 702:Drivers/STM32F4xx_HAL_Driver/Src/stm32f4xx_ll_usb.c **** }
 703:Drivers/STM32F4xx_HAL_Driver/Src/stm32f4xx_ll_usb.c **** 
 704:Drivers/STM32F4xx_HAL_Driver/Src/stm32f4xx_ll_usb.c **** /**
 705:Drivers/STM32F4xx_HAL_Driver/Src/stm32f4xx_ll_usb.c ****   * @brief  USB_EPStartXfer : setup and starts a transfer over an EP
 706:Drivers/STM32F4xx_HAL_Driver/Src/stm32f4xx_ll_usb.c ****   * @param  USBx  Selected device
 707:Drivers/STM32F4xx_HAL_Driver/Src/stm32f4xx_ll_usb.c ****   * @param  ep pointer to endpoint structure
 708:Drivers/STM32F4xx_HAL_Driver/Src/stm32f4xx_ll_usb.c ****   * @param  dma USB dma enabled or disabled
 709:Drivers/STM32F4xx_HAL_Driver/Src/stm32f4xx_ll_usb.c ****   *          This parameter can be one of these values:
 710:Drivers/STM32F4xx_HAL_Driver/Src/stm32f4xx_ll_usb.c ****   *           0 : DMA feature not used
 711:Drivers/STM32F4xx_HAL_Driver/Src/stm32f4xx_ll_usb.c ****   *           1 : DMA feature used
 712:Drivers/STM32F4xx_HAL_Driver/Src/stm32f4xx_ll_usb.c ****   * @retval HAL status
 713:Drivers/STM32F4xx_HAL_Driver/Src/stm32f4xx_ll_usb.c ****   */
 714:Drivers/STM32F4xx_HAL_Driver/Src/stm32f4xx_ll_usb.c **** HAL_StatusTypeDef USB_EPStartXfer(USB_OTG_GlobalTypeDef *USBx, USB_OTG_EPTypeDef *ep, uint8_t dma)
ARM GAS  C:\Users\7636~1\AppData\Local\Temp\ccnv92VB.s 			page 14


 715:Drivers/STM32F4xx_HAL_Driver/Src/stm32f4xx_ll_usb.c **** {
 716:Drivers/STM32F4xx_HAL_Driver/Src/stm32f4xx_ll_usb.c ****   uint32_t USBx_BASE = (uint32_t)USBx;
 717:Drivers/STM32F4xx_HAL_Driver/Src/stm32f4xx_ll_usb.c ****   uint32_t epnum = (uint32_t)ep->num;
 718:Drivers/STM32F4xx_HAL_Driver/Src/stm32f4xx_ll_usb.c ****   uint16_t pktcnt;
 719:Drivers/STM32F4xx_HAL_Driver/Src/stm32f4xx_ll_usb.c **** 
 720:Drivers/STM32F4xx_HAL_Driver/Src/stm32f4xx_ll_usb.c ****   /* IN endpoint */
 721:Drivers/STM32F4xx_HAL_Driver/Src/stm32f4xx_ll_usb.c ****   if (ep->is_in == 1U)
 722:Drivers/STM32F4xx_HAL_Driver/Src/stm32f4xx_ll_usb.c ****   {
 723:Drivers/STM32F4xx_HAL_Driver/Src/stm32f4xx_ll_usb.c ****     /* Zero Length Packet? */
 724:Drivers/STM32F4xx_HAL_Driver/Src/stm32f4xx_ll_usb.c ****     if (ep->xfer_len == 0U)
 725:Drivers/STM32F4xx_HAL_Driver/Src/stm32f4xx_ll_usb.c ****     {
 726:Drivers/STM32F4xx_HAL_Driver/Src/stm32f4xx_ll_usb.c ****       USBx_INEP(epnum)->DIEPTSIZ &= ~(USB_OTG_DIEPTSIZ_PKTCNT);
 727:Drivers/STM32F4xx_HAL_Driver/Src/stm32f4xx_ll_usb.c ****       USBx_INEP(epnum)->DIEPTSIZ |= (USB_OTG_DIEPTSIZ_PKTCNT & (1U << 19));
 728:Drivers/STM32F4xx_HAL_Driver/Src/stm32f4xx_ll_usb.c ****       USBx_INEP(epnum)->DIEPTSIZ &= ~(USB_OTG_DIEPTSIZ_XFRSIZ);
 729:Drivers/STM32F4xx_HAL_Driver/Src/stm32f4xx_ll_usb.c ****     }
 730:Drivers/STM32F4xx_HAL_Driver/Src/stm32f4xx_ll_usb.c ****     else
 731:Drivers/STM32F4xx_HAL_Driver/Src/stm32f4xx_ll_usb.c ****     {
 732:Drivers/STM32F4xx_HAL_Driver/Src/stm32f4xx_ll_usb.c ****       /* Program the transfer size and packet count
 733:Drivers/STM32F4xx_HAL_Driver/Src/stm32f4xx_ll_usb.c ****       * as follows: xfersize = N * maxpacket +
 734:Drivers/STM32F4xx_HAL_Driver/Src/stm32f4xx_ll_usb.c ****       * short_packet pktcnt = N + (short_packet
 735:Drivers/STM32F4xx_HAL_Driver/Src/stm32f4xx_ll_usb.c ****       * exist ? 1 : 0)
 736:Drivers/STM32F4xx_HAL_Driver/Src/stm32f4xx_ll_usb.c ****       */
 737:Drivers/STM32F4xx_HAL_Driver/Src/stm32f4xx_ll_usb.c ****       USBx_INEP(epnum)->DIEPTSIZ &= ~(USB_OTG_DIEPTSIZ_XFRSIZ);
 738:Drivers/STM32F4xx_HAL_Driver/Src/stm32f4xx_ll_usb.c ****       USBx_INEP(epnum)->DIEPTSIZ &= ~(USB_OTG_DIEPTSIZ_PKTCNT);
 739:Drivers/STM32F4xx_HAL_Driver/Src/stm32f4xx_ll_usb.c ****       USBx_INEP(epnum)->DIEPTSIZ |= (USB_OTG_DIEPTSIZ_PKTCNT & (((ep->xfer_len + ep->maxpacket - 1U
 740:Drivers/STM32F4xx_HAL_Driver/Src/stm32f4xx_ll_usb.c ****       USBx_INEP(epnum)->DIEPTSIZ |= (USB_OTG_DIEPTSIZ_XFRSIZ & ep->xfer_len);
 741:Drivers/STM32F4xx_HAL_Driver/Src/stm32f4xx_ll_usb.c **** 
 742:Drivers/STM32F4xx_HAL_Driver/Src/stm32f4xx_ll_usb.c ****       if (ep->type == EP_TYPE_ISOC)
 743:Drivers/STM32F4xx_HAL_Driver/Src/stm32f4xx_ll_usb.c ****       {
 744:Drivers/STM32F4xx_HAL_Driver/Src/stm32f4xx_ll_usb.c ****         USBx_INEP(epnum)->DIEPTSIZ &= ~(USB_OTG_DIEPTSIZ_MULCNT);
 745:Drivers/STM32F4xx_HAL_Driver/Src/stm32f4xx_ll_usb.c ****         USBx_INEP(epnum)->DIEPTSIZ |= (USB_OTG_DIEPTSIZ_MULCNT & (1U << 29));
 746:Drivers/STM32F4xx_HAL_Driver/Src/stm32f4xx_ll_usb.c ****       }
 747:Drivers/STM32F4xx_HAL_Driver/Src/stm32f4xx_ll_usb.c ****     }
 748:Drivers/STM32F4xx_HAL_Driver/Src/stm32f4xx_ll_usb.c **** 
 749:Drivers/STM32F4xx_HAL_Driver/Src/stm32f4xx_ll_usb.c ****     if (dma == 1U)
 750:Drivers/STM32F4xx_HAL_Driver/Src/stm32f4xx_ll_usb.c ****     {
 751:Drivers/STM32F4xx_HAL_Driver/Src/stm32f4xx_ll_usb.c ****       if ((uint32_t)ep->dma_addr != 0U)
 752:Drivers/STM32F4xx_HAL_Driver/Src/stm32f4xx_ll_usb.c ****       {
 753:Drivers/STM32F4xx_HAL_Driver/Src/stm32f4xx_ll_usb.c ****         USBx_INEP(epnum)->DIEPDMA = (uint32_t)(ep->dma_addr);
 754:Drivers/STM32F4xx_HAL_Driver/Src/stm32f4xx_ll_usb.c ****       }
 755:Drivers/STM32F4xx_HAL_Driver/Src/stm32f4xx_ll_usb.c **** 
 756:Drivers/STM32F4xx_HAL_Driver/Src/stm32f4xx_ll_usb.c ****       if (ep->type == EP_TYPE_ISOC)
 757:Drivers/STM32F4xx_HAL_Driver/Src/stm32f4xx_ll_usb.c ****       {
 758:Drivers/STM32F4xx_HAL_Driver/Src/stm32f4xx_ll_usb.c ****         if ((USBx_DEVICE->DSTS & (1U << 8)) == 0U)
 759:Drivers/STM32F4xx_HAL_Driver/Src/stm32f4xx_ll_usb.c ****         {
 760:Drivers/STM32F4xx_HAL_Driver/Src/stm32f4xx_ll_usb.c ****           USBx_INEP(epnum)->DIEPCTL |= USB_OTG_DIEPCTL_SODDFRM;
 761:Drivers/STM32F4xx_HAL_Driver/Src/stm32f4xx_ll_usb.c ****         }
 762:Drivers/STM32F4xx_HAL_Driver/Src/stm32f4xx_ll_usb.c ****         else
 763:Drivers/STM32F4xx_HAL_Driver/Src/stm32f4xx_ll_usb.c ****         {
 764:Drivers/STM32F4xx_HAL_Driver/Src/stm32f4xx_ll_usb.c ****           USBx_INEP(epnum)->DIEPCTL |= USB_OTG_DIEPCTL_SD0PID_SEVNFRM;
 765:Drivers/STM32F4xx_HAL_Driver/Src/stm32f4xx_ll_usb.c ****         }
 766:Drivers/STM32F4xx_HAL_Driver/Src/stm32f4xx_ll_usb.c ****       }
 767:Drivers/STM32F4xx_HAL_Driver/Src/stm32f4xx_ll_usb.c **** 
 768:Drivers/STM32F4xx_HAL_Driver/Src/stm32f4xx_ll_usb.c ****       /* EP enable, IN data in FIFO */
 769:Drivers/STM32F4xx_HAL_Driver/Src/stm32f4xx_ll_usb.c ****       USBx_INEP(epnum)->DIEPCTL |= (USB_OTG_DIEPCTL_CNAK | USB_OTG_DIEPCTL_EPENA);
 770:Drivers/STM32F4xx_HAL_Driver/Src/stm32f4xx_ll_usb.c ****     }
 771:Drivers/STM32F4xx_HAL_Driver/Src/stm32f4xx_ll_usb.c ****     else
ARM GAS  C:\Users\7636~1\AppData\Local\Temp\ccnv92VB.s 			page 15


 772:Drivers/STM32F4xx_HAL_Driver/Src/stm32f4xx_ll_usb.c ****     {
 773:Drivers/STM32F4xx_HAL_Driver/Src/stm32f4xx_ll_usb.c ****       /* EP enable, IN data in FIFO */
 774:Drivers/STM32F4xx_HAL_Driver/Src/stm32f4xx_ll_usb.c ****       USBx_INEP(epnum)->DIEPCTL |= (USB_OTG_DIEPCTL_CNAK | USB_OTG_DIEPCTL_EPENA);
 775:Drivers/STM32F4xx_HAL_Driver/Src/stm32f4xx_ll_usb.c **** 
 776:Drivers/STM32F4xx_HAL_Driver/Src/stm32f4xx_ll_usb.c ****       if (ep->type != EP_TYPE_ISOC)
 777:Drivers/STM32F4xx_HAL_Driver/Src/stm32f4xx_ll_usb.c ****       {
 778:Drivers/STM32F4xx_HAL_Driver/Src/stm32f4xx_ll_usb.c ****         /* Enable the Tx FIFO Empty Interrupt for this EP */
 779:Drivers/STM32F4xx_HAL_Driver/Src/stm32f4xx_ll_usb.c ****         if (ep->xfer_len > 0U)
 780:Drivers/STM32F4xx_HAL_Driver/Src/stm32f4xx_ll_usb.c ****         {
 781:Drivers/STM32F4xx_HAL_Driver/Src/stm32f4xx_ll_usb.c ****           USBx_DEVICE->DIEPEMPMSK |= 1UL << (ep->num & EP_ADDR_MSK);
 782:Drivers/STM32F4xx_HAL_Driver/Src/stm32f4xx_ll_usb.c ****         }
 783:Drivers/STM32F4xx_HAL_Driver/Src/stm32f4xx_ll_usb.c ****       }
 784:Drivers/STM32F4xx_HAL_Driver/Src/stm32f4xx_ll_usb.c ****       else
 785:Drivers/STM32F4xx_HAL_Driver/Src/stm32f4xx_ll_usb.c ****       {
 786:Drivers/STM32F4xx_HAL_Driver/Src/stm32f4xx_ll_usb.c ****         if ((USBx_DEVICE->DSTS & (1U << 8)) == 0U)
 787:Drivers/STM32F4xx_HAL_Driver/Src/stm32f4xx_ll_usb.c ****         {
 788:Drivers/STM32F4xx_HAL_Driver/Src/stm32f4xx_ll_usb.c ****           USBx_INEP(epnum)->DIEPCTL |= USB_OTG_DIEPCTL_SODDFRM;
 789:Drivers/STM32F4xx_HAL_Driver/Src/stm32f4xx_ll_usb.c ****         }
 790:Drivers/STM32F4xx_HAL_Driver/Src/stm32f4xx_ll_usb.c ****         else
 791:Drivers/STM32F4xx_HAL_Driver/Src/stm32f4xx_ll_usb.c ****         {
 792:Drivers/STM32F4xx_HAL_Driver/Src/stm32f4xx_ll_usb.c ****           USBx_INEP(epnum)->DIEPCTL |= USB_OTG_DIEPCTL_SD0PID_SEVNFRM;
 793:Drivers/STM32F4xx_HAL_Driver/Src/stm32f4xx_ll_usb.c ****         }
 794:Drivers/STM32F4xx_HAL_Driver/Src/stm32f4xx_ll_usb.c **** 
 795:Drivers/STM32F4xx_HAL_Driver/Src/stm32f4xx_ll_usb.c ****         (void)USB_WritePacket(USBx, ep->xfer_buff, ep->num, (uint16_t)ep->xfer_len, dma);
 796:Drivers/STM32F4xx_HAL_Driver/Src/stm32f4xx_ll_usb.c ****       }
 797:Drivers/STM32F4xx_HAL_Driver/Src/stm32f4xx_ll_usb.c ****     }
 798:Drivers/STM32F4xx_HAL_Driver/Src/stm32f4xx_ll_usb.c ****   }
 799:Drivers/STM32F4xx_HAL_Driver/Src/stm32f4xx_ll_usb.c ****   else /* OUT endpoint */
 800:Drivers/STM32F4xx_HAL_Driver/Src/stm32f4xx_ll_usb.c ****   {
 801:Drivers/STM32F4xx_HAL_Driver/Src/stm32f4xx_ll_usb.c ****     /* Program the transfer size and packet count as follows:
 802:Drivers/STM32F4xx_HAL_Driver/Src/stm32f4xx_ll_usb.c ****     * pktcnt = N
 803:Drivers/STM32F4xx_HAL_Driver/Src/stm32f4xx_ll_usb.c ****     * xfersize = N * maxpacket
 804:Drivers/STM32F4xx_HAL_Driver/Src/stm32f4xx_ll_usb.c ****     */
 805:Drivers/STM32F4xx_HAL_Driver/Src/stm32f4xx_ll_usb.c ****     USBx_OUTEP(epnum)->DOEPTSIZ &= ~(USB_OTG_DOEPTSIZ_XFRSIZ);
 806:Drivers/STM32F4xx_HAL_Driver/Src/stm32f4xx_ll_usb.c ****     USBx_OUTEP(epnum)->DOEPTSIZ &= ~(USB_OTG_DOEPTSIZ_PKTCNT);
 807:Drivers/STM32F4xx_HAL_Driver/Src/stm32f4xx_ll_usb.c **** 
 808:Drivers/STM32F4xx_HAL_Driver/Src/stm32f4xx_ll_usb.c ****     if (ep->xfer_len == 0U)
 809:Drivers/STM32F4xx_HAL_Driver/Src/stm32f4xx_ll_usb.c ****     {
 810:Drivers/STM32F4xx_HAL_Driver/Src/stm32f4xx_ll_usb.c ****       USBx_OUTEP(epnum)->DOEPTSIZ |= (USB_OTG_DOEPTSIZ_XFRSIZ & ep->maxpacket);
 811:Drivers/STM32F4xx_HAL_Driver/Src/stm32f4xx_ll_usb.c ****       USBx_OUTEP(epnum)->DOEPTSIZ |= (USB_OTG_DOEPTSIZ_PKTCNT & (1U << 19));
 812:Drivers/STM32F4xx_HAL_Driver/Src/stm32f4xx_ll_usb.c ****     }
 813:Drivers/STM32F4xx_HAL_Driver/Src/stm32f4xx_ll_usb.c ****     else
 814:Drivers/STM32F4xx_HAL_Driver/Src/stm32f4xx_ll_usb.c ****     {
 815:Drivers/STM32F4xx_HAL_Driver/Src/stm32f4xx_ll_usb.c ****       pktcnt = (uint16_t)((ep->xfer_len + ep->maxpacket - 1U) / ep->maxpacket);
 816:Drivers/STM32F4xx_HAL_Driver/Src/stm32f4xx_ll_usb.c ****       USBx_OUTEP(epnum)->DOEPTSIZ |= USB_OTG_DOEPTSIZ_PKTCNT & ((uint32_t)pktcnt << 19);
 817:Drivers/STM32F4xx_HAL_Driver/Src/stm32f4xx_ll_usb.c ****       USBx_OUTEP(epnum)->DOEPTSIZ |= USB_OTG_DOEPTSIZ_XFRSIZ & (ep->maxpacket * pktcnt);
 818:Drivers/STM32F4xx_HAL_Driver/Src/stm32f4xx_ll_usb.c ****     }
 819:Drivers/STM32F4xx_HAL_Driver/Src/stm32f4xx_ll_usb.c **** 
 820:Drivers/STM32F4xx_HAL_Driver/Src/stm32f4xx_ll_usb.c ****     if (dma == 1U)
 821:Drivers/STM32F4xx_HAL_Driver/Src/stm32f4xx_ll_usb.c ****     {
 822:Drivers/STM32F4xx_HAL_Driver/Src/stm32f4xx_ll_usb.c ****       if ((uint32_t)ep->xfer_buff != 0U)
 823:Drivers/STM32F4xx_HAL_Driver/Src/stm32f4xx_ll_usb.c ****       {
 824:Drivers/STM32F4xx_HAL_Driver/Src/stm32f4xx_ll_usb.c ****         USBx_OUTEP(epnum)->DOEPDMA = (uint32_t)(ep->xfer_buff);
 825:Drivers/STM32F4xx_HAL_Driver/Src/stm32f4xx_ll_usb.c ****       }
 826:Drivers/STM32F4xx_HAL_Driver/Src/stm32f4xx_ll_usb.c ****     }
 827:Drivers/STM32F4xx_HAL_Driver/Src/stm32f4xx_ll_usb.c **** 
 828:Drivers/STM32F4xx_HAL_Driver/Src/stm32f4xx_ll_usb.c ****     if (ep->type == EP_TYPE_ISOC)
ARM GAS  C:\Users\7636~1\AppData\Local\Temp\ccnv92VB.s 			page 16


 829:Drivers/STM32F4xx_HAL_Driver/Src/stm32f4xx_ll_usb.c ****     {
 830:Drivers/STM32F4xx_HAL_Driver/Src/stm32f4xx_ll_usb.c ****       if ((USBx_DEVICE->DSTS & (1U << 8)) == 0U)
 831:Drivers/STM32F4xx_HAL_Driver/Src/stm32f4xx_ll_usb.c ****       {
 832:Drivers/STM32F4xx_HAL_Driver/Src/stm32f4xx_ll_usb.c ****         USBx_OUTEP(epnum)->DOEPCTL |= USB_OTG_DOEPCTL_SODDFRM;
 833:Drivers/STM32F4xx_HAL_Driver/Src/stm32f4xx_ll_usb.c ****       }
 834:Drivers/STM32F4xx_HAL_Driver/Src/stm32f4xx_ll_usb.c ****       else
 835:Drivers/STM32F4xx_HAL_Driver/Src/stm32f4xx_ll_usb.c ****       {
 836:Drivers/STM32F4xx_HAL_Driver/Src/stm32f4xx_ll_usb.c ****         USBx_OUTEP(epnum)->DOEPCTL |= USB_OTG_DOEPCTL_SD0PID_SEVNFRM;
 837:Drivers/STM32F4xx_HAL_Driver/Src/stm32f4xx_ll_usb.c ****       }
 838:Drivers/STM32F4xx_HAL_Driver/Src/stm32f4xx_ll_usb.c ****     }
 839:Drivers/STM32F4xx_HAL_Driver/Src/stm32f4xx_ll_usb.c ****     /* EP enable */
 840:Drivers/STM32F4xx_HAL_Driver/Src/stm32f4xx_ll_usb.c ****     USBx_OUTEP(epnum)->DOEPCTL |= (USB_OTG_DOEPCTL_CNAK | USB_OTG_DOEPCTL_EPENA);
 841:Drivers/STM32F4xx_HAL_Driver/Src/stm32f4xx_ll_usb.c ****   }
 842:Drivers/STM32F4xx_HAL_Driver/Src/stm32f4xx_ll_usb.c **** 
 843:Drivers/STM32F4xx_HAL_Driver/Src/stm32f4xx_ll_usb.c ****   return HAL_OK;
 844:Drivers/STM32F4xx_HAL_Driver/Src/stm32f4xx_ll_usb.c **** }
 845:Drivers/STM32F4xx_HAL_Driver/Src/stm32f4xx_ll_usb.c **** 
 846:Drivers/STM32F4xx_HAL_Driver/Src/stm32f4xx_ll_usb.c **** /**
 847:Drivers/STM32F4xx_HAL_Driver/Src/stm32f4xx_ll_usb.c ****   * @brief  USB_EP0StartXfer : setup and starts a transfer over the EP  0
 848:Drivers/STM32F4xx_HAL_Driver/Src/stm32f4xx_ll_usb.c ****   * @param  USBx  Selected device
 849:Drivers/STM32F4xx_HAL_Driver/Src/stm32f4xx_ll_usb.c ****   * @param  ep pointer to endpoint structure
 850:Drivers/STM32F4xx_HAL_Driver/Src/stm32f4xx_ll_usb.c ****   * @param  dma USB dma enabled or disabled
 851:Drivers/STM32F4xx_HAL_Driver/Src/stm32f4xx_ll_usb.c ****   *          This parameter can be one of these values:
 852:Drivers/STM32F4xx_HAL_Driver/Src/stm32f4xx_ll_usb.c ****   *           0 : DMA feature not used
 853:Drivers/STM32F4xx_HAL_Driver/Src/stm32f4xx_ll_usb.c ****   *           1 : DMA feature used
 854:Drivers/STM32F4xx_HAL_Driver/Src/stm32f4xx_ll_usb.c ****   * @retval HAL status
 855:Drivers/STM32F4xx_HAL_Driver/Src/stm32f4xx_ll_usb.c ****   */
 856:Drivers/STM32F4xx_HAL_Driver/Src/stm32f4xx_ll_usb.c **** HAL_StatusTypeDef USB_EP0StartXfer(USB_OTG_GlobalTypeDef *USBx, USB_OTG_EPTypeDef *ep, uint8_t dma)
 857:Drivers/STM32F4xx_HAL_Driver/Src/stm32f4xx_ll_usb.c **** {
 858:Drivers/STM32F4xx_HAL_Driver/Src/stm32f4xx_ll_usb.c ****   uint32_t USBx_BASE = (uint32_t)USBx;
 859:Drivers/STM32F4xx_HAL_Driver/Src/stm32f4xx_ll_usb.c ****   uint32_t epnum = (uint32_t)ep->num;
 860:Drivers/STM32F4xx_HAL_Driver/Src/stm32f4xx_ll_usb.c **** 
 861:Drivers/STM32F4xx_HAL_Driver/Src/stm32f4xx_ll_usb.c ****   /* IN endpoint */
 862:Drivers/STM32F4xx_HAL_Driver/Src/stm32f4xx_ll_usb.c ****   if (ep->is_in == 1U)
 863:Drivers/STM32F4xx_HAL_Driver/Src/stm32f4xx_ll_usb.c ****   {
 864:Drivers/STM32F4xx_HAL_Driver/Src/stm32f4xx_ll_usb.c ****     /* Zero Length Packet? */
 865:Drivers/STM32F4xx_HAL_Driver/Src/stm32f4xx_ll_usb.c ****     if (ep->xfer_len == 0U)
 866:Drivers/STM32F4xx_HAL_Driver/Src/stm32f4xx_ll_usb.c ****     {
 867:Drivers/STM32F4xx_HAL_Driver/Src/stm32f4xx_ll_usb.c ****       USBx_INEP(epnum)->DIEPTSIZ &= ~(USB_OTG_DIEPTSIZ_PKTCNT);
 868:Drivers/STM32F4xx_HAL_Driver/Src/stm32f4xx_ll_usb.c ****       USBx_INEP(epnum)->DIEPTSIZ |= (USB_OTG_DIEPTSIZ_PKTCNT & (1U << 19));
 869:Drivers/STM32F4xx_HAL_Driver/Src/stm32f4xx_ll_usb.c ****       USBx_INEP(epnum)->DIEPTSIZ &= ~(USB_OTG_DIEPTSIZ_XFRSIZ);
 870:Drivers/STM32F4xx_HAL_Driver/Src/stm32f4xx_ll_usb.c ****     }
 871:Drivers/STM32F4xx_HAL_Driver/Src/stm32f4xx_ll_usb.c ****     else
 872:Drivers/STM32F4xx_HAL_Driver/Src/stm32f4xx_ll_usb.c ****     {
 873:Drivers/STM32F4xx_HAL_Driver/Src/stm32f4xx_ll_usb.c ****       /* Program the transfer size and packet count
 874:Drivers/STM32F4xx_HAL_Driver/Src/stm32f4xx_ll_usb.c ****       * as follows: xfersize = N * maxpacket +
 875:Drivers/STM32F4xx_HAL_Driver/Src/stm32f4xx_ll_usb.c ****       * short_packet pktcnt = N + (short_packet
 876:Drivers/STM32F4xx_HAL_Driver/Src/stm32f4xx_ll_usb.c ****       * exist ? 1 : 0)
 877:Drivers/STM32F4xx_HAL_Driver/Src/stm32f4xx_ll_usb.c ****       */
 878:Drivers/STM32F4xx_HAL_Driver/Src/stm32f4xx_ll_usb.c ****       USBx_INEP(epnum)->DIEPTSIZ &= ~(USB_OTG_DIEPTSIZ_XFRSIZ);
 879:Drivers/STM32F4xx_HAL_Driver/Src/stm32f4xx_ll_usb.c ****       USBx_INEP(epnum)->DIEPTSIZ &= ~(USB_OTG_DIEPTSIZ_PKTCNT);
 880:Drivers/STM32F4xx_HAL_Driver/Src/stm32f4xx_ll_usb.c **** 
 881:Drivers/STM32F4xx_HAL_Driver/Src/stm32f4xx_ll_usb.c ****       if (ep->xfer_len > ep->maxpacket)
 882:Drivers/STM32F4xx_HAL_Driver/Src/stm32f4xx_ll_usb.c ****       {
 883:Drivers/STM32F4xx_HAL_Driver/Src/stm32f4xx_ll_usb.c ****         ep->xfer_len = ep->maxpacket;
 884:Drivers/STM32F4xx_HAL_Driver/Src/stm32f4xx_ll_usb.c ****       }
 885:Drivers/STM32F4xx_HAL_Driver/Src/stm32f4xx_ll_usb.c ****       USBx_INEP(epnum)->DIEPTSIZ |= (USB_OTG_DIEPTSIZ_PKTCNT & (1U << 19));
ARM GAS  C:\Users\7636~1\AppData\Local\Temp\ccnv92VB.s 			page 17


 886:Drivers/STM32F4xx_HAL_Driver/Src/stm32f4xx_ll_usb.c ****       USBx_INEP(epnum)->DIEPTSIZ |= (USB_OTG_DIEPTSIZ_XFRSIZ & ep->xfer_len);
 887:Drivers/STM32F4xx_HAL_Driver/Src/stm32f4xx_ll_usb.c ****     }
 888:Drivers/STM32F4xx_HAL_Driver/Src/stm32f4xx_ll_usb.c **** 
 889:Drivers/STM32F4xx_HAL_Driver/Src/stm32f4xx_ll_usb.c ****     if (dma == 1U)
 890:Drivers/STM32F4xx_HAL_Driver/Src/stm32f4xx_ll_usb.c ****     {
 891:Drivers/STM32F4xx_HAL_Driver/Src/stm32f4xx_ll_usb.c ****       if ((uint32_t)ep->dma_addr != 0U)
 892:Drivers/STM32F4xx_HAL_Driver/Src/stm32f4xx_ll_usb.c ****       {
 893:Drivers/STM32F4xx_HAL_Driver/Src/stm32f4xx_ll_usb.c ****         USBx_INEP(epnum)->DIEPDMA = (uint32_t)(ep->dma_addr);
 894:Drivers/STM32F4xx_HAL_Driver/Src/stm32f4xx_ll_usb.c ****       }
 895:Drivers/STM32F4xx_HAL_Driver/Src/stm32f4xx_ll_usb.c **** 
 896:Drivers/STM32F4xx_HAL_Driver/Src/stm32f4xx_ll_usb.c ****       /* EP enable, IN data in FIFO */
 897:Drivers/STM32F4xx_HAL_Driver/Src/stm32f4xx_ll_usb.c ****       USBx_INEP(epnum)->DIEPCTL |= (USB_OTG_DIEPCTL_CNAK | USB_OTG_DIEPCTL_EPENA);
 898:Drivers/STM32F4xx_HAL_Driver/Src/stm32f4xx_ll_usb.c ****     }
 899:Drivers/STM32F4xx_HAL_Driver/Src/stm32f4xx_ll_usb.c ****     else
 900:Drivers/STM32F4xx_HAL_Driver/Src/stm32f4xx_ll_usb.c ****     {
 901:Drivers/STM32F4xx_HAL_Driver/Src/stm32f4xx_ll_usb.c ****       /* EP enable, IN data in FIFO */
 902:Drivers/STM32F4xx_HAL_Driver/Src/stm32f4xx_ll_usb.c ****       USBx_INEP(epnum)->DIEPCTL |= (USB_OTG_DIEPCTL_CNAK | USB_OTG_DIEPCTL_EPENA);
 903:Drivers/STM32F4xx_HAL_Driver/Src/stm32f4xx_ll_usb.c **** 
 904:Drivers/STM32F4xx_HAL_Driver/Src/stm32f4xx_ll_usb.c ****       /* Enable the Tx FIFO Empty Interrupt for this EP */
 905:Drivers/STM32F4xx_HAL_Driver/Src/stm32f4xx_ll_usb.c ****       if (ep->xfer_len > 0U)
 906:Drivers/STM32F4xx_HAL_Driver/Src/stm32f4xx_ll_usb.c ****       {
 907:Drivers/STM32F4xx_HAL_Driver/Src/stm32f4xx_ll_usb.c ****         USBx_DEVICE->DIEPEMPMSK |= 1UL << (ep->num & EP_ADDR_MSK);
 908:Drivers/STM32F4xx_HAL_Driver/Src/stm32f4xx_ll_usb.c ****       }
 909:Drivers/STM32F4xx_HAL_Driver/Src/stm32f4xx_ll_usb.c ****     }
 910:Drivers/STM32F4xx_HAL_Driver/Src/stm32f4xx_ll_usb.c ****   }
 911:Drivers/STM32F4xx_HAL_Driver/Src/stm32f4xx_ll_usb.c ****   else /* OUT endpoint */
 912:Drivers/STM32F4xx_HAL_Driver/Src/stm32f4xx_ll_usb.c ****   {
 913:Drivers/STM32F4xx_HAL_Driver/Src/stm32f4xx_ll_usb.c ****     /* Program the transfer size and packet count as follows:
 914:Drivers/STM32F4xx_HAL_Driver/Src/stm32f4xx_ll_usb.c ****     * pktcnt = N
 915:Drivers/STM32F4xx_HAL_Driver/Src/stm32f4xx_ll_usb.c ****     * xfersize = N * maxpacket
 916:Drivers/STM32F4xx_HAL_Driver/Src/stm32f4xx_ll_usb.c ****     */
 917:Drivers/STM32F4xx_HAL_Driver/Src/stm32f4xx_ll_usb.c ****     USBx_OUTEP(epnum)->DOEPTSIZ &= ~(USB_OTG_DOEPTSIZ_XFRSIZ);
 918:Drivers/STM32F4xx_HAL_Driver/Src/stm32f4xx_ll_usb.c ****     USBx_OUTEP(epnum)->DOEPTSIZ &= ~(USB_OTG_DOEPTSIZ_PKTCNT);
 919:Drivers/STM32F4xx_HAL_Driver/Src/stm32f4xx_ll_usb.c **** 
 920:Drivers/STM32F4xx_HAL_Driver/Src/stm32f4xx_ll_usb.c ****     if (ep->xfer_len > 0U)
 921:Drivers/STM32F4xx_HAL_Driver/Src/stm32f4xx_ll_usb.c ****     {
 922:Drivers/STM32F4xx_HAL_Driver/Src/stm32f4xx_ll_usb.c ****       ep->xfer_len = ep->maxpacket;
 923:Drivers/STM32F4xx_HAL_Driver/Src/stm32f4xx_ll_usb.c ****     }
 924:Drivers/STM32F4xx_HAL_Driver/Src/stm32f4xx_ll_usb.c **** 
 925:Drivers/STM32F4xx_HAL_Driver/Src/stm32f4xx_ll_usb.c ****     USBx_OUTEP(epnum)->DOEPTSIZ |= (USB_OTG_DOEPTSIZ_PKTCNT & (1U << 19));
 926:Drivers/STM32F4xx_HAL_Driver/Src/stm32f4xx_ll_usb.c ****     USBx_OUTEP(epnum)->DOEPTSIZ |= (USB_OTG_DOEPTSIZ_XFRSIZ & (ep->maxpacket));
 927:Drivers/STM32F4xx_HAL_Driver/Src/stm32f4xx_ll_usb.c **** 
 928:Drivers/STM32F4xx_HAL_Driver/Src/stm32f4xx_ll_usb.c ****     if (dma == 1U)
 929:Drivers/STM32F4xx_HAL_Driver/Src/stm32f4xx_ll_usb.c ****     {
 930:Drivers/STM32F4xx_HAL_Driver/Src/stm32f4xx_ll_usb.c ****       if ((uint32_t)ep->xfer_buff != 0U)
 931:Drivers/STM32F4xx_HAL_Driver/Src/stm32f4xx_ll_usb.c ****       {
 932:Drivers/STM32F4xx_HAL_Driver/Src/stm32f4xx_ll_usb.c ****         USBx_OUTEP(epnum)->DOEPDMA = (uint32_t)(ep->xfer_buff);
 933:Drivers/STM32F4xx_HAL_Driver/Src/stm32f4xx_ll_usb.c ****       }
 934:Drivers/STM32F4xx_HAL_Driver/Src/stm32f4xx_ll_usb.c ****     }
 935:Drivers/STM32F4xx_HAL_Driver/Src/stm32f4xx_ll_usb.c **** 
 936:Drivers/STM32F4xx_HAL_Driver/Src/stm32f4xx_ll_usb.c ****     /* EP enable */
 937:Drivers/STM32F4xx_HAL_Driver/Src/stm32f4xx_ll_usb.c ****     USBx_OUTEP(epnum)->DOEPCTL |= (USB_OTG_DOEPCTL_CNAK | USB_OTG_DOEPCTL_EPENA);
 938:Drivers/STM32F4xx_HAL_Driver/Src/stm32f4xx_ll_usb.c ****   }
 939:Drivers/STM32F4xx_HAL_Driver/Src/stm32f4xx_ll_usb.c **** 
 940:Drivers/STM32F4xx_HAL_Driver/Src/stm32f4xx_ll_usb.c ****   return HAL_OK;
 941:Drivers/STM32F4xx_HAL_Driver/Src/stm32f4xx_ll_usb.c **** }
 942:Drivers/STM32F4xx_HAL_Driver/Src/stm32f4xx_ll_usb.c **** 
ARM GAS  C:\Users\7636~1\AppData\Local\Temp\ccnv92VB.s 			page 18


 943:Drivers/STM32F4xx_HAL_Driver/Src/stm32f4xx_ll_usb.c **** /**
 944:Drivers/STM32F4xx_HAL_Driver/Src/stm32f4xx_ll_usb.c ****   * @brief  USB_WritePacket : Writes a packet into the Tx FIFO associated
 945:Drivers/STM32F4xx_HAL_Driver/Src/stm32f4xx_ll_usb.c ****   *         with the EP/channel
 946:Drivers/STM32F4xx_HAL_Driver/Src/stm32f4xx_ll_usb.c ****   * @param  USBx  Selected device
 947:Drivers/STM32F4xx_HAL_Driver/Src/stm32f4xx_ll_usb.c ****   * @param  src   pointer to source buffer
 948:Drivers/STM32F4xx_HAL_Driver/Src/stm32f4xx_ll_usb.c ****   * @param  ch_ep_num  endpoint or host channel number
 949:Drivers/STM32F4xx_HAL_Driver/Src/stm32f4xx_ll_usb.c ****   * @param  len  Number of bytes to write
 950:Drivers/STM32F4xx_HAL_Driver/Src/stm32f4xx_ll_usb.c ****   * @param  dma USB dma enabled or disabled
 951:Drivers/STM32F4xx_HAL_Driver/Src/stm32f4xx_ll_usb.c ****   *          This parameter can be one of these values:
 952:Drivers/STM32F4xx_HAL_Driver/Src/stm32f4xx_ll_usb.c ****   *           0 : DMA feature not used
 953:Drivers/STM32F4xx_HAL_Driver/Src/stm32f4xx_ll_usb.c ****   *           1 : DMA feature used
 954:Drivers/STM32F4xx_HAL_Driver/Src/stm32f4xx_ll_usb.c ****   * @retval HAL status
 955:Drivers/STM32F4xx_HAL_Driver/Src/stm32f4xx_ll_usb.c ****   */
 956:Drivers/STM32F4xx_HAL_Driver/Src/stm32f4xx_ll_usb.c **** HAL_StatusTypeDef USB_WritePacket(USB_OTG_GlobalTypeDef *USBx, uint8_t *src,
 957:Drivers/STM32F4xx_HAL_Driver/Src/stm32f4xx_ll_usb.c ****                                   uint8_t ch_ep_num, uint16_t len, uint8_t dma)
 958:Drivers/STM32F4xx_HAL_Driver/Src/stm32f4xx_ll_usb.c **** {
 959:Drivers/STM32F4xx_HAL_Driver/Src/stm32f4xx_ll_usb.c ****   uint32_t USBx_BASE = (uint32_t)USBx;
 960:Drivers/STM32F4xx_HAL_Driver/Src/stm32f4xx_ll_usb.c ****   uint32_t *pSrc = (uint32_t *)src;
 961:Drivers/STM32F4xx_HAL_Driver/Src/stm32f4xx_ll_usb.c ****   uint32_t count32b, i;
 962:Drivers/STM32F4xx_HAL_Driver/Src/stm32f4xx_ll_usb.c **** 
 963:Drivers/STM32F4xx_HAL_Driver/Src/stm32f4xx_ll_usb.c ****   if (dma == 0U)
 964:Drivers/STM32F4xx_HAL_Driver/Src/stm32f4xx_ll_usb.c ****   {
 965:Drivers/STM32F4xx_HAL_Driver/Src/stm32f4xx_ll_usb.c ****     count32b = ((uint32_t)len + 3U) / 4U;
 966:Drivers/STM32F4xx_HAL_Driver/Src/stm32f4xx_ll_usb.c ****     for (i = 0U; i < count32b; i++)
 967:Drivers/STM32F4xx_HAL_Driver/Src/stm32f4xx_ll_usb.c ****     {
 968:Drivers/STM32F4xx_HAL_Driver/Src/stm32f4xx_ll_usb.c ****       USBx_DFIFO((uint32_t)ch_ep_num) = __UNALIGNED_UINT32_READ(pSrc);
 969:Drivers/STM32F4xx_HAL_Driver/Src/stm32f4xx_ll_usb.c ****       pSrc++;
 970:Drivers/STM32F4xx_HAL_Driver/Src/stm32f4xx_ll_usb.c ****     }
 971:Drivers/STM32F4xx_HAL_Driver/Src/stm32f4xx_ll_usb.c ****   }
 972:Drivers/STM32F4xx_HAL_Driver/Src/stm32f4xx_ll_usb.c **** 
 973:Drivers/STM32F4xx_HAL_Driver/Src/stm32f4xx_ll_usb.c ****   return HAL_OK;
 974:Drivers/STM32F4xx_HAL_Driver/Src/stm32f4xx_ll_usb.c **** }
 975:Drivers/STM32F4xx_HAL_Driver/Src/stm32f4xx_ll_usb.c **** 
 976:Drivers/STM32F4xx_HAL_Driver/Src/stm32f4xx_ll_usb.c **** /**
 977:Drivers/STM32F4xx_HAL_Driver/Src/stm32f4xx_ll_usb.c ****   * @brief  USB_ReadPacket : read a packet from the RX FIFO
 978:Drivers/STM32F4xx_HAL_Driver/Src/stm32f4xx_ll_usb.c ****   * @param  USBx  Selected device
 979:Drivers/STM32F4xx_HAL_Driver/Src/stm32f4xx_ll_usb.c ****   * @param  dest  source pointer
 980:Drivers/STM32F4xx_HAL_Driver/Src/stm32f4xx_ll_usb.c ****   * @param  len  Number of bytes to read
 981:Drivers/STM32F4xx_HAL_Driver/Src/stm32f4xx_ll_usb.c ****   * @retval pointer to destination buffer
 982:Drivers/STM32F4xx_HAL_Driver/Src/stm32f4xx_ll_usb.c ****   */
 983:Drivers/STM32F4xx_HAL_Driver/Src/stm32f4xx_ll_usb.c **** void *USB_ReadPacket(USB_OTG_GlobalTypeDef *USBx, uint8_t *dest, uint16_t len)
 984:Drivers/STM32F4xx_HAL_Driver/Src/stm32f4xx_ll_usb.c **** {
 985:Drivers/STM32F4xx_HAL_Driver/Src/stm32f4xx_ll_usb.c ****   uint32_t USBx_BASE = (uint32_t)USBx;
 986:Drivers/STM32F4xx_HAL_Driver/Src/stm32f4xx_ll_usb.c ****   uint32_t *pDest = (uint32_t *)dest;
 987:Drivers/STM32F4xx_HAL_Driver/Src/stm32f4xx_ll_usb.c ****   uint32_t i;
 988:Drivers/STM32F4xx_HAL_Driver/Src/stm32f4xx_ll_usb.c ****   uint32_t count32b = ((uint32_t)len + 3U) / 4U;
 989:Drivers/STM32F4xx_HAL_Driver/Src/stm32f4xx_ll_usb.c **** 
 990:Drivers/STM32F4xx_HAL_Driver/Src/stm32f4xx_ll_usb.c ****   for (i = 0U; i < count32b; i++)
 991:Drivers/STM32F4xx_HAL_Driver/Src/stm32f4xx_ll_usb.c ****   {
 992:Drivers/STM32F4xx_HAL_Driver/Src/stm32f4xx_ll_usb.c ****     __UNALIGNED_UINT32_WRITE(pDest, USBx_DFIFO(0U));
 993:Drivers/STM32F4xx_HAL_Driver/Src/stm32f4xx_ll_usb.c ****     pDest++;
 994:Drivers/STM32F4xx_HAL_Driver/Src/stm32f4xx_ll_usb.c ****   }
 995:Drivers/STM32F4xx_HAL_Driver/Src/stm32f4xx_ll_usb.c **** 
 996:Drivers/STM32F4xx_HAL_Driver/Src/stm32f4xx_ll_usb.c ****   return ((void *)pDest);
 997:Drivers/STM32F4xx_HAL_Driver/Src/stm32f4xx_ll_usb.c **** }
 998:Drivers/STM32F4xx_HAL_Driver/Src/stm32f4xx_ll_usb.c **** 
 999:Drivers/STM32F4xx_HAL_Driver/Src/stm32f4xx_ll_usb.c **** /**
ARM GAS  C:\Users\7636~1\AppData\Local\Temp\ccnv92VB.s 			page 19


1000:Drivers/STM32F4xx_HAL_Driver/Src/stm32f4xx_ll_usb.c ****   * @brief  USB_EPSetStall : set a stall condition over an EP
1001:Drivers/STM32F4xx_HAL_Driver/Src/stm32f4xx_ll_usb.c ****   * @param  USBx  Selected device
1002:Drivers/STM32F4xx_HAL_Driver/Src/stm32f4xx_ll_usb.c ****   * @param  ep pointer to endpoint structure
1003:Drivers/STM32F4xx_HAL_Driver/Src/stm32f4xx_ll_usb.c ****   * @retval HAL status
1004:Drivers/STM32F4xx_HAL_Driver/Src/stm32f4xx_ll_usb.c ****   */
1005:Drivers/STM32F4xx_HAL_Driver/Src/stm32f4xx_ll_usb.c **** HAL_StatusTypeDef USB_EPSetStall(USB_OTG_GlobalTypeDef *USBx, USB_OTG_EPTypeDef *ep)
1006:Drivers/STM32F4xx_HAL_Driver/Src/stm32f4xx_ll_usb.c **** {
1007:Drivers/STM32F4xx_HAL_Driver/Src/stm32f4xx_ll_usb.c ****   uint32_t USBx_BASE = (uint32_t)USBx;
1008:Drivers/STM32F4xx_HAL_Driver/Src/stm32f4xx_ll_usb.c ****   uint32_t epnum = (uint32_t)ep->num;
1009:Drivers/STM32F4xx_HAL_Driver/Src/stm32f4xx_ll_usb.c **** 
1010:Drivers/STM32F4xx_HAL_Driver/Src/stm32f4xx_ll_usb.c ****   if (ep->is_in == 1U)
1011:Drivers/STM32F4xx_HAL_Driver/Src/stm32f4xx_ll_usb.c ****   {
1012:Drivers/STM32F4xx_HAL_Driver/Src/stm32f4xx_ll_usb.c ****     if (((USBx_INEP(epnum)->DIEPCTL & USB_OTG_DIEPCTL_EPENA) == 0U) && (epnum != 0U))
1013:Drivers/STM32F4xx_HAL_Driver/Src/stm32f4xx_ll_usb.c ****     {
1014:Drivers/STM32F4xx_HAL_Driver/Src/stm32f4xx_ll_usb.c ****       USBx_INEP(epnum)->DIEPCTL &= ~(USB_OTG_DIEPCTL_EPDIS);
1015:Drivers/STM32F4xx_HAL_Driver/Src/stm32f4xx_ll_usb.c ****     }
1016:Drivers/STM32F4xx_HAL_Driver/Src/stm32f4xx_ll_usb.c ****     USBx_INEP(epnum)->DIEPCTL |= USB_OTG_DIEPCTL_STALL;
1017:Drivers/STM32F4xx_HAL_Driver/Src/stm32f4xx_ll_usb.c ****   }
1018:Drivers/STM32F4xx_HAL_Driver/Src/stm32f4xx_ll_usb.c ****   else
1019:Drivers/STM32F4xx_HAL_Driver/Src/stm32f4xx_ll_usb.c ****   {
1020:Drivers/STM32F4xx_HAL_Driver/Src/stm32f4xx_ll_usb.c ****     if (((USBx_OUTEP(epnum)->DOEPCTL & USB_OTG_DOEPCTL_EPENA) == 0U) && (epnum != 0U))
1021:Drivers/STM32F4xx_HAL_Driver/Src/stm32f4xx_ll_usb.c ****     {
1022:Drivers/STM32F4xx_HAL_Driver/Src/stm32f4xx_ll_usb.c ****       USBx_OUTEP(epnum)->DOEPCTL &= ~(USB_OTG_DOEPCTL_EPDIS);
1023:Drivers/STM32F4xx_HAL_Driver/Src/stm32f4xx_ll_usb.c ****     }
1024:Drivers/STM32F4xx_HAL_Driver/Src/stm32f4xx_ll_usb.c ****     USBx_OUTEP(epnum)->DOEPCTL |= USB_OTG_DOEPCTL_STALL;
1025:Drivers/STM32F4xx_HAL_Driver/Src/stm32f4xx_ll_usb.c ****   }
1026:Drivers/STM32F4xx_HAL_Driver/Src/stm32f4xx_ll_usb.c **** 
1027:Drivers/STM32F4xx_HAL_Driver/Src/stm32f4xx_ll_usb.c ****   return HAL_OK;
1028:Drivers/STM32F4xx_HAL_Driver/Src/stm32f4xx_ll_usb.c **** }
1029:Drivers/STM32F4xx_HAL_Driver/Src/stm32f4xx_ll_usb.c **** 
1030:Drivers/STM32F4xx_HAL_Driver/Src/stm32f4xx_ll_usb.c **** /**
1031:Drivers/STM32F4xx_HAL_Driver/Src/stm32f4xx_ll_usb.c ****   * @brief  USB_EPClearStall : Clear a stall condition over an EP
1032:Drivers/STM32F4xx_HAL_Driver/Src/stm32f4xx_ll_usb.c ****   * @param  USBx  Selected device
1033:Drivers/STM32F4xx_HAL_Driver/Src/stm32f4xx_ll_usb.c ****   * @param  ep pointer to endpoint structure
1034:Drivers/STM32F4xx_HAL_Driver/Src/stm32f4xx_ll_usb.c ****   * @retval HAL status
1035:Drivers/STM32F4xx_HAL_Driver/Src/stm32f4xx_ll_usb.c ****   */
1036:Drivers/STM32F4xx_HAL_Driver/Src/stm32f4xx_ll_usb.c **** HAL_StatusTypeDef USB_EPClearStall(USB_OTG_GlobalTypeDef *USBx, USB_OTG_EPTypeDef *ep)
1037:Drivers/STM32F4xx_HAL_Driver/Src/stm32f4xx_ll_usb.c **** {
1038:Drivers/STM32F4xx_HAL_Driver/Src/stm32f4xx_ll_usb.c ****   uint32_t USBx_BASE = (uint32_t)USBx;
1039:Drivers/STM32F4xx_HAL_Driver/Src/stm32f4xx_ll_usb.c ****   uint32_t epnum = (uint32_t)ep->num;
1040:Drivers/STM32F4xx_HAL_Driver/Src/stm32f4xx_ll_usb.c **** 
1041:Drivers/STM32F4xx_HAL_Driver/Src/stm32f4xx_ll_usb.c ****   if (ep->is_in == 1U)
1042:Drivers/STM32F4xx_HAL_Driver/Src/stm32f4xx_ll_usb.c ****   {
1043:Drivers/STM32F4xx_HAL_Driver/Src/stm32f4xx_ll_usb.c ****     USBx_INEP(epnum)->DIEPCTL &= ~USB_OTG_DIEPCTL_STALL;
1044:Drivers/STM32F4xx_HAL_Driver/Src/stm32f4xx_ll_usb.c ****     if ((ep->type == EP_TYPE_INTR) || (ep->type == EP_TYPE_BULK))
1045:Drivers/STM32F4xx_HAL_Driver/Src/stm32f4xx_ll_usb.c ****     {
1046:Drivers/STM32F4xx_HAL_Driver/Src/stm32f4xx_ll_usb.c ****       USBx_INEP(epnum)->DIEPCTL |= USB_OTG_DIEPCTL_SD0PID_SEVNFRM; /* DATA0 */
1047:Drivers/STM32F4xx_HAL_Driver/Src/stm32f4xx_ll_usb.c ****     }
1048:Drivers/STM32F4xx_HAL_Driver/Src/stm32f4xx_ll_usb.c ****   }
1049:Drivers/STM32F4xx_HAL_Driver/Src/stm32f4xx_ll_usb.c ****   else
1050:Drivers/STM32F4xx_HAL_Driver/Src/stm32f4xx_ll_usb.c ****   {
1051:Drivers/STM32F4xx_HAL_Driver/Src/stm32f4xx_ll_usb.c ****     USBx_OUTEP(epnum)->DOEPCTL &= ~USB_OTG_DOEPCTL_STALL;
1052:Drivers/STM32F4xx_HAL_Driver/Src/stm32f4xx_ll_usb.c ****     if ((ep->type == EP_TYPE_INTR) || (ep->type == EP_TYPE_BULK))
1053:Drivers/STM32F4xx_HAL_Driver/Src/stm32f4xx_ll_usb.c ****     {
1054:Drivers/STM32F4xx_HAL_Driver/Src/stm32f4xx_ll_usb.c ****       USBx_OUTEP(epnum)->DOEPCTL |= USB_OTG_DOEPCTL_SD0PID_SEVNFRM; /* DATA0 */
1055:Drivers/STM32F4xx_HAL_Driver/Src/stm32f4xx_ll_usb.c ****     }
1056:Drivers/STM32F4xx_HAL_Driver/Src/stm32f4xx_ll_usb.c ****   }
ARM GAS  C:\Users\7636~1\AppData\Local\Temp\ccnv92VB.s 			page 20


1057:Drivers/STM32F4xx_HAL_Driver/Src/stm32f4xx_ll_usb.c ****   return HAL_OK;
1058:Drivers/STM32F4xx_HAL_Driver/Src/stm32f4xx_ll_usb.c **** }
1059:Drivers/STM32F4xx_HAL_Driver/Src/stm32f4xx_ll_usb.c **** 
1060:Drivers/STM32F4xx_HAL_Driver/Src/stm32f4xx_ll_usb.c **** /**
1061:Drivers/STM32F4xx_HAL_Driver/Src/stm32f4xx_ll_usb.c ****   * @brief  USB_StopDevice : Stop the usb device mode
1062:Drivers/STM32F4xx_HAL_Driver/Src/stm32f4xx_ll_usb.c ****   * @param  USBx  Selected device
1063:Drivers/STM32F4xx_HAL_Driver/Src/stm32f4xx_ll_usb.c ****   * @retval HAL status
1064:Drivers/STM32F4xx_HAL_Driver/Src/stm32f4xx_ll_usb.c ****   */
1065:Drivers/STM32F4xx_HAL_Driver/Src/stm32f4xx_ll_usb.c **** HAL_StatusTypeDef USB_StopDevice(USB_OTG_GlobalTypeDef *USBx)
1066:Drivers/STM32F4xx_HAL_Driver/Src/stm32f4xx_ll_usb.c **** {
1067:Drivers/STM32F4xx_HAL_Driver/Src/stm32f4xx_ll_usb.c ****   HAL_StatusTypeDef ret;
1068:Drivers/STM32F4xx_HAL_Driver/Src/stm32f4xx_ll_usb.c ****   uint32_t USBx_BASE = (uint32_t)USBx;
1069:Drivers/STM32F4xx_HAL_Driver/Src/stm32f4xx_ll_usb.c ****   uint32_t i;
1070:Drivers/STM32F4xx_HAL_Driver/Src/stm32f4xx_ll_usb.c **** 
1071:Drivers/STM32F4xx_HAL_Driver/Src/stm32f4xx_ll_usb.c ****   /* Clear Pending interrupt */
1072:Drivers/STM32F4xx_HAL_Driver/Src/stm32f4xx_ll_usb.c ****   for (i = 0U; i < 15U; i++)
1073:Drivers/STM32F4xx_HAL_Driver/Src/stm32f4xx_ll_usb.c ****   {
1074:Drivers/STM32F4xx_HAL_Driver/Src/stm32f4xx_ll_usb.c ****     USBx_INEP(i)->DIEPINT = 0xFB7FU;
1075:Drivers/STM32F4xx_HAL_Driver/Src/stm32f4xx_ll_usb.c ****     USBx_OUTEP(i)->DOEPINT = 0xFB7FU;
1076:Drivers/STM32F4xx_HAL_Driver/Src/stm32f4xx_ll_usb.c ****   }
1077:Drivers/STM32F4xx_HAL_Driver/Src/stm32f4xx_ll_usb.c **** 
1078:Drivers/STM32F4xx_HAL_Driver/Src/stm32f4xx_ll_usb.c ****   /* Clear interrupt masks */
1079:Drivers/STM32F4xx_HAL_Driver/Src/stm32f4xx_ll_usb.c ****   USBx_DEVICE->DIEPMSK  = 0U;
1080:Drivers/STM32F4xx_HAL_Driver/Src/stm32f4xx_ll_usb.c ****   USBx_DEVICE->DOEPMSK  = 0U;
1081:Drivers/STM32F4xx_HAL_Driver/Src/stm32f4xx_ll_usb.c ****   USBx_DEVICE->DAINTMSK = 0U;
1082:Drivers/STM32F4xx_HAL_Driver/Src/stm32f4xx_ll_usb.c **** 
1083:Drivers/STM32F4xx_HAL_Driver/Src/stm32f4xx_ll_usb.c ****   /* Flush the FIFO */
1084:Drivers/STM32F4xx_HAL_Driver/Src/stm32f4xx_ll_usb.c ****   ret = USB_FlushRxFifo(USBx);
1085:Drivers/STM32F4xx_HAL_Driver/Src/stm32f4xx_ll_usb.c ****   if (ret != HAL_OK)
1086:Drivers/STM32F4xx_HAL_Driver/Src/stm32f4xx_ll_usb.c ****   {
1087:Drivers/STM32F4xx_HAL_Driver/Src/stm32f4xx_ll_usb.c ****     return ret;
1088:Drivers/STM32F4xx_HAL_Driver/Src/stm32f4xx_ll_usb.c ****   }
1089:Drivers/STM32F4xx_HAL_Driver/Src/stm32f4xx_ll_usb.c **** 
1090:Drivers/STM32F4xx_HAL_Driver/Src/stm32f4xx_ll_usb.c ****   ret = USB_FlushTxFifo(USBx,  0x10U);
1091:Drivers/STM32F4xx_HAL_Driver/Src/stm32f4xx_ll_usb.c ****   if (ret != HAL_OK)
1092:Drivers/STM32F4xx_HAL_Driver/Src/stm32f4xx_ll_usb.c ****   {
1093:Drivers/STM32F4xx_HAL_Driver/Src/stm32f4xx_ll_usb.c ****     return ret;
1094:Drivers/STM32F4xx_HAL_Driver/Src/stm32f4xx_ll_usb.c ****   }
1095:Drivers/STM32F4xx_HAL_Driver/Src/stm32f4xx_ll_usb.c **** 
1096:Drivers/STM32F4xx_HAL_Driver/Src/stm32f4xx_ll_usb.c ****   return ret;
1097:Drivers/STM32F4xx_HAL_Driver/Src/stm32f4xx_ll_usb.c **** }
1098:Drivers/STM32F4xx_HAL_Driver/Src/stm32f4xx_ll_usb.c **** 
1099:Drivers/STM32F4xx_HAL_Driver/Src/stm32f4xx_ll_usb.c **** /**
1100:Drivers/STM32F4xx_HAL_Driver/Src/stm32f4xx_ll_usb.c ****   * @brief  USB_SetDevAddress : Stop the usb device mode
1101:Drivers/STM32F4xx_HAL_Driver/Src/stm32f4xx_ll_usb.c ****   * @param  USBx  Selected device
1102:Drivers/STM32F4xx_HAL_Driver/Src/stm32f4xx_ll_usb.c ****   * @param  address  new device address to be assigned
1103:Drivers/STM32F4xx_HAL_Driver/Src/stm32f4xx_ll_usb.c ****   *          This parameter can be a value from 0 to 255
1104:Drivers/STM32F4xx_HAL_Driver/Src/stm32f4xx_ll_usb.c ****   * @retval HAL status
1105:Drivers/STM32F4xx_HAL_Driver/Src/stm32f4xx_ll_usb.c ****   */
1106:Drivers/STM32F4xx_HAL_Driver/Src/stm32f4xx_ll_usb.c **** HAL_StatusTypeDef  USB_SetDevAddress(USB_OTG_GlobalTypeDef *USBx, uint8_t address)
1107:Drivers/STM32F4xx_HAL_Driver/Src/stm32f4xx_ll_usb.c **** {
1108:Drivers/STM32F4xx_HAL_Driver/Src/stm32f4xx_ll_usb.c ****   uint32_t USBx_BASE = (uint32_t)USBx;
1109:Drivers/STM32F4xx_HAL_Driver/Src/stm32f4xx_ll_usb.c **** 
1110:Drivers/STM32F4xx_HAL_Driver/Src/stm32f4xx_ll_usb.c ****   USBx_DEVICE->DCFG &= ~(USB_OTG_DCFG_DAD);
1111:Drivers/STM32F4xx_HAL_Driver/Src/stm32f4xx_ll_usb.c ****   USBx_DEVICE->DCFG |= ((uint32_t)address << 4) & USB_OTG_DCFG_DAD;
1112:Drivers/STM32F4xx_HAL_Driver/Src/stm32f4xx_ll_usb.c **** 
1113:Drivers/STM32F4xx_HAL_Driver/Src/stm32f4xx_ll_usb.c ****   return HAL_OK;
ARM GAS  C:\Users\7636~1\AppData\Local\Temp\ccnv92VB.s 			page 21


1114:Drivers/STM32F4xx_HAL_Driver/Src/stm32f4xx_ll_usb.c **** }
1115:Drivers/STM32F4xx_HAL_Driver/Src/stm32f4xx_ll_usb.c **** 
1116:Drivers/STM32F4xx_HAL_Driver/Src/stm32f4xx_ll_usb.c **** /**
1117:Drivers/STM32F4xx_HAL_Driver/Src/stm32f4xx_ll_usb.c ****   * @brief  USB_DevConnect : Connect the USB device by enabling Rpu
1118:Drivers/STM32F4xx_HAL_Driver/Src/stm32f4xx_ll_usb.c ****   * @param  USBx  Selected device
1119:Drivers/STM32F4xx_HAL_Driver/Src/stm32f4xx_ll_usb.c ****   * @retval HAL status
1120:Drivers/STM32F4xx_HAL_Driver/Src/stm32f4xx_ll_usb.c ****   */
1121:Drivers/STM32F4xx_HAL_Driver/Src/stm32f4xx_ll_usb.c **** HAL_StatusTypeDef  USB_DevConnect(USB_OTG_GlobalTypeDef *USBx)
1122:Drivers/STM32F4xx_HAL_Driver/Src/stm32f4xx_ll_usb.c **** {
1123:Drivers/STM32F4xx_HAL_Driver/Src/stm32f4xx_ll_usb.c ****   uint32_t USBx_BASE = (uint32_t)USBx;
1124:Drivers/STM32F4xx_HAL_Driver/Src/stm32f4xx_ll_usb.c **** 
1125:Drivers/STM32F4xx_HAL_Driver/Src/stm32f4xx_ll_usb.c ****   /* In case phy is stopped, ensure to ungate and restore the phy CLK */
1126:Drivers/STM32F4xx_HAL_Driver/Src/stm32f4xx_ll_usb.c ****   USBx_PCGCCTL &= ~(USB_OTG_PCGCCTL_STOPCLK | USB_OTG_PCGCCTL_GATECLK);
1127:Drivers/STM32F4xx_HAL_Driver/Src/stm32f4xx_ll_usb.c **** 
1128:Drivers/STM32F4xx_HAL_Driver/Src/stm32f4xx_ll_usb.c ****   USBx_DEVICE->DCTL &= ~USB_OTG_DCTL_SDIS;
1129:Drivers/STM32F4xx_HAL_Driver/Src/stm32f4xx_ll_usb.c **** 
1130:Drivers/STM32F4xx_HAL_Driver/Src/stm32f4xx_ll_usb.c ****   return HAL_OK;
1131:Drivers/STM32F4xx_HAL_Driver/Src/stm32f4xx_ll_usb.c **** }
1132:Drivers/STM32F4xx_HAL_Driver/Src/stm32f4xx_ll_usb.c **** 
1133:Drivers/STM32F4xx_HAL_Driver/Src/stm32f4xx_ll_usb.c **** /**
1134:Drivers/STM32F4xx_HAL_Driver/Src/stm32f4xx_ll_usb.c ****   * @brief  USB_DevDisconnect : Disconnect the USB device by disabling Rpu
1135:Drivers/STM32F4xx_HAL_Driver/Src/stm32f4xx_ll_usb.c ****   * @param  USBx  Selected device
1136:Drivers/STM32F4xx_HAL_Driver/Src/stm32f4xx_ll_usb.c ****   * @retval HAL status
1137:Drivers/STM32F4xx_HAL_Driver/Src/stm32f4xx_ll_usb.c ****   */
1138:Drivers/STM32F4xx_HAL_Driver/Src/stm32f4xx_ll_usb.c **** HAL_StatusTypeDef  USB_DevDisconnect(USB_OTG_GlobalTypeDef *USBx)
1139:Drivers/STM32F4xx_HAL_Driver/Src/stm32f4xx_ll_usb.c **** {
1140:Drivers/STM32F4xx_HAL_Driver/Src/stm32f4xx_ll_usb.c ****   uint32_t USBx_BASE = (uint32_t)USBx;
1141:Drivers/STM32F4xx_HAL_Driver/Src/stm32f4xx_ll_usb.c **** 
1142:Drivers/STM32F4xx_HAL_Driver/Src/stm32f4xx_ll_usb.c ****   /* In case phy is stopped, ensure to ungate and restore the phy CLK */
1143:Drivers/STM32F4xx_HAL_Driver/Src/stm32f4xx_ll_usb.c ****   USBx_PCGCCTL &= ~(USB_OTG_PCGCCTL_STOPCLK | USB_OTG_PCGCCTL_GATECLK);
1144:Drivers/STM32F4xx_HAL_Driver/Src/stm32f4xx_ll_usb.c **** 
1145:Drivers/STM32F4xx_HAL_Driver/Src/stm32f4xx_ll_usb.c ****   USBx_DEVICE->DCTL |= USB_OTG_DCTL_SDIS;
1146:Drivers/STM32F4xx_HAL_Driver/Src/stm32f4xx_ll_usb.c **** 
1147:Drivers/STM32F4xx_HAL_Driver/Src/stm32f4xx_ll_usb.c ****   return HAL_OK;
1148:Drivers/STM32F4xx_HAL_Driver/Src/stm32f4xx_ll_usb.c **** }
1149:Drivers/STM32F4xx_HAL_Driver/Src/stm32f4xx_ll_usb.c **** 
1150:Drivers/STM32F4xx_HAL_Driver/Src/stm32f4xx_ll_usb.c **** /**
1151:Drivers/STM32F4xx_HAL_Driver/Src/stm32f4xx_ll_usb.c ****   * @brief  USB_ReadInterrupts: return the global USB interrupt status
1152:Drivers/STM32F4xx_HAL_Driver/Src/stm32f4xx_ll_usb.c ****   * @param  USBx  Selected device
1153:Drivers/STM32F4xx_HAL_Driver/Src/stm32f4xx_ll_usb.c ****   * @retval HAL status
1154:Drivers/STM32F4xx_HAL_Driver/Src/stm32f4xx_ll_usb.c ****   */
1155:Drivers/STM32F4xx_HAL_Driver/Src/stm32f4xx_ll_usb.c **** uint32_t  USB_ReadInterrupts(USB_OTG_GlobalTypeDef *USBx)
1156:Drivers/STM32F4xx_HAL_Driver/Src/stm32f4xx_ll_usb.c **** {
1157:Drivers/STM32F4xx_HAL_Driver/Src/stm32f4xx_ll_usb.c ****   uint32_t tmpreg;
1158:Drivers/STM32F4xx_HAL_Driver/Src/stm32f4xx_ll_usb.c **** 
1159:Drivers/STM32F4xx_HAL_Driver/Src/stm32f4xx_ll_usb.c ****   tmpreg = USBx->GINTSTS;
1160:Drivers/STM32F4xx_HAL_Driver/Src/stm32f4xx_ll_usb.c ****   tmpreg &= USBx->GINTMSK;
1161:Drivers/STM32F4xx_HAL_Driver/Src/stm32f4xx_ll_usb.c **** 
1162:Drivers/STM32F4xx_HAL_Driver/Src/stm32f4xx_ll_usb.c ****   return tmpreg;
1163:Drivers/STM32F4xx_HAL_Driver/Src/stm32f4xx_ll_usb.c **** }
1164:Drivers/STM32F4xx_HAL_Driver/Src/stm32f4xx_ll_usb.c **** 
1165:Drivers/STM32F4xx_HAL_Driver/Src/stm32f4xx_ll_usb.c **** /**
1166:Drivers/STM32F4xx_HAL_Driver/Src/stm32f4xx_ll_usb.c ****   * @brief  USB_ReadDevAllOutEpInterrupt: return the USB device OUT endpoints interrupt status
1167:Drivers/STM32F4xx_HAL_Driver/Src/stm32f4xx_ll_usb.c ****   * @param  USBx  Selected device
1168:Drivers/STM32F4xx_HAL_Driver/Src/stm32f4xx_ll_usb.c ****   * @retval HAL status
1169:Drivers/STM32F4xx_HAL_Driver/Src/stm32f4xx_ll_usb.c ****   */
1170:Drivers/STM32F4xx_HAL_Driver/Src/stm32f4xx_ll_usb.c **** uint32_t USB_ReadDevAllOutEpInterrupt(USB_OTG_GlobalTypeDef *USBx)
ARM GAS  C:\Users\7636~1\AppData\Local\Temp\ccnv92VB.s 			page 22


1171:Drivers/STM32F4xx_HAL_Driver/Src/stm32f4xx_ll_usb.c **** {
1172:Drivers/STM32F4xx_HAL_Driver/Src/stm32f4xx_ll_usb.c ****   uint32_t USBx_BASE = (uint32_t)USBx;
1173:Drivers/STM32F4xx_HAL_Driver/Src/stm32f4xx_ll_usb.c ****   uint32_t tmpreg;
1174:Drivers/STM32F4xx_HAL_Driver/Src/stm32f4xx_ll_usb.c **** 
1175:Drivers/STM32F4xx_HAL_Driver/Src/stm32f4xx_ll_usb.c ****   tmpreg  = USBx_DEVICE->DAINT;
1176:Drivers/STM32F4xx_HAL_Driver/Src/stm32f4xx_ll_usb.c ****   tmpreg &= USBx_DEVICE->DAINTMSK;
1177:Drivers/STM32F4xx_HAL_Driver/Src/stm32f4xx_ll_usb.c **** 
1178:Drivers/STM32F4xx_HAL_Driver/Src/stm32f4xx_ll_usb.c ****   return ((tmpreg & 0xffff0000U) >> 16);
1179:Drivers/STM32F4xx_HAL_Driver/Src/stm32f4xx_ll_usb.c **** }
1180:Drivers/STM32F4xx_HAL_Driver/Src/stm32f4xx_ll_usb.c **** 
1181:Drivers/STM32F4xx_HAL_Driver/Src/stm32f4xx_ll_usb.c **** /**
1182:Drivers/STM32F4xx_HAL_Driver/Src/stm32f4xx_ll_usb.c ****   * @brief  USB_ReadDevAllInEpInterrupt: return the USB device IN endpoints interrupt status
1183:Drivers/STM32F4xx_HAL_Driver/Src/stm32f4xx_ll_usb.c ****   * @param  USBx  Selected device
1184:Drivers/STM32F4xx_HAL_Driver/Src/stm32f4xx_ll_usb.c ****   * @retval HAL status
1185:Drivers/STM32F4xx_HAL_Driver/Src/stm32f4xx_ll_usb.c ****   */
1186:Drivers/STM32F4xx_HAL_Driver/Src/stm32f4xx_ll_usb.c **** uint32_t USB_ReadDevAllInEpInterrupt(USB_OTG_GlobalTypeDef *USBx)
1187:Drivers/STM32F4xx_HAL_Driver/Src/stm32f4xx_ll_usb.c **** {
1188:Drivers/STM32F4xx_HAL_Driver/Src/stm32f4xx_ll_usb.c ****   uint32_t USBx_BASE = (uint32_t)USBx;
1189:Drivers/STM32F4xx_HAL_Driver/Src/stm32f4xx_ll_usb.c ****   uint32_t tmpreg;
1190:Drivers/STM32F4xx_HAL_Driver/Src/stm32f4xx_ll_usb.c **** 
1191:Drivers/STM32F4xx_HAL_Driver/Src/stm32f4xx_ll_usb.c ****   tmpreg  = USBx_DEVICE->DAINT;
1192:Drivers/STM32F4xx_HAL_Driver/Src/stm32f4xx_ll_usb.c ****   tmpreg &= USBx_DEVICE->DAINTMSK;
1193:Drivers/STM32F4xx_HAL_Driver/Src/stm32f4xx_ll_usb.c **** 
1194:Drivers/STM32F4xx_HAL_Driver/Src/stm32f4xx_ll_usb.c ****   return ((tmpreg & 0xFFFFU));
1195:Drivers/STM32F4xx_HAL_Driver/Src/stm32f4xx_ll_usb.c **** }
1196:Drivers/STM32F4xx_HAL_Driver/Src/stm32f4xx_ll_usb.c **** 
1197:Drivers/STM32F4xx_HAL_Driver/Src/stm32f4xx_ll_usb.c **** /**
1198:Drivers/STM32F4xx_HAL_Driver/Src/stm32f4xx_ll_usb.c ****   * @brief  Returns Device OUT EP Interrupt register
1199:Drivers/STM32F4xx_HAL_Driver/Src/stm32f4xx_ll_usb.c ****   * @param  USBx  Selected device
1200:Drivers/STM32F4xx_HAL_Driver/Src/stm32f4xx_ll_usb.c ****   * @param  epnum  endpoint number
1201:Drivers/STM32F4xx_HAL_Driver/Src/stm32f4xx_ll_usb.c ****   *          This parameter can be a value from 0 to 15
1202:Drivers/STM32F4xx_HAL_Driver/Src/stm32f4xx_ll_usb.c ****   * @retval Device OUT EP Interrupt register
1203:Drivers/STM32F4xx_HAL_Driver/Src/stm32f4xx_ll_usb.c ****   */
1204:Drivers/STM32F4xx_HAL_Driver/Src/stm32f4xx_ll_usb.c **** uint32_t USB_ReadDevOutEPInterrupt(USB_OTG_GlobalTypeDef *USBx, uint8_t epnum)
1205:Drivers/STM32F4xx_HAL_Driver/Src/stm32f4xx_ll_usb.c **** {
1206:Drivers/STM32F4xx_HAL_Driver/Src/stm32f4xx_ll_usb.c ****   uint32_t USBx_BASE = (uint32_t)USBx;
1207:Drivers/STM32F4xx_HAL_Driver/Src/stm32f4xx_ll_usb.c ****   uint32_t tmpreg;
1208:Drivers/STM32F4xx_HAL_Driver/Src/stm32f4xx_ll_usb.c **** 
1209:Drivers/STM32F4xx_HAL_Driver/Src/stm32f4xx_ll_usb.c ****   tmpreg  = USBx_OUTEP((uint32_t)epnum)->DOEPINT;
1210:Drivers/STM32F4xx_HAL_Driver/Src/stm32f4xx_ll_usb.c ****   tmpreg &= USBx_DEVICE->DOEPMSK;
1211:Drivers/STM32F4xx_HAL_Driver/Src/stm32f4xx_ll_usb.c **** 
1212:Drivers/STM32F4xx_HAL_Driver/Src/stm32f4xx_ll_usb.c ****   return tmpreg;
1213:Drivers/STM32F4xx_HAL_Driver/Src/stm32f4xx_ll_usb.c **** }
1214:Drivers/STM32F4xx_HAL_Driver/Src/stm32f4xx_ll_usb.c **** 
1215:Drivers/STM32F4xx_HAL_Driver/Src/stm32f4xx_ll_usb.c **** /**
1216:Drivers/STM32F4xx_HAL_Driver/Src/stm32f4xx_ll_usb.c ****   * @brief  Returns Device IN EP Interrupt register
1217:Drivers/STM32F4xx_HAL_Driver/Src/stm32f4xx_ll_usb.c ****   * @param  USBx  Selected device
1218:Drivers/STM32F4xx_HAL_Driver/Src/stm32f4xx_ll_usb.c ****   * @param  epnum  endpoint number
1219:Drivers/STM32F4xx_HAL_Driver/Src/stm32f4xx_ll_usb.c ****   *          This parameter can be a value from 0 to 15
1220:Drivers/STM32F4xx_HAL_Driver/Src/stm32f4xx_ll_usb.c ****   * @retval Device IN EP Interrupt register
1221:Drivers/STM32F4xx_HAL_Driver/Src/stm32f4xx_ll_usb.c ****   */
1222:Drivers/STM32F4xx_HAL_Driver/Src/stm32f4xx_ll_usb.c **** uint32_t USB_ReadDevInEPInterrupt(USB_OTG_GlobalTypeDef *USBx, uint8_t epnum)
1223:Drivers/STM32F4xx_HAL_Driver/Src/stm32f4xx_ll_usb.c **** {
1224:Drivers/STM32F4xx_HAL_Driver/Src/stm32f4xx_ll_usb.c ****   uint32_t USBx_BASE = (uint32_t)USBx;
1225:Drivers/STM32F4xx_HAL_Driver/Src/stm32f4xx_ll_usb.c ****   uint32_t tmpreg, msk, emp;
1226:Drivers/STM32F4xx_HAL_Driver/Src/stm32f4xx_ll_usb.c **** 
1227:Drivers/STM32F4xx_HAL_Driver/Src/stm32f4xx_ll_usb.c ****   msk = USBx_DEVICE->DIEPMSK;
ARM GAS  C:\Users\7636~1\AppData\Local\Temp\ccnv92VB.s 			page 23


1228:Drivers/STM32F4xx_HAL_Driver/Src/stm32f4xx_ll_usb.c ****   emp = USBx_DEVICE->DIEPEMPMSK;
1229:Drivers/STM32F4xx_HAL_Driver/Src/stm32f4xx_ll_usb.c ****   msk |= ((emp >> (epnum & EP_ADDR_MSK)) & 0x1U) << 7;
1230:Drivers/STM32F4xx_HAL_Driver/Src/stm32f4xx_ll_usb.c ****   tmpreg = USBx_INEP((uint32_t)epnum)->DIEPINT & msk;
1231:Drivers/STM32F4xx_HAL_Driver/Src/stm32f4xx_ll_usb.c **** 
1232:Drivers/STM32F4xx_HAL_Driver/Src/stm32f4xx_ll_usb.c ****   return tmpreg;
1233:Drivers/STM32F4xx_HAL_Driver/Src/stm32f4xx_ll_usb.c **** }
1234:Drivers/STM32F4xx_HAL_Driver/Src/stm32f4xx_ll_usb.c **** 
1235:Drivers/STM32F4xx_HAL_Driver/Src/stm32f4xx_ll_usb.c **** /**
1236:Drivers/STM32F4xx_HAL_Driver/Src/stm32f4xx_ll_usb.c ****   * @brief  USB_ClearInterrupts: clear a USB interrupt
1237:Drivers/STM32F4xx_HAL_Driver/Src/stm32f4xx_ll_usb.c ****   * @param  USBx  Selected device
1238:Drivers/STM32F4xx_HAL_Driver/Src/stm32f4xx_ll_usb.c ****   * @param  interrupt  flag
1239:Drivers/STM32F4xx_HAL_Driver/Src/stm32f4xx_ll_usb.c ****   * @retval None
1240:Drivers/STM32F4xx_HAL_Driver/Src/stm32f4xx_ll_usb.c ****   */
1241:Drivers/STM32F4xx_HAL_Driver/Src/stm32f4xx_ll_usb.c **** void  USB_ClearInterrupts(USB_OTG_GlobalTypeDef *USBx, uint32_t interrupt)
1242:Drivers/STM32F4xx_HAL_Driver/Src/stm32f4xx_ll_usb.c **** {
1243:Drivers/STM32F4xx_HAL_Driver/Src/stm32f4xx_ll_usb.c ****   USBx->GINTSTS |= interrupt;
1244:Drivers/STM32F4xx_HAL_Driver/Src/stm32f4xx_ll_usb.c **** }
1245:Drivers/STM32F4xx_HAL_Driver/Src/stm32f4xx_ll_usb.c **** 
1246:Drivers/STM32F4xx_HAL_Driver/Src/stm32f4xx_ll_usb.c **** /**
1247:Drivers/STM32F4xx_HAL_Driver/Src/stm32f4xx_ll_usb.c ****   * @brief  Returns USB core mode
1248:Drivers/STM32F4xx_HAL_Driver/Src/stm32f4xx_ll_usb.c ****   * @param  USBx  Selected device
1249:Drivers/STM32F4xx_HAL_Driver/Src/stm32f4xx_ll_usb.c ****   * @retval return core mode : Host or Device
1250:Drivers/STM32F4xx_HAL_Driver/Src/stm32f4xx_ll_usb.c ****   *          This parameter can be one of these values:
1251:Drivers/STM32F4xx_HAL_Driver/Src/stm32f4xx_ll_usb.c ****   *           0 : Host
1252:Drivers/STM32F4xx_HAL_Driver/Src/stm32f4xx_ll_usb.c ****   *           1 : Device
1253:Drivers/STM32F4xx_HAL_Driver/Src/stm32f4xx_ll_usb.c ****   */
1254:Drivers/STM32F4xx_HAL_Driver/Src/stm32f4xx_ll_usb.c **** uint32_t USB_GetMode(USB_OTG_GlobalTypeDef *USBx)
1255:Drivers/STM32F4xx_HAL_Driver/Src/stm32f4xx_ll_usb.c **** {
1256:Drivers/STM32F4xx_HAL_Driver/Src/stm32f4xx_ll_usb.c ****   return ((USBx->GINTSTS) & 0x1U);
1257:Drivers/STM32F4xx_HAL_Driver/Src/stm32f4xx_ll_usb.c **** }
1258:Drivers/STM32F4xx_HAL_Driver/Src/stm32f4xx_ll_usb.c **** 
1259:Drivers/STM32F4xx_HAL_Driver/Src/stm32f4xx_ll_usb.c **** /**
1260:Drivers/STM32F4xx_HAL_Driver/Src/stm32f4xx_ll_usb.c ****   * @brief  Activate EP0 for Setup transactions
1261:Drivers/STM32F4xx_HAL_Driver/Src/stm32f4xx_ll_usb.c ****   * @param  USBx  Selected device
1262:Drivers/STM32F4xx_HAL_Driver/Src/stm32f4xx_ll_usb.c ****   * @retval HAL status
1263:Drivers/STM32F4xx_HAL_Driver/Src/stm32f4xx_ll_usb.c ****   */
1264:Drivers/STM32F4xx_HAL_Driver/Src/stm32f4xx_ll_usb.c **** HAL_StatusTypeDef  USB_ActivateSetup(USB_OTG_GlobalTypeDef *USBx)
1265:Drivers/STM32F4xx_HAL_Driver/Src/stm32f4xx_ll_usb.c **** {
1266:Drivers/STM32F4xx_HAL_Driver/Src/stm32f4xx_ll_usb.c ****   uint32_t USBx_BASE = (uint32_t)USBx;
1267:Drivers/STM32F4xx_HAL_Driver/Src/stm32f4xx_ll_usb.c **** 
1268:Drivers/STM32F4xx_HAL_Driver/Src/stm32f4xx_ll_usb.c ****   /* Set the MPS of the IN EP0 to 64 bytes */
1269:Drivers/STM32F4xx_HAL_Driver/Src/stm32f4xx_ll_usb.c ****   USBx_INEP(0U)->DIEPCTL &= ~USB_OTG_DIEPCTL_MPSIZ;
1270:Drivers/STM32F4xx_HAL_Driver/Src/stm32f4xx_ll_usb.c **** 
1271:Drivers/STM32F4xx_HAL_Driver/Src/stm32f4xx_ll_usb.c ****   USBx_DEVICE->DCTL |= USB_OTG_DCTL_CGINAK;
1272:Drivers/STM32F4xx_HAL_Driver/Src/stm32f4xx_ll_usb.c **** 
1273:Drivers/STM32F4xx_HAL_Driver/Src/stm32f4xx_ll_usb.c ****   return HAL_OK;
1274:Drivers/STM32F4xx_HAL_Driver/Src/stm32f4xx_ll_usb.c **** }
1275:Drivers/STM32F4xx_HAL_Driver/Src/stm32f4xx_ll_usb.c **** 
1276:Drivers/STM32F4xx_HAL_Driver/Src/stm32f4xx_ll_usb.c **** /**
1277:Drivers/STM32F4xx_HAL_Driver/Src/stm32f4xx_ll_usb.c ****   * @brief  Prepare the EP0 to start the first control setup
1278:Drivers/STM32F4xx_HAL_Driver/Src/stm32f4xx_ll_usb.c ****   * @param  USBx  Selected device
1279:Drivers/STM32F4xx_HAL_Driver/Src/stm32f4xx_ll_usb.c ****   * @param  dma USB dma enabled or disabled
1280:Drivers/STM32F4xx_HAL_Driver/Src/stm32f4xx_ll_usb.c ****   *          This parameter can be one of these values:
1281:Drivers/STM32F4xx_HAL_Driver/Src/stm32f4xx_ll_usb.c ****   *           0 : DMA feature not used
1282:Drivers/STM32F4xx_HAL_Driver/Src/stm32f4xx_ll_usb.c ****   *           1 : DMA feature used
1283:Drivers/STM32F4xx_HAL_Driver/Src/stm32f4xx_ll_usb.c ****   * @param  psetup  pointer to setup packet
1284:Drivers/STM32F4xx_HAL_Driver/Src/stm32f4xx_ll_usb.c ****   * @retval HAL status
ARM GAS  C:\Users\7636~1\AppData\Local\Temp\ccnv92VB.s 			page 24


1285:Drivers/STM32F4xx_HAL_Driver/Src/stm32f4xx_ll_usb.c ****   */
1286:Drivers/STM32F4xx_HAL_Driver/Src/stm32f4xx_ll_usb.c **** HAL_StatusTypeDef USB_EP0_OutStart(USB_OTG_GlobalTypeDef *USBx, uint8_t dma, uint8_t *psetup)
1287:Drivers/STM32F4xx_HAL_Driver/Src/stm32f4xx_ll_usb.c **** {
1288:Drivers/STM32F4xx_HAL_Driver/Src/stm32f4xx_ll_usb.c ****   uint32_t USBx_BASE = (uint32_t)USBx;
1289:Drivers/STM32F4xx_HAL_Driver/Src/stm32f4xx_ll_usb.c ****   uint32_t gSNPSiD = *(__IO uint32_t *)(&USBx->CID + 0x1U);
1290:Drivers/STM32F4xx_HAL_Driver/Src/stm32f4xx_ll_usb.c **** 
1291:Drivers/STM32F4xx_HAL_Driver/Src/stm32f4xx_ll_usb.c ****   if (gSNPSiD > USB_OTG_CORE_ID_300A)
1292:Drivers/STM32F4xx_HAL_Driver/Src/stm32f4xx_ll_usb.c ****   {
1293:Drivers/STM32F4xx_HAL_Driver/Src/stm32f4xx_ll_usb.c ****     if ((USBx_OUTEP(0U)->DOEPCTL & USB_OTG_DOEPCTL_EPENA) == USB_OTG_DOEPCTL_EPENA)
1294:Drivers/STM32F4xx_HAL_Driver/Src/stm32f4xx_ll_usb.c ****     {
1295:Drivers/STM32F4xx_HAL_Driver/Src/stm32f4xx_ll_usb.c ****       return HAL_OK;
1296:Drivers/STM32F4xx_HAL_Driver/Src/stm32f4xx_ll_usb.c ****     }
1297:Drivers/STM32F4xx_HAL_Driver/Src/stm32f4xx_ll_usb.c ****   }
1298:Drivers/STM32F4xx_HAL_Driver/Src/stm32f4xx_ll_usb.c **** 
1299:Drivers/STM32F4xx_HAL_Driver/Src/stm32f4xx_ll_usb.c ****   USBx_OUTEP(0U)->DOEPTSIZ = 0U;
1300:Drivers/STM32F4xx_HAL_Driver/Src/stm32f4xx_ll_usb.c ****   USBx_OUTEP(0U)->DOEPTSIZ |= (USB_OTG_DOEPTSIZ_PKTCNT & (1U << 19));
1301:Drivers/STM32F4xx_HAL_Driver/Src/stm32f4xx_ll_usb.c ****   USBx_OUTEP(0U)->DOEPTSIZ |= (3U * 8U);
1302:Drivers/STM32F4xx_HAL_Driver/Src/stm32f4xx_ll_usb.c ****   USBx_OUTEP(0U)->DOEPTSIZ |=  USB_OTG_DOEPTSIZ_STUPCNT;
1303:Drivers/STM32F4xx_HAL_Driver/Src/stm32f4xx_ll_usb.c **** 
1304:Drivers/STM32F4xx_HAL_Driver/Src/stm32f4xx_ll_usb.c ****   if (dma == 1U)
1305:Drivers/STM32F4xx_HAL_Driver/Src/stm32f4xx_ll_usb.c ****   {
1306:Drivers/STM32F4xx_HAL_Driver/Src/stm32f4xx_ll_usb.c ****     USBx_OUTEP(0U)->DOEPDMA = (uint32_t)psetup;
1307:Drivers/STM32F4xx_HAL_Driver/Src/stm32f4xx_ll_usb.c ****     /* EP enable */
1308:Drivers/STM32F4xx_HAL_Driver/Src/stm32f4xx_ll_usb.c ****     USBx_OUTEP(0U)->DOEPCTL |= USB_OTG_DOEPCTL_EPENA | USB_OTG_DOEPCTL_USBAEP;
1309:Drivers/STM32F4xx_HAL_Driver/Src/stm32f4xx_ll_usb.c ****   }
1310:Drivers/STM32F4xx_HAL_Driver/Src/stm32f4xx_ll_usb.c **** 
1311:Drivers/STM32F4xx_HAL_Driver/Src/stm32f4xx_ll_usb.c ****   return HAL_OK;
1312:Drivers/STM32F4xx_HAL_Driver/Src/stm32f4xx_ll_usb.c **** }
1313:Drivers/STM32F4xx_HAL_Driver/Src/stm32f4xx_ll_usb.c **** 
1314:Drivers/STM32F4xx_HAL_Driver/Src/stm32f4xx_ll_usb.c **** /**
1315:Drivers/STM32F4xx_HAL_Driver/Src/stm32f4xx_ll_usb.c ****   * @brief  Reset the USB Core (needed after USB clock settings change)
1316:Drivers/STM32F4xx_HAL_Driver/Src/stm32f4xx_ll_usb.c ****   * @param  USBx  Selected device
1317:Drivers/STM32F4xx_HAL_Driver/Src/stm32f4xx_ll_usb.c ****   * @retval HAL status
1318:Drivers/STM32F4xx_HAL_Driver/Src/stm32f4xx_ll_usb.c ****   */
1319:Drivers/STM32F4xx_HAL_Driver/Src/stm32f4xx_ll_usb.c **** static HAL_StatusTypeDef USB_CoreReset(USB_OTG_GlobalTypeDef *USBx)
1320:Drivers/STM32F4xx_HAL_Driver/Src/stm32f4xx_ll_usb.c **** {
  29              		.loc 1 1320 1 view -0
  30              		.cfi_startproc
  31              		@ args = 0, pretend = 0, frame = 0
  32              		@ frame_needed = 0, uses_anonymous_args = 0
  33              		@ link register save eliminated.
1321:Drivers/STM32F4xx_HAL_Driver/Src/stm32f4xx_ll_usb.c ****   uint32_t count = 0U;
  34              		.loc 1 1321 3 view .LVU1
  35              		.loc 1 1321 12 is_stmt 0 view .LVU2
  36 0000 0023     		movs	r3, #0
  37              	.LVL1:
  38              	.L3:
1322:Drivers/STM32F4xx_HAL_Driver/Src/stm32f4xx_ll_usb.c **** 
1323:Drivers/STM32F4xx_HAL_Driver/Src/stm32f4xx_ll_usb.c ****   /* Wait for AHB master IDLE state. */
1324:Drivers/STM32F4xx_HAL_Driver/Src/stm32f4xx_ll_usb.c ****   do
  39              		.loc 1 1324 3 is_stmt 1 view .LVU3
1325:Drivers/STM32F4xx_HAL_Driver/Src/stm32f4xx_ll_usb.c ****   {
1326:Drivers/STM32F4xx_HAL_Driver/Src/stm32f4xx_ll_usb.c ****     if (++count > 200000U)
  40              		.loc 1 1326 5 view .LVU4
  41              		.loc 1 1326 8 is_stmt 0 view .LVU5
  42 0002 0133     		adds	r3, r3, #1
  43              	.LVL2:
ARM GAS  C:\Users\7636~1\AppData\Local\Temp\ccnv92VB.s 			page 25


  44              		.loc 1 1326 8 view .LVU6
  45 0004 0C4A     		ldr	r2, .L7
  46 0006 9342     		cmp	r3, r2
  47 0008 11D8     		bhi	.L5
1327:Drivers/STM32F4xx_HAL_Driver/Src/stm32f4xx_ll_usb.c ****     {
1328:Drivers/STM32F4xx_HAL_Driver/Src/stm32f4xx_ll_usb.c ****       return HAL_TIMEOUT;
1329:Drivers/STM32F4xx_HAL_Driver/Src/stm32f4xx_ll_usb.c ****     }
1330:Drivers/STM32F4xx_HAL_Driver/Src/stm32f4xx_ll_usb.c ****   } while ((USBx->GRSTCTL & USB_OTG_GRSTCTL_AHBIDL) == 0U);
  48              		.loc 1 1330 11 is_stmt 1 view .LVU7
  49              		.loc 1 1330 17 is_stmt 0 view .LVU8
  50 000a 0269     		ldr	r2, [r0, #16]
  51              		.loc 1 1330 3 view .LVU9
  52 000c 002A     		cmp	r2, #0
  53 000e F8DA     		bge	.L3
1331:Drivers/STM32F4xx_HAL_Driver/Src/stm32f4xx_ll_usb.c **** 
1332:Drivers/STM32F4xx_HAL_Driver/Src/stm32f4xx_ll_usb.c ****   /* Core Soft Reset */
1333:Drivers/STM32F4xx_HAL_Driver/Src/stm32f4xx_ll_usb.c ****   count = 0U;
  54              		.loc 1 1333 3 is_stmt 1 view .LVU10
  55              	.LVL3:
1334:Drivers/STM32F4xx_HAL_Driver/Src/stm32f4xx_ll_usb.c ****   USBx->GRSTCTL |= USB_OTG_GRSTCTL_CSRST;
  56              		.loc 1 1334 3 view .LVU11
  57              		.loc 1 1334 17 is_stmt 0 view .LVU12
  58 0010 0369     		ldr	r3, [r0, #16]
  59 0012 43F00103 		orr	r3, r3, #1
  60 0016 0361     		str	r3, [r0, #16]
1333:Drivers/STM32F4xx_HAL_Driver/Src/stm32f4xx_ll_usb.c ****   USBx->GRSTCTL |= USB_OTG_GRSTCTL_CSRST;
  61              		.loc 1 1333 9 view .LVU13
  62 0018 0023     		movs	r3, #0
  63              	.LVL4:
  64              	.L4:
1335:Drivers/STM32F4xx_HAL_Driver/Src/stm32f4xx_ll_usb.c **** 
1336:Drivers/STM32F4xx_HAL_Driver/Src/stm32f4xx_ll_usb.c ****   do
  65              		.loc 1 1336 3 is_stmt 1 view .LVU14
1337:Drivers/STM32F4xx_HAL_Driver/Src/stm32f4xx_ll_usb.c ****   {
1338:Drivers/STM32F4xx_HAL_Driver/Src/stm32f4xx_ll_usb.c ****     if (++count > 200000U)
  66              		.loc 1 1338 5 view .LVU15
  67              		.loc 1 1338 8 is_stmt 0 view .LVU16
  68 001a 0133     		adds	r3, r3, #1
  69              	.LVL5:
  70              		.loc 1 1338 8 view .LVU17
  71 001c 064A     		ldr	r2, .L7
  72 001e 9342     		cmp	r3, r2
  73 0020 07D8     		bhi	.L6
1339:Drivers/STM32F4xx_HAL_Driver/Src/stm32f4xx_ll_usb.c ****     {
1340:Drivers/STM32F4xx_HAL_Driver/Src/stm32f4xx_ll_usb.c ****       return HAL_TIMEOUT;
1341:Drivers/STM32F4xx_HAL_Driver/Src/stm32f4xx_ll_usb.c ****     }
1342:Drivers/STM32F4xx_HAL_Driver/Src/stm32f4xx_ll_usb.c ****   } while ((USBx->GRSTCTL & USB_OTG_GRSTCTL_CSRST) == USB_OTG_GRSTCTL_CSRST);
  74              		.loc 1 1342 11 is_stmt 1 view .LVU18
  75              		.loc 1 1342 17 is_stmt 0 view .LVU19
  76 0022 0269     		ldr	r2, [r0, #16]
  77              		.loc 1 1342 3 view .LVU20
  78 0024 12F0010F 		tst	r2, #1
  79 0028 F7D1     		bne	.L4
1343:Drivers/STM32F4xx_HAL_Driver/Src/stm32f4xx_ll_usb.c **** 
1344:Drivers/STM32F4xx_HAL_Driver/Src/stm32f4xx_ll_usb.c ****   return HAL_OK;
  80              		.loc 1 1344 10 view .LVU21
  81 002a 0020     		movs	r0, #0
ARM GAS  C:\Users\7636~1\AppData\Local\Temp\ccnv92VB.s 			page 26


  82              	.LVL6:
  83              		.loc 1 1344 10 view .LVU22
  84 002c 7047     		bx	lr
  85              	.LVL7:
  86              	.L5:
1328:Drivers/STM32F4xx_HAL_Driver/Src/stm32f4xx_ll_usb.c ****     }
  87              		.loc 1 1328 14 view .LVU23
  88 002e 0320     		movs	r0, #3
  89              	.LVL8:
1328:Drivers/STM32F4xx_HAL_Driver/Src/stm32f4xx_ll_usb.c ****     }
  90              		.loc 1 1328 14 view .LVU24
  91 0030 7047     		bx	lr
  92              	.LVL9:
  93              	.L6:
1340:Drivers/STM32F4xx_HAL_Driver/Src/stm32f4xx_ll_usb.c ****     }
  94              		.loc 1 1340 14 view .LVU25
  95 0032 0320     		movs	r0, #3
  96              	.LVL10:
1345:Drivers/STM32F4xx_HAL_Driver/Src/stm32f4xx_ll_usb.c **** }
  97              		.loc 1 1345 1 view .LVU26
  98 0034 7047     		bx	lr
  99              	.L8:
 100 0036 00BF     		.align	2
 101              	.L7:
 102 0038 400D0300 		.word	200000
 103              		.cfi_endproc
 104              	.LFE249:
 106              		.section	.text.USB_CoreInit,"ax",%progbits
 107              		.align	1
 108              		.global	USB_CoreInit
 109              		.syntax unified
 110              		.thumb
 111              		.thumb_func
 113              	USB_CoreInit:
 114              	.LVL11:
 115              	.LFB216:
  83:Drivers/STM32F4xx_HAL_Driver/Src/stm32f4xx_ll_usb.c ****   HAL_StatusTypeDef ret;
 116              		.loc 1 83 1 is_stmt 1 view -0
 117              		.cfi_startproc
 118              		@ args = 56, pretend = 16, frame = 0
 119              		@ frame_needed = 0, uses_anonymous_args = 0
  83:Drivers/STM32F4xx_HAL_Driver/Src/stm32f4xx_ll_usb.c ****   HAL_StatusTypeDef ret;
 120              		.loc 1 83 1 is_stmt 0 view .LVU28
 121 0000 84B0     		sub	sp, sp, #16
 122              	.LCFI0:
 123              		.cfi_def_cfa_offset 16
 124 0002 10B5     		push	{r4, lr}
 125              	.LCFI1:
 126              		.cfi_def_cfa_offset 24
 127              		.cfi_offset 4, -24
 128              		.cfi_offset 14, -20
 129 0004 0446     		mov	r4, r0
 130 0006 03A8     		add	r0, sp, #12
 131 0008 80E80E00 		stm	r0, {r1, r2, r3}
  84:Drivers/STM32F4xx_HAL_Driver/Src/stm32f4xx_ll_usb.c **** 
 132              		.loc 1 84 3 is_stmt 1 view .LVU29
  86:Drivers/STM32F4xx_HAL_Driver/Src/stm32f4xx_ll_usb.c ****   {
ARM GAS  C:\Users\7636~1\AppData\Local\Temp\ccnv92VB.s 			page 27


 133              		.loc 1 86 3 view .LVU30
  86:Drivers/STM32F4xx_HAL_Driver/Src/stm32f4xx_ll_usb.c ****   {
 134              		.loc 1 86 10 is_stmt 0 view .LVU31
 135 000c 089B     		ldr	r3, [sp, #32]
  86:Drivers/STM32F4xx_HAL_Driver/Src/stm32f4xx_ll_usb.c ****   {
 136              		.loc 1 86 6 view .LVU32
 137 000e 012B     		cmp	r3, #1
 138 0010 1FD1     		bne	.L10
  88:Drivers/STM32F4xx_HAL_Driver/Src/stm32f4xx_ll_usb.c **** 
 139              		.loc 1 88 5 is_stmt 1 view .LVU33
  88:Drivers/STM32F4xx_HAL_Driver/Src/stm32f4xx_ll_usb.c **** 
 140              		.loc 1 88 17 is_stmt 0 view .LVU34
 141 0012 A36B     		ldr	r3, [r4, #56]
 142 0014 23F48033 		bic	r3, r3, #65536
 143 0018 A363     		str	r3, [r4, #56]
  91:Drivers/STM32F4xx_HAL_Driver/Src/stm32f4xx_ll_usb.c **** 
 144              		.loc 1 91 5 is_stmt 1 view .LVU35
  91:Drivers/STM32F4xx_HAL_Driver/Src/stm32f4xx_ll_usb.c **** 
 145              		.loc 1 91 19 is_stmt 0 view .LVU36
 146 001a E368     		ldr	r3, [r4, #12]
 147 001c 23F48403 		bic	r3, r3, #4325376
 148 0020 23F04003 		bic	r3, r3, #64
 149 0024 E360     		str	r3, [r4, #12]
  94:Drivers/STM32F4xx_HAL_Driver/Src/stm32f4xx_ll_usb.c ****     if (cfg.use_external_vbus == 1U)
 150              		.loc 1 94 5 is_stmt 1 view .LVU37
  94:Drivers/STM32F4xx_HAL_Driver/Src/stm32f4xx_ll_usb.c ****     if (cfg.use_external_vbus == 1U)
 151              		.loc 1 94 19 is_stmt 0 view .LVU38
 152 0026 E368     		ldr	r3, [r4, #12]
 153 0028 23F44013 		bic	r3, r3, #3145728
 154 002c E360     		str	r3, [r4, #12]
  95:Drivers/STM32F4xx_HAL_Driver/Src/stm32f4xx_ll_usb.c ****     {
 155              		.loc 1 95 5 is_stmt 1 view .LVU39
  95:Drivers/STM32F4xx_HAL_Driver/Src/stm32f4xx_ll_usb.c ****     {
 156              		.loc 1 95 12 is_stmt 0 view .LVU40
 157 002e 0F9B     		ldr	r3, [sp, #60]
  95:Drivers/STM32F4xx_HAL_Driver/Src/stm32f4xx_ll_usb.c ****     {
 158              		.loc 1 95 8 view .LVU41
 159 0030 012B     		cmp	r3, #1
 160 0032 09D0     		beq	.L16
 161              	.L11:
 100:Drivers/STM32F4xx_HAL_Driver/Src/stm32f4xx_ll_usb.c ****   }
 162              		.loc 1 100 5 is_stmt 1 view .LVU42
 100:Drivers/STM32F4xx_HAL_Driver/Src/stm32f4xx_ll_usb.c ****   }
 163              		.loc 1 100 11 is_stmt 0 view .LVU43
 164 0034 2046     		mov	r0, r4
 165              	.LVL12:
 100:Drivers/STM32F4xx_HAL_Driver/Src/stm32f4xx_ll_usb.c ****   }
 166              		.loc 1 100 11 view .LVU44
 167 0036 FFF7FEFF 		bl	USB_CoreReset
 168              	.LVL13:
 169              	.L12:
 122:Drivers/STM32F4xx_HAL_Driver/Src/stm32f4xx_ll_usb.c ****   {
 170              		.loc 1 122 3 is_stmt 1 view .LVU45
 122:Drivers/STM32F4xx_HAL_Driver/Src/stm32f4xx_ll_usb.c ****   {
 171              		.loc 1 122 10 is_stmt 0 view .LVU46
 172 003a 069B     		ldr	r3, [sp, #24]
 122:Drivers/STM32F4xx_HAL_Driver/Src/stm32f4xx_ll_usb.c ****   {
ARM GAS  C:\Users\7636~1\AppData\Local\Temp\ccnv92VB.s 			page 28


 173              		.loc 1 122 6 view .LVU47
 174 003c 012B     		cmp	r3, #1
 175 003e 1BD0     		beq	.L17
 176              	.L14:
 128:Drivers/STM32F4xx_HAL_Driver/Src/stm32f4xx_ll_usb.c **** }
 177              		.loc 1 128 3 is_stmt 1 view .LVU48
 129:Drivers/STM32F4xx_HAL_Driver/Src/stm32f4xx_ll_usb.c **** 
 178              		.loc 1 129 1 is_stmt 0 view .LVU49
 179 0040 BDE81040 		pop	{r4, lr}
 180              	.LCFI2:
 181              		.cfi_remember_state
 182              		.cfi_restore 14
 183              		.cfi_restore 4
 184              		.cfi_def_cfa_offset 16
 185              	.LVL14:
 129:Drivers/STM32F4xx_HAL_Driver/Src/stm32f4xx_ll_usb.c **** 
 186              		.loc 1 129 1 view .LVU50
 187 0044 04B0     		add	sp, sp, #16
 188              	.LCFI3:
 189              		.cfi_def_cfa_offset 0
 190 0046 7047     		bx	lr
 191              	.LVL15:
 192              	.L16:
 193              	.LCFI4:
 194              		.cfi_restore_state
  97:Drivers/STM32F4xx_HAL_Driver/Src/stm32f4xx_ll_usb.c ****     }
 195              		.loc 1 97 7 is_stmt 1 view .LVU51
  97:Drivers/STM32F4xx_HAL_Driver/Src/stm32f4xx_ll_usb.c ****     }
 196              		.loc 1 97 21 is_stmt 0 view .LVU52
 197 0048 E368     		ldr	r3, [r4, #12]
 198 004a 43F48013 		orr	r3, r3, #1048576
 199 004e E360     		str	r3, [r4, #12]
 200 0050 F0E7     		b	.L11
 201              	.L10:
 105:Drivers/STM32F4xx_HAL_Driver/Src/stm32f4xx_ll_usb.c **** 
 202              		.loc 1 105 5 is_stmt 1 view .LVU53
 105:Drivers/STM32F4xx_HAL_Driver/Src/stm32f4xx_ll_usb.c **** 
 203              		.loc 1 105 19 is_stmt 0 view .LVU54
 204 0052 E368     		ldr	r3, [r4, #12]
 205 0054 43F04003 		orr	r3, r3, #64
 206 0058 E360     		str	r3, [r4, #12]
 108:Drivers/STM32F4xx_HAL_Driver/Src/stm32f4xx_ll_usb.c **** 
 207              		.loc 1 108 5 is_stmt 1 view .LVU55
 108:Drivers/STM32F4xx_HAL_Driver/Src/stm32f4xx_ll_usb.c **** 
 208              		.loc 1 108 11 is_stmt 0 view .LVU56
 209 005a 2046     		mov	r0, r4
 210              	.LVL16:
 108:Drivers/STM32F4xx_HAL_Driver/Src/stm32f4xx_ll_usb.c **** 
 211              		.loc 1 108 11 view .LVU57
 212 005c FFF7FEFF 		bl	USB_CoreReset
 213              	.LVL17:
 110:Drivers/STM32F4xx_HAL_Driver/Src/stm32f4xx_ll_usb.c ****     {
 214              		.loc 1 110 5 is_stmt 1 view .LVU58
 110:Drivers/STM32F4xx_HAL_Driver/Src/stm32f4xx_ll_usb.c ****     {
 215              		.loc 1 110 12 is_stmt 0 view .LVU59
 216 0060 0C9B     		ldr	r3, [sp, #48]
 110:Drivers/STM32F4xx_HAL_Driver/Src/stm32f4xx_ll_usb.c ****     {
ARM GAS  C:\Users\7636~1\AppData\Local\Temp\ccnv92VB.s 			page 29


 217              		.loc 1 110 8 view .LVU60
 218 0062 23B9     		cbnz	r3, .L13
 113:Drivers/STM32F4xx_HAL_Driver/Src/stm32f4xx_ll_usb.c ****     }
 219              		.loc 1 113 7 is_stmt 1 view .LVU61
 113:Drivers/STM32F4xx_HAL_Driver/Src/stm32f4xx_ll_usb.c ****     }
 220              		.loc 1 113 19 is_stmt 0 view .LVU62
 221 0064 A36B     		ldr	r3, [r4, #56]
 222 0066 43F48033 		orr	r3, r3, #65536
 223 006a A363     		str	r3, [r4, #56]
 224 006c E5E7     		b	.L12
 225              	.L13:
 118:Drivers/STM32F4xx_HAL_Driver/Src/stm32f4xx_ll_usb.c ****     }
 226              		.loc 1 118 7 is_stmt 1 view .LVU63
 118:Drivers/STM32F4xx_HAL_Driver/Src/stm32f4xx_ll_usb.c ****     }
 227              		.loc 1 118 19 is_stmt 0 view .LVU64
 228 006e A36B     		ldr	r3, [r4, #56]
 229 0070 23F48033 		bic	r3, r3, #65536
 230 0074 A363     		str	r3, [r4, #56]
 231 0076 E0E7     		b	.L12
 232              	.L17:
 124:Drivers/STM32F4xx_HAL_Driver/Src/stm32f4xx_ll_usb.c ****     USBx->GAHBCFG |= USB_OTG_GAHBCFG_DMAEN;
 233              		.loc 1 124 5 is_stmt 1 view .LVU65
 124:Drivers/STM32F4xx_HAL_Driver/Src/stm32f4xx_ll_usb.c ****     USBx->GAHBCFG |= USB_OTG_GAHBCFG_DMAEN;
 234              		.loc 1 124 19 is_stmt 0 view .LVU66
 235 0078 A368     		ldr	r3, [r4, #8]
 236 007a 43F00603 		orr	r3, r3, #6
 237 007e A360     		str	r3, [r4, #8]
 125:Drivers/STM32F4xx_HAL_Driver/Src/stm32f4xx_ll_usb.c ****   }
 238              		.loc 1 125 5 is_stmt 1 view .LVU67
 125:Drivers/STM32F4xx_HAL_Driver/Src/stm32f4xx_ll_usb.c ****   }
 239              		.loc 1 125 19 is_stmt 0 view .LVU68
 240 0080 A368     		ldr	r3, [r4, #8]
 241 0082 43F02003 		orr	r3, r3, #32
 242 0086 A360     		str	r3, [r4, #8]
 243 0088 DAE7     		b	.L14
 244              		.cfi_endproc
 245              	.LFE216:
 247              		.section	.text.USB_SetTurnaroundTime,"ax",%progbits
 248              		.align	1
 249              		.global	USB_SetTurnaroundTime
 250              		.syntax unified
 251              		.thumb
 252              		.thumb_func
 254              	USB_SetTurnaroundTime:
 255              	.LVL18:
 256              	.LFB217:
 140:Drivers/STM32F4xx_HAL_Driver/Src/stm32f4xx_ll_usb.c ****   uint32_t UsbTrd;
 257              		.loc 1 140 1 is_stmt 1 view -0
 258              		.cfi_startproc
 259              		@ args = 0, pretend = 0, frame = 0
 260              		@ frame_needed = 0, uses_anonymous_args = 0
 261              		@ link register save eliminated.
 141:Drivers/STM32F4xx_HAL_Driver/Src/stm32f4xx_ll_usb.c **** 
 262              		.loc 1 141 3 view .LVU70
 147:Drivers/STM32F4xx_HAL_Driver/Src/stm32f4xx_ll_usb.c ****   {
 263              		.loc 1 147 3 view .LVU71
 147:Drivers/STM32F4xx_HAL_Driver/Src/stm32f4xx_ll_usb.c ****   {
ARM GAS  C:\Users\7636~1\AppData\Local\Temp\ccnv92VB.s 			page 30


 264              		.loc 1 147 6 is_stmt 0 view .LVU72
 265 0000 022A     		cmp	r2, #2
 266 0002 0AD0     		beq	.L30
 202:Drivers/STM32F4xx_HAL_Driver/Src/stm32f4xx_ll_usb.c ****   }
 267              		.loc 1 202 12 view .LVU73
 268 0004 0921     		movs	r1, #9
 269              	.LVL19:
 270              	.L19:
 209:Drivers/STM32F4xx_HAL_Driver/Src/stm32f4xx_ll_usb.c ****   USBx->GUSBCFG |= (uint32_t)((UsbTrd << 10) & USB_OTG_GUSBCFG_TRDT);
 271              		.loc 1 209 3 is_stmt 1 view .LVU74
 209:Drivers/STM32F4xx_HAL_Driver/Src/stm32f4xx_ll_usb.c ****   USBx->GUSBCFG |= (uint32_t)((UsbTrd << 10) & USB_OTG_GUSBCFG_TRDT);
 272              		.loc 1 209 17 is_stmt 0 view .LVU75
 273 0006 C268     		ldr	r2, [r0, #12]
 274 0008 22F47052 		bic	r2, r2, #15360
 275 000c C260     		str	r2, [r0, #12]
 210:Drivers/STM32F4xx_HAL_Driver/Src/stm32f4xx_ll_usb.c **** 
 276              		.loc 1 210 3 is_stmt 1 view .LVU76
 210:Drivers/STM32F4xx_HAL_Driver/Src/stm32f4xx_ll_usb.c **** 
 277              		.loc 1 210 17 is_stmt 0 view .LVU77
 278 000e C368     		ldr	r3, [r0, #12]
 279 0010 43EA8123 		orr	r3, r3, r1, lsl #10
 280 0014 C360     		str	r3, [r0, #12]
 212:Drivers/STM32F4xx_HAL_Driver/Src/stm32f4xx_ll_usb.c **** }
 281              		.loc 1 212 3 is_stmt 1 view .LVU78
 213:Drivers/STM32F4xx_HAL_Driver/Src/stm32f4xx_ll_usb.c **** 
 282              		.loc 1 213 1 is_stmt 0 view .LVU79
 283 0016 0020     		movs	r0, #0
 284              	.LVL20:
 213:Drivers/STM32F4xx_HAL_Driver/Src/stm32f4xx_ll_usb.c **** 
 285              		.loc 1 213 1 view .LVU80
 286 0018 7047     		bx	lr
 287              	.LVL21:
 288              	.L30:
 149:Drivers/STM32F4xx_HAL_Driver/Src/stm32f4xx_ll_usb.c ****     {
 289              		.loc 1 149 5 is_stmt 1 view .LVU81
 149:Drivers/STM32F4xx_HAL_Driver/Src/stm32f4xx_ll_usb.c ****     {
 290              		.loc 1 149 29 is_stmt 0 view .LVU82
 291 001a 234B     		ldr	r3, .L31
 292 001c 0B44     		add	r3, r3, r1
 149:Drivers/STM32F4xx_HAL_Driver/Src/stm32f4xx_ll_usb.c ****     {
 293              		.loc 1 149 8 view .LVU83
 294 001e 234A     		ldr	r2, .L31+4
 295              	.LVL22:
 149:Drivers/STM32F4xx_HAL_Driver/Src/stm32f4xx_ll_usb.c ****     {
 296              		.loc 1 149 8 view .LVU84
 297 0020 9342     		cmp	r3, r2
 298 0022 2FD9     		bls	.L21
 154:Drivers/STM32F4xx_HAL_Driver/Src/stm32f4xx_ll_usb.c ****     {
 299              		.loc 1 154 10 is_stmt 1 view .LVU85
 154:Drivers/STM32F4xx_HAL_Driver/Src/stm32f4xx_ll_usb.c ****     {
 300              		.loc 1 154 34 is_stmt 0 view .LVU86
 301 0024 224B     		ldr	r3, .L31+8
 302 0026 0B44     		add	r3, r3, r1
 154:Drivers/STM32F4xx_HAL_Driver/Src/stm32f4xx_ll_usb.c ****     {
 303              		.loc 1 154 13 view .LVU87
 304 0028 224A     		ldr	r2, .L31+12
 305 002a 9342     		cmp	r3, r2
ARM GAS  C:\Users\7636~1\AppData\Local\Temp\ccnv92VB.s 			page 31


 306 002c 2CD9     		bls	.L22
 159:Drivers/STM32F4xx_HAL_Driver/Src/stm32f4xx_ll_usb.c ****     {
 307              		.loc 1 159 10 is_stmt 1 view .LVU88
 159:Drivers/STM32F4xx_HAL_Driver/Src/stm32f4xx_ll_usb.c ****     {
 308              		.loc 1 159 34 is_stmt 0 view .LVU89
 309 002e A1F57403 		sub	r3, r1, #15990784
 310 0032 A3F51053 		sub	r3, r3, #9216
 159:Drivers/STM32F4xx_HAL_Driver/Src/stm32f4xx_ll_usb.c ****     {
 311              		.loc 1 159 13 view .LVU90
 312 0036 204A     		ldr	r2, .L31+16
 313 0038 9342     		cmp	r3, r2
 314 003a 27D9     		bls	.L23
 164:Drivers/STM32F4xx_HAL_Driver/Src/stm32f4xx_ll_usb.c ****     {
 315              		.loc 1 164 10 is_stmt 1 view .LVU91
 164:Drivers/STM32F4xx_HAL_Driver/Src/stm32f4xx_ll_usb.c ****     {
 316              		.loc 1 164 34 is_stmt 0 view .LVU92
 317 003c A1F18373 		sub	r3, r1, #17170432
 318 0040 A3F5E743 		sub	r3, r3, #29568
 164:Drivers/STM32F4xx_HAL_Driver/Src/stm32f4xx_ll_usb.c ****     {
 319              		.loc 1 164 13 view .LVU93
 320 0044 1D4A     		ldr	r2, .L31+20
 321 0046 9342     		cmp	r3, r2
 322 0048 22D3     		bcc	.L24
 169:Drivers/STM32F4xx_HAL_Driver/Src/stm32f4xx_ll_usb.c ****     {
 323              		.loc 1 169 10 is_stmt 1 view .LVU94
 169:Drivers/STM32F4xx_HAL_Driver/Src/stm32f4xx_ll_usb.c ****     {
 324              		.loc 1 169 34 is_stmt 0 view .LVU95
 325 004a 1D4B     		ldr	r3, .L31+24
 326 004c 0B44     		add	r3, r3, r1
 169:Drivers/STM32F4xx_HAL_Driver/Src/stm32f4xx_ll_usb.c ****     {
 327              		.loc 1 169 13 view .LVU96
 328 004e 1D4A     		ldr	r2, .L31+28
 329 0050 9342     		cmp	r3, r2
 330 0052 1FD9     		bls	.L25
 174:Drivers/STM32F4xx_HAL_Driver/Src/stm32f4xx_ll_usb.c ****     {
 331              		.loc 1 174 10 is_stmt 1 view .LVU97
 174:Drivers/STM32F4xx_HAL_Driver/Src/stm32f4xx_ll_usb.c ****     {
 332              		.loc 1 174 34 is_stmt 0 view .LVU98
 333 0054 1C4B     		ldr	r3, .L31+32
 334 0056 0B44     		add	r3, r3, r1
 174:Drivers/STM32F4xx_HAL_Driver/Src/stm32f4xx_ll_usb.c ****     {
 335              		.loc 1 174 13 view .LVU99
 336 0058 1C4A     		ldr	r2, .L31+36
 337 005a 9342     		cmp	r3, r2
 338 005c 1CD3     		bcc	.L26
 179:Drivers/STM32F4xx_HAL_Driver/Src/stm32f4xx_ll_usb.c ****     {
 339              		.loc 1 179 10 is_stmt 1 view .LVU100
 179:Drivers/STM32F4xx_HAL_Driver/Src/stm32f4xx_ll_usb.c ****     {
 340              		.loc 1 179 34 is_stmt 0 view .LVU101
 341 005e 1C4B     		ldr	r3, .L31+40
 342 0060 0B44     		add	r3, r3, r1
 179:Drivers/STM32F4xx_HAL_Driver/Src/stm32f4xx_ll_usb.c ****     {
 343              		.loc 1 179 13 view .LVU102
 344 0062 1C4A     		ldr	r2, .L31+44
 345 0064 9342     		cmp	r3, r2
 346 0066 19D3     		bcc	.L27
 184:Drivers/STM32F4xx_HAL_Driver/Src/stm32f4xx_ll_usb.c ****     {
ARM GAS  C:\Users\7636~1\AppData\Local\Temp\ccnv92VB.s 			page 32


 347              		.loc 1 184 10 is_stmt 1 view .LVU103
 184:Drivers/STM32F4xx_HAL_Driver/Src/stm32f4xx_ll_usb.c ****     {
 348              		.loc 1 184 34 is_stmt 0 view .LVU104
 349 0068 A1F1B773 		sub	r3, r1, #23986176
 350 006c A3F55853 		sub	r3, r3, #13824
 184:Drivers/STM32F4xx_HAL_Driver/Src/stm32f4xx_ll_usb.c ****     {
 351              		.loc 1 184 13 view .LVU105
 352 0070 194A     		ldr	r2, .L31+48
 353 0072 9342     		cmp	r3, r2
 354 0074 14D3     		bcc	.L28
 189:Drivers/STM32F4xx_HAL_Driver/Src/stm32f4xx_ll_usb.c ****     {
 355              		.loc 1 189 10 is_stmt 1 view .LVU106
 189:Drivers/STM32F4xx_HAL_Driver/Src/stm32f4xx_ll_usb.c ****     {
 356              		.loc 1 189 34 is_stmt 0 view .LVU107
 357 0076 194B     		ldr	r3, .L31+52
 358 0078 0B44     		add	r3, r3, r1
 189:Drivers/STM32F4xx_HAL_Driver/Src/stm32f4xx_ll_usb.c ****     {
 359              		.loc 1 189 13 view .LVU108
 360 007a 194A     		ldr	r2, .L31+56
 361 007c 9342     		cmp	r3, r2
 362 007e 11D2     		bcs	.L29
 192:Drivers/STM32F4xx_HAL_Driver/Src/stm32f4xx_ll_usb.c ****     }
 363              		.loc 1 192 14 view .LVU109
 364 0080 0721     		movs	r1, #7
 365              	.LVL23:
 192:Drivers/STM32F4xx_HAL_Driver/Src/stm32f4xx_ll_usb.c ****     }
 366              		.loc 1 192 14 view .LVU110
 367 0082 C0E7     		b	.L19
 368              	.LVL24:
 369              	.L21:
 152:Drivers/STM32F4xx_HAL_Driver/Src/stm32f4xx_ll_usb.c ****     }
 370              		.loc 1 152 14 view .LVU111
 371 0084 0F21     		movs	r1, #15
 372              	.LVL25:
 152:Drivers/STM32F4xx_HAL_Driver/Src/stm32f4xx_ll_usb.c ****     }
 373              		.loc 1 152 14 view .LVU112
 374 0086 BEE7     		b	.L19
 375              	.LVL26:
 376              	.L22:
 157:Drivers/STM32F4xx_HAL_Driver/Src/stm32f4xx_ll_usb.c ****     }
 377              		.loc 1 157 14 view .LVU113
 378 0088 0E21     		movs	r1, #14
 379              	.LVL27:
 157:Drivers/STM32F4xx_HAL_Driver/Src/stm32f4xx_ll_usb.c ****     }
 380              		.loc 1 157 14 view .LVU114
 381 008a BCE7     		b	.L19
 382              	.LVL28:
 383              	.L23:
 162:Drivers/STM32F4xx_HAL_Driver/Src/stm32f4xx_ll_usb.c ****     }
 384              		.loc 1 162 14 view .LVU115
 385 008c 0D21     		movs	r1, #13
 386              	.LVL29:
 162:Drivers/STM32F4xx_HAL_Driver/Src/stm32f4xx_ll_usb.c ****     }
 387              		.loc 1 162 14 view .LVU116
 388 008e BAE7     		b	.L19
 389              	.LVL30:
 390              	.L24:
ARM GAS  C:\Users\7636~1\AppData\Local\Temp\ccnv92VB.s 			page 33


 167:Drivers/STM32F4xx_HAL_Driver/Src/stm32f4xx_ll_usb.c ****     }
 391              		.loc 1 167 14 view .LVU117
 392 0090 0C21     		movs	r1, #12
 393              	.LVL31:
 167:Drivers/STM32F4xx_HAL_Driver/Src/stm32f4xx_ll_usb.c ****     }
 394              		.loc 1 167 14 view .LVU118
 395 0092 B8E7     		b	.L19
 396              	.LVL32:
 397              	.L25:
 172:Drivers/STM32F4xx_HAL_Driver/Src/stm32f4xx_ll_usb.c ****     }
 398              		.loc 1 172 14 view .LVU119
 399 0094 0B21     		movs	r1, #11
 400              	.LVL33:
 172:Drivers/STM32F4xx_HAL_Driver/Src/stm32f4xx_ll_usb.c ****     }
 401              		.loc 1 172 14 view .LVU120
 402 0096 B6E7     		b	.L19
 403              	.LVL34:
 404              	.L26:
 177:Drivers/STM32F4xx_HAL_Driver/Src/stm32f4xx_ll_usb.c ****     }
 405              		.loc 1 177 14 view .LVU121
 406 0098 0A21     		movs	r1, #10
 407              	.LVL35:
 177:Drivers/STM32F4xx_HAL_Driver/Src/stm32f4xx_ll_usb.c ****     }
 408              		.loc 1 177 14 view .LVU122
 409 009a B4E7     		b	.L19
 410              	.LVL36:
 411              	.L27:
 182:Drivers/STM32F4xx_HAL_Driver/Src/stm32f4xx_ll_usb.c ****     }
 412              		.loc 1 182 14 view .LVU123
 413 009c 0921     		movs	r1, #9
 414              	.LVL37:
 182:Drivers/STM32F4xx_HAL_Driver/Src/stm32f4xx_ll_usb.c ****     }
 415              		.loc 1 182 14 view .LVU124
 416 009e B2E7     		b	.L19
 417              	.LVL38:
 418              	.L28:
 187:Drivers/STM32F4xx_HAL_Driver/Src/stm32f4xx_ll_usb.c ****     }
 419              		.loc 1 187 14 view .LVU125
 420 00a0 0821     		movs	r1, #8
 421              	.LVL39:
 187:Drivers/STM32F4xx_HAL_Driver/Src/stm32f4xx_ll_usb.c ****     }
 422              		.loc 1 187 14 view .LVU126
 423 00a2 B0E7     		b	.L19
 424              	.LVL40:
 425              	.L29:
 197:Drivers/STM32F4xx_HAL_Driver/Src/stm32f4xx_ll_usb.c ****     }
 426              		.loc 1 197 14 view .LVU127
 427 00a4 0621     		movs	r1, #6
 428              	.LVL41:
 197:Drivers/STM32F4xx_HAL_Driver/Src/stm32f4xx_ll_usb.c ****     }
 429              		.loc 1 197 14 view .LVU128
 430 00a6 AEE7     		b	.L19
 431              	.L32:
 432              		.align	2
 433              	.L31:
 434 00a8 405327FF 		.word	-14200000
 435 00ac FF340C00 		.word	799999
ARM GAS  C:\Users\7636~1\AppData\Local\Temp\ccnv92VB.s 			page 34


 436 00b0 401E1BFF 		.word	-15000000
 437 00b4 3F420F00 		.word	999999
 438 00b8 7F4F1200 		.word	1199999
 439 00bc 20D61300 		.word	1300000
 440 00c0 60B6E5FE 		.word	-18500000
 441 00c4 5FE31600 		.word	1499999
 442 00c8 00D3CEFE 		.word	-20000000
 443 00cc 40771B00 		.word	1800000
 444 00d0 C05BB3FE 		.word	-21800000
 445 00d4 C0912100 		.word	2200000
 446 00d8 20753800 		.word	3700000
 447 00dc E05459FE 		.word	-27700000
 448 00e0 E09C4100 		.word	4300000
 449              		.cfi_endproc
 450              	.LFE217:
 452              		.section	.text.USB_EnableGlobalInt,"ax",%progbits
 453              		.align	1
 454              		.global	USB_EnableGlobalInt
 455              		.syntax unified
 456              		.thumb
 457              		.thumb_func
 459              	USB_EnableGlobalInt:
 460              	.LVL42:
 461              	.LFB218:
 222:Drivers/STM32F4xx_HAL_Driver/Src/stm32f4xx_ll_usb.c ****   USBx->GAHBCFG |= USB_OTG_GAHBCFG_GINT;
 462              		.loc 1 222 1 is_stmt 1 view -0
 463              		.cfi_startproc
 464              		@ args = 0, pretend = 0, frame = 0
 465              		@ frame_needed = 0, uses_anonymous_args = 0
 466              		@ link register save eliminated.
 223:Drivers/STM32F4xx_HAL_Driver/Src/stm32f4xx_ll_usb.c ****   return HAL_OK;
 467              		.loc 1 223 3 view .LVU130
 223:Drivers/STM32F4xx_HAL_Driver/Src/stm32f4xx_ll_usb.c ****   return HAL_OK;
 468              		.loc 1 223 17 is_stmt 0 view .LVU131
 469 0000 8368     		ldr	r3, [r0, #8]
 470 0002 43F00103 		orr	r3, r3, #1
 471 0006 8360     		str	r3, [r0, #8]
 224:Drivers/STM32F4xx_HAL_Driver/Src/stm32f4xx_ll_usb.c **** }
 472              		.loc 1 224 3 is_stmt 1 view .LVU132
 225:Drivers/STM32F4xx_HAL_Driver/Src/stm32f4xx_ll_usb.c **** 
 473              		.loc 1 225 1 is_stmt 0 view .LVU133
 474 0008 0020     		movs	r0, #0
 475              	.LVL43:
 225:Drivers/STM32F4xx_HAL_Driver/Src/stm32f4xx_ll_usb.c **** 
 476              		.loc 1 225 1 view .LVU134
 477 000a 7047     		bx	lr
 478              		.cfi_endproc
 479              	.LFE218:
 481              		.section	.text.USB_DisableGlobalInt,"ax",%progbits
 482              		.align	1
 483              		.global	USB_DisableGlobalInt
 484              		.syntax unified
 485              		.thumb
 486              		.thumb_func
 488              	USB_DisableGlobalInt:
 489              	.LVL44:
 490              	.LFB219:
ARM GAS  C:\Users\7636~1\AppData\Local\Temp\ccnv92VB.s 			page 35


 234:Drivers/STM32F4xx_HAL_Driver/Src/stm32f4xx_ll_usb.c ****   USBx->GAHBCFG &= ~USB_OTG_GAHBCFG_GINT;
 491              		.loc 1 234 1 is_stmt 1 view -0
 492              		.cfi_startproc
 493              		@ args = 0, pretend = 0, frame = 0
 494              		@ frame_needed = 0, uses_anonymous_args = 0
 495              		@ link register save eliminated.
 235:Drivers/STM32F4xx_HAL_Driver/Src/stm32f4xx_ll_usb.c ****   return HAL_OK;
 496              		.loc 1 235 3 view .LVU136
 235:Drivers/STM32F4xx_HAL_Driver/Src/stm32f4xx_ll_usb.c ****   return HAL_OK;
 497              		.loc 1 235 17 is_stmt 0 view .LVU137
 498 0000 8368     		ldr	r3, [r0, #8]
 499 0002 23F00103 		bic	r3, r3, #1
 500 0006 8360     		str	r3, [r0, #8]
 236:Drivers/STM32F4xx_HAL_Driver/Src/stm32f4xx_ll_usb.c **** }
 501              		.loc 1 236 3 is_stmt 1 view .LVU138
 237:Drivers/STM32F4xx_HAL_Driver/Src/stm32f4xx_ll_usb.c **** 
 502              		.loc 1 237 1 is_stmt 0 view .LVU139
 503 0008 0020     		movs	r0, #0
 504              	.LVL45:
 237:Drivers/STM32F4xx_HAL_Driver/Src/stm32f4xx_ll_usb.c **** 
 505              		.loc 1 237 1 view .LVU140
 506 000a 7047     		bx	lr
 507              		.cfi_endproc
 508              	.LFE219:
 510              		.section	.text.USB_SetCurrentMode,"ax",%progbits
 511              		.align	1
 512              		.global	USB_SetCurrentMode
 513              		.syntax unified
 514              		.thumb
 515              		.thumb_func
 517              	USB_SetCurrentMode:
 518              	.LVL46:
 519              	.LFB220:
 249:Drivers/STM32F4xx_HAL_Driver/Src/stm32f4xx_ll_usb.c ****   USBx->GUSBCFG &= ~(USB_OTG_GUSBCFG_FHMOD | USB_OTG_GUSBCFG_FDMOD);
 520              		.loc 1 249 1 is_stmt 1 view -0
 521              		.cfi_startproc
 522              		@ args = 0, pretend = 0, frame = 0
 523              		@ frame_needed = 0, uses_anonymous_args = 0
 249:Drivers/STM32F4xx_HAL_Driver/Src/stm32f4xx_ll_usb.c ****   USBx->GUSBCFG &= ~(USB_OTG_GUSBCFG_FHMOD | USB_OTG_GUSBCFG_FDMOD);
 524              		.loc 1 249 1 is_stmt 0 view .LVU142
 525 0000 08B5     		push	{r3, lr}
 526              	.LCFI5:
 527              		.cfi_def_cfa_offset 8
 528              		.cfi_offset 3, -8
 529              		.cfi_offset 14, -4
 250:Drivers/STM32F4xx_HAL_Driver/Src/stm32f4xx_ll_usb.c **** 
 530              		.loc 1 250 3 is_stmt 1 view .LVU143
 250:Drivers/STM32F4xx_HAL_Driver/Src/stm32f4xx_ll_usb.c **** 
 531              		.loc 1 250 17 is_stmt 0 view .LVU144
 532 0002 C368     		ldr	r3, [r0, #12]
 533 0004 23F0C043 		bic	r3, r3, #1610612736
 534 0008 C360     		str	r3, [r0, #12]
 252:Drivers/STM32F4xx_HAL_Driver/Src/stm32f4xx_ll_usb.c ****   {
 535              		.loc 1 252 3 is_stmt 1 view .LVU145
 252:Drivers/STM32F4xx_HAL_Driver/Src/stm32f4xx_ll_usb.c ****   {
 536              		.loc 1 252 6 is_stmt 0 view .LVU146
 537 000a 0129     		cmp	r1, #1
ARM GAS  C:\Users\7636~1\AppData\Local\Temp\ccnv92VB.s 			page 36


 538 000c 09D0     		beq	.L41
 256:Drivers/STM32F4xx_HAL_Driver/Src/stm32f4xx_ll_usb.c ****   {
 539              		.loc 1 256 8 is_stmt 1 view .LVU147
 256:Drivers/STM32F4xx_HAL_Driver/Src/stm32f4xx_ll_usb.c ****   {
 540              		.loc 1 256 11 is_stmt 0 view .LVU148
 541 000e 69B9     		cbnz	r1, .L39
 258:Drivers/STM32F4xx_HAL_Driver/Src/stm32f4xx_ll_usb.c ****   }
 542              		.loc 1 258 5 is_stmt 1 view .LVU149
 258:Drivers/STM32F4xx_HAL_Driver/Src/stm32f4xx_ll_usb.c ****   }
 543              		.loc 1 258 19 is_stmt 0 view .LVU150
 544 0010 C368     		ldr	r3, [r0, #12]
 545 0012 43F08043 		orr	r3, r3, #1073741824
 546 0016 C360     		str	r3, [r0, #12]
 547              	.L37:
 264:Drivers/STM32F4xx_HAL_Driver/Src/stm32f4xx_ll_usb.c **** 
 548              		.loc 1 264 3 is_stmt 1 view .LVU151
 549 0018 3220     		movs	r0, #50
 550              	.LVL47:
 264:Drivers/STM32F4xx_HAL_Driver/Src/stm32f4xx_ll_usb.c **** 
 551              		.loc 1 264 3 is_stmt 0 view .LVU152
 552 001a FFF7FEFF 		bl	HAL_Delay
 553              	.LVL48:
 266:Drivers/STM32F4xx_HAL_Driver/Src/stm32f4xx_ll_usb.c **** }
 554              		.loc 1 266 3 is_stmt 1 view .LVU153
 266:Drivers/STM32F4xx_HAL_Driver/Src/stm32f4xx_ll_usb.c **** }
 555              		.loc 1 266 10 is_stmt 0 view .LVU154
 556 001e 0020     		movs	r0, #0
 557              	.L38:
 267:Drivers/STM32F4xx_HAL_Driver/Src/stm32f4xx_ll_usb.c **** 
 558              		.loc 1 267 1 view .LVU155
 559 0020 08BD     		pop	{r3, pc}
 560              	.LVL49:
 561              	.L41:
 254:Drivers/STM32F4xx_HAL_Driver/Src/stm32f4xx_ll_usb.c ****   }
 562              		.loc 1 254 5 is_stmt 1 view .LVU156
 254:Drivers/STM32F4xx_HAL_Driver/Src/stm32f4xx_ll_usb.c ****   }
 563              		.loc 1 254 19 is_stmt 0 view .LVU157
 564 0022 C368     		ldr	r3, [r0, #12]
 565 0024 43F00053 		orr	r3, r3, #536870912
 566 0028 C360     		str	r3, [r0, #12]
 567 002a F5E7     		b	.L37
 568              	.L39:
 262:Drivers/STM32F4xx_HAL_Driver/Src/stm32f4xx_ll_usb.c ****   }
 569              		.loc 1 262 12 view .LVU158
 570 002c 0120     		movs	r0, #1
 571              	.LVL50:
 262:Drivers/STM32F4xx_HAL_Driver/Src/stm32f4xx_ll_usb.c ****   }
 572              		.loc 1 262 12 view .LVU159
 573 002e F7E7     		b	.L38
 574              		.cfi_endproc
 575              	.LFE220:
 577              		.section	.text.USB_FlushTxFifo,"ax",%progbits
 578              		.align	1
 579              		.global	USB_FlushTxFifo
 580              		.syntax unified
 581              		.thumb
 582              		.thumb_func
ARM GAS  C:\Users\7636~1\AppData\Local\Temp\ccnv92VB.s 			page 37


 584              	USB_FlushTxFifo:
 585              	.LVL51:
 586              	.LFB222:
 454:Drivers/STM32F4xx_HAL_Driver/Src/stm32f4xx_ll_usb.c ****   uint32_t count = 0U;
 587              		.loc 1 454 1 is_stmt 1 view -0
 588              		.cfi_startproc
 589              		@ args = 0, pretend = 0, frame = 0
 590              		@ frame_needed = 0, uses_anonymous_args = 0
 591              		@ link register save eliminated.
 455:Drivers/STM32F4xx_HAL_Driver/Src/stm32f4xx_ll_usb.c **** 
 592              		.loc 1 455 3 view .LVU161
 457:Drivers/STM32F4xx_HAL_Driver/Src/stm32f4xx_ll_usb.c **** 
 593              		.loc 1 457 3 view .LVU162
 457:Drivers/STM32F4xx_HAL_Driver/Src/stm32f4xx_ll_usb.c **** 
 594              		.loc 1 457 51 is_stmt 0 view .LVU163
 595 0000 8901     		lsls	r1, r1, #6
 596              	.LVL52:
 457:Drivers/STM32F4xx_HAL_Driver/Src/stm32f4xx_ll_usb.c **** 
 597              		.loc 1 457 44 view .LVU164
 598 0002 41F02001 		orr	r1, r1, #32
 457:Drivers/STM32F4xx_HAL_Driver/Src/stm32f4xx_ll_usb.c **** 
 599              		.loc 1 457 17 view .LVU165
 600 0006 0161     		str	r1, [r0, #16]
 455:Drivers/STM32F4xx_HAL_Driver/Src/stm32f4xx_ll_usb.c **** 
 601              		.loc 1 455 12 view .LVU166
 602 0008 0023     		movs	r3, #0
 603              	.LVL53:
 604              	.L44:
 459:Drivers/STM32F4xx_HAL_Driver/Src/stm32f4xx_ll_usb.c ****   {
 605              		.loc 1 459 3 is_stmt 1 view .LVU167
 461:Drivers/STM32F4xx_HAL_Driver/Src/stm32f4xx_ll_usb.c ****     {
 606              		.loc 1 461 5 view .LVU168
 461:Drivers/STM32F4xx_HAL_Driver/Src/stm32f4xx_ll_usb.c ****     {
 607              		.loc 1 461 8 is_stmt 0 view .LVU169
 608 000a 0133     		adds	r3, r3, #1
 609              	.LVL54:
 461:Drivers/STM32F4xx_HAL_Driver/Src/stm32f4xx_ll_usb.c ****     {
 610              		.loc 1 461 8 view .LVU170
 611 000c 054A     		ldr	r2, .L46
 612 000e 9342     		cmp	r3, r2
 613 0010 05D8     		bhi	.L45
 465:Drivers/STM32F4xx_HAL_Driver/Src/stm32f4xx_ll_usb.c **** 
 614              		.loc 1 465 11 is_stmt 1 view .LVU171
 465:Drivers/STM32F4xx_HAL_Driver/Src/stm32f4xx_ll_usb.c **** 
 615              		.loc 1 465 17 is_stmt 0 view .LVU172
 616 0012 0269     		ldr	r2, [r0, #16]
 465:Drivers/STM32F4xx_HAL_Driver/Src/stm32f4xx_ll_usb.c **** 
 617              		.loc 1 465 3 view .LVU173
 618 0014 12F0200F 		tst	r2, #32
 619 0018 F7D1     		bne	.L44
 467:Drivers/STM32F4xx_HAL_Driver/Src/stm32f4xx_ll_usb.c **** }
 620              		.loc 1 467 10 view .LVU174
 621 001a 0020     		movs	r0, #0
 622              	.LVL55:
 467:Drivers/STM32F4xx_HAL_Driver/Src/stm32f4xx_ll_usb.c **** }
 623              		.loc 1 467 10 view .LVU175
 624 001c 7047     		bx	lr
ARM GAS  C:\Users\7636~1\AppData\Local\Temp\ccnv92VB.s 			page 38


 625              	.LVL56:
 626              	.L45:
 463:Drivers/STM32F4xx_HAL_Driver/Src/stm32f4xx_ll_usb.c ****     }
 627              		.loc 1 463 14 view .LVU176
 628 001e 0320     		movs	r0, #3
 629              	.LVL57:
 468:Drivers/STM32F4xx_HAL_Driver/Src/stm32f4xx_ll_usb.c **** 
 630              		.loc 1 468 1 view .LVU177
 631 0020 7047     		bx	lr
 632              	.L47:
 633 0022 00BF     		.align	2
 634              	.L46:
 635 0024 400D0300 		.word	200000
 636              		.cfi_endproc
 637              	.LFE222:
 639              		.section	.text.USB_FlushRxFifo,"ax",%progbits
 640              		.align	1
 641              		.global	USB_FlushRxFifo
 642              		.syntax unified
 643              		.thumb
 644              		.thumb_func
 646              	USB_FlushRxFifo:
 647              	.LVL58:
 648              	.LFB223:
 476:Drivers/STM32F4xx_HAL_Driver/Src/stm32f4xx_ll_usb.c ****   uint32_t count = 0;
 649              		.loc 1 476 1 is_stmt 1 view -0
 650              		.cfi_startproc
 651              		@ args = 0, pretend = 0, frame = 0
 652              		@ frame_needed = 0, uses_anonymous_args = 0
 653              		@ link register save eliminated.
 477:Drivers/STM32F4xx_HAL_Driver/Src/stm32f4xx_ll_usb.c **** 
 654              		.loc 1 477 3 view .LVU179
 479:Drivers/STM32F4xx_HAL_Driver/Src/stm32f4xx_ll_usb.c **** 
 655              		.loc 1 479 3 view .LVU180
 479:Drivers/STM32F4xx_HAL_Driver/Src/stm32f4xx_ll_usb.c **** 
 656              		.loc 1 479 17 is_stmt 0 view .LVU181
 657 0000 1023     		movs	r3, #16
 658 0002 0361     		str	r3, [r0, #16]
 477:Drivers/STM32F4xx_HAL_Driver/Src/stm32f4xx_ll_usb.c **** 
 659              		.loc 1 477 12 view .LVU182
 660 0004 0023     		movs	r3, #0
 661              	.LVL59:
 662              	.L50:
 481:Drivers/STM32F4xx_HAL_Driver/Src/stm32f4xx_ll_usb.c ****   {
 663              		.loc 1 481 3 is_stmt 1 view .LVU183
 483:Drivers/STM32F4xx_HAL_Driver/Src/stm32f4xx_ll_usb.c ****     {
 664              		.loc 1 483 5 view .LVU184
 483:Drivers/STM32F4xx_HAL_Driver/Src/stm32f4xx_ll_usb.c ****     {
 665              		.loc 1 483 8 is_stmt 0 view .LVU185
 666 0006 0133     		adds	r3, r3, #1
 667              	.LVL60:
 483:Drivers/STM32F4xx_HAL_Driver/Src/stm32f4xx_ll_usb.c ****     {
 668              		.loc 1 483 8 view .LVU186
 669 0008 054A     		ldr	r2, .L52
 670 000a 9342     		cmp	r3, r2
 671 000c 05D8     		bhi	.L51
 487:Drivers/STM32F4xx_HAL_Driver/Src/stm32f4xx_ll_usb.c **** 
ARM GAS  C:\Users\7636~1\AppData\Local\Temp\ccnv92VB.s 			page 39


 672              		.loc 1 487 11 is_stmt 1 view .LVU187
 487:Drivers/STM32F4xx_HAL_Driver/Src/stm32f4xx_ll_usb.c **** 
 673              		.loc 1 487 17 is_stmt 0 view .LVU188
 674 000e 0269     		ldr	r2, [r0, #16]
 487:Drivers/STM32F4xx_HAL_Driver/Src/stm32f4xx_ll_usb.c **** 
 675              		.loc 1 487 3 view .LVU189
 676 0010 12F0100F 		tst	r2, #16
 677 0014 F7D1     		bne	.L50
 489:Drivers/STM32F4xx_HAL_Driver/Src/stm32f4xx_ll_usb.c **** }
 678              		.loc 1 489 10 view .LVU190
 679 0016 0020     		movs	r0, #0
 680              	.LVL61:
 489:Drivers/STM32F4xx_HAL_Driver/Src/stm32f4xx_ll_usb.c **** }
 681              		.loc 1 489 10 view .LVU191
 682 0018 7047     		bx	lr
 683              	.LVL62:
 684              	.L51:
 485:Drivers/STM32F4xx_HAL_Driver/Src/stm32f4xx_ll_usb.c ****     }
 685              		.loc 1 485 14 view .LVU192
 686 001a 0320     		movs	r0, #3
 687              	.LVL63:
 490:Drivers/STM32F4xx_HAL_Driver/Src/stm32f4xx_ll_usb.c **** 
 688              		.loc 1 490 1 view .LVU193
 689 001c 7047     		bx	lr
 690              	.L53:
 691 001e 00BF     		.align	2
 692              	.L52:
 693 0020 400D0300 		.word	200000
 694              		.cfi_endproc
 695              	.LFE223:
 697              		.section	.text.USB_SetDevSpeed,"ax",%progbits
 698              		.align	1
 699              		.global	USB_SetDevSpeed
 700              		.syntax unified
 701              		.thumb
 702              		.thumb_func
 704              	USB_SetDevSpeed:
 705              	.LVL64:
 706              	.LFB224:
 504:Drivers/STM32F4xx_HAL_Driver/Src/stm32f4xx_ll_usb.c ****   uint32_t USBx_BASE = (uint32_t)USBx;
 707              		.loc 1 504 1 is_stmt 1 view -0
 708              		.cfi_startproc
 709              		@ args = 0, pretend = 0, frame = 0
 710              		@ frame_needed = 0, uses_anonymous_args = 0
 711              		@ link register save eliminated.
 505:Drivers/STM32F4xx_HAL_Driver/Src/stm32f4xx_ll_usb.c **** 
 712              		.loc 1 505 3 view .LVU195
 507:Drivers/STM32F4xx_HAL_Driver/Src/stm32f4xx_ll_usb.c ****   return HAL_OK;
 713              		.loc 1 507 3 view .LVU196
 507:Drivers/STM32F4xx_HAL_Driver/Src/stm32f4xx_ll_usb.c ****   return HAL_OK;
 714              		.loc 1 507 21 is_stmt 0 view .LVU197
 715 0000 D0F80038 		ldr	r3, [r0, #2048]
 716 0004 1943     		orrs	r1, r1, r3
 717              	.LVL65:
 507:Drivers/STM32F4xx_HAL_Driver/Src/stm32f4xx_ll_usb.c ****   return HAL_OK;
 718              		.loc 1 507 21 view .LVU198
 719 0006 C0F80018 		str	r1, [r0, #2048]
ARM GAS  C:\Users\7636~1\AppData\Local\Temp\ccnv92VB.s 			page 40


 508:Drivers/STM32F4xx_HAL_Driver/Src/stm32f4xx_ll_usb.c **** }
 720              		.loc 1 508 3 is_stmt 1 view .LVU199
 509:Drivers/STM32F4xx_HAL_Driver/Src/stm32f4xx_ll_usb.c **** 
 721              		.loc 1 509 1 is_stmt 0 view .LVU200
 722 000a 0020     		movs	r0, #0
 723              	.LVL66:
 509:Drivers/STM32F4xx_HAL_Driver/Src/stm32f4xx_ll_usb.c **** 
 724              		.loc 1 509 1 view .LVU201
 725 000c 7047     		bx	lr
 726              		.cfi_endproc
 727              	.LFE224:
 729              		.section	.text.USB_DevInit,"ax",%progbits
 730              		.align	1
 731              		.global	USB_DevInit
 732              		.syntax unified
 733              		.thumb
 734              		.thumb_func
 736              	USB_DevInit:
 737              	.LVL67:
 738              	.LFB221:
 278:Drivers/STM32F4xx_HAL_Driver/Src/stm32f4xx_ll_usb.c ****   HAL_StatusTypeDef ret = HAL_OK;
 739              		.loc 1 278 1 is_stmt 1 view -0
 740              		.cfi_startproc
 741              		@ args = 56, pretend = 16, frame = 0
 742              		@ frame_needed = 0, uses_anonymous_args = 0
 278:Drivers/STM32F4xx_HAL_Driver/Src/stm32f4xx_ll_usb.c ****   HAL_StatusTypeDef ret = HAL_OK;
 743              		.loc 1 278 1 is_stmt 0 view .LVU203
 744 0000 84B0     		sub	sp, sp, #16
 745              	.LCFI6:
 746              		.cfi_def_cfa_offset 16
 747 0002 2DE9F041 		push	{r4, r5, r6, r7, r8, lr}
 748              	.LCFI7:
 749              		.cfi_def_cfa_offset 40
 750              		.cfi_offset 4, -40
 751              		.cfi_offset 5, -36
 752              		.cfi_offset 6, -32
 753              		.cfi_offset 7, -28
 754              		.cfi_offset 8, -24
 755              		.cfi_offset 14, -20
 756 0006 0446     		mov	r4, r0
 757 0008 07A8     		add	r0, sp, #28
 758 000a 80E80E00 		stm	r0, {r1, r2, r3}
 279:Drivers/STM32F4xx_HAL_Driver/Src/stm32f4xx_ll_usb.c ****   uint32_t USBx_BASE = (uint32_t)USBx;
 759              		.loc 1 279 3 is_stmt 1 view .LVU204
 760              	.LVL68:
 280:Drivers/STM32F4xx_HAL_Driver/Src/stm32f4xx_ll_usb.c ****   uint32_t i;
 761              		.loc 1 280 3 view .LVU205
 281:Drivers/STM32F4xx_HAL_Driver/Src/stm32f4xx_ll_usb.c **** 
 762              		.loc 1 281 3 view .LVU206
 283:Drivers/STM32F4xx_HAL_Driver/Src/stm32f4xx_ll_usb.c ****   {
 763              		.loc 1 283 3 view .LVU207
 283:Drivers/STM32F4xx_HAL_Driver/Src/stm32f4xx_ll_usb.c ****   {
 764              		.loc 1 283 10 is_stmt 0 view .LVU208
 765 000e 0023     		movs	r3, #0
 283:Drivers/STM32F4xx_HAL_Driver/Src/stm32f4xx_ll_usb.c ****   {
 766              		.loc 1 283 3 view .LVU209
 767 0010 06E0     		b	.L56
ARM GAS  C:\Users\7636~1\AppData\Local\Temp\ccnv92VB.s 			page 41


 768              	.LVL69:
 769              	.L57:
 285:Drivers/STM32F4xx_HAL_Driver/Src/stm32f4xx_ll_usb.c ****   }
 770              		.loc 1 285 5 is_stmt 1 discriminator 3 view .LVU210
 285:Drivers/STM32F4xx_HAL_Driver/Src/stm32f4xx_ll_usb.c ****   }
 771              		.loc 1 285 22 is_stmt 0 discriminator 3 view .LVU211
 772 0012 03F14002 		add	r2, r3, #64
 773 0016 04EB8202 		add	r2, r4, r2, lsl #2
 774 001a 0021     		movs	r1, #0
 775 001c 5160     		str	r1, [r2, #4]
 283:Drivers/STM32F4xx_HAL_Driver/Src/stm32f4xx_ll_usb.c ****   {
 776              		.loc 1 283 25 is_stmt 1 discriminator 3 view .LVU212
 283:Drivers/STM32F4xx_HAL_Driver/Src/stm32f4xx_ll_usb.c ****   {
 777              		.loc 1 283 26 is_stmt 0 discriminator 3 view .LVU213
 778 001e 0133     		adds	r3, r3, #1
 779              	.LVL70:
 780              	.L56:
 283:Drivers/STM32F4xx_HAL_Driver/Src/stm32f4xx_ll_usb.c ****   {
 781              		.loc 1 283 16 is_stmt 1 discriminator 1 view .LVU214
 283:Drivers/STM32F4xx_HAL_Driver/Src/stm32f4xx_ll_usb.c ****   {
 782              		.loc 1 283 3 is_stmt 0 discriminator 1 view .LVU215
 783 0020 0E2B     		cmp	r3, #14
 784 0022 F6D9     		bls	.L57
 308:Drivers/STM32F4xx_HAL_Driver/Src/stm32f4xx_ll_usb.c ****   {
 785              		.loc 1 308 3 is_stmt 1 view .LVU216
 308:Drivers/STM32F4xx_HAL_Driver/Src/stm32f4xx_ll_usb.c ****   {
 786              		.loc 1 308 10 is_stmt 0 view .LVU217
 787 0024 119F     		ldr	r7, [sp, #68]
 308:Drivers/STM32F4xx_HAL_Driver/Src/stm32f4xx_ll_usb.c ****   {
 788              		.loc 1 308 6 view .LVU218
 789 0026 27BB     		cbnz	r7, .L58
 314:Drivers/STM32F4xx_HAL_Driver/Src/stm32f4xx_ll_usb.c ****     USBx->GCCFG |= USB_OTG_GCCFG_NOVBUSSENS;
 790              		.loc 1 314 5 is_stmt 1 view .LVU219
 314:Drivers/STM32F4xx_HAL_Driver/Src/stm32f4xx_ll_usb.c ****     USBx->GCCFG |= USB_OTG_GCCFG_NOVBUSSENS;
 791              		.loc 1 314 23 is_stmt 0 view .LVU220
 792 0028 D4F80438 		ldr	r3, [r4, #2052]
 793              	.LVL71:
 314:Drivers/STM32F4xx_HAL_Driver/Src/stm32f4xx_ll_usb.c ****     USBx->GCCFG |= USB_OTG_GCCFG_NOVBUSSENS;
 794              		.loc 1 314 23 view .LVU221
 795 002c 43F00203 		orr	r3, r3, #2
 796 0030 C4F80438 		str	r3, [r4, #2052]
 315:Drivers/STM32F4xx_HAL_Driver/Src/stm32f4xx_ll_usb.c ****     USBx->GCCFG &= ~USB_OTG_GCCFG_VBUSBSEN;
 797              		.loc 1 315 5 is_stmt 1 view .LVU222
 315:Drivers/STM32F4xx_HAL_Driver/Src/stm32f4xx_ll_usb.c ****     USBx->GCCFG &= ~USB_OTG_GCCFG_VBUSBSEN;
 798              		.loc 1 315 17 is_stmt 0 view .LVU223
 799 0034 A36B     		ldr	r3, [r4, #56]
 800 0036 43F40013 		orr	r3, r3, #2097152
 801 003a A363     		str	r3, [r4, #56]
 316:Drivers/STM32F4xx_HAL_Driver/Src/stm32f4xx_ll_usb.c ****     USBx->GCCFG &= ~USB_OTG_GCCFG_VBUSASEN;
 802              		.loc 1 316 5 is_stmt 1 view .LVU224
 316:Drivers/STM32F4xx_HAL_Driver/Src/stm32f4xx_ll_usb.c ****     USBx->GCCFG &= ~USB_OTG_GCCFG_VBUSASEN;
 803              		.loc 1 316 17 is_stmt 0 view .LVU225
 804 003c A36B     		ldr	r3, [r4, #56]
 805 003e 23F40023 		bic	r3, r3, #524288
 806 0042 A363     		str	r3, [r4, #56]
 317:Drivers/STM32F4xx_HAL_Driver/Src/stm32f4xx_ll_usb.c ****   }
 807              		.loc 1 317 5 is_stmt 1 view .LVU226
ARM GAS  C:\Users\7636~1\AppData\Local\Temp\ccnv92VB.s 			page 42


 317:Drivers/STM32F4xx_HAL_Driver/Src/stm32f4xx_ll_usb.c ****   }
 808              		.loc 1 317 17 is_stmt 0 view .LVU227
 809 0044 A36B     		ldr	r3, [r4, #56]
 810 0046 23F48023 		bic	r3, r3, #262144
 811 004a A363     		str	r3, [r4, #56]
 812              	.L59:
 328:Drivers/STM32F4xx_HAL_Driver/Src/stm32f4xx_ll_usb.c **** 
 813              		.loc 1 328 3 is_stmt 1 view .LVU228
 328:Drivers/STM32F4xx_HAL_Driver/Src/stm32f4xx_ll_usb.c **** 
 814              		.loc 1 328 16 is_stmt 0 view .LVU229
 815 004c 0023     		movs	r3, #0
 816 004e C4F8003E 		str	r3, [r4, #3584]
 331:Drivers/STM32F4xx_HAL_Driver/Src/stm32f4xx_ll_usb.c **** 
 817              		.loc 1 331 3 is_stmt 1 view .LVU230
 331:Drivers/STM32F4xx_HAL_Driver/Src/stm32f4xx_ll_usb.c **** 
 818              		.loc 1 331 21 is_stmt 0 view .LVU231
 819 0052 04F50065 		add	r5, r4, #2048
 820 0056 D4F80038 		ldr	r3, [r4, #2048]
 821 005a C4F80038 		str	r3, [r4, #2048]
 333:Drivers/STM32F4xx_HAL_Driver/Src/stm32f4xx_ll_usb.c ****   {
 822              		.loc 1 333 3 is_stmt 1 view .LVU232
 333:Drivers/STM32F4xx_HAL_Driver/Src/stm32f4xx_ll_usb.c ****   {
 823              		.loc 1 333 10 is_stmt 0 view .LVU233
 824 005e 0C9B     		ldr	r3, [sp, #48]
 333:Drivers/STM32F4xx_HAL_Driver/Src/stm32f4xx_ll_usb.c ****   {
 825              		.loc 1 333 6 view .LVU234
 826 0060 012B     		cmp	r3, #1
 827 0062 14D1     		bne	.L60
 335:Drivers/STM32F4xx_HAL_Driver/Src/stm32f4xx_ll_usb.c ****     {
 828              		.loc 1 335 5 is_stmt 1 view .LVU235
 335:Drivers/STM32F4xx_HAL_Driver/Src/stm32f4xx_ll_usb.c ****     {
 829              		.loc 1 335 12 is_stmt 0 view .LVU236
 830 0064 099B     		ldr	r3, [sp, #36]
 335:Drivers/STM32F4xx_HAL_Driver/Src/stm32f4xx_ll_usb.c ****     {
 831              		.loc 1 335 8 view .LVU237
 832 0066 6BB9     		cbnz	r3, .L61
 338:Drivers/STM32F4xx_HAL_Driver/Src/stm32f4xx_ll_usb.c ****     }
 833              		.loc 1 338 7 is_stmt 1 view .LVU238
 338:Drivers/STM32F4xx_HAL_Driver/Src/stm32f4xx_ll_usb.c ****     }
 834              		.loc 1 338 13 is_stmt 0 view .LVU239
 835 0068 0021     		movs	r1, #0
 836 006a 2046     		mov	r0, r4
 837              	.LVL72:
 338:Drivers/STM32F4xx_HAL_Driver/Src/stm32f4xx_ll_usb.c ****     }
 838              		.loc 1 338 13 view .LVU240
 839 006c FFF7FEFF 		bl	USB_SetDevSpeed
 840              	.LVL73:
 841 0070 11E0     		b	.L62
 842              	.LVL74:
 843              	.L58:
 322:Drivers/STM32F4xx_HAL_Driver/Src/stm32f4xx_ll_usb.c ****     USBx->GCCFG |= USB_OTG_GCCFG_VBUSBSEN;
 844              		.loc 1 322 5 is_stmt 1 view .LVU241
 322:Drivers/STM32F4xx_HAL_Driver/Src/stm32f4xx_ll_usb.c ****     USBx->GCCFG |= USB_OTG_GCCFG_VBUSBSEN;
 845              		.loc 1 322 17 is_stmt 0 view .LVU242
 846 0072 A36B     		ldr	r3, [r4, #56]
 847              	.LVL75:
 322:Drivers/STM32F4xx_HAL_Driver/Src/stm32f4xx_ll_usb.c ****     USBx->GCCFG |= USB_OTG_GCCFG_VBUSBSEN;
ARM GAS  C:\Users\7636~1\AppData\Local\Temp\ccnv92VB.s 			page 43


 848              		.loc 1 322 17 view .LVU243
 849 0074 23F40013 		bic	r3, r3, #2097152
 850 0078 A363     		str	r3, [r4, #56]
 323:Drivers/STM32F4xx_HAL_Driver/Src/stm32f4xx_ll_usb.c ****   }
 851              		.loc 1 323 5 is_stmt 1 view .LVU244
 323:Drivers/STM32F4xx_HAL_Driver/Src/stm32f4xx_ll_usb.c ****   }
 852              		.loc 1 323 17 is_stmt 0 view .LVU245
 853 007a A36B     		ldr	r3, [r4, #56]
 854 007c 43F40023 		orr	r3, r3, #524288
 855 0080 A363     		str	r3, [r4, #56]
 856 0082 E3E7     		b	.L59
 857              	.L61:
 343:Drivers/STM32F4xx_HAL_Driver/Src/stm32f4xx_ll_usb.c ****     }
 858              		.loc 1 343 7 is_stmt 1 view .LVU246
 343:Drivers/STM32F4xx_HAL_Driver/Src/stm32f4xx_ll_usb.c ****     }
 859              		.loc 1 343 13 is_stmt 0 view .LVU247
 860 0084 0121     		movs	r1, #1
 861 0086 2046     		mov	r0, r4
 862              	.LVL76:
 343:Drivers/STM32F4xx_HAL_Driver/Src/stm32f4xx_ll_usb.c ****     }
 863              		.loc 1 343 13 view .LVU248
 864 0088 FFF7FEFF 		bl	USB_SetDevSpeed
 865              	.LVL77:
 866 008c 03E0     		b	.L62
 867              	.LVL78:
 868              	.L60:
 349:Drivers/STM32F4xx_HAL_Driver/Src/stm32f4xx_ll_usb.c ****   }
 869              		.loc 1 349 5 is_stmt 1 view .LVU249
 349:Drivers/STM32F4xx_HAL_Driver/Src/stm32f4xx_ll_usb.c ****   }
 870              		.loc 1 349 11 is_stmt 0 view .LVU250
 871 008e 0321     		movs	r1, #3
 872 0090 2046     		mov	r0, r4
 873              	.LVL79:
 349:Drivers/STM32F4xx_HAL_Driver/Src/stm32f4xx_ll_usb.c ****   }
 874              		.loc 1 349 11 view .LVU251
 875 0092 FFF7FEFF 		bl	USB_SetDevSpeed
 876              	.LVL80:
 877              	.L62:
 353:Drivers/STM32F4xx_HAL_Driver/Src/stm32f4xx_ll_usb.c ****   {
 878              		.loc 1 353 3 is_stmt 1 view .LVU252
 353:Drivers/STM32F4xx_HAL_Driver/Src/stm32f4xx_ll_usb.c ****   {
 879              		.loc 1 353 7 is_stmt 0 view .LVU253
 880 0096 1021     		movs	r1, #16
 881 0098 2046     		mov	r0, r4
 882 009a FFF7FEFF 		bl	USB_FlushTxFifo
 883              	.LVL81:
 353:Drivers/STM32F4xx_HAL_Driver/Src/stm32f4xx_ll_usb.c ****   {
 884              		.loc 1 353 6 view .LVU254
 885 009e 8046     		mov	r8, r0
 886 00a0 08B1     		cbz	r0, .L63
 355:Drivers/STM32F4xx_HAL_Driver/Src/stm32f4xx_ll_usb.c ****   }
 887              		.loc 1 355 9 view .LVU255
 888 00a2 4FF00108 		mov	r8, #1
 889              	.L63:
 890              	.LVL82:
 358:Drivers/STM32F4xx_HAL_Driver/Src/stm32f4xx_ll_usb.c ****   {
 891              		.loc 1 358 3 is_stmt 1 view .LVU256
ARM GAS  C:\Users\7636~1\AppData\Local\Temp\ccnv92VB.s 			page 44


 358:Drivers/STM32F4xx_HAL_Driver/Src/stm32f4xx_ll_usb.c ****   {
 892              		.loc 1 358 7 is_stmt 0 view .LVU257
 893 00a6 2046     		mov	r0, r4
 894 00a8 FFF7FEFF 		bl	USB_FlushRxFifo
 895              	.LVL83:
 358:Drivers/STM32F4xx_HAL_Driver/Src/stm32f4xx_ll_usb.c ****   {
 896              		.loc 1 358 6 view .LVU258
 897 00ac 08B1     		cbz	r0, .L64
 360:Drivers/STM32F4xx_HAL_Driver/Src/stm32f4xx_ll_usb.c ****   }
 898              		.loc 1 360 9 view .LVU259
 899 00ae 4FF00108 		mov	r8, #1
 900              	.LVL84:
 901              	.L64:
 364:Drivers/STM32F4xx_HAL_Driver/Src/stm32f4xx_ll_usb.c ****   USBx_DEVICE->DOEPMSK = 0U;
 902              		.loc 1 364 3 is_stmt 1 view .LVU260
 364:Drivers/STM32F4xx_HAL_Driver/Src/stm32f4xx_ll_usb.c ****   USBx_DEVICE->DOEPMSK = 0U;
 903              		.loc 1 364 24 is_stmt 0 view .LVU261
 904 00b2 0023     		movs	r3, #0
 905 00b4 2B61     		str	r3, [r5, #16]
 365:Drivers/STM32F4xx_HAL_Driver/Src/stm32f4xx_ll_usb.c ****   USBx_DEVICE->DAINTMSK = 0U;
 906              		.loc 1 365 3 is_stmt 1 view .LVU262
 365:Drivers/STM32F4xx_HAL_Driver/Src/stm32f4xx_ll_usb.c ****   USBx_DEVICE->DAINTMSK = 0U;
 907              		.loc 1 365 24 is_stmt 0 view .LVU263
 908 00b6 6B61     		str	r3, [r5, #20]
 366:Drivers/STM32F4xx_HAL_Driver/Src/stm32f4xx_ll_usb.c **** 
 909              		.loc 1 366 3 is_stmt 1 view .LVU264
 366:Drivers/STM32F4xx_HAL_Driver/Src/stm32f4xx_ll_usb.c **** 
 910              		.loc 1 366 25 is_stmt 0 view .LVU265
 911 00b8 EB61     		str	r3, [r5, #28]
 368:Drivers/STM32F4xx_HAL_Driver/Src/stm32f4xx_ll_usb.c ****   {
 912              		.loc 1 368 3 is_stmt 1 view .LVU266
 913              	.LVL85:
 368:Drivers/STM32F4xx_HAL_Driver/Src/stm32f4xx_ll_usb.c ****   {
 914              		.loc 1 368 3 is_stmt 0 view .LVU267
 915 00ba 0AE0     		b	.L65
 916              	.LVL86:
 917              	.L82:
 372:Drivers/STM32F4xx_HAL_Driver/Src/stm32f4xx_ll_usb.c ****       {
 918              		.loc 1 372 7 is_stmt 1 view .LVU268
 372:Drivers/STM32F4xx_HAL_Driver/Src/stm32f4xx_ll_usb.c ****       {
 919              		.loc 1 372 10 is_stmt 0 view .LVU269
 920 00bc C3B9     		cbnz	r3, .L67
 374:Drivers/STM32F4xx_HAL_Driver/Src/stm32f4xx_ll_usb.c ****       }
 921              		.loc 1 374 9 is_stmt 1 view .LVU270
 374:Drivers/STM32F4xx_HAL_Driver/Src/stm32f4xx_ll_usb.c ****       }
 922              		.loc 1 374 31 is_stmt 0 view .LVU271
 923 00be 4FF00060 		mov	r0, #134217728
 924 00c2 C2F80009 		str	r0, [r2, #2304]
 925              	.L68:
 386:Drivers/STM32F4xx_HAL_Driver/Src/stm32f4xx_ll_usb.c ****     USBx_INEP(i)->DIEPINT  = 0xFB7FU;
 926              		.loc 1 386 5 is_stmt 1 discriminator 2 view .LVU272
 386:Drivers/STM32F4xx_HAL_Driver/Src/stm32f4xx_ll_usb.c ****     USBx_INEP(i)->DIEPINT  = 0xFB7FU;
 927              		.loc 1 386 28 is_stmt 0 discriminator 2 view .LVU273
 928 00c6 0022     		movs	r2, #0
 929 00c8 0A61     		str	r2, [r1, #16]
 387:Drivers/STM32F4xx_HAL_Driver/Src/stm32f4xx_ll_usb.c ****   }
 930              		.loc 1 387 5 is_stmt 1 discriminator 2 view .LVU274
ARM GAS  C:\Users\7636~1\AppData\Local\Temp\ccnv92VB.s 			page 45


 387:Drivers/STM32F4xx_HAL_Driver/Src/stm32f4xx_ll_usb.c ****   }
 931              		.loc 1 387 28 is_stmt 0 discriminator 2 view .LVU275
 932 00ca 4FF67F32 		movw	r2, #64383
 933 00ce 8A60     		str	r2, [r1, #8]
 368:Drivers/STM32F4xx_HAL_Driver/Src/stm32f4xx_ll_usb.c ****   {
 934              		.loc 1 368 39 is_stmt 1 discriminator 2 view .LVU276
 368:Drivers/STM32F4xx_HAL_Driver/Src/stm32f4xx_ll_usb.c ****   {
 935              		.loc 1 368 40 is_stmt 0 discriminator 2 view .LVU277
 936 00d0 0133     		adds	r3, r3, #1
 937              	.LVL87:
 938              	.L65:
 368:Drivers/STM32F4xx_HAL_Driver/Src/stm32f4xx_ll_usb.c ****   {
 939              		.loc 1 368 16 is_stmt 1 discriminator 1 view .LVU278
 368:Drivers/STM32F4xx_HAL_Driver/Src/stm32f4xx_ll_usb.c ****   {
 940              		.loc 1 368 23 is_stmt 0 discriminator 1 view .LVU279
 941 00d2 0799     		ldr	r1, [sp, #28]
 368:Drivers/STM32F4xx_HAL_Driver/Src/stm32f4xx_ll_usb.c ****   {
 942              		.loc 1 368 3 discriminator 1 view .LVU280
 943 00d4 9942     		cmp	r1, r3
 944 00d6 10D9     		bls	.L81
 370:Drivers/STM32F4xx_HAL_Driver/Src/stm32f4xx_ll_usb.c ****     {
 945              		.loc 1 370 5 is_stmt 1 view .LVU281
 370:Drivers/STM32F4xx_HAL_Driver/Src/stm32f4xx_ll_usb.c ****     {
 946              		.loc 1 370 10 is_stmt 0 view .LVU282
 947 00d8 04EB4312 		add	r2, r4, r3, lsl #5
 948 00dc 02F51061 		add	r1, r2, #2304
 370:Drivers/STM32F4xx_HAL_Driver/Src/stm32f4xx_ll_usb.c ****     {
 949              		.loc 1 370 22 view .LVU283
 950 00e0 D2F80009 		ldr	r0, [r2, #2304]
 370:Drivers/STM32F4xx_HAL_Driver/Src/stm32f4xx_ll_usb.c ****     {
 951              		.loc 1 370 8 view .LVU284
 952 00e4 0028     		cmp	r0, #0
 953 00e6 E9DB     		blt	.L82
 383:Drivers/STM32F4xx_HAL_Driver/Src/stm32f4xx_ll_usb.c ****     }
 954              		.loc 1 383 7 is_stmt 1 view .LVU285
 383:Drivers/STM32F4xx_HAL_Driver/Src/stm32f4xx_ll_usb.c ****     }
 955              		.loc 1 383 29 is_stmt 0 view .LVU286
 956 00e8 0020     		movs	r0, #0
 957 00ea C2F80009 		str	r0, [r2, #2304]
 958 00ee EAE7     		b	.L68
 959              	.L67:
 378:Drivers/STM32F4xx_HAL_Driver/Src/stm32f4xx_ll_usb.c ****       }
 960              		.loc 1 378 9 is_stmt 1 view .LVU287
 378:Drivers/STM32F4xx_HAL_Driver/Src/stm32f4xx_ll_usb.c ****       }
 961              		.loc 1 378 31 is_stmt 0 view .LVU288
 962 00f0 4FF09040 		mov	r0, #1207959552
 963 00f4 C2F80009 		str	r0, [r2, #2304]
 964 00f8 E5E7     		b	.L68
 965              	.L81:
 390:Drivers/STM32F4xx_HAL_Driver/Src/stm32f4xx_ll_usb.c ****   {
 966              		.loc 1 390 10 view .LVU289
 967 00fa 0023     		movs	r3, #0
 968              	.LVL88:
 390:Drivers/STM32F4xx_HAL_Driver/Src/stm32f4xx_ll_usb.c ****   {
 969              		.loc 1 390 10 view .LVU290
 970 00fc 0AE0     		b	.L70
 971              	.LVL89:
ARM GAS  C:\Users\7636~1\AppData\Local\Temp\ccnv92VB.s 			page 46


 972              	.L85:
 394:Drivers/STM32F4xx_HAL_Driver/Src/stm32f4xx_ll_usb.c ****       {
 973              		.loc 1 394 7 is_stmt 1 view .LVU291
 394:Drivers/STM32F4xx_HAL_Driver/Src/stm32f4xx_ll_usb.c ****       {
 974              		.loc 1 394 10 is_stmt 0 view .LVU292
 975 00fe C3B1     		cbz	r3, .L83
 400:Drivers/STM32F4xx_HAL_Driver/Src/stm32f4xx_ll_usb.c ****       }
 976              		.loc 1 400 9 is_stmt 1 view .LVU293
 400:Drivers/STM32F4xx_HAL_Driver/Src/stm32f4xx_ll_usb.c ****       }
 977              		.loc 1 400 32 is_stmt 0 view .LVU294
 978 0100 4FF0904C 		mov	ip, #1207959552
 979 0104 C2F800CB 		str	ip, [r2, #2816]
 980              	.L73:
 408:Drivers/STM32F4xx_HAL_Driver/Src/stm32f4xx_ll_usb.c ****     USBx_OUTEP(i)->DOEPINT  = 0xFB7FU;
 981              		.loc 1 408 5 is_stmt 1 discriminator 2 view .LVU295
 408:Drivers/STM32F4xx_HAL_Driver/Src/stm32f4xx_ll_usb.c ****     USBx_OUTEP(i)->DOEPINT  = 0xFB7FU;
 982              		.loc 1 408 29 is_stmt 0 discriminator 2 view .LVU296
 983 0108 0022     		movs	r2, #0
 984 010a 0261     		str	r2, [r0, #16]
 409:Drivers/STM32F4xx_HAL_Driver/Src/stm32f4xx_ll_usb.c ****   }
 985              		.loc 1 409 5 is_stmt 1 discriminator 2 view .LVU297
 409:Drivers/STM32F4xx_HAL_Driver/Src/stm32f4xx_ll_usb.c ****   }
 986              		.loc 1 409 29 is_stmt 0 discriminator 2 view .LVU298
 987 010c 4FF67F32 		movw	r2, #64383
 988 0110 8260     		str	r2, [r0, #8]
 390:Drivers/STM32F4xx_HAL_Driver/Src/stm32f4xx_ll_usb.c ****   {
 989              		.loc 1 390 39 is_stmt 1 discriminator 2 view .LVU299
 390:Drivers/STM32F4xx_HAL_Driver/Src/stm32f4xx_ll_usb.c ****   {
 990              		.loc 1 390 40 is_stmt 0 discriminator 2 view .LVU300
 991 0112 0133     		adds	r3, r3, #1
 992              	.LVL90:
 993              	.L70:
 390:Drivers/STM32F4xx_HAL_Driver/Src/stm32f4xx_ll_usb.c ****   {
 994              		.loc 1 390 16 is_stmt 1 discriminator 1 view .LVU301
 390:Drivers/STM32F4xx_HAL_Driver/Src/stm32f4xx_ll_usb.c ****   {
 995              		.loc 1 390 3 is_stmt 0 discriminator 1 view .LVU302
 996 0114 9942     		cmp	r1, r3
 997 0116 11D9     		bls	.L84
 392:Drivers/STM32F4xx_HAL_Driver/Src/stm32f4xx_ll_usb.c ****     {
 998              		.loc 1 392 5 is_stmt 1 view .LVU303
 392:Drivers/STM32F4xx_HAL_Driver/Src/stm32f4xx_ll_usb.c ****     {
 999              		.loc 1 392 10 is_stmt 0 view .LVU304
 1000 0118 04EB4312 		add	r2, r4, r3, lsl #5
 1001 011c 02F53060 		add	r0, r2, #2816
 392:Drivers/STM32F4xx_HAL_Driver/Src/stm32f4xx_ll_usb.c ****     {
 1002              		.loc 1 392 23 view .LVU305
 1003 0120 D2F8006B 		ldr	r6, [r2, #2816]
 392:Drivers/STM32F4xx_HAL_Driver/Src/stm32f4xx_ll_usb.c ****     {
 1004              		.loc 1 392 8 view .LVU306
 1005 0124 002E     		cmp	r6, #0
 1006 0126 EADB     		blt	.L85
 405:Drivers/STM32F4xx_HAL_Driver/Src/stm32f4xx_ll_usb.c ****     }
 1007              		.loc 1 405 7 is_stmt 1 view .LVU307
 405:Drivers/STM32F4xx_HAL_Driver/Src/stm32f4xx_ll_usb.c ****     }
 1008              		.loc 1 405 30 is_stmt 0 view .LVU308
 1009 0128 4FF0000C 		mov	ip, #0
 1010 012c C2F800CB 		str	ip, [r2, #2816]
ARM GAS  C:\Users\7636~1\AppData\Local\Temp\ccnv92VB.s 			page 47


 1011 0130 EAE7     		b	.L73
 1012              	.L83:
 396:Drivers/STM32F4xx_HAL_Driver/Src/stm32f4xx_ll_usb.c ****       }
 1013              		.loc 1 396 9 is_stmt 1 view .LVU309
 396:Drivers/STM32F4xx_HAL_Driver/Src/stm32f4xx_ll_usb.c ****       }
 1014              		.loc 1 396 32 is_stmt 0 view .LVU310
 1015 0132 4FF0006C 		mov	ip, #134217728
 1016 0136 C2F800CB 		str	ip, [r2, #2816]
 1017 013a E5E7     		b	.L73
 1018              	.L84:
 412:Drivers/STM32F4xx_HAL_Driver/Src/stm32f4xx_ll_usb.c **** 
 1019              		.loc 1 412 3 is_stmt 1 view .LVU311
 412:Drivers/STM32F4xx_HAL_Driver/Src/stm32f4xx_ll_usb.c **** 
 1020              		.loc 1 412 24 is_stmt 0 view .LVU312
 1021 013c 2B69     		ldr	r3, [r5, #16]
 1022              	.LVL91:
 412:Drivers/STM32F4xx_HAL_Driver/Src/stm32f4xx_ll_usb.c **** 
 1023              		.loc 1 412 24 view .LVU313
 1024 013e 23F48073 		bic	r3, r3, #256
 1025 0142 2B61     		str	r3, [r5, #16]
 415:Drivers/STM32F4xx_HAL_Driver/Src/stm32f4xx_ll_usb.c **** 
 1026              		.loc 1 415 3 is_stmt 1 view .LVU314
 415:Drivers/STM32F4xx_HAL_Driver/Src/stm32f4xx_ll_usb.c **** 
 1027              		.loc 1 415 17 is_stmt 0 view .LVU315
 1028 0144 0023     		movs	r3, #0
 1029 0146 A361     		str	r3, [r4, #24]
 418:Drivers/STM32F4xx_HAL_Driver/Src/stm32f4xx_ll_usb.c **** 
 1030              		.loc 1 418 3 is_stmt 1 view .LVU316
 418:Drivers/STM32F4xx_HAL_Driver/Src/stm32f4xx_ll_usb.c **** 
 1031              		.loc 1 418 17 is_stmt 0 view .LVU317
 1032 0148 6FF08043 		mvn	r3, #1073741824
 1033 014c 6361     		str	r3, [r4, #20]
 421:Drivers/STM32F4xx_HAL_Driver/Src/stm32f4xx_ll_usb.c ****   {
 1034              		.loc 1 421 3 is_stmt 1 view .LVU318
 421:Drivers/STM32F4xx_HAL_Driver/Src/stm32f4xx_ll_usb.c ****   {
 1035              		.loc 1 421 10 is_stmt 0 view .LVU319
 1036 014e 0A9B     		ldr	r3, [sp, #40]
 421:Drivers/STM32F4xx_HAL_Driver/Src/stm32f4xx_ll_usb.c ****   {
 1037              		.loc 1 421 6 view .LVU320
 1038 0150 1BB9     		cbnz	r3, .L75
 423:Drivers/STM32F4xx_HAL_Driver/Src/stm32f4xx_ll_usb.c ****   }
 1039              		.loc 1 423 5 is_stmt 1 view .LVU321
 423:Drivers/STM32F4xx_HAL_Driver/Src/stm32f4xx_ll_usb.c ****   }
 1040              		.loc 1 423 19 is_stmt 0 view .LVU322
 1041 0152 A369     		ldr	r3, [r4, #24]
 1042 0154 43F01003 		orr	r3, r3, #16
 1043 0158 A361     		str	r3, [r4, #24]
 1044              	.L75:
 427:Drivers/STM32F4xx_HAL_Driver/Src/stm32f4xx_ll_usb.c ****                    USB_OTG_GINTMSK_ENUMDNEM | USB_OTG_GINTMSK_IEPINT |
 1045              		.loc 1 427 3 is_stmt 1 view .LVU323
 427:Drivers/STM32F4xx_HAL_Driver/Src/stm32f4xx_ll_usb.c ****                    USB_OTG_GINTMSK_ENUMDNEM | USB_OTG_GINTMSK_IEPINT |
 1046              		.loc 1 427 17 is_stmt 0 view .LVU324
 1047 015a A269     		ldr	r2, [r4, #24]
 1048 015c 0B4B     		ldr	r3, .L87
 1049 015e 1343     		orrs	r3, r3, r2
 1050 0160 A361     		str	r3, [r4, #24]
 432:Drivers/STM32F4xx_HAL_Driver/Src/stm32f4xx_ll_usb.c ****   {
ARM GAS  C:\Users\7636~1\AppData\Local\Temp\ccnv92VB.s 			page 48


 1051              		.loc 1 432 3 is_stmt 1 view .LVU325
 432:Drivers/STM32F4xx_HAL_Driver/Src/stm32f4xx_ll_usb.c ****   {
 1052              		.loc 1 432 10 is_stmt 0 view .LVU326
 1053 0162 0D9B     		ldr	r3, [sp, #52]
 432:Drivers/STM32F4xx_HAL_Driver/Src/stm32f4xx_ll_usb.c ****   {
 1054              		.loc 1 432 6 view .LVU327
 1055 0164 1BB1     		cbz	r3, .L76
 434:Drivers/STM32F4xx_HAL_Driver/Src/stm32f4xx_ll_usb.c ****   }
 1056              		.loc 1 434 5 is_stmt 1 view .LVU328
 434:Drivers/STM32F4xx_HAL_Driver/Src/stm32f4xx_ll_usb.c ****   }
 1057              		.loc 1 434 19 is_stmt 0 view .LVU329
 1058 0166 A369     		ldr	r3, [r4, #24]
 1059 0168 43F00803 		orr	r3, r3, #8
 1060 016c A361     		str	r3, [r4, #24]
 1061              	.L76:
 437:Drivers/STM32F4xx_HAL_Driver/Src/stm32f4xx_ll_usb.c ****   {
 1062              		.loc 1 437 3 is_stmt 1 view .LVU330
 437:Drivers/STM32F4xx_HAL_Driver/Src/stm32f4xx_ll_usb.c ****   {
 1063              		.loc 1 437 6 is_stmt 0 view .LVU331
 1064 016e 012F     		cmp	r7, #1
 1065 0170 04D0     		beq	.L86
 1066              	.L77:
 442:Drivers/STM32F4xx_HAL_Driver/Src/stm32f4xx_ll_usb.c **** }
 1067              		.loc 1 442 3 is_stmt 1 view .LVU332
 443:Drivers/STM32F4xx_HAL_Driver/Src/stm32f4xx_ll_usb.c **** 
 1068              		.loc 1 443 1 is_stmt 0 view .LVU333
 1069 0172 4046     		mov	r0, r8
 1070 0174 BDE8F041 		pop	{r4, r5, r6, r7, r8, lr}
 1071              	.LCFI8:
 1072              		.cfi_remember_state
 1073              		.cfi_restore 14
 1074              		.cfi_restore 8
 1075              		.cfi_restore 7
 1076              		.cfi_restore 6
 1077              		.cfi_restore 5
 1078              		.cfi_restore 4
 1079              		.cfi_def_cfa_offset 16
 1080              	.LVL92:
 443:Drivers/STM32F4xx_HAL_Driver/Src/stm32f4xx_ll_usb.c **** 
 1081              		.loc 1 443 1 view .LVU334
 1082 0178 04B0     		add	sp, sp, #16
 1083              	.LCFI9:
 1084              		.cfi_def_cfa_offset 0
 1085 017a 7047     		bx	lr
 1086              	.LVL93:
 1087              	.L86:
 1088              	.LCFI10:
 1089              		.cfi_restore_state
 439:Drivers/STM32F4xx_HAL_Driver/Src/stm32f4xx_ll_usb.c ****   }
 1090              		.loc 1 439 5 is_stmt 1 view .LVU335
 439:Drivers/STM32F4xx_HAL_Driver/Src/stm32f4xx_ll_usb.c ****   }
 1091              		.loc 1 439 19 is_stmt 0 view .LVU336
 1092 017c A369     		ldr	r3, [r4, #24]
 1093 017e 43F08043 		orr	r3, r3, #1073741824
 1094 0182 43F00403 		orr	r3, r3, #4
 1095 0186 A361     		str	r3, [r4, #24]
 1096 0188 F3E7     		b	.L77
ARM GAS  C:\Users\7636~1\AppData\Local\Temp\ccnv92VB.s 			page 49


 1097              	.L88:
 1098 018a 00BF     		.align	2
 1099              	.L87:
 1100 018c 00383C80 		.word	-2143537152
 1101              		.cfi_endproc
 1102              	.LFE221:
 1104              		.section	.text.USB_GetDevSpeed,"ax",%progbits
 1105              		.align	1
 1106              		.global	USB_GetDevSpeed
 1107              		.syntax unified
 1108              		.thumb
 1109              		.thumb_func
 1111              	USB_GetDevSpeed:
 1112              	.LVL94:
 1113              	.LFB225:
 520:Drivers/STM32F4xx_HAL_Driver/Src/stm32f4xx_ll_usb.c ****   uint32_t USBx_BASE = (uint32_t)USBx;
 1114              		.loc 1 520 1 is_stmt 1 view -0
 1115              		.cfi_startproc
 1116              		@ args = 0, pretend = 0, frame = 0
 1117              		@ frame_needed = 0, uses_anonymous_args = 0
 1118              		@ link register save eliminated.
 521:Drivers/STM32F4xx_HAL_Driver/Src/stm32f4xx_ll_usb.c ****   uint8_t speed;
 1119              		.loc 1 521 3 view .LVU338
 522:Drivers/STM32F4xx_HAL_Driver/Src/stm32f4xx_ll_usb.c ****   uint32_t DevEnumSpeed = USBx_DEVICE->DSTS & USB_OTG_DSTS_ENUMSPD;
 1120              		.loc 1 522 3 view .LVU339
 523:Drivers/STM32F4xx_HAL_Driver/Src/stm32f4xx_ll_usb.c **** 
 1121              		.loc 1 523 3 view .LVU340
 523:Drivers/STM32F4xx_HAL_Driver/Src/stm32f4xx_ll_usb.c **** 
 1122              		.loc 1 523 38 is_stmt 0 view .LVU341
 1123 0000 D0F80838 		ldr	r3, [r0, #2056]
 1124              	.LVL95:
 525:Drivers/STM32F4xx_HAL_Driver/Src/stm32f4xx_ll_usb.c ****   {
 1125              		.loc 1 525 3 is_stmt 1 view .LVU342
 525:Drivers/STM32F4xx_HAL_Driver/Src/stm32f4xx_ll_usb.c ****   {
 1126              		.loc 1 525 6 is_stmt 0 view .LVU343
 1127 0004 13F00603 		ands	r3, r3, #6
 1128              	.LVL96:
 525:Drivers/STM32F4xx_HAL_Driver/Src/stm32f4xx_ll_usb.c ****   {
 1129              		.loc 1 525 6 view .LVU344
 1130 0008 07D0     		beq	.L91
 529:Drivers/STM32F4xx_HAL_Driver/Src/stm32f4xx_ll_usb.c ****            (DevEnumSpeed == DSTS_ENUMSPD_FS_PHY_48MHZ))
 1131              		.loc 1 529 8 is_stmt 1 view .LVU345
 529:Drivers/STM32F4xx_HAL_Driver/Src/stm32f4xx_ll_usb.c ****            (DevEnumSpeed == DSTS_ENUMSPD_FS_PHY_48MHZ))
 1132              		.loc 1 529 11 is_stmt 0 view .LVU346
 1133 000a 022B     		cmp	r3, #2
 1134 000c 07D0     		beq	.L92
 529:Drivers/STM32F4xx_HAL_Driver/Src/stm32f4xx_ll_usb.c ****            (DevEnumSpeed == DSTS_ENUMSPD_FS_PHY_48MHZ))
 1135              		.loc 1 529 65 discriminator 1 view .LVU347
 1136 000e 062B     		cmp	r3, #6
 1137 0010 01D0     		beq	.L94
 536:Drivers/STM32F4xx_HAL_Driver/Src/stm32f4xx_ll_usb.c ****   }
 1138              		.loc 1 536 11 view .LVU348
 1139 0012 0F20     		movs	r0, #15
 1140              	.LVL97:
 539:Drivers/STM32F4xx_HAL_Driver/Src/stm32f4xx_ll_usb.c **** }
 1141              		.loc 1 539 3 is_stmt 1 view .LVU349
 540:Drivers/STM32F4xx_HAL_Driver/Src/stm32f4xx_ll_usb.c **** 
ARM GAS  C:\Users\7636~1\AppData\Local\Temp\ccnv92VB.s 			page 50


 1142              		.loc 1 540 1 is_stmt 0 view .LVU350
 1143 0014 7047     		bx	lr
 1144              	.LVL98:
 1145              	.L94:
 532:Drivers/STM32F4xx_HAL_Driver/Src/stm32f4xx_ll_usb.c ****   }
 1146              		.loc 1 532 11 view .LVU351
 1147 0016 0220     		movs	r0, #2
 1148              	.LVL99:
 532:Drivers/STM32F4xx_HAL_Driver/Src/stm32f4xx_ll_usb.c ****   }
 1149              		.loc 1 532 11 view .LVU352
 1150 0018 7047     		bx	lr
 1151              	.LVL100:
 1152              	.L91:
 527:Drivers/STM32F4xx_HAL_Driver/Src/stm32f4xx_ll_usb.c ****   }
 1153              		.loc 1 527 11 view .LVU353
 1154 001a 0020     		movs	r0, #0
 1155              	.LVL101:
 527:Drivers/STM32F4xx_HAL_Driver/Src/stm32f4xx_ll_usb.c ****   }
 1156              		.loc 1 527 11 view .LVU354
 1157 001c 7047     		bx	lr
 1158              	.LVL102:
 1159              	.L92:
 532:Drivers/STM32F4xx_HAL_Driver/Src/stm32f4xx_ll_usb.c ****   }
 1160              		.loc 1 532 11 view .LVU355
 1161 001e 0220     		movs	r0, #2
 1162              	.LVL103:
 532:Drivers/STM32F4xx_HAL_Driver/Src/stm32f4xx_ll_usb.c ****   }
 1163              		.loc 1 532 11 view .LVU356
 1164 0020 7047     		bx	lr
 1165              		.cfi_endproc
 1166              	.LFE225:
 1168              		.section	.text.USB_ActivateEndpoint,"ax",%progbits
 1169              		.align	1
 1170              		.global	USB_ActivateEndpoint
 1171              		.syntax unified
 1172              		.thumb
 1173              		.thumb_func
 1175              	USB_ActivateEndpoint:
 1176              	.LVL104:
 1177              	.LFB226:
 549:Drivers/STM32F4xx_HAL_Driver/Src/stm32f4xx_ll_usb.c ****   uint32_t USBx_BASE = (uint32_t)USBx;
 1178              		.loc 1 549 1 is_stmt 1 view -0
 1179              		.cfi_startproc
 1180              		@ args = 0, pretend = 0, frame = 0
 1181              		@ frame_needed = 0, uses_anonymous_args = 0
 549:Drivers/STM32F4xx_HAL_Driver/Src/stm32f4xx_ll_usb.c ****   uint32_t USBx_BASE = (uint32_t)USBx;
 1182              		.loc 1 549 1 is_stmt 0 view .LVU358
 1183 0000 10B5     		push	{r4, lr}
 1184              	.LCFI11:
 1185              		.cfi_def_cfa_offset 8
 1186              		.cfi_offset 4, -8
 1187              		.cfi_offset 14, -4
 550:Drivers/STM32F4xx_HAL_Driver/Src/stm32f4xx_ll_usb.c ****   uint32_t epnum = (uint32_t)ep->num;
 1188              		.loc 1 550 3 is_stmt 1 view .LVU359
 1189              	.LVL105:
 551:Drivers/STM32F4xx_HAL_Driver/Src/stm32f4xx_ll_usb.c **** 
 1190              		.loc 1 551 3 view .LVU360
ARM GAS  C:\Users\7636~1\AppData\Local\Temp\ccnv92VB.s 			page 51


 551:Drivers/STM32F4xx_HAL_Driver/Src/stm32f4xx_ll_usb.c **** 
 1191              		.loc 1 551 32 is_stmt 0 view .LVU361
 1192 0002 91F800C0 		ldrb	ip, [r1]	@ zero_extendqisi2
 1193              	.LVL106:
 553:Drivers/STM32F4xx_HAL_Driver/Src/stm32f4xx_ll_usb.c ****   {
 1194              		.loc 1 553 3 is_stmt 1 view .LVU362
 553:Drivers/STM32F4xx_HAL_Driver/Src/stm32f4xx_ll_usb.c ****   {
 1195              		.loc 1 553 9 is_stmt 0 view .LVU363
 1196 0006 4B78     		ldrb	r3, [r1, #1]	@ zero_extendqisi2
 553:Drivers/STM32F4xx_HAL_Driver/Src/stm32f4xx_ll_usb.c ****   {
 1197              		.loc 1 553 6 view .LVU364
 1198 0008 012B     		cmp	r3, #1
 1199 000a 23D0     		beq	.L99
 567:Drivers/STM32F4xx_HAL_Driver/Src/stm32f4xx_ll_usb.c **** 
 1200              		.loc 1 567 5 is_stmt 1 view .LVU365
 567:Drivers/STM32F4xx_HAL_Driver/Src/stm32f4xx_ll_usb.c **** 
 1201              		.loc 1 567 27 is_stmt 0 view .LVU366
 1202 000c 00F5006E 		add	lr, r0, #2048
 1203 0010 D0F81C38 		ldr	r3, [r0, #2076]
 567:Drivers/STM32F4xx_HAL_Driver/Src/stm32f4xx_ll_usb.c **** 
 1204              		.loc 1 567 82 view .LVU367
 1205 0014 0CF00F04 		and	r4, ip, #15
 567:Drivers/STM32F4xx_HAL_Driver/Src/stm32f4xx_ll_usb.c **** 
 1206              		.loc 1 567 55 view .LVU368
 1207 0018 0122     		movs	r2, #1
 1208 001a A240     		lsls	r2, r2, r4
 567:Drivers/STM32F4xx_HAL_Driver/Src/stm32f4xx_ll_usb.c **** 
 1209              		.loc 1 567 27 view .LVU369
 1210 001c 43EA0243 		orr	r3, r3, r2, lsl #16
 1211 0020 C0F81C38 		str	r3, [r0, #2076]
 569:Drivers/STM32F4xx_HAL_Driver/Src/stm32f4xx_ll_usb.c ****     {
 1212              		.loc 1 569 5 is_stmt 1 view .LVU370
 569:Drivers/STM32F4xx_HAL_Driver/Src/stm32f4xx_ll_usb.c ****     {
 1213              		.loc 1 569 11 is_stmt 0 view .LVU371
 1214 0024 00EB4C10 		add	r0, r0, ip, lsl #5
 1215              	.LVL107:
 569:Drivers/STM32F4xx_HAL_Driver/Src/stm32f4xx_ll_usb.c ****     {
 1216              		.loc 1 569 28 view .LVU372
 1217 0028 D0F8003B 		ldr	r3, [r0, #2816]
 569:Drivers/STM32F4xx_HAL_Driver/Src/stm32f4xx_ll_usb.c ****     {
 1218              		.loc 1 569 8 view .LVU373
 1219 002c 13F4004F 		tst	r3, #32768
 1220 0030 0ED1     		bne	.L97
 571:Drivers/STM32F4xx_HAL_Driver/Src/stm32f4xx_ll_usb.c ****                                     ((uint32_t)ep->type << 18) |
 1221              		.loc 1 571 7 is_stmt 1 view .LVU374
 571:Drivers/STM32F4xx_HAL_Driver/Src/stm32f4xx_ll_usb.c ****                                     ((uint32_t)ep->type << 18) |
 1222              		.loc 1 571 34 is_stmt 0 view .LVU375
 1223 0032 D0F8003B 		ldr	r3, [r0, #2816]
 571:Drivers/STM32F4xx_HAL_Driver/Src/stm32f4xx_ll_usb.c ****                                     ((uint32_t)ep->type << 18) |
 1224              		.loc 1 571 40 view .LVU376
 1225 0036 8A68     		ldr	r2, [r1, #8]
 571:Drivers/STM32F4xx_HAL_Driver/Src/stm32f4xx_ll_usb.c ****                                     ((uint32_t)ep->type << 18) |
 1226              		.loc 1 571 52 view .LVU377
 1227 0038 C2F30A02 		ubfx	r2, r2, #0, #11
 572:Drivers/STM32F4xx_HAL_Driver/Src/stm32f4xx_ll_usb.c ****                                     USB_OTG_DIEPCTL_SD0PID_SEVNFRM |
 1228              		.loc 1 572 50 view .LVU378
 1229 003c C978     		ldrb	r1, [r1, #3]	@ zero_extendqisi2
ARM GAS  C:\Users\7636~1\AppData\Local\Temp\ccnv92VB.s 			page 52


 1230              	.LVL108:
 571:Drivers/STM32F4xx_HAL_Driver/Src/stm32f4xx_ll_usb.c ****                                     ((uint32_t)ep->type << 18) |
 1231              		.loc 1 571 77 view .LVU379
 1232 003e 42EA8142 		orr	r2, r2, r1, lsl #18
 571:Drivers/STM32F4xx_HAL_Driver/Src/stm32f4xx_ll_usb.c ****                                     ((uint32_t)ep->type << 18) |
 1233              		.loc 1 571 34 view .LVU380
 1234 0042 1343     		orrs	r3, r3, r2
 1235 0044 43F08053 		orr	r3, r3, #268435456
 1236 0048 43F40043 		orr	r3, r3, #32768
 1237 004c C0F8003B 		str	r3, [r0, #2816]
 1238              	.LVL109:
 1239              	.L97:
 577:Drivers/STM32F4xx_HAL_Driver/Src/stm32f4xx_ll_usb.c **** }
 1240              		.loc 1 577 3 is_stmt 1 view .LVU381
 578:Drivers/STM32F4xx_HAL_Driver/Src/stm32f4xx_ll_usb.c **** 
 1241              		.loc 1 578 1 is_stmt 0 view .LVU382
 1242 0050 0020     		movs	r0, #0
 1243 0052 10BD     		pop	{r4, pc}
 1244              	.LVL110:
 1245              	.L99:
 555:Drivers/STM32F4xx_HAL_Driver/Src/stm32f4xx_ll_usb.c **** 
 1246              		.loc 1 555 5 is_stmt 1 view .LVU383
 555:Drivers/STM32F4xx_HAL_Driver/Src/stm32f4xx_ll_usb.c **** 
 1247              		.loc 1 555 27 is_stmt 0 view .LVU384
 1248 0054 D0F81C28 		ldr	r2, [r0, #2076]
 555:Drivers/STM32F4xx_HAL_Driver/Src/stm32f4xx_ll_usb.c **** 
 1249              		.loc 1 555 81 view .LVU385
 1250 0058 0CF00F0E 		and	lr, ip, #15
 555:Drivers/STM32F4xx_HAL_Driver/Src/stm32f4xx_ll_usb.c **** 
 1251              		.loc 1 555 54 view .LVU386
 1252 005c 03FA0EF3 		lsl	r3, r3, lr
 555:Drivers/STM32F4xx_HAL_Driver/Src/stm32f4xx_ll_usb.c **** 
 1253              		.loc 1 555 52 view .LVU387
 1254 0060 9BB2     		uxth	r3, r3
 555:Drivers/STM32F4xx_HAL_Driver/Src/stm32f4xx_ll_usb.c **** 
 1255              		.loc 1 555 27 view .LVU388
 1256 0062 1343     		orrs	r3, r3, r2
 1257 0064 C0F81C38 		str	r3, [r0, #2076]
 557:Drivers/STM32F4xx_HAL_Driver/Src/stm32f4xx_ll_usb.c ****     {
 1258              		.loc 1 557 5 is_stmt 1 view .LVU389
 557:Drivers/STM32F4xx_HAL_Driver/Src/stm32f4xx_ll_usb.c ****     {
 1259              		.loc 1 557 10 is_stmt 0 view .LVU390
 1260 0068 00EB4C10 		add	r0, r0, ip, lsl #5
 1261              	.LVL111:
 557:Drivers/STM32F4xx_HAL_Driver/Src/stm32f4xx_ll_usb.c ****     {
 1262              		.loc 1 557 26 view .LVU391
 1263 006c D0F80039 		ldr	r3, [r0, #2304]
 557:Drivers/STM32F4xx_HAL_Driver/Src/stm32f4xx_ll_usb.c ****     {
 1264              		.loc 1 557 8 view .LVU392
 1265 0070 13F4004F 		tst	r3, #32768
 1266 0074 ECD1     		bne	.L97
 559:Drivers/STM32F4xx_HAL_Driver/Src/stm32f4xx_ll_usb.c ****                                    ((uint32_t)ep->type << 18) | (epnum << 22) |
 1267              		.loc 1 559 7 is_stmt 1 view .LVU393
 559:Drivers/STM32F4xx_HAL_Driver/Src/stm32f4xx_ll_usb.c ****                                    ((uint32_t)ep->type << 18) | (epnum << 22) |
 1268              		.loc 1 559 33 is_stmt 0 view .LVU394
 1269 0076 D0F80039 		ldr	r3, [r0, #2304]
 559:Drivers/STM32F4xx_HAL_Driver/Src/stm32f4xx_ll_usb.c ****                                    ((uint32_t)ep->type << 18) | (epnum << 22) |
ARM GAS  C:\Users\7636~1\AppData\Local\Temp\ccnv92VB.s 			page 53


 1270              		.loc 1 559 39 view .LVU395
 1271 007a 8A68     		ldr	r2, [r1, #8]
 559:Drivers/STM32F4xx_HAL_Driver/Src/stm32f4xx_ll_usb.c ****                                    ((uint32_t)ep->type << 18) | (epnum << 22) |
 1272              		.loc 1 559 51 view .LVU396
 1273 007c C2F30A02 		ubfx	r2, r2, #0, #11
 560:Drivers/STM32F4xx_HAL_Driver/Src/stm32f4xx_ll_usb.c ****                                    USB_OTG_DIEPCTL_SD0PID_SEVNFRM |
 1274              		.loc 1 560 49 view .LVU397
 1275 0080 C978     		ldrb	r1, [r1, #3]	@ zero_extendqisi2
 1276              	.LVL112:
 559:Drivers/STM32F4xx_HAL_Driver/Src/stm32f4xx_ll_usb.c ****                                    ((uint32_t)ep->type << 18) | (epnum << 22) |
 1277              		.loc 1 559 76 view .LVU398
 1278 0082 42EA8142 		orr	r2, r2, r1, lsl #18
 560:Drivers/STM32F4xx_HAL_Driver/Src/stm32f4xx_ll_usb.c ****                                    USB_OTG_DIEPCTL_SD0PID_SEVNFRM |
 1279              		.loc 1 560 63 view .LVU399
 1280 0086 42EA8C5C 		orr	ip, r2, ip, lsl #22
 1281              	.LVL113:
 559:Drivers/STM32F4xx_HAL_Driver/Src/stm32f4xx_ll_usb.c ****                                    ((uint32_t)ep->type << 18) | (epnum << 22) |
 1282              		.loc 1 559 33 view .LVU400
 1283 008a 43EA0C03 		orr	r3, r3, ip
 1284 008e 43F08053 		orr	r3, r3, #268435456
 1285 0092 43F40043 		orr	r3, r3, #32768
 1286 0096 C0F80039 		str	r3, [r0, #2304]
 1287 009a D9E7     		b	.L97
 1288              		.cfi_endproc
 1289              	.LFE226:
 1291              		.section	.text.USB_ActivateDedicatedEndpoint,"ax",%progbits
 1292              		.align	1
 1293              		.global	USB_ActivateDedicatedEndpoint
 1294              		.syntax unified
 1295              		.thumb
 1296              		.thumb_func
 1298              	USB_ActivateDedicatedEndpoint:
 1299              	.LVL114:
 1300              	.LFB227:
 587:Drivers/STM32F4xx_HAL_Driver/Src/stm32f4xx_ll_usb.c ****   uint32_t USBx_BASE = (uint32_t)USBx;
 1301              		.loc 1 587 1 is_stmt 1 view -0
 1302              		.cfi_startproc
 1303              		@ args = 0, pretend = 0, frame = 0
 1304              		@ frame_needed = 0, uses_anonymous_args = 0
 587:Drivers/STM32F4xx_HAL_Driver/Src/stm32f4xx_ll_usb.c ****   uint32_t USBx_BASE = (uint32_t)USBx;
 1305              		.loc 1 587 1 is_stmt 0 view .LVU402
 1306 0000 10B5     		push	{r4, lr}
 1307              	.LCFI12:
 1308              		.cfi_def_cfa_offset 8
 1309              		.cfi_offset 4, -8
 1310              		.cfi_offset 14, -4
 588:Drivers/STM32F4xx_HAL_Driver/Src/stm32f4xx_ll_usb.c ****   uint32_t epnum = (uint32_t)ep->num;
 1311              		.loc 1 588 3 is_stmt 1 view .LVU403
 1312              	.LVL115:
 589:Drivers/STM32F4xx_HAL_Driver/Src/stm32f4xx_ll_usb.c **** 
 1313              		.loc 1 589 3 view .LVU404
 589:Drivers/STM32F4xx_HAL_Driver/Src/stm32f4xx_ll_usb.c **** 
 1314              		.loc 1 589 32 is_stmt 0 view .LVU405
 1315 0002 0A78     		ldrb	r2, [r1]	@ zero_extendqisi2
 1316              	.LVL116:
 592:Drivers/STM32F4xx_HAL_Driver/Src/stm32f4xx_ll_usb.c ****   {
 1317              		.loc 1 592 3 is_stmt 1 view .LVU406
ARM GAS  C:\Users\7636~1\AppData\Local\Temp\ccnv92VB.s 			page 54


 592:Drivers/STM32F4xx_HAL_Driver/Src/stm32f4xx_ll_usb.c ****   {
 1318              		.loc 1 592 9 is_stmt 0 view .LVU407
 1319 0004 4B78     		ldrb	r3, [r1, #1]	@ zero_extendqisi2
 592:Drivers/STM32F4xx_HAL_Driver/Src/stm32f4xx_ll_usb.c ****   {
 1320              		.loc 1 592 6 view .LVU408
 1321 0006 012B     		cmp	r3, #1
 1322 0008 23D0     		beq	.L106
 606:Drivers/STM32F4xx_HAL_Driver/Src/stm32f4xx_ll_usb.c ****     {
 1323              		.loc 1 606 5 is_stmt 1 view .LVU409
 606:Drivers/STM32F4xx_HAL_Driver/Src/stm32f4xx_ll_usb.c ****     {
 1324              		.loc 1 606 11 is_stmt 0 view .LVU410
 1325 000a 00EB421C 		add	ip, r0, r2, lsl #5
 606:Drivers/STM32F4xx_HAL_Driver/Src/stm32f4xx_ll_usb.c ****     {
 1326              		.loc 1 606 28 view .LVU411
 1327 000e DCF8003B 		ldr	r3, [ip, #2816]
 606:Drivers/STM32F4xx_HAL_Driver/Src/stm32f4xx_ll_usb.c ****     {
 1328              		.loc 1 606 8 view .LVU412
 1329 0012 13F4004F 		tst	r3, #32768
 1330 0016 0FD1     		bne	.L104
 608:Drivers/STM32F4xx_HAL_Driver/Src/stm32f4xx_ll_usb.c ****                                     ((uint32_t)ep->type << 18) | (epnum << 22) |
 1331              		.loc 1 608 7 is_stmt 1 view .LVU413
 608:Drivers/STM32F4xx_HAL_Driver/Src/stm32f4xx_ll_usb.c ****                                     ((uint32_t)ep->type << 18) | (epnum << 22) |
 1332              		.loc 1 608 34 is_stmt 0 view .LVU414
 1333 0018 DCF8004B 		ldr	r4, [ip, #2816]
 608:Drivers/STM32F4xx_HAL_Driver/Src/stm32f4xx_ll_usb.c ****                                     ((uint32_t)ep->type << 18) | (epnum << 22) |
 1334              		.loc 1 608 40 view .LVU415
 1335 001c 8B68     		ldr	r3, [r1, #8]
 608:Drivers/STM32F4xx_HAL_Driver/Src/stm32f4xx_ll_usb.c ****                                     ((uint32_t)ep->type << 18) | (epnum << 22) |
 1336              		.loc 1 608 52 view .LVU416
 1337 001e C3F30A03 		ubfx	r3, r3, #0, #11
 609:Drivers/STM32F4xx_HAL_Driver/Src/stm32f4xx_ll_usb.c ****                                     USB_OTG_DOEPCTL_USBAEP;
 1338              		.loc 1 609 50 view .LVU417
 1339 0022 91F803E0 		ldrb	lr, [r1, #3]	@ zero_extendqisi2
 608:Drivers/STM32F4xx_HAL_Driver/Src/stm32f4xx_ll_usb.c ****                                     ((uint32_t)ep->type << 18) | (epnum << 22) |
 1340              		.loc 1 608 77 view .LVU418
 1341 0026 43EA8E43 		orr	r3, r3, lr, lsl #18
 609:Drivers/STM32F4xx_HAL_Driver/Src/stm32f4xx_ll_usb.c ****                                     USB_OTG_DOEPCTL_USBAEP;
 1342              		.loc 1 609 64 view .LVU419
 1343 002a 43EA8253 		orr	r3, r3, r2, lsl #22
 608:Drivers/STM32F4xx_HAL_Driver/Src/stm32f4xx_ll_usb.c ****                                     ((uint32_t)ep->type << 18) | (epnum << 22) |
 1344              		.loc 1 608 34 view .LVU420
 1345 002e 2343     		orrs	r3, r3, r4
 1346 0030 43F40043 		orr	r3, r3, #32768
 1347 0034 CCF8003B 		str	r3, [ip, #2816]
 1348              	.L104:
 613:Drivers/STM32F4xx_HAL_Driver/Src/stm32f4xx_ll_usb.c ****   }
 1349              		.loc 1 613 5 is_stmt 1 view .LVU421
 613:Drivers/STM32F4xx_HAL_Driver/Src/stm32f4xx_ll_usb.c ****   }
 1350              		.loc 1 613 27 is_stmt 0 view .LVU422
 1351 0038 D0F83C38 		ldr	r3, [r0, #2108]
 613:Drivers/STM32F4xx_HAL_Driver/Src/stm32f4xx_ll_usb.c ****   }
 1352              		.loc 1 613 76 view .LVU423
 1353 003c 0A78     		ldrb	r2, [r1]	@ zero_extendqisi2
 1354              	.LVL117:
 613:Drivers/STM32F4xx_HAL_Driver/Src/stm32f4xx_ll_usb.c ****   }
 1355              		.loc 1 613 82 view .LVU424
 1356 003e 02F00F01 		and	r1, r2, #15
ARM GAS  C:\Users\7636~1\AppData\Local\Temp\ccnv92VB.s 			page 55


 1357              	.LVL118:
 613:Drivers/STM32F4xx_HAL_Driver/Src/stm32f4xx_ll_usb.c ****   }
 1358              		.loc 1 613 55 view .LVU425
 1359 0042 0122     		movs	r2, #1
 1360 0044 8A40     		lsls	r2, r2, r1
 613:Drivers/STM32F4xx_HAL_Driver/Src/stm32f4xx_ll_usb.c ****   }
 1361              		.loc 1 613 27 view .LVU426
 1362 0046 43EA0243 		orr	r3, r3, r2, lsl #16
 1363 004a C0F83C38 		str	r3, [r0, #2108]
 1364              	.L103:
 616:Drivers/STM32F4xx_HAL_Driver/Src/stm32f4xx_ll_usb.c **** }
 1365              		.loc 1 616 3 is_stmt 1 view .LVU427
 617:Drivers/STM32F4xx_HAL_Driver/Src/stm32f4xx_ll_usb.c **** 
 1366              		.loc 1 617 1 is_stmt 0 view .LVU428
 1367 004e 0020     		movs	r0, #0
 1368              	.LVL119:
 617:Drivers/STM32F4xx_HAL_Driver/Src/stm32f4xx_ll_usb.c **** 
 1369              		.loc 1 617 1 view .LVU429
 1370 0050 10BD     		pop	{r4, pc}
 1371              	.LVL120:
 1372              	.L106:
 594:Drivers/STM32F4xx_HAL_Driver/Src/stm32f4xx_ll_usb.c ****     {
 1373              		.loc 1 594 5 is_stmt 1 view .LVU430
 594:Drivers/STM32F4xx_HAL_Driver/Src/stm32f4xx_ll_usb.c ****     {
 1374              		.loc 1 594 11 is_stmt 0 view .LVU431
 1375 0052 00EB421C 		add	ip, r0, r2, lsl #5
 594:Drivers/STM32F4xx_HAL_Driver/Src/stm32f4xx_ll_usb.c ****     {
 1376              		.loc 1 594 27 view .LVU432
 1377 0056 DCF80039 		ldr	r3, [ip, #2304]
 594:Drivers/STM32F4xx_HAL_Driver/Src/stm32f4xx_ll_usb.c ****     {
 1378              		.loc 1 594 8 view .LVU433
 1379 005a 13F4004F 		tst	r3, #32768
 1380 005e 11D1     		bne	.L102
 596:Drivers/STM32F4xx_HAL_Driver/Src/stm32f4xx_ll_usb.c ****                                    ((uint32_t)ep->type << 18) | (epnum << 22) |
 1381              		.loc 1 596 7 is_stmt 1 view .LVU434
 596:Drivers/STM32F4xx_HAL_Driver/Src/stm32f4xx_ll_usb.c ****                                    ((uint32_t)ep->type << 18) | (epnum << 22) |
 1382              		.loc 1 596 33 is_stmt 0 view .LVU435
 1383 0060 DCF80039 		ldr	r3, [ip, #2304]
 596:Drivers/STM32F4xx_HAL_Driver/Src/stm32f4xx_ll_usb.c ****                                    ((uint32_t)ep->type << 18) | (epnum << 22) |
 1384              		.loc 1 596 39 view .LVU436
 1385 0064 8C68     		ldr	r4, [r1, #8]
 596:Drivers/STM32F4xx_HAL_Driver/Src/stm32f4xx_ll_usb.c ****                                    ((uint32_t)ep->type << 18) | (epnum << 22) |
 1386              		.loc 1 596 51 view .LVU437
 1387 0066 C4F30A04 		ubfx	r4, r4, #0, #11
 597:Drivers/STM32F4xx_HAL_Driver/Src/stm32f4xx_ll_usb.c ****                                    USB_OTG_DIEPCTL_SD0PID_SEVNFRM |
 1388              		.loc 1 597 49 view .LVU438
 1389 006a 91F803E0 		ldrb	lr, [r1, #3]	@ zero_extendqisi2
 596:Drivers/STM32F4xx_HAL_Driver/Src/stm32f4xx_ll_usb.c ****                                    ((uint32_t)ep->type << 18) | (epnum << 22) |
 1390              		.loc 1 596 76 view .LVU439
 1391 006e 44EA8E44 		orr	r4, r4, lr, lsl #18
 597:Drivers/STM32F4xx_HAL_Driver/Src/stm32f4xx_ll_usb.c ****                                    USB_OTG_DIEPCTL_SD0PID_SEVNFRM |
 1392              		.loc 1 597 63 view .LVU440
 1393 0072 44EA8252 		orr	r2, r4, r2, lsl #22
 1394              	.LVL121:
 596:Drivers/STM32F4xx_HAL_Driver/Src/stm32f4xx_ll_usb.c ****                                    ((uint32_t)ep->type << 18) | (epnum << 22) |
 1395              		.loc 1 596 33 view .LVU441
 1396 0076 1343     		orrs	r3, r3, r2
ARM GAS  C:\Users\7636~1\AppData\Local\Temp\ccnv92VB.s 			page 56


 1397 0078 43F08053 		orr	r3, r3, #268435456
 1398 007c 43F40043 		orr	r3, r3, #32768
 1399 0080 CCF80039 		str	r3, [ip, #2304]
 1400              	.LVL122:
 1401              	.L102:
 602:Drivers/STM32F4xx_HAL_Driver/Src/stm32f4xx_ll_usb.c ****   }
 1402              		.loc 1 602 5 is_stmt 1 view .LVU442
 602:Drivers/STM32F4xx_HAL_Driver/Src/stm32f4xx_ll_usb.c ****   }
 1403              		.loc 1 602 27 is_stmt 0 view .LVU443
 1404 0084 D0F83C28 		ldr	r2, [r0, #2108]
 602:Drivers/STM32F4xx_HAL_Driver/Src/stm32f4xx_ll_usb.c ****   }
 1405              		.loc 1 602 75 view .LVU444
 1406 0088 0B78     		ldrb	r3, [r1]	@ zero_extendqisi2
 602:Drivers/STM32F4xx_HAL_Driver/Src/stm32f4xx_ll_usb.c ****   }
 1407              		.loc 1 602 81 view .LVU445
 1408 008a 03F00F01 		and	r1, r3, #15
 1409              	.LVL123:
 602:Drivers/STM32F4xx_HAL_Driver/Src/stm32f4xx_ll_usb.c ****   }
 1410              		.loc 1 602 54 view .LVU446
 1411 008e 0123     		movs	r3, #1
 1412 0090 8B40     		lsls	r3, r3, r1
 602:Drivers/STM32F4xx_HAL_Driver/Src/stm32f4xx_ll_usb.c ****   }
 1413              		.loc 1 602 52 view .LVU447
 1414 0092 9BB2     		uxth	r3, r3
 602:Drivers/STM32F4xx_HAL_Driver/Src/stm32f4xx_ll_usb.c ****   }
 1415              		.loc 1 602 27 view .LVU448
 1416 0094 1343     		orrs	r3, r3, r2
 1417 0096 C0F83C38 		str	r3, [r0, #2108]
 1418 009a D8E7     		b	.L103
 1419              		.cfi_endproc
 1420              	.LFE227:
 1422              		.section	.text.USB_DeactivateEndpoint,"ax",%progbits
 1423              		.align	1
 1424              		.global	USB_DeactivateEndpoint
 1425              		.syntax unified
 1426              		.thumb
 1427              		.thumb_func
 1429              	USB_DeactivateEndpoint:
 1430              	.LVL124:
 1431              	.LFB228:
 626:Drivers/STM32F4xx_HAL_Driver/Src/stm32f4xx_ll_usb.c ****   uint32_t USBx_BASE = (uint32_t)USBx;
 1432              		.loc 1 626 1 is_stmt 1 view -0
 1433              		.cfi_startproc
 1434              		@ args = 0, pretend = 0, frame = 0
 1435              		@ frame_needed = 0, uses_anonymous_args = 0
 1436              		@ link register save eliminated.
 626:Drivers/STM32F4xx_HAL_Driver/Src/stm32f4xx_ll_usb.c ****   uint32_t USBx_BASE = (uint32_t)USBx;
 1437              		.loc 1 626 1 is_stmt 0 view .LVU450
 1438 0000 30B4     		push	{r4, r5}
 1439              	.LCFI13:
 1440              		.cfi_def_cfa_offset 8
 1441              		.cfi_offset 4, -8
 1442              		.cfi_offset 5, -4
 627:Drivers/STM32F4xx_HAL_Driver/Src/stm32f4xx_ll_usb.c ****   uint32_t epnum = (uint32_t)ep->num;
 1443              		.loc 1 627 3 is_stmt 1 view .LVU451
 1444              	.LVL125:
 628:Drivers/STM32F4xx_HAL_Driver/Src/stm32f4xx_ll_usb.c **** 
ARM GAS  C:\Users\7636~1\AppData\Local\Temp\ccnv92VB.s 			page 57


 1445              		.loc 1 628 3 view .LVU452
 628:Drivers/STM32F4xx_HAL_Driver/Src/stm32f4xx_ll_usb.c **** 
 1446              		.loc 1 628 32 is_stmt 0 view .LVU453
 1447 0002 0B78     		ldrb	r3, [r1]	@ zero_extendqisi2
 1448              	.LVL126:
 631:Drivers/STM32F4xx_HAL_Driver/Src/stm32f4xx_ll_usb.c ****   {
 1449              		.loc 1 631 3 is_stmt 1 view .LVU454
 631:Drivers/STM32F4xx_HAL_Driver/Src/stm32f4xx_ll_usb.c ****   {
 1450              		.loc 1 631 9 is_stmt 0 view .LVU455
 1451 0004 4A78     		ldrb	r2, [r1, #1]	@ zero_extendqisi2
 631:Drivers/STM32F4xx_HAL_Driver/Src/stm32f4xx_ll_usb.c ****   {
 1452              		.loc 1 631 6 view .LVU456
 1453 0006 012A     		cmp	r2, #1
 1454 0008 26D0     		beq	.L113
 649:Drivers/STM32F4xx_HAL_Driver/Src/stm32f4xx_ll_usb.c ****     {
 1455              		.loc 1 649 5 is_stmt 1 view .LVU457
 649:Drivers/STM32F4xx_HAL_Driver/Src/stm32f4xx_ll_usb.c ****     {
 1456              		.loc 1 649 10 is_stmt 0 view .LVU458
 1457 000a 00EB4313 		add	r3, r0, r3, lsl #5
 1458              	.LVL127:
 649:Drivers/STM32F4xx_HAL_Driver/Src/stm32f4xx_ll_usb.c ****     {
 1459              		.loc 1 649 27 view .LVU459
 1460 000e D3F8002B 		ldr	r2, [r3, #2816]
 649:Drivers/STM32F4xx_HAL_Driver/Src/stm32f4xx_ll_usb.c ****     {
 1461              		.loc 1 649 8 view .LVU460
 1462 0012 002A     		cmp	r2, #0
 1463 0014 52DB     		blt	.L114
 1464              	.LVL128:
 1465              	.L111:
 655:Drivers/STM32F4xx_HAL_Driver/Src/stm32f4xx_ll_usb.c ****     USBx_DEVICE->DAINTMSK &= ~(USB_OTG_DAINTMSK_OEPM & ((uint32_t)(1UL << (ep->num & EP_ADDR_MSK)) 
 1466              		.loc 1 655 5 is_stmt 1 view .LVU461
 655:Drivers/STM32F4xx_HAL_Driver/Src/stm32f4xx_ll_usb.c ****     USBx_DEVICE->DAINTMSK &= ~(USB_OTG_DAINTMSK_OEPM & ((uint32_t)(1UL << (ep->num & EP_ADDR_MSK)) 
 1467              		.loc 1 655 27 is_stmt 0 view .LVU462
 1468 0016 D0F83C48 		ldr	r4, [r0, #2108]
 655:Drivers/STM32F4xx_HAL_Driver/Src/stm32f4xx_ll_usb.c ****     USBx_DEVICE->DAINTMSK &= ~(USB_OTG_DAINTMSK_OEPM & ((uint32_t)(1UL << (ep->num & EP_ADDR_MSK)) 
 1469              		.loc 1 655 78 view .LVU463
 1470 001a 0A78     		ldrb	r2, [r1]	@ zero_extendqisi2
 655:Drivers/STM32F4xx_HAL_Driver/Src/stm32f4xx_ll_usb.c ****     USBx_DEVICE->DAINTMSK &= ~(USB_OTG_DAINTMSK_OEPM & ((uint32_t)(1UL << (ep->num & EP_ADDR_MSK)) 
 1471              		.loc 1 655 84 view .LVU464
 1472 001c 02F00F02 		and	r2, r2, #15
 655:Drivers/STM32F4xx_HAL_Driver/Src/stm32f4xx_ll_usb.c ****     USBx_DEVICE->DAINTMSK &= ~(USB_OTG_DAINTMSK_OEPM & ((uint32_t)(1UL << (ep->num & EP_ADDR_MSK)) 
 1473              		.loc 1 655 57 view .LVU465
 1474 0020 4FF0010C 		mov	ip, #1
 1475 0024 0CFA02F2 		lsl	r2, ip, r2
 655:Drivers/STM32F4xx_HAL_Driver/Src/stm32f4xx_ll_usb.c ****     USBx_DEVICE->DAINTMSK &= ~(USB_OTG_DAINTMSK_OEPM & ((uint32_t)(1UL << (ep->num & EP_ADDR_MSK)) 
 1476              		.loc 1 655 27 view .LVU466
 1477 0028 24EA0242 		bic	r2, r4, r2, lsl #16
 1478 002c C0F83C28 		str	r2, [r0, #2108]
 656:Drivers/STM32F4xx_HAL_Driver/Src/stm32f4xx_ll_usb.c ****     USBx_OUTEP(epnum)->DOEPCTL &= ~(USB_OTG_DOEPCTL_USBAEP |
 1479              		.loc 1 656 5 is_stmt 1 view .LVU467
 656:Drivers/STM32F4xx_HAL_Driver/Src/stm32f4xx_ll_usb.c ****     USBx_OUTEP(epnum)->DOEPCTL &= ~(USB_OTG_DOEPCTL_USBAEP |
 1480              		.loc 1 656 27 is_stmt 0 view .LVU468
 1481 0030 D0F81C28 		ldr	r2, [r0, #2076]
 656:Drivers/STM32F4xx_HAL_Driver/Src/stm32f4xx_ll_usb.c ****     USBx_OUTEP(epnum)->DOEPCTL &= ~(USB_OTG_DOEPCTL_USBAEP |
 1482              		.loc 1 656 78 view .LVU469
 1483 0034 0978     		ldrb	r1, [r1]	@ zero_extendqisi2
 1484              	.LVL129:
ARM GAS  C:\Users\7636~1\AppData\Local\Temp\ccnv92VB.s 			page 58


 656:Drivers/STM32F4xx_HAL_Driver/Src/stm32f4xx_ll_usb.c ****     USBx_OUTEP(epnum)->DOEPCTL &= ~(USB_OTG_DOEPCTL_USBAEP |
 1485              		.loc 1 656 84 view .LVU470
 1486 0036 01F00F01 		and	r1, r1, #15
 656:Drivers/STM32F4xx_HAL_Driver/Src/stm32f4xx_ll_usb.c ****     USBx_OUTEP(epnum)->DOEPCTL &= ~(USB_OTG_DOEPCTL_USBAEP |
 1487              		.loc 1 656 57 view .LVU471
 1488 003a 0CFA01FC 		lsl	ip, ip, r1
 656:Drivers/STM32F4xx_HAL_Driver/Src/stm32f4xx_ll_usb.c ****     USBx_OUTEP(epnum)->DOEPCTL &= ~(USB_OTG_DOEPCTL_USBAEP |
 1489              		.loc 1 656 27 view .LVU472
 1490 003e 22EA0C42 		bic	r2, r2, ip, lsl #16
 1491 0042 C0F81C28 		str	r2, [r0, #2076]
 657:Drivers/STM32F4xx_HAL_Driver/Src/stm32f4xx_ll_usb.c ****                                     USB_OTG_DOEPCTL_MPSIZ |
 1492              		.loc 1 657 5 is_stmt 1 view .LVU473
 657:Drivers/STM32F4xx_HAL_Driver/Src/stm32f4xx_ll_usb.c ****                                     USB_OTG_DOEPCTL_MPSIZ |
 1493              		.loc 1 657 32 is_stmt 0 view .LVU474
 1494 0046 D3F8001B 		ldr	r1, [r3, #2816]
 1495 004a 234A     		ldr	r2, .L116
 1496 004c 0A40     		ands	r2, r2, r1
 1497 004e C3F8002B 		str	r2, [r3, #2816]
 1498              	.L110:
 663:Drivers/STM32F4xx_HAL_Driver/Src/stm32f4xx_ll_usb.c **** }
 1499              		.loc 1 663 3 is_stmt 1 view .LVU475
 664:Drivers/STM32F4xx_HAL_Driver/Src/stm32f4xx_ll_usb.c **** 
 1500              		.loc 1 664 1 is_stmt 0 view .LVU476
 1501 0052 0020     		movs	r0, #0
 1502              	.LVL130:
 664:Drivers/STM32F4xx_HAL_Driver/Src/stm32f4xx_ll_usb.c **** 
 1503              		.loc 1 664 1 view .LVU477
 1504 0054 30BC     		pop	{r4, r5}
 1505              	.LCFI14:
 1506              		.cfi_remember_state
 1507              		.cfi_restore 5
 1508              		.cfi_restore 4
 1509              		.cfi_def_cfa_offset 0
 1510 0056 7047     		bx	lr
 1511              	.LVL131:
 1512              	.L113:
 1513              	.LCFI15:
 1514              		.cfi_restore_state
 633:Drivers/STM32F4xx_HAL_Driver/Src/stm32f4xx_ll_usb.c ****     {
 1515              		.loc 1 633 5 is_stmt 1 view .LVU478
 633:Drivers/STM32F4xx_HAL_Driver/Src/stm32f4xx_ll_usb.c ****     {
 1516              		.loc 1 633 10 is_stmt 0 view .LVU479
 1517 0058 00EB4313 		add	r3, r0, r3, lsl #5
 1518              	.LVL132:
 633:Drivers/STM32F4xx_HAL_Driver/Src/stm32f4xx_ll_usb.c ****     {
 1519              		.loc 1 633 26 view .LVU480
 1520 005c D3F80029 		ldr	r2, [r3, #2304]
 633:Drivers/STM32F4xx_HAL_Driver/Src/stm32f4xx_ll_usb.c ****     {
 1521              		.loc 1 633 8 view .LVU481
 1522 0060 002A     		cmp	r2, #0
 1523 0062 1EDB     		blt	.L115
 1524              	.LVL133:
 1525              	.L109:
 639:Drivers/STM32F4xx_HAL_Driver/Src/stm32f4xx_ll_usb.c ****     USBx_DEVICE->DAINTMSK &= ~(USB_OTG_DAINTMSK_IEPM & (uint32_t)(1UL << (ep->num & EP_ADDR_MSK)));
 1526              		.loc 1 639 5 is_stmt 1 view .LVU482
 639:Drivers/STM32F4xx_HAL_Driver/Src/stm32f4xx_ll_usb.c ****     USBx_DEVICE->DAINTMSK &= ~(USB_OTG_DAINTMSK_IEPM & (uint32_t)(1UL << (ep->num & EP_ADDR_MSK)));
 1527              		.loc 1 639 27 is_stmt 0 view .LVU483
ARM GAS  C:\Users\7636~1\AppData\Local\Temp\ccnv92VB.s 			page 59


 1528 0064 D0F83C58 		ldr	r5, [r0, #2108]
 639:Drivers/STM32F4xx_HAL_Driver/Src/stm32f4xx_ll_usb.c ****     USBx_DEVICE->DAINTMSK &= ~(USB_OTG_DAINTMSK_IEPM & (uint32_t)(1UL << (ep->num & EP_ADDR_MSK)));
 1529              		.loc 1 639 77 view .LVU484
 1530 0068 0A78     		ldrb	r2, [r1]	@ zero_extendqisi2
 639:Drivers/STM32F4xx_HAL_Driver/Src/stm32f4xx_ll_usb.c ****     USBx_DEVICE->DAINTMSK &= ~(USB_OTG_DAINTMSK_IEPM & (uint32_t)(1UL << (ep->num & EP_ADDR_MSK)));
 1531              		.loc 1 639 83 view .LVU485
 1532 006a 02F00F02 		and	r2, r2, #15
 639:Drivers/STM32F4xx_HAL_Driver/Src/stm32f4xx_ll_usb.c ****     USBx_DEVICE->DAINTMSK &= ~(USB_OTG_DAINTMSK_IEPM & (uint32_t)(1UL << (ep->num & EP_ADDR_MSK)));
 1533              		.loc 1 639 56 view .LVU486
 1534 006e 0124     		movs	r4, #1
 1535 0070 04FA02F2 		lsl	r2, r4, r2
 639:Drivers/STM32F4xx_HAL_Driver/Src/stm32f4xx_ll_usb.c ****     USBx_DEVICE->DAINTMSK &= ~(USB_OTG_DAINTMSK_IEPM & (uint32_t)(1UL << (ep->num & EP_ADDR_MSK)));
 1536              		.loc 1 639 54 view .LVU487
 1537 0074 92B2     		uxth	r2, r2
 639:Drivers/STM32F4xx_HAL_Driver/Src/stm32f4xx_ll_usb.c ****     USBx_DEVICE->DAINTMSK &= ~(USB_OTG_DAINTMSK_IEPM & (uint32_t)(1UL << (ep->num & EP_ADDR_MSK)));
 1538              		.loc 1 639 27 view .LVU488
 1539 0076 25EA0202 		bic	r2, r5, r2
 1540 007a C0F83C28 		str	r2, [r0, #2108]
 640:Drivers/STM32F4xx_HAL_Driver/Src/stm32f4xx_ll_usb.c ****     USBx_INEP(epnum)->DIEPCTL &= ~(USB_OTG_DIEPCTL_USBAEP |
 1541              		.loc 1 640 5 is_stmt 1 view .LVU489
 640:Drivers/STM32F4xx_HAL_Driver/Src/stm32f4xx_ll_usb.c ****     USBx_INEP(epnum)->DIEPCTL &= ~(USB_OTG_DIEPCTL_USBAEP |
 1542              		.loc 1 640 27 is_stmt 0 view .LVU490
 1543 007e D0F81C28 		ldr	r2, [r0, #2076]
 640:Drivers/STM32F4xx_HAL_Driver/Src/stm32f4xx_ll_usb.c ****     USBx_INEP(epnum)->DIEPCTL &= ~(USB_OTG_DIEPCTL_USBAEP |
 1544              		.loc 1 640 77 view .LVU491
 1545 0082 0978     		ldrb	r1, [r1]	@ zero_extendqisi2
 1546              	.LVL134:
 640:Drivers/STM32F4xx_HAL_Driver/Src/stm32f4xx_ll_usb.c ****     USBx_INEP(epnum)->DIEPCTL &= ~(USB_OTG_DIEPCTL_USBAEP |
 1547              		.loc 1 640 83 view .LVU492
 1548 0084 01F00F01 		and	r1, r1, #15
 640:Drivers/STM32F4xx_HAL_Driver/Src/stm32f4xx_ll_usb.c ****     USBx_INEP(epnum)->DIEPCTL &= ~(USB_OTG_DIEPCTL_USBAEP |
 1549              		.loc 1 640 56 view .LVU493
 1550 0088 8C40     		lsls	r4, r4, r1
 640:Drivers/STM32F4xx_HAL_Driver/Src/stm32f4xx_ll_usb.c ****     USBx_INEP(epnum)->DIEPCTL &= ~(USB_OTG_DIEPCTL_USBAEP |
 1551              		.loc 1 640 54 view .LVU494
 1552 008a A4B2     		uxth	r4, r4
 640:Drivers/STM32F4xx_HAL_Driver/Src/stm32f4xx_ll_usb.c ****     USBx_INEP(epnum)->DIEPCTL &= ~(USB_OTG_DIEPCTL_USBAEP |
 1553              		.loc 1 640 27 view .LVU495
 1554 008c 22EA0404 		bic	r4, r2, r4
 1555 0090 C0F81C48 		str	r4, [r0, #2076]
 641:Drivers/STM32F4xx_HAL_Driver/Src/stm32f4xx_ll_usb.c ****                                    USB_OTG_DIEPCTL_MPSIZ |
 1556              		.loc 1 641 5 is_stmt 1 view .LVU496
 641:Drivers/STM32F4xx_HAL_Driver/Src/stm32f4xx_ll_usb.c ****                                    USB_OTG_DIEPCTL_MPSIZ |
 1557              		.loc 1 641 31 is_stmt 0 view .LVU497
 1558 0094 D3F80019 		ldr	r1, [r3, #2304]
 1559 0098 104A     		ldr	r2, .L116+4
 1560 009a 0A40     		ands	r2, r2, r1
 1561 009c C3F80029 		str	r2, [r3, #2304]
 1562 00a0 D7E7     		b	.L110
 1563              	.LVL135:
 1564              	.L115:
 635:Drivers/STM32F4xx_HAL_Driver/Src/stm32f4xx_ll_usb.c ****       USBx_INEP(epnum)->DIEPCTL |= USB_OTG_DIEPCTL_EPDIS;
 1565              		.loc 1 635 7 is_stmt 1 view .LVU498
 635:Drivers/STM32F4xx_HAL_Driver/Src/stm32f4xx_ll_usb.c ****       USBx_INEP(epnum)->DIEPCTL |= USB_OTG_DIEPCTL_EPDIS;
 1566              		.loc 1 635 33 is_stmt 0 view .LVU499
 1567 00a2 D3F80029 		ldr	r2, [r3, #2304]
 1568 00a6 42F00062 		orr	r2, r2, #134217728
ARM GAS  C:\Users\7636~1\AppData\Local\Temp\ccnv92VB.s 			page 60


 1569 00aa C3F80029 		str	r2, [r3, #2304]
 1570              	.LVL136:
 636:Drivers/STM32F4xx_HAL_Driver/Src/stm32f4xx_ll_usb.c ****     }
 1571              		.loc 1 636 7 is_stmt 1 view .LVU500
 636:Drivers/STM32F4xx_HAL_Driver/Src/stm32f4xx_ll_usb.c ****     }
 1572              		.loc 1 636 33 is_stmt 0 view .LVU501
 1573 00ae D3F80029 		ldr	r2, [r3, #2304]
 1574 00b2 42F08042 		orr	r2, r2, #1073741824
 1575 00b6 C3F80029 		str	r2, [r3, #2304]
 1576 00ba D3E7     		b	.L109
 1577              	.LVL137:
 1578              	.L114:
 651:Drivers/STM32F4xx_HAL_Driver/Src/stm32f4xx_ll_usb.c ****       USBx_OUTEP(epnum)->DOEPCTL |= USB_OTG_DOEPCTL_EPDIS;
 1579              		.loc 1 651 7 is_stmt 1 view .LVU502
 651:Drivers/STM32F4xx_HAL_Driver/Src/stm32f4xx_ll_usb.c ****       USBx_OUTEP(epnum)->DOEPCTL |= USB_OTG_DOEPCTL_EPDIS;
 1580              		.loc 1 651 34 is_stmt 0 view .LVU503
 1581 00bc D3F8002B 		ldr	r2, [r3, #2816]
 1582 00c0 42F00062 		orr	r2, r2, #134217728
 1583 00c4 C3F8002B 		str	r2, [r3, #2816]
 1584              	.LVL138:
 652:Drivers/STM32F4xx_HAL_Driver/Src/stm32f4xx_ll_usb.c ****     }
 1585              		.loc 1 652 7 is_stmt 1 view .LVU504
 652:Drivers/STM32F4xx_HAL_Driver/Src/stm32f4xx_ll_usb.c ****     }
 1586              		.loc 1 652 34 is_stmt 0 view .LVU505
 1587 00c8 D3F8002B 		ldr	r2, [r3, #2816]
 1588 00cc 42F08042 		orr	r2, r2, #1073741824
 1589 00d0 C3F8002B 		str	r2, [r3, #2816]
 1590 00d4 9FE7     		b	.L111
 1591              	.L117:
 1592 00d6 00BF     		.align	2
 1593              	.L116:
 1594 00d8 0078F3EF 		.word	-269256704
 1595 00dc 007833EC 		.word	-332171264
 1596              		.cfi_endproc
 1597              	.LFE228:
 1599              		.section	.text.USB_DeactivateDedicatedEndpoint,"ax",%progbits
 1600              		.align	1
 1601              		.global	USB_DeactivateDedicatedEndpoint
 1602              		.syntax unified
 1603              		.thumb
 1604              		.thumb_func
 1606              	USB_DeactivateDedicatedEndpoint:
 1607              	.LVL139:
 1608              	.LFB229:
 673:Drivers/STM32F4xx_HAL_Driver/Src/stm32f4xx_ll_usb.c ****   uint32_t USBx_BASE = (uint32_t)USBx;
 1609              		.loc 1 673 1 is_stmt 1 view -0
 1610              		.cfi_startproc
 1611              		@ args = 0, pretend = 0, frame = 0
 1612              		@ frame_needed = 0, uses_anonymous_args = 0
 1613              		@ link register save eliminated.
 674:Drivers/STM32F4xx_HAL_Driver/Src/stm32f4xx_ll_usb.c ****   uint32_t epnum = (uint32_t)ep->num;
 1614              		.loc 1 674 3 view .LVU507
 675:Drivers/STM32F4xx_HAL_Driver/Src/stm32f4xx_ll_usb.c **** 
 1615              		.loc 1 675 3 view .LVU508
 675:Drivers/STM32F4xx_HAL_Driver/Src/stm32f4xx_ll_usb.c **** 
 1616              		.loc 1 675 32 is_stmt 0 view .LVU509
 1617 0000 0B78     		ldrb	r3, [r1]	@ zero_extendqisi2
ARM GAS  C:\Users\7636~1\AppData\Local\Temp\ccnv92VB.s 			page 61


 1618              	.LVL140:
 678:Drivers/STM32F4xx_HAL_Driver/Src/stm32f4xx_ll_usb.c ****   {
 1619              		.loc 1 678 3 is_stmt 1 view .LVU510
 678:Drivers/STM32F4xx_HAL_Driver/Src/stm32f4xx_ll_usb.c ****   {
 1620              		.loc 1 678 9 is_stmt 0 view .LVU511
 1621 0002 4A78     		ldrb	r2, [r1, #1]	@ zero_extendqisi2
 678:Drivers/STM32F4xx_HAL_Driver/Src/stm32f4xx_ll_usb.c ****   {
 1622              		.loc 1 678 6 view .LVU512
 1623 0004 012A     		cmp	r2, #1
 1624 0006 18D0     		beq	.L123
 691:Drivers/STM32F4xx_HAL_Driver/Src/stm32f4xx_ll_usb.c ****     {
 1625              		.loc 1 691 5 is_stmt 1 view .LVU513
 691:Drivers/STM32F4xx_HAL_Driver/Src/stm32f4xx_ll_usb.c ****     {
 1626              		.loc 1 691 10 is_stmt 0 view .LVU514
 1627 0008 00EB4313 		add	r3, r0, r3, lsl #5
 1628              	.LVL141:
 691:Drivers/STM32F4xx_HAL_Driver/Src/stm32f4xx_ll_usb.c ****     {
 1629              		.loc 1 691 27 view .LVU515
 1630 000c D3F8002B 		ldr	r2, [r3, #2816]
 691:Drivers/STM32F4xx_HAL_Driver/Src/stm32f4xx_ll_usb.c ****     {
 1631              		.loc 1 691 8 view .LVU516
 1632 0010 002A     		cmp	r2, #0
 1633 0012 38DB     		blt	.L124
 1634              	.LVL142:
 1635              	.L122:
 697:Drivers/STM32F4xx_HAL_Driver/Src/stm32f4xx_ll_usb.c ****     USBx_DEVICE->DAINTMSK &= ~(USB_OTG_DAINTMSK_OEPM & ((uint32_t)(1UL << (ep->num & EP_ADDR_MSK)) 
 1636              		.loc 1 697 5 is_stmt 1 view .LVU517
 697:Drivers/STM32F4xx_HAL_Driver/Src/stm32f4xx_ll_usb.c ****     USBx_DEVICE->DAINTMSK &= ~(USB_OTG_DAINTMSK_OEPM & ((uint32_t)(1UL << (ep->num & EP_ADDR_MSK)) 
 1637              		.loc 1 697 32 is_stmt 0 view .LVU518
 1638 0014 D3F8002B 		ldr	r2, [r3, #2816]
 1639 0018 22F40042 		bic	r2, r2, #32768
 1640 001c C3F8002B 		str	r2, [r3, #2816]
 698:Drivers/STM32F4xx_HAL_Driver/Src/stm32f4xx_ll_usb.c ****   }
 1641              		.loc 1 698 5 is_stmt 1 view .LVU519
 698:Drivers/STM32F4xx_HAL_Driver/Src/stm32f4xx_ll_usb.c ****   }
 1642              		.loc 1 698 27 is_stmt 0 view .LVU520
 1643 0020 D0F81C38 		ldr	r3, [r0, #2076]
 698:Drivers/STM32F4xx_HAL_Driver/Src/stm32f4xx_ll_usb.c ****   }
 1644              		.loc 1 698 78 view .LVU521
 1645 0024 0A78     		ldrb	r2, [r1]	@ zero_extendqisi2
 698:Drivers/STM32F4xx_HAL_Driver/Src/stm32f4xx_ll_usb.c ****   }
 1646              		.loc 1 698 84 view .LVU522
 1647 0026 02F00F01 		and	r1, r2, #15
 1648              	.LVL143:
 698:Drivers/STM32F4xx_HAL_Driver/Src/stm32f4xx_ll_usb.c ****   }
 1649              		.loc 1 698 57 view .LVU523
 1650 002a 0122     		movs	r2, #1
 1651 002c 8A40     		lsls	r2, r2, r1
 698:Drivers/STM32F4xx_HAL_Driver/Src/stm32f4xx_ll_usb.c ****   }
 1652              		.loc 1 698 27 view .LVU524
 1653 002e 23EA0243 		bic	r3, r3, r2, lsl #16
 1654 0032 C0F81C38 		str	r3, [r0, #2076]
 1655              	.L121:
 701:Drivers/STM32F4xx_HAL_Driver/Src/stm32f4xx_ll_usb.c **** }
 1656              		.loc 1 701 3 is_stmt 1 view .LVU525
 702:Drivers/STM32F4xx_HAL_Driver/Src/stm32f4xx_ll_usb.c **** 
 1657              		.loc 1 702 1 is_stmt 0 view .LVU526
ARM GAS  C:\Users\7636~1\AppData\Local\Temp\ccnv92VB.s 			page 62


 1658 0036 0020     		movs	r0, #0
 1659              	.LVL144:
 702:Drivers/STM32F4xx_HAL_Driver/Src/stm32f4xx_ll_usb.c **** 
 1660              		.loc 1 702 1 view .LVU527
 1661 0038 7047     		bx	lr
 1662              	.LVL145:
 1663              	.L123:
 680:Drivers/STM32F4xx_HAL_Driver/Src/stm32f4xx_ll_usb.c ****     {
 1664              		.loc 1 680 5 is_stmt 1 view .LVU528
 680:Drivers/STM32F4xx_HAL_Driver/Src/stm32f4xx_ll_usb.c ****     {
 1665              		.loc 1 680 10 is_stmt 0 view .LVU529
 1666 003a 00EB4313 		add	r3, r0, r3, lsl #5
 1667              	.LVL146:
 680:Drivers/STM32F4xx_HAL_Driver/Src/stm32f4xx_ll_usb.c ****     {
 1668              		.loc 1 680 26 view .LVU530
 1669 003e D3F80029 		ldr	r2, [r3, #2304]
 680:Drivers/STM32F4xx_HAL_Driver/Src/stm32f4xx_ll_usb.c ****     {
 1670              		.loc 1 680 8 view .LVU531
 1671 0042 002A     		cmp	r2, #0
 1672 0044 12DB     		blt	.L125
 1673              	.LVL147:
 1674              	.L120:
 686:Drivers/STM32F4xx_HAL_Driver/Src/stm32f4xx_ll_usb.c ****     USBx_DEVICE->DAINTMSK &= ~(USB_OTG_DAINTMSK_IEPM & (uint32_t)(1UL << (ep->num & EP_ADDR_MSK)));
 1675              		.loc 1 686 5 is_stmt 1 view .LVU532
 686:Drivers/STM32F4xx_HAL_Driver/Src/stm32f4xx_ll_usb.c ****     USBx_DEVICE->DAINTMSK &= ~(USB_OTG_DAINTMSK_IEPM & (uint32_t)(1UL << (ep->num & EP_ADDR_MSK)));
 1676              		.loc 1 686 31 is_stmt 0 view .LVU533
 1677 0046 D3F80029 		ldr	r2, [r3, #2304]
 1678 004a 22F40042 		bic	r2, r2, #32768
 1679 004e C3F80029 		str	r2, [r3, #2304]
 687:Drivers/STM32F4xx_HAL_Driver/Src/stm32f4xx_ll_usb.c ****   }
 1680              		.loc 1 687 5 is_stmt 1 view .LVU534
 687:Drivers/STM32F4xx_HAL_Driver/Src/stm32f4xx_ll_usb.c ****   }
 1681              		.loc 1 687 27 is_stmt 0 view .LVU535
 1682 0052 D0F81C28 		ldr	r2, [r0, #2076]
 687:Drivers/STM32F4xx_HAL_Driver/Src/stm32f4xx_ll_usb.c ****   }
 1683              		.loc 1 687 77 view .LVU536
 1684 0056 0B78     		ldrb	r3, [r1]	@ zero_extendqisi2
 687:Drivers/STM32F4xx_HAL_Driver/Src/stm32f4xx_ll_usb.c ****   }
 1685              		.loc 1 687 83 view .LVU537
 1686 0058 03F00F01 		and	r1, r3, #15
 1687              	.LVL148:
 687:Drivers/STM32F4xx_HAL_Driver/Src/stm32f4xx_ll_usb.c ****   }
 1688              		.loc 1 687 56 view .LVU538
 1689 005c 0123     		movs	r3, #1
 1690 005e 8B40     		lsls	r3, r3, r1
 687:Drivers/STM32F4xx_HAL_Driver/Src/stm32f4xx_ll_usb.c ****   }
 1691              		.loc 1 687 54 view .LVU539
 1692 0060 9BB2     		uxth	r3, r3
 687:Drivers/STM32F4xx_HAL_Driver/Src/stm32f4xx_ll_usb.c ****   }
 1693              		.loc 1 687 27 view .LVU540
 1694 0062 22EA0303 		bic	r3, r2, r3
 1695 0066 C0F81C38 		str	r3, [r0, #2076]
 1696 006a E4E7     		b	.L121
 1697              	.LVL149:
 1698              	.L125:
 682:Drivers/STM32F4xx_HAL_Driver/Src/stm32f4xx_ll_usb.c ****       USBx_INEP(epnum)->DIEPCTL  |= USB_OTG_DIEPCTL_EPDIS;
 1699              		.loc 1 682 7 is_stmt 1 view .LVU541
ARM GAS  C:\Users\7636~1\AppData\Local\Temp\ccnv92VB.s 			page 63


 682:Drivers/STM32F4xx_HAL_Driver/Src/stm32f4xx_ll_usb.c ****       USBx_INEP(epnum)->DIEPCTL  |= USB_OTG_DIEPCTL_EPDIS;
 1700              		.loc 1 682 34 is_stmt 0 view .LVU542
 1701 006c D3F80029 		ldr	r2, [r3, #2304]
 1702 0070 42F00062 		orr	r2, r2, #134217728
 1703 0074 C3F80029 		str	r2, [r3, #2304]
 1704              	.LVL150:
 683:Drivers/STM32F4xx_HAL_Driver/Src/stm32f4xx_ll_usb.c ****     }
 1705              		.loc 1 683 7 is_stmt 1 view .LVU543
 683:Drivers/STM32F4xx_HAL_Driver/Src/stm32f4xx_ll_usb.c ****     }
 1706              		.loc 1 683 34 is_stmt 0 view .LVU544
 1707 0078 D3F80029 		ldr	r2, [r3, #2304]
 1708 007c 42F08042 		orr	r2, r2, #1073741824
 1709 0080 C3F80029 		str	r2, [r3, #2304]
 1710 0084 DFE7     		b	.L120
 1711              	.LVL151:
 1712              	.L124:
 693:Drivers/STM32F4xx_HAL_Driver/Src/stm32f4xx_ll_usb.c ****       USBx_OUTEP(epnum)->DOEPCTL  |= USB_OTG_DOEPCTL_EPDIS;
 1713              		.loc 1 693 7 is_stmt 1 view .LVU545
 693:Drivers/STM32F4xx_HAL_Driver/Src/stm32f4xx_ll_usb.c ****       USBx_OUTEP(epnum)->DOEPCTL  |= USB_OTG_DOEPCTL_EPDIS;
 1714              		.loc 1 693 35 is_stmt 0 view .LVU546
 1715 0086 D3F8002B 		ldr	r2, [r3, #2816]
 1716 008a 42F00062 		orr	r2, r2, #134217728
 1717 008e C3F8002B 		str	r2, [r3, #2816]
 1718              	.LVL152:
 694:Drivers/STM32F4xx_HAL_Driver/Src/stm32f4xx_ll_usb.c ****     }
 1719              		.loc 1 694 7 is_stmt 1 view .LVU547
 694:Drivers/STM32F4xx_HAL_Driver/Src/stm32f4xx_ll_usb.c ****     }
 1720              		.loc 1 694 35 is_stmt 0 view .LVU548
 1721 0092 D3F8002B 		ldr	r2, [r3, #2816]
 1722 0096 42F08042 		orr	r2, r2, #1073741824
 1723 009a C3F8002B 		str	r2, [r3, #2816]
 1724 009e B9E7     		b	.L122
 1725              		.cfi_endproc
 1726              	.LFE229:
 1728              		.section	.text.USB_EP0StartXfer,"ax",%progbits
 1729              		.align	1
 1730              		.global	USB_EP0StartXfer
 1731              		.syntax unified
 1732              		.thumb
 1733              		.thumb_func
 1735              	USB_EP0StartXfer:
 1736              	.LVL153:
 1737              	.LFB231:
 857:Drivers/STM32F4xx_HAL_Driver/Src/stm32f4xx_ll_usb.c ****   uint32_t USBx_BASE = (uint32_t)USBx;
 1738              		.loc 1 857 1 is_stmt 1 view -0
 1739              		.cfi_startproc
 1740              		@ args = 0, pretend = 0, frame = 0
 1741              		@ frame_needed = 0, uses_anonymous_args = 0
 1742              		@ link register save eliminated.
 857:Drivers/STM32F4xx_HAL_Driver/Src/stm32f4xx_ll_usb.c ****   uint32_t USBx_BASE = (uint32_t)USBx;
 1743              		.loc 1 857 1 is_stmt 0 view .LVU550
 1744 0000 70B4     		push	{r4, r5, r6}
 1745              	.LCFI16:
 1746              		.cfi_def_cfa_offset 12
 1747              		.cfi_offset 4, -12
 1748              		.cfi_offset 5, -8
 1749              		.cfi_offset 6, -4
ARM GAS  C:\Users\7636~1\AppData\Local\Temp\ccnv92VB.s 			page 64


 858:Drivers/STM32F4xx_HAL_Driver/Src/stm32f4xx_ll_usb.c ****   uint32_t epnum = (uint32_t)ep->num;
 1750              		.loc 1 858 3 is_stmt 1 view .LVU551
 1751              	.LVL154:
 859:Drivers/STM32F4xx_HAL_Driver/Src/stm32f4xx_ll_usb.c **** 
 1752              		.loc 1 859 3 view .LVU552
 859:Drivers/STM32F4xx_HAL_Driver/Src/stm32f4xx_ll_usb.c **** 
 1753              		.loc 1 859 32 is_stmt 0 view .LVU553
 1754 0002 0B78     		ldrb	r3, [r1]	@ zero_extendqisi2
 1755              	.LVL155:
 862:Drivers/STM32F4xx_HAL_Driver/Src/stm32f4xx_ll_usb.c ****   {
 1756              		.loc 1 862 3 is_stmt 1 view .LVU554
 862:Drivers/STM32F4xx_HAL_Driver/Src/stm32f4xx_ll_usb.c ****   {
 1757              		.loc 1 862 9 is_stmt 0 view .LVU555
 1758 0004 4C78     		ldrb	r4, [r1, #1]	@ zero_extendqisi2
 862:Drivers/STM32F4xx_HAL_Driver/Src/stm32f4xx_ll_usb.c ****   {
 1759              		.loc 1 862 6 view .LVU556
 1760 0006 012C     		cmp	r4, #1
 1761 0008 27D0     		beq	.L137
 917:Drivers/STM32F4xx_HAL_Driver/Src/stm32f4xx_ll_usb.c ****     USBx_OUTEP(epnum)->DOEPTSIZ &= ~(USB_OTG_DOEPTSIZ_PKTCNT);
 1762              		.loc 1 917 5 is_stmt 1 view .LVU557
 917:Drivers/STM32F4xx_HAL_Driver/Src/stm32f4xx_ll_usb.c ****     USBx_OUTEP(epnum)->DOEPTSIZ &= ~(USB_OTG_DOEPTSIZ_PKTCNT);
 1763              		.loc 1 917 33 is_stmt 0 view .LVU558
 1764 000a 00EB4310 		add	r0, r0, r3, lsl #5
 1765              	.LVL156:
 917:Drivers/STM32F4xx_HAL_Driver/Src/stm32f4xx_ll_usb.c ****     USBx_OUTEP(epnum)->DOEPTSIZ &= ~(USB_OTG_DOEPTSIZ_PKTCNT);
 1766              		.loc 1 917 33 view .LVU559
 1767 000e 00F53063 		add	r3, r0, #2816
 1768              	.LVL157:
 917:Drivers/STM32F4xx_HAL_Driver/Src/stm32f4xx_ll_usb.c ****     USBx_OUTEP(epnum)->DOEPTSIZ &= ~(USB_OTG_DOEPTSIZ_PKTCNT);
 1769              		.loc 1 917 33 view .LVU560
 1770 0012 1C69     		ldr	r4, [r3, #16]
 1771 0014 E40C     		lsrs	r4, r4, #19
 1772 0016 E404     		lsls	r4, r4, #19
 1773 0018 1C61     		str	r4, [r3, #16]
 1774              	.LVL158:
 918:Drivers/STM32F4xx_HAL_Driver/Src/stm32f4xx_ll_usb.c **** 
 1775              		.loc 1 918 5 is_stmt 1 view .LVU561
 918:Drivers/STM32F4xx_HAL_Driver/Src/stm32f4xx_ll_usb.c **** 
 1776              		.loc 1 918 33 is_stmt 0 view .LVU562
 1777 001a 1C69     		ldr	r4, [r3, #16]
 1778 001c 24F0FF54 		bic	r4, r4, #534773760
 1779 0020 24F4C014 		bic	r4, r4, #1572864
 1780 0024 1C61     		str	r4, [r3, #16]
 920:Drivers/STM32F4xx_HAL_Driver/Src/stm32f4xx_ll_usb.c ****     {
 1781              		.loc 1 920 5 is_stmt 1 view .LVU563
 920:Drivers/STM32F4xx_HAL_Driver/Src/stm32f4xx_ll_usb.c ****     {
 1782              		.loc 1 920 11 is_stmt 0 view .LVU564
 1783 0026 4C69     		ldr	r4, [r1, #20]
 920:Drivers/STM32F4xx_HAL_Driver/Src/stm32f4xx_ll_usb.c ****     {
 1784              		.loc 1 920 8 view .LVU565
 1785 0028 0CB1     		cbz	r4, .L134
 922:Drivers/STM32F4xx_HAL_Driver/Src/stm32f4xx_ll_usb.c ****     }
 1786              		.loc 1 922 7 is_stmt 1 view .LVU566
 922:Drivers/STM32F4xx_HAL_Driver/Src/stm32f4xx_ll_usb.c ****     }
 1787              		.loc 1 922 24 is_stmt 0 view .LVU567
 1788 002a 8C68     		ldr	r4, [r1, #8]
 922:Drivers/STM32F4xx_HAL_Driver/Src/stm32f4xx_ll_usb.c ****     }
ARM GAS  C:\Users\7636~1\AppData\Local\Temp\ccnv92VB.s 			page 65


 1789              		.loc 1 922 20 view .LVU568
 1790 002c 4C61     		str	r4, [r1, #20]
 1791              	.L134:
 925:Drivers/STM32F4xx_HAL_Driver/Src/stm32f4xx_ll_usb.c ****     USBx_OUTEP(epnum)->DOEPTSIZ |= (USB_OTG_DOEPTSIZ_XFRSIZ & (ep->maxpacket));
 1792              		.loc 1 925 5 is_stmt 1 view .LVU569
 925:Drivers/STM32F4xx_HAL_Driver/Src/stm32f4xx_ll_usb.c ****     USBx_OUTEP(epnum)->DOEPTSIZ |= (USB_OTG_DOEPTSIZ_XFRSIZ & (ep->maxpacket));
 1793              		.loc 1 925 33 is_stmt 0 view .LVU570
 1794 002e 1C69     		ldr	r4, [r3, #16]
 1795 0030 44F40024 		orr	r4, r4, #524288
 1796 0034 1C61     		str	r4, [r3, #16]
 926:Drivers/STM32F4xx_HAL_Driver/Src/stm32f4xx_ll_usb.c **** 
 1797              		.loc 1 926 5 is_stmt 1 view .LVU571
 926:Drivers/STM32F4xx_HAL_Driver/Src/stm32f4xx_ll_usb.c **** 
 1798              		.loc 1 926 33 is_stmt 0 view .LVU572
 1799 0036 1C69     		ldr	r4, [r3, #16]
 926:Drivers/STM32F4xx_HAL_Driver/Src/stm32f4xx_ll_usb.c **** 
 1800              		.loc 1 926 61 view .LVU573
 1801 0038 8D68     		ldr	r5, [r1, #8]
 1802 003a C5F3120C 		ubfx	ip, r5, #0, #19
 926:Drivers/STM32F4xx_HAL_Driver/Src/stm32f4xx_ll_usb.c **** 
 1803              		.loc 1 926 33 view .LVU574
 1804 003e 44EA0C04 		orr	r4, r4, ip
 1805 0042 1C61     		str	r4, [r3, #16]
 928:Drivers/STM32F4xx_HAL_Driver/Src/stm32f4xx_ll_usb.c ****     {
 1806              		.loc 1 928 5 is_stmt 1 view .LVU575
 928:Drivers/STM32F4xx_HAL_Driver/Src/stm32f4xx_ll_usb.c ****     {
 1807              		.loc 1 928 8 is_stmt 0 view .LVU576
 1808 0044 012A     		cmp	r2, #1
 1809 0046 66D0     		beq	.L138
 1810              	.LVL159:
 1811              	.L135:
 937:Drivers/STM32F4xx_HAL_Driver/Src/stm32f4xx_ll_usb.c ****   }
 1812              		.loc 1 937 5 is_stmt 1 view .LVU577
 937:Drivers/STM32F4xx_HAL_Driver/Src/stm32f4xx_ll_usb.c ****   }
 1813              		.loc 1 937 32 is_stmt 0 view .LVU578
 1814 0048 D0F8003B 		ldr	r3, [r0, #2816]
 1815 004c 43F00443 		orr	r3, r3, #-2080374784
 1816 0050 C0F8003B 		str	r3, [r0, #2816]
 1817              	.LVL160:
 1818              	.L133:
 940:Drivers/STM32F4xx_HAL_Driver/Src/stm32f4xx_ll_usb.c **** }
 1819              		.loc 1 940 3 is_stmt 1 view .LVU579
 941:Drivers/STM32F4xx_HAL_Driver/Src/stm32f4xx_ll_usb.c **** 
 1820              		.loc 1 941 1 is_stmt 0 view .LVU580
 1821 0054 0020     		movs	r0, #0
 1822 0056 70BC     		pop	{r4, r5, r6}
 1823              	.LCFI17:
 1824              		.cfi_remember_state
 1825              		.cfi_restore 6
 1826              		.cfi_restore 5
 1827              		.cfi_restore 4
 1828              		.cfi_def_cfa_offset 0
 1829 0058 7047     		bx	lr
 1830              	.LVL161:
 1831              	.L137:
 1832              	.LCFI18:
 1833              		.cfi_restore_state
ARM GAS  C:\Users\7636~1\AppData\Local\Temp\ccnv92VB.s 			page 66


 865:Drivers/STM32F4xx_HAL_Driver/Src/stm32f4xx_ll_usb.c ****     {
 1834              		.loc 1 865 5 is_stmt 1 view .LVU581
 865:Drivers/STM32F4xx_HAL_Driver/Src/stm32f4xx_ll_usb.c ****     {
 1835              		.loc 1 865 11 is_stmt 0 view .LVU582
 1836 005a 4C69     		ldr	r4, [r1, #20]
 865:Drivers/STM32F4xx_HAL_Driver/Src/stm32f4xx_ll_usb.c ****     {
 1837              		.loc 1 865 8 view .LVU583
 1838 005c 6CBB     		cbnz	r4, .L128
 867:Drivers/STM32F4xx_HAL_Driver/Src/stm32f4xx_ll_usb.c ****       USBx_INEP(epnum)->DIEPTSIZ |= (USB_OTG_DIEPTSIZ_PKTCNT & (1U << 19));
 1839              		.loc 1 867 7 is_stmt 1 view .LVU584
 867:Drivers/STM32F4xx_HAL_Driver/Src/stm32f4xx_ll_usb.c ****       USBx_INEP(epnum)->DIEPTSIZ |= (USB_OTG_DIEPTSIZ_PKTCNT & (1U << 19));
 1840              		.loc 1 867 34 is_stmt 0 view .LVU585
 1841 005e 00EB4314 		add	r4, r0, r3, lsl #5
 1842 0062 D4F81059 		ldr	r5, [r4, #2320]
 1843 0066 25F0FF55 		bic	r5, r5, #534773760
 1844 006a 25F4C015 		bic	r5, r5, #1572864
 1845 006e C4F81059 		str	r5, [r4, #2320]
 868:Drivers/STM32F4xx_HAL_Driver/Src/stm32f4xx_ll_usb.c ****       USBx_INEP(epnum)->DIEPTSIZ &= ~(USB_OTG_DIEPTSIZ_XFRSIZ);
 1846              		.loc 1 868 7 is_stmt 1 view .LVU586
 868:Drivers/STM32F4xx_HAL_Driver/Src/stm32f4xx_ll_usb.c ****       USBx_INEP(epnum)->DIEPTSIZ &= ~(USB_OTG_DIEPTSIZ_XFRSIZ);
 1847              		.loc 1 868 34 is_stmt 0 view .LVU587
 1848 0072 D4F81059 		ldr	r5, [r4, #2320]
 1849 0076 45F40025 		orr	r5, r5, #524288
 1850 007a C4F81059 		str	r5, [r4, #2320]
 869:Drivers/STM32F4xx_HAL_Driver/Src/stm32f4xx_ll_usb.c ****     }
 1851              		.loc 1 869 7 is_stmt 1 view .LVU588
 869:Drivers/STM32F4xx_HAL_Driver/Src/stm32f4xx_ll_usb.c ****     }
 1852              		.loc 1 869 34 is_stmt 0 view .LVU589
 1853 007e D4F81059 		ldr	r5, [r4, #2320]
 1854 0082 ED0C     		lsrs	r5, r5, #19
 1855 0084 ED04     		lsls	r5, r5, #19
 1856 0086 C4F81059 		str	r5, [r4, #2320]
 1857              	.L129:
 889:Drivers/STM32F4xx_HAL_Driver/Src/stm32f4xx_ll_usb.c ****     {
 1858              		.loc 1 889 5 is_stmt 1 view .LVU590
 889:Drivers/STM32F4xx_HAL_Driver/Src/stm32f4xx_ll_usb.c ****     {
 1859              		.loc 1 889 8 is_stmt 0 view .LVU591
 1860 008a 012A     		cmp	r2, #1
 1861 008c 34D0     		beq	.L139
 902:Drivers/STM32F4xx_HAL_Driver/Src/stm32f4xx_ll_usb.c **** 
 1862              		.loc 1 902 7 is_stmt 1 view .LVU592
 902:Drivers/STM32F4xx_HAL_Driver/Src/stm32f4xx_ll_usb.c **** 
 1863              		.loc 1 902 33 is_stmt 0 view .LVU593
 1864 008e 00EB4313 		add	r3, r0, r3, lsl #5
 1865              	.LVL162:
 902:Drivers/STM32F4xx_HAL_Driver/Src/stm32f4xx_ll_usb.c **** 
 1866              		.loc 1 902 33 view .LVU594
 1867 0092 D3F80029 		ldr	r2, [r3, #2304]
 1868              	.LVL163:
 902:Drivers/STM32F4xx_HAL_Driver/Src/stm32f4xx_ll_usb.c **** 
 1869              		.loc 1 902 33 view .LVU595
 1870 0096 42F00442 		orr	r2, r2, #-2080374784
 1871 009a C3F80029 		str	r2, [r3, #2304]
 905:Drivers/STM32F4xx_HAL_Driver/Src/stm32f4xx_ll_usb.c ****       {
 1872              		.loc 1 905 7 is_stmt 1 view .LVU596
 905:Drivers/STM32F4xx_HAL_Driver/Src/stm32f4xx_ll_usb.c ****       {
 1873              		.loc 1 905 13 is_stmt 0 view .LVU597
ARM GAS  C:\Users\7636~1\AppData\Local\Temp\ccnv92VB.s 			page 67


 1874 009e 4B69     		ldr	r3, [r1, #20]
 905:Drivers/STM32F4xx_HAL_Driver/Src/stm32f4xx_ll_usb.c ****       {
 1875              		.loc 1 905 10 view .LVU598
 1876 00a0 002B     		cmp	r3, #0
 1877 00a2 D7D0     		beq	.L133
 907:Drivers/STM32F4xx_HAL_Driver/Src/stm32f4xx_ll_usb.c ****       }
 1878              		.loc 1 907 9 is_stmt 1 view .LVU599
 907:Drivers/STM32F4xx_HAL_Driver/Src/stm32f4xx_ll_usb.c ****       }
 1879              		.loc 1 907 33 is_stmt 0 view .LVU600
 1880 00a4 D0F83438 		ldr	r3, [r0, #2100]
 907:Drivers/STM32F4xx_HAL_Driver/Src/stm32f4xx_ll_usb.c ****       }
 1881              		.loc 1 907 46 view .LVU601
 1882 00a8 0A78     		ldrb	r2, [r1]	@ zero_extendqisi2
 907:Drivers/STM32F4xx_HAL_Driver/Src/stm32f4xx_ll_usb.c ****       }
 1883              		.loc 1 907 52 view .LVU602
 1884 00aa 02F00F01 		and	r1, r2, #15
 1885              	.LVL164:
 907:Drivers/STM32F4xx_HAL_Driver/Src/stm32f4xx_ll_usb.c ****       }
 1886              		.loc 1 907 40 view .LVU603
 1887 00ae 0122     		movs	r2, #1
 1888 00b0 8A40     		lsls	r2, r2, r1
 907:Drivers/STM32F4xx_HAL_Driver/Src/stm32f4xx_ll_usb.c ****       }
 1889              		.loc 1 907 33 view .LVU604
 1890 00b2 1343     		orrs	r3, r3, r2
 1891 00b4 C0F83438 		str	r3, [r0, #2100]
 1892 00b8 CCE7     		b	.L133
 1893              	.LVL165:
 1894              	.L128:
 878:Drivers/STM32F4xx_HAL_Driver/Src/stm32f4xx_ll_usb.c ****       USBx_INEP(epnum)->DIEPTSIZ &= ~(USB_OTG_DIEPTSIZ_PKTCNT);
 1895              		.loc 1 878 7 is_stmt 1 view .LVU605
 878:Drivers/STM32F4xx_HAL_Driver/Src/stm32f4xx_ll_usb.c ****       USBx_INEP(epnum)->DIEPTSIZ &= ~(USB_OTG_DIEPTSIZ_PKTCNT);
 1896              		.loc 1 878 34 is_stmt 0 view .LVU606
 1897 00ba 00EB4314 		add	r4, r0, r3, lsl #5
 1898 00be 04F51064 		add	r4, r4, #2304
 1899 00c2 2569     		ldr	r5, [r4, #16]
 1900 00c4 ED0C     		lsrs	r5, r5, #19
 1901 00c6 ED04     		lsls	r5, r5, #19
 1902 00c8 2561     		str	r5, [r4, #16]
 879:Drivers/STM32F4xx_HAL_Driver/Src/stm32f4xx_ll_usb.c **** 
 1903              		.loc 1 879 7 is_stmt 1 view .LVU607
 879:Drivers/STM32F4xx_HAL_Driver/Src/stm32f4xx_ll_usb.c **** 
 1904              		.loc 1 879 34 is_stmt 0 view .LVU608
 1905 00ca 2569     		ldr	r5, [r4, #16]
 1906 00cc 25F0FF55 		bic	r5, r5, #534773760
 1907 00d0 25F4C015 		bic	r5, r5, #1572864
 1908 00d4 2561     		str	r5, [r4, #16]
 881:Drivers/STM32F4xx_HAL_Driver/Src/stm32f4xx_ll_usb.c ****       {
 1909              		.loc 1 881 7 is_stmt 1 view .LVU609
 881:Drivers/STM32F4xx_HAL_Driver/Src/stm32f4xx_ll_usb.c ****       {
 1910              		.loc 1 881 28 is_stmt 0 view .LVU610
 1911 00d6 8D68     		ldr	r5, [r1, #8]
 881:Drivers/STM32F4xx_HAL_Driver/Src/stm32f4xx_ll_usb.c ****       {
 1912              		.loc 1 881 10 view .LVU611
 1913 00d8 4E69     		ldr	r6, [r1, #20]
 1914 00da AE42     		cmp	r6, r5
 1915 00dc 00D9     		bls	.L130
 883:Drivers/STM32F4xx_HAL_Driver/Src/stm32f4xx_ll_usb.c ****       }
ARM GAS  C:\Users\7636~1\AppData\Local\Temp\ccnv92VB.s 			page 68


 1916              		.loc 1 883 9 is_stmt 1 view .LVU612
 883:Drivers/STM32F4xx_HAL_Driver/Src/stm32f4xx_ll_usb.c ****       }
 1917              		.loc 1 883 22 is_stmt 0 view .LVU613
 1918 00de 4D61     		str	r5, [r1, #20]
 1919              	.L130:
 885:Drivers/STM32F4xx_HAL_Driver/Src/stm32f4xx_ll_usb.c ****       USBx_INEP(epnum)->DIEPTSIZ |= (USB_OTG_DIEPTSIZ_XFRSIZ & ep->xfer_len);
 1920              		.loc 1 885 7 is_stmt 1 view .LVU614
 885:Drivers/STM32F4xx_HAL_Driver/Src/stm32f4xx_ll_usb.c ****       USBx_INEP(epnum)->DIEPTSIZ |= (USB_OTG_DIEPTSIZ_XFRSIZ & ep->xfer_len);
 1921              		.loc 1 885 34 is_stmt 0 view .LVU615
 1922 00e0 2569     		ldr	r5, [r4, #16]
 1923 00e2 45F40025 		orr	r5, r5, #524288
 1924 00e6 2561     		str	r5, [r4, #16]
 886:Drivers/STM32F4xx_HAL_Driver/Src/stm32f4xx_ll_usb.c ****     }
 1925              		.loc 1 886 7 is_stmt 1 view .LVU616
 886:Drivers/STM32F4xx_HAL_Driver/Src/stm32f4xx_ll_usb.c ****     }
 1926              		.loc 1 886 34 is_stmt 0 view .LVU617
 1927 00e8 2569     		ldr	r5, [r4, #16]
 886:Drivers/STM32F4xx_HAL_Driver/Src/stm32f4xx_ll_usb.c ****     }
 1928              		.loc 1 886 62 view .LVU618
 1929 00ea 4E69     		ldr	r6, [r1, #20]
 1930 00ec C6F3120C 		ubfx	ip, r6, #0, #19
 886:Drivers/STM32F4xx_HAL_Driver/Src/stm32f4xx_ll_usb.c ****     }
 1931              		.loc 1 886 34 view .LVU619
 1932 00f0 45EA0C05 		orr	r5, r5, ip
 1933 00f4 2561     		str	r5, [r4, #16]
 1934 00f6 C8E7     		b	.L129
 1935              	.L139:
 891:Drivers/STM32F4xx_HAL_Driver/Src/stm32f4xx_ll_usb.c ****       {
 1936              		.loc 1 891 7 is_stmt 1 view .LVU620
 891:Drivers/STM32F4xx_HAL_Driver/Src/stm32f4xx_ll_usb.c ****       {
 1937              		.loc 1 891 23 is_stmt 0 view .LVU621
 1938 00f8 0A69     		ldr	r2, [r1, #16]
 1939              	.LVL166:
 891:Drivers/STM32F4xx_HAL_Driver/Src/stm32f4xx_ll_usb.c ****       {
 1940              		.loc 1 891 10 view .LVU622
 1941 00fa 1AB1     		cbz	r2, .L132
 893:Drivers/STM32F4xx_HAL_Driver/Src/stm32f4xx_ll_usb.c ****       }
 1942              		.loc 1 893 9 is_stmt 1 view .LVU623
 1943 00fc 00EB4311 		add	r1, r0, r3, lsl #5
 1944              	.LVL167:
 893:Drivers/STM32F4xx_HAL_Driver/Src/stm32f4xx_ll_usb.c ****       }
 1945              		.loc 1 893 35 is_stmt 0 view .LVU624
 1946 0100 C1F81429 		str	r2, [r1, #2324]
 1947              	.L132:
 897:Drivers/STM32F4xx_HAL_Driver/Src/stm32f4xx_ll_usb.c ****     }
 1948              		.loc 1 897 7 is_stmt 1 view .LVU625
 897:Drivers/STM32F4xx_HAL_Driver/Src/stm32f4xx_ll_usb.c ****     }
 1949              		.loc 1 897 33 is_stmt 0 view .LVU626
 1950 0104 00EB4310 		add	r0, r0, r3, lsl #5
 1951              	.LVL168:
 897:Drivers/STM32F4xx_HAL_Driver/Src/stm32f4xx_ll_usb.c ****     }
 1952              		.loc 1 897 33 view .LVU627
 1953 0108 D0F80029 		ldr	r2, [r0, #2304]
 1954 010c 42F00442 		orr	r2, r2, #-2080374784
 1955 0110 C0F80029 		str	r2, [r0, #2304]
 1956 0114 9EE7     		b	.L133
 1957              	.LVL169:
ARM GAS  C:\Users\7636~1\AppData\Local\Temp\ccnv92VB.s 			page 69


 1958              	.L138:
 930:Drivers/STM32F4xx_HAL_Driver/Src/stm32f4xx_ll_usb.c ****       {
 1959              		.loc 1 930 7 is_stmt 1 view .LVU628
 930:Drivers/STM32F4xx_HAL_Driver/Src/stm32f4xx_ll_usb.c ****       {
 1960              		.loc 1 930 23 is_stmt 0 view .LVU629
 1961 0116 CA68     		ldr	r2, [r1, #12]
 1962              	.LVL170:
 930:Drivers/STM32F4xx_HAL_Driver/Src/stm32f4xx_ll_usb.c ****       {
 1963              		.loc 1 930 10 view .LVU630
 1964 0118 002A     		cmp	r2, #0
 1965 011a 95D0     		beq	.L135
 932:Drivers/STM32F4xx_HAL_Driver/Src/stm32f4xx_ll_usb.c ****       }
 1966              		.loc 1 932 9 is_stmt 1 view .LVU631
 932:Drivers/STM32F4xx_HAL_Driver/Src/stm32f4xx_ll_usb.c ****       }
 1967              		.loc 1 932 36 is_stmt 0 view .LVU632
 1968 011c 5A61     		str	r2, [r3, #20]
 1969 011e 93E7     		b	.L135
 1970              		.cfi_endproc
 1971              	.LFE231:
 1973              		.section	.text.USB_WritePacket,"ax",%progbits
 1974              		.align	1
 1975              		.global	USB_WritePacket
 1976              		.syntax unified
 1977              		.thumb
 1978              		.thumb_func
 1980              	USB_WritePacket:
 1981              	.LVL171:
 1982              	.LFB232:
 958:Drivers/STM32F4xx_HAL_Driver/Src/stm32f4xx_ll_usb.c ****   uint32_t USBx_BASE = (uint32_t)USBx;
 1983              		.loc 1 958 1 is_stmt 1 view -0
 1984              		.cfi_startproc
 1985              		@ args = 4, pretend = 0, frame = 0
 1986              		@ frame_needed = 0, uses_anonymous_args = 0
 958:Drivers/STM32F4xx_HAL_Driver/Src/stm32f4xx_ll_usb.c ****   uint32_t USBx_BASE = (uint32_t)USBx;
 1987              		.loc 1 958 1 is_stmt 0 view .LVU634
 1988 0000 10B5     		push	{r4, lr}
 1989              	.LCFI19:
 1990              		.cfi_def_cfa_offset 8
 1991              		.cfi_offset 4, -8
 1992              		.cfi_offset 14, -4
 1993 0002 9DF80840 		ldrb	r4, [sp, #8]	@ zero_extendqisi2
 959:Drivers/STM32F4xx_HAL_Driver/Src/stm32f4xx_ll_usb.c ****   uint32_t *pSrc = (uint32_t *)src;
 1994              		.loc 1 959 3 is_stmt 1 view .LVU635
 1995              	.LVL172:
 960:Drivers/STM32F4xx_HAL_Driver/Src/stm32f4xx_ll_usb.c ****   uint32_t count32b, i;
 1996              		.loc 1 960 3 view .LVU636
 961:Drivers/STM32F4xx_HAL_Driver/Src/stm32f4xx_ll_usb.c **** 
 1997              		.loc 1 961 3 view .LVU637
 963:Drivers/STM32F4xx_HAL_Driver/Src/stm32f4xx_ll_usb.c ****   {
 1998              		.loc 1 963 3 view .LVU638
 963:Drivers/STM32F4xx_HAL_Driver/Src/stm32f4xx_ll_usb.c ****   {
 1999              		.loc 1 963 6 is_stmt 0 view .LVU639
 2000 0006 84B9     		cbnz	r4, .L141
 965:Drivers/STM32F4xx_HAL_Driver/Src/stm32f4xx_ll_usb.c ****     for (i = 0U; i < count32b; i++)
 2001              		.loc 1 965 5 is_stmt 1 view .LVU640
 965:Drivers/STM32F4xx_HAL_Driver/Src/stm32f4xx_ll_usb.c ****     for (i = 0U; i < count32b; i++)
 2002              		.loc 1 965 31 is_stmt 0 view .LVU641
ARM GAS  C:\Users\7636~1\AppData\Local\Temp\ccnv92VB.s 			page 70


 2003 0008 0333     		adds	r3, r3, #3
 2004              	.LVL173:
 965:Drivers/STM32F4xx_HAL_Driver/Src/stm32f4xx_ll_usb.c ****     for (i = 0U; i < count32b; i++)
 2005              		.loc 1 965 14 view .LVU642
 2006 000a 4FEA930E 		lsr	lr, r3, #2
 2007              	.LVL174:
 966:Drivers/STM32F4xx_HAL_Driver/Src/stm32f4xx_ll_usb.c ****     {
 2008              		.loc 1 966 5 is_stmt 1 view .LVU643
 966:Drivers/STM32F4xx_HAL_Driver/Src/stm32f4xx_ll_usb.c ****     {
 2009              		.loc 1 966 12 is_stmt 0 view .LVU644
 2010 000e 4FF0000C 		mov	ip, #0
 966:Drivers/STM32F4xx_HAL_Driver/Src/stm32f4xx_ll_usb.c ****     {
 2011              		.loc 1 966 5 view .LVU645
 2012 0012 08E0     		b	.L142
 2013              	.LVL175:
 2014              	.L143:
 968:Drivers/STM32F4xx_HAL_Driver/Src/stm32f4xx_ll_usb.c ****       pSrc++;
 2015              		.loc 1 968 7 is_stmt 1 discriminator 3 view .LVU646
 2016 0014 00EB0233 		add	r3, r0, r2, lsl #12
 2017 0018 03F58053 		add	r3, r3, #4096
 968:Drivers/STM32F4xx_HAL_Driver/Src/stm32f4xx_ll_usb.c ****       pSrc++;
 2018              		.loc 1 968 41 is_stmt 0 discriminator 3 view .LVU647
 2019 001c 51F8044B 		ldr	r4, [r1], #4	@ unaligned
 2020              	.LVL176:
 968:Drivers/STM32F4xx_HAL_Driver/Src/stm32f4xx_ll_usb.c ****       pSrc++;
 2021              		.loc 1 968 39 discriminator 3 view .LVU648
 2022 0020 1C60     		str	r4, [r3]
 969:Drivers/STM32F4xx_HAL_Driver/Src/stm32f4xx_ll_usb.c ****     }
 2023              		.loc 1 969 7 is_stmt 1 discriminator 3 view .LVU649
 2024              	.LVL177:
 966:Drivers/STM32F4xx_HAL_Driver/Src/stm32f4xx_ll_usb.c ****     {
 2025              		.loc 1 966 32 discriminator 3 view .LVU650
 966:Drivers/STM32F4xx_HAL_Driver/Src/stm32f4xx_ll_usb.c ****     {
 2026              		.loc 1 966 33 is_stmt 0 discriminator 3 view .LVU651
 2027 0022 0CF1010C 		add	ip, ip, #1
 2028              	.LVL178:
 2029              	.L142:
 966:Drivers/STM32F4xx_HAL_Driver/Src/stm32f4xx_ll_usb.c ****     {
 2030              		.loc 1 966 18 is_stmt 1 discriminator 1 view .LVU652
 966:Drivers/STM32F4xx_HAL_Driver/Src/stm32f4xx_ll_usb.c ****     {
 2031              		.loc 1 966 5 is_stmt 0 discriminator 1 view .LVU653
 2032 0026 F445     		cmp	ip, lr
 2033 0028 F4D3     		bcc	.L143
 2034              	.LVL179:
 2035              	.L141:
 973:Drivers/STM32F4xx_HAL_Driver/Src/stm32f4xx_ll_usb.c **** }
 2036              		.loc 1 973 3 is_stmt 1 view .LVU654
 974:Drivers/STM32F4xx_HAL_Driver/Src/stm32f4xx_ll_usb.c **** 
 2037              		.loc 1 974 1 is_stmt 0 view .LVU655
 2038 002a 0020     		movs	r0, #0
 2039              	.LVL180:
 974:Drivers/STM32F4xx_HAL_Driver/Src/stm32f4xx_ll_usb.c **** 
 2040              		.loc 1 974 1 view .LVU656
 2041 002c 10BD     		pop	{r4, pc}
 974:Drivers/STM32F4xx_HAL_Driver/Src/stm32f4xx_ll_usb.c **** 
 2042              		.loc 1 974 1 view .LVU657
 2043              		.cfi_endproc
ARM GAS  C:\Users\7636~1\AppData\Local\Temp\ccnv92VB.s 			page 71


 2044              	.LFE232:
 2046              		.section	.text.USB_EPStartXfer,"ax",%progbits
 2047              		.align	1
 2048              		.global	USB_EPStartXfer
 2049              		.syntax unified
 2050              		.thumb
 2051              		.thumb_func
 2053              	USB_EPStartXfer:
 2054              	.LVL181:
 2055              	.LFB230:
 715:Drivers/STM32F4xx_HAL_Driver/Src/stm32f4xx_ll_usb.c ****   uint32_t USBx_BASE = (uint32_t)USBx;
 2056              		.loc 1 715 1 is_stmt 1 view -0
 2057              		.cfi_startproc
 2058              		@ args = 0, pretend = 0, frame = 0
 2059              		@ frame_needed = 0, uses_anonymous_args = 0
 715:Drivers/STM32F4xx_HAL_Driver/Src/stm32f4xx_ll_usb.c ****   uint32_t USBx_BASE = (uint32_t)USBx;
 2060              		.loc 1 715 1 is_stmt 0 view .LVU659
 2061 0000 F0B5     		push	{r4, r5, r6, r7, lr}
 2062              	.LCFI20:
 2063              		.cfi_def_cfa_offset 20
 2064              		.cfi_offset 4, -20
 2065              		.cfi_offset 5, -16
 2066              		.cfi_offset 6, -12
 2067              		.cfi_offset 7, -8
 2068              		.cfi_offset 14, -4
 2069 0002 83B0     		sub	sp, sp, #12
 2070              	.LCFI21:
 2071              		.cfi_def_cfa_offset 32
 716:Drivers/STM32F4xx_HAL_Driver/Src/stm32f4xx_ll_usb.c ****   uint32_t epnum = (uint32_t)ep->num;
 2072              		.loc 1 716 3 is_stmt 1 view .LVU660
 2073              	.LVL182:
 717:Drivers/STM32F4xx_HAL_Driver/Src/stm32f4xx_ll_usb.c ****   uint16_t pktcnt;
 2074              		.loc 1 717 3 view .LVU661
 717:Drivers/STM32F4xx_HAL_Driver/Src/stm32f4xx_ll_usb.c ****   uint16_t pktcnt;
 2075              		.loc 1 717 32 is_stmt 0 view .LVU662
 2076 0004 0B78     		ldrb	r3, [r1]	@ zero_extendqisi2
 2077              	.LVL183:
 718:Drivers/STM32F4xx_HAL_Driver/Src/stm32f4xx_ll_usb.c **** 
 2078              		.loc 1 718 3 is_stmt 1 view .LVU663
 721:Drivers/STM32F4xx_HAL_Driver/Src/stm32f4xx_ll_usb.c ****   {
 2079              		.loc 1 721 3 view .LVU664
 721:Drivers/STM32F4xx_HAL_Driver/Src/stm32f4xx_ll_usb.c ****   {
 2080              		.loc 1 721 9 is_stmt 0 view .LVU665
 2081 0006 4C78     		ldrb	r4, [r1, #1]	@ zero_extendqisi2
 721:Drivers/STM32F4xx_HAL_Driver/Src/stm32f4xx_ll_usb.c ****   {
 2082              		.loc 1 721 6 view .LVU666
 2083 0008 012C     		cmp	r4, #1
 2084 000a 33D0     		beq	.L163
 805:Drivers/STM32F4xx_HAL_Driver/Src/stm32f4xx_ll_usb.c ****     USBx_OUTEP(epnum)->DOEPTSIZ &= ~(USB_OTG_DOEPTSIZ_PKTCNT);
 2085              		.loc 1 805 5 is_stmt 1 view .LVU667
 805:Drivers/STM32F4xx_HAL_Driver/Src/stm32f4xx_ll_usb.c ****     USBx_OUTEP(epnum)->DOEPTSIZ &= ~(USB_OTG_DOEPTSIZ_PKTCNT);
 2086              		.loc 1 805 33 is_stmt 0 view .LVU668
 2087 000c 00EB4313 		add	r3, r0, r3, lsl #5
 2088              	.LVL184:
 805:Drivers/STM32F4xx_HAL_Driver/Src/stm32f4xx_ll_usb.c ****     USBx_OUTEP(epnum)->DOEPTSIZ &= ~(USB_OTG_DOEPTSIZ_PKTCNT);
 2089              		.loc 1 805 33 view .LVU669
 2090 0010 03F5306C 		add	ip, r3, #2816
ARM GAS  C:\Users\7636~1\AppData\Local\Temp\ccnv92VB.s 			page 72


 2091 0014 DCF81040 		ldr	r4, [ip, #16]
 2092 0018 E40C     		lsrs	r4, r4, #19
 2093 001a E404     		lsls	r4, r4, #19
 2094 001c CCF81040 		str	r4, [ip, #16]
 2095              	.LVL185:
 806:Drivers/STM32F4xx_HAL_Driver/Src/stm32f4xx_ll_usb.c **** 
 2096              		.loc 1 806 5 is_stmt 1 view .LVU670
 806:Drivers/STM32F4xx_HAL_Driver/Src/stm32f4xx_ll_usb.c **** 
 2097              		.loc 1 806 33 is_stmt 0 view .LVU671
 2098 0020 DCF81040 		ldr	r4, [ip, #16]
 2099 0024 24F0FF54 		bic	r4, r4, #534773760
 2100 0028 24F4C014 		bic	r4, r4, #1572864
 2101 002c CCF81040 		str	r4, [ip, #16]
 808:Drivers/STM32F4xx_HAL_Driver/Src/stm32f4xx_ll_usb.c ****     {
 2102              		.loc 1 808 5 is_stmt 1 view .LVU672
 808:Drivers/STM32F4xx_HAL_Driver/Src/stm32f4xx_ll_usb.c ****     {
 2103              		.loc 1 808 11 is_stmt 0 view .LVU673
 2104 0030 4C69     		ldr	r4, [r1, #20]
 808:Drivers/STM32F4xx_HAL_Driver/Src/stm32f4xx_ll_usb.c ****     {
 2105              		.loc 1 808 8 view .LVU674
 2106 0032 002C     		cmp	r4, #0
 2107 0034 40F0CA80 		bne	.L157
 810:Drivers/STM32F4xx_HAL_Driver/Src/stm32f4xx_ll_usb.c ****       USBx_OUTEP(epnum)->DOEPTSIZ |= (USB_OTG_DOEPTSIZ_PKTCNT & (1U << 19));
 2108              		.loc 1 810 7 is_stmt 1 view .LVU675
 810:Drivers/STM32F4xx_HAL_Driver/Src/stm32f4xx_ll_usb.c ****       USBx_OUTEP(epnum)->DOEPTSIZ |= (USB_OTG_DOEPTSIZ_PKTCNT & (1U << 19));
 2109              		.loc 1 810 35 is_stmt 0 view .LVU676
 2110 0038 DCF81040 		ldr	r4, [ip, #16]
 810:Drivers/STM32F4xx_HAL_Driver/Src/stm32f4xx_ll_usb.c ****       USBx_OUTEP(epnum)->DOEPTSIZ |= (USB_OTG_DOEPTSIZ_PKTCNT & (1U << 19));
 2111              		.loc 1 810 67 view .LVU677
 2112 003c 8D68     		ldr	r5, [r1, #8]
 810:Drivers/STM32F4xx_HAL_Driver/Src/stm32f4xx_ll_usb.c ****       USBx_OUTEP(epnum)->DOEPTSIZ |= (USB_OTG_DOEPTSIZ_PKTCNT & (1U << 19));
 2113              		.loc 1 810 63 view .LVU678
 2114 003e C5F31205 		ubfx	r5, r5, #0, #19
 810:Drivers/STM32F4xx_HAL_Driver/Src/stm32f4xx_ll_usb.c ****       USBx_OUTEP(epnum)->DOEPTSIZ |= (USB_OTG_DOEPTSIZ_PKTCNT & (1U << 19));
 2115              		.loc 1 810 35 view .LVU679
 2116 0042 2C43     		orrs	r4, r4, r5
 2117 0044 CCF81040 		str	r4, [ip, #16]
 811:Drivers/STM32F4xx_HAL_Driver/Src/stm32f4xx_ll_usb.c ****     }
 2118              		.loc 1 811 7 is_stmt 1 view .LVU680
 811:Drivers/STM32F4xx_HAL_Driver/Src/stm32f4xx_ll_usb.c ****     }
 2119              		.loc 1 811 35 is_stmt 0 view .LVU681
 2120 0048 DCF81040 		ldr	r4, [ip, #16]
 2121 004c 44F40024 		orr	r4, r4, #524288
 2122 0050 CCF81040 		str	r4, [ip, #16]
 2123              	.L158:
 820:Drivers/STM32F4xx_HAL_Driver/Src/stm32f4xx_ll_usb.c ****     {
 2124              		.loc 1 820 5 is_stmt 1 view .LVU682
 820:Drivers/STM32F4xx_HAL_Driver/Src/stm32f4xx_ll_usb.c ****     {
 2125              		.loc 1 820 8 is_stmt 0 view .LVU683
 2126 0054 012A     		cmp	r2, #1
 2127 0056 00F0D380 		beq	.L164
 2128              	.LVL186:
 2129              	.L159:
 828:Drivers/STM32F4xx_HAL_Driver/Src/stm32f4xx_ll_usb.c ****     {
 2130              		.loc 1 828 5 is_stmt 1 view .LVU684
 828:Drivers/STM32F4xx_HAL_Driver/Src/stm32f4xx_ll_usb.c ****     {
 2131              		.loc 1 828 11 is_stmt 0 view .LVU685
ARM GAS  C:\Users\7636~1\AppData\Local\Temp\ccnv92VB.s 			page 73


 2132 005a CA78     		ldrb	r2, [r1, #3]	@ zero_extendqisi2
 828:Drivers/STM32F4xx_HAL_Driver/Src/stm32f4xx_ll_usb.c ****     {
 2133              		.loc 1 828 8 view .LVU686
 2134 005c 012A     		cmp	r2, #1
 2135 005e 00F0D680 		beq	.L165
 2136              	.L160:
 840:Drivers/STM32F4xx_HAL_Driver/Src/stm32f4xx_ll_usb.c ****   }
 2137              		.loc 1 840 5 is_stmt 1 view .LVU687
 840:Drivers/STM32F4xx_HAL_Driver/Src/stm32f4xx_ll_usb.c ****   }
 2138              		.loc 1 840 32 is_stmt 0 view .LVU688
 2139 0062 D3F8002B 		ldr	r2, [r3, #2816]
 2140 0066 42F00442 		orr	r2, r2, #-2080374784
 2141 006a C3F8002B 		str	r2, [r3, #2816]
 2142              	.LVL187:
 2143              	.L153:
 843:Drivers/STM32F4xx_HAL_Driver/Src/stm32f4xx_ll_usb.c **** }
 2144              		.loc 1 843 3 is_stmt 1 view .LVU689
 844:Drivers/STM32F4xx_HAL_Driver/Src/stm32f4xx_ll_usb.c **** 
 2145              		.loc 1 844 1 is_stmt 0 view .LVU690
 2146 006e 0020     		movs	r0, #0
 2147 0070 03B0     		add	sp, sp, #12
 2148              	.LCFI22:
 2149              		.cfi_remember_state
 2150              		.cfi_def_cfa_offset 20
 2151              		@ sp needed
 2152 0072 F0BD     		pop	{r4, r5, r6, r7, pc}
 2153              	.LVL188:
 2154              	.L163:
 2155              	.LCFI23:
 2156              		.cfi_restore_state
 724:Drivers/STM32F4xx_HAL_Driver/Src/stm32f4xx_ll_usb.c ****     {
 2157              		.loc 1 724 5 is_stmt 1 view .LVU691
 724:Drivers/STM32F4xx_HAL_Driver/Src/stm32f4xx_ll_usb.c ****     {
 2158              		.loc 1 724 11 is_stmt 0 view .LVU692
 2159 0074 4C69     		ldr	r4, [r1, #20]
 724:Drivers/STM32F4xx_HAL_Driver/Src/stm32f4xx_ll_usb.c ****     {
 2160              		.loc 1 724 8 view .LVU693
 2161 0076 84BB     		cbnz	r4, .L147
 726:Drivers/STM32F4xx_HAL_Driver/Src/stm32f4xx_ll_usb.c ****       USBx_INEP(epnum)->DIEPTSIZ |= (USB_OTG_DIEPTSIZ_PKTCNT & (1U << 19));
 2162              		.loc 1 726 7 is_stmt 1 view .LVU694
 726:Drivers/STM32F4xx_HAL_Driver/Src/stm32f4xx_ll_usb.c ****       USBx_INEP(epnum)->DIEPTSIZ |= (USB_OTG_DIEPTSIZ_PKTCNT & (1U << 19));
 2163              		.loc 1 726 34 is_stmt 0 view .LVU695
 2164 0078 00EB4314 		add	r4, r0, r3, lsl #5
 2165 007c D4F81059 		ldr	r5, [r4, #2320]
 2166 0080 25F0FF55 		bic	r5, r5, #534773760
 2167 0084 25F4C015 		bic	r5, r5, #1572864
 2168 0088 C4F81059 		str	r5, [r4, #2320]
 727:Drivers/STM32F4xx_HAL_Driver/Src/stm32f4xx_ll_usb.c ****       USBx_INEP(epnum)->DIEPTSIZ &= ~(USB_OTG_DIEPTSIZ_XFRSIZ);
 2169              		.loc 1 727 7 is_stmt 1 view .LVU696
 727:Drivers/STM32F4xx_HAL_Driver/Src/stm32f4xx_ll_usb.c ****       USBx_INEP(epnum)->DIEPTSIZ &= ~(USB_OTG_DIEPTSIZ_XFRSIZ);
 2170              		.loc 1 727 34 is_stmt 0 view .LVU697
 2171 008c D4F81059 		ldr	r5, [r4, #2320]
 2172 0090 45F40025 		orr	r5, r5, #524288
 2173 0094 C4F81059 		str	r5, [r4, #2320]
 728:Drivers/STM32F4xx_HAL_Driver/Src/stm32f4xx_ll_usb.c ****     }
 2174              		.loc 1 728 7 is_stmt 1 view .LVU698
 728:Drivers/STM32F4xx_HAL_Driver/Src/stm32f4xx_ll_usb.c ****     }
ARM GAS  C:\Users\7636~1\AppData\Local\Temp\ccnv92VB.s 			page 74


 2175              		.loc 1 728 34 is_stmt 0 view .LVU699
 2176 0098 D4F81059 		ldr	r5, [r4, #2320]
 2177 009c ED0C     		lsrs	r5, r5, #19
 2178 009e ED04     		lsls	r5, r5, #19
 2179 00a0 C4F81059 		str	r5, [r4, #2320]
 2180              	.L148:
 749:Drivers/STM32F4xx_HAL_Driver/Src/stm32f4xx_ll_usb.c ****     {
 2181              		.loc 1 749 5 is_stmt 1 view .LVU700
 749:Drivers/STM32F4xx_HAL_Driver/Src/stm32f4xx_ll_usb.c ****     {
 2182              		.loc 1 749 8 is_stmt 0 view .LVU701
 2183 00a4 012A     		cmp	r2, #1
 2184 00a6 4FD0     		beq	.L166
 774:Drivers/STM32F4xx_HAL_Driver/Src/stm32f4xx_ll_usb.c **** 
 2185              		.loc 1 774 7 is_stmt 1 view .LVU702
 774:Drivers/STM32F4xx_HAL_Driver/Src/stm32f4xx_ll_usb.c **** 
 2186              		.loc 1 774 33 is_stmt 0 view .LVU703
 2187 00a8 00EB4313 		add	r3, r0, r3, lsl #5
 2188              	.LVL189:
 774:Drivers/STM32F4xx_HAL_Driver/Src/stm32f4xx_ll_usb.c **** 
 2189              		.loc 1 774 33 view .LVU704
 2190 00ac D3F80049 		ldr	r4, [r3, #2304]
 2191 00b0 44F00444 		orr	r4, r4, #-2080374784
 2192 00b4 C3F80049 		str	r4, [r3, #2304]
 776:Drivers/STM32F4xx_HAL_Driver/Src/stm32f4xx_ll_usb.c ****       {
 2193              		.loc 1 776 7 is_stmt 1 view .LVU705
 776:Drivers/STM32F4xx_HAL_Driver/Src/stm32f4xx_ll_usb.c ****       {
 2194              		.loc 1 776 13 is_stmt 0 view .LVU706
 2195 00b8 CC78     		ldrb	r4, [r1, #3]	@ zero_extendqisi2
 776:Drivers/STM32F4xx_HAL_Driver/Src/stm32f4xx_ll_usb.c ****       {
 2196              		.loc 1 776 10 view .LVU707
 2197 00ba 012C     		cmp	r4, #1
 2198 00bc 6DD0     		beq	.L154
 779:Drivers/STM32F4xx_HAL_Driver/Src/stm32f4xx_ll_usb.c ****         {
 2199              		.loc 1 779 9 is_stmt 1 view .LVU708
 779:Drivers/STM32F4xx_HAL_Driver/Src/stm32f4xx_ll_usb.c ****         {
 2200              		.loc 1 779 15 is_stmt 0 view .LVU709
 2201 00be 4B69     		ldr	r3, [r1, #20]
 779:Drivers/STM32F4xx_HAL_Driver/Src/stm32f4xx_ll_usb.c ****         {
 2202              		.loc 1 779 12 view .LVU710
 2203 00c0 002B     		cmp	r3, #0
 2204 00c2 D4D0     		beq	.L153
 781:Drivers/STM32F4xx_HAL_Driver/Src/stm32f4xx_ll_usb.c ****         }
 2205              		.loc 1 781 11 is_stmt 1 view .LVU711
 781:Drivers/STM32F4xx_HAL_Driver/Src/stm32f4xx_ll_usb.c ****         }
 2206              		.loc 1 781 35 is_stmt 0 view .LVU712
 2207 00c4 D0F83438 		ldr	r3, [r0, #2100]
 781:Drivers/STM32F4xx_HAL_Driver/Src/stm32f4xx_ll_usb.c ****         }
 2208              		.loc 1 781 48 view .LVU713
 2209 00c8 0A78     		ldrb	r2, [r1]	@ zero_extendqisi2
 2210              	.LVL190:
 781:Drivers/STM32F4xx_HAL_Driver/Src/stm32f4xx_ll_usb.c ****         }
 2211              		.loc 1 781 54 view .LVU714
 2212 00ca 02F00F01 		and	r1, r2, #15
 2213              	.LVL191:
 781:Drivers/STM32F4xx_HAL_Driver/Src/stm32f4xx_ll_usb.c ****         }
 2214              		.loc 1 781 42 view .LVU715
 2215 00ce 0122     		movs	r2, #1
ARM GAS  C:\Users\7636~1\AppData\Local\Temp\ccnv92VB.s 			page 75


 2216 00d0 8A40     		lsls	r2, r2, r1
 781:Drivers/STM32F4xx_HAL_Driver/Src/stm32f4xx_ll_usb.c ****         }
 2217              		.loc 1 781 35 view .LVU716
 2218 00d2 1343     		orrs	r3, r3, r2
 2219 00d4 C0F83438 		str	r3, [r0, #2100]
 2220 00d8 C9E7     		b	.L153
 2221              	.LVL192:
 2222              	.L147:
 737:Drivers/STM32F4xx_HAL_Driver/Src/stm32f4xx_ll_usb.c ****       USBx_INEP(epnum)->DIEPTSIZ &= ~(USB_OTG_DIEPTSIZ_PKTCNT);
 2223              		.loc 1 737 7 is_stmt 1 view .LVU717
 737:Drivers/STM32F4xx_HAL_Driver/Src/stm32f4xx_ll_usb.c ****       USBx_INEP(epnum)->DIEPTSIZ &= ~(USB_OTG_DIEPTSIZ_PKTCNT);
 2224              		.loc 1 737 34 is_stmt 0 view .LVU718
 2225 00da 00EB4314 		add	r4, r0, r3, lsl #5
 2226 00de D4F81059 		ldr	r5, [r4, #2320]
 2227 00e2 ED0C     		lsrs	r5, r5, #19
 2228 00e4 ED04     		lsls	r5, r5, #19
 2229 00e6 C4F81059 		str	r5, [r4, #2320]
 738:Drivers/STM32F4xx_HAL_Driver/Src/stm32f4xx_ll_usb.c ****       USBx_INEP(epnum)->DIEPTSIZ |= (USB_OTG_DIEPTSIZ_PKTCNT & (((ep->xfer_len + ep->maxpacket - 1U
 2230              		.loc 1 738 7 is_stmt 1 view .LVU719
 738:Drivers/STM32F4xx_HAL_Driver/Src/stm32f4xx_ll_usb.c ****       USBx_INEP(epnum)->DIEPTSIZ |= (USB_OTG_DIEPTSIZ_PKTCNT & (((ep->xfer_len + ep->maxpacket - 1U
 2231              		.loc 1 738 34 is_stmt 0 view .LVU720
 2232 00ea D4F81059 		ldr	r5, [r4, #2320]
 2233 00ee 25F0FF55 		bic	r5, r5, #534773760
 2234 00f2 25F4C015 		bic	r5, r5, #1572864
 2235 00f6 C4F81059 		str	r5, [r4, #2320]
 739:Drivers/STM32F4xx_HAL_Driver/Src/stm32f4xx_ll_usb.c ****       USBx_INEP(epnum)->DIEPTSIZ |= (USB_OTG_DIEPTSIZ_XFRSIZ & ep->xfer_len);
 2236              		.loc 1 739 7 is_stmt 1 view .LVU721
 739:Drivers/STM32F4xx_HAL_Driver/Src/stm32f4xx_ll_usb.c ****       USBx_INEP(epnum)->DIEPTSIZ |= (USB_OTG_DIEPTSIZ_XFRSIZ & ep->xfer_len);
 2237              		.loc 1 739 34 is_stmt 0 view .LVU722
 2238 00fa D4F81059 		ldr	r5, [r4, #2320]
 739:Drivers/STM32F4xx_HAL_Driver/Src/stm32f4xx_ll_usb.c ****       USBx_INEP(epnum)->DIEPTSIZ |= (USB_OTG_DIEPTSIZ_XFRSIZ & ep->xfer_len);
 2239              		.loc 1 739 84 view .LVU723
 2240 00fe 8E68     		ldr	r6, [r1, #8]
 739:Drivers/STM32F4xx_HAL_Driver/Src/stm32f4xx_ll_usb.c ****       USBx_INEP(epnum)->DIEPTSIZ |= (USB_OTG_DIEPTSIZ_XFRSIZ & ep->xfer_len);
 2241              		.loc 1 739 80 view .LVU724
 2242 0100 4F69     		ldr	r7, [r1, #20]
 2243 0102 07EB060C 		add	ip, r7, r6
 739:Drivers/STM32F4xx_HAL_Driver/Src/stm32f4xx_ll_usb.c ****       USBx_INEP(epnum)->DIEPTSIZ |= (USB_OTG_DIEPTSIZ_XFRSIZ & ep->xfer_len);
 2244              		.loc 1 739 96 view .LVU725
 2245 0106 0CF1FF3C 		add	ip, ip, #-1
 739:Drivers/STM32F4xx_HAL_Driver/Src/stm32f4xx_ll_usb.c ****       USBx_INEP(epnum)->DIEPTSIZ |= (USB_OTG_DIEPTSIZ_XFRSIZ & ep->xfer_len);
 2246              		.loc 1 739 102 view .LVU726
 2247 010a BCFBF6FC 		udiv	ip, ip, r6
 739:Drivers/STM32F4xx_HAL_Driver/Src/stm32f4xx_ll_usb.c ****       USBx_INEP(epnum)->DIEPTSIZ |= (USB_OTG_DIEPTSIZ_XFRSIZ & ep->xfer_len);
 2248              		.loc 1 739 62 view .LVU727
 2249 010e 494E     		ldr	r6, .L168
 2250 0110 06EACC4C 		and	ip, r6, ip, lsl #19
 739:Drivers/STM32F4xx_HAL_Driver/Src/stm32f4xx_ll_usb.c ****       USBx_INEP(epnum)->DIEPTSIZ |= (USB_OTG_DIEPTSIZ_XFRSIZ & ep->xfer_len);
 2251              		.loc 1 739 34 view .LVU728
 2252 0114 45EA0C05 		orr	r5, r5, ip
 2253 0118 C4F81059 		str	r5, [r4, #2320]
 740:Drivers/STM32F4xx_HAL_Driver/Src/stm32f4xx_ll_usb.c **** 
 2254              		.loc 1 740 7 is_stmt 1 view .LVU729
 740:Drivers/STM32F4xx_HAL_Driver/Src/stm32f4xx_ll_usb.c **** 
 2255              		.loc 1 740 34 is_stmt 0 view .LVU730
 2256 011c D4F81059 		ldr	r5, [r4, #2320]
 740:Drivers/STM32F4xx_HAL_Driver/Src/stm32f4xx_ll_usb.c **** 
ARM GAS  C:\Users\7636~1\AppData\Local\Temp\ccnv92VB.s 			page 76


 2257              		.loc 1 740 66 view .LVU731
 2258 0120 4E69     		ldr	r6, [r1, #20]
 740:Drivers/STM32F4xx_HAL_Driver/Src/stm32f4xx_ll_usb.c **** 
 2259              		.loc 1 740 62 view .LVU732
 2260 0122 C6F31206 		ubfx	r6, r6, #0, #19
 740:Drivers/STM32F4xx_HAL_Driver/Src/stm32f4xx_ll_usb.c **** 
 2261              		.loc 1 740 34 view .LVU733
 2262 0126 3543     		orrs	r5, r5, r6
 2263 0128 C4F81059 		str	r5, [r4, #2320]
 737:Drivers/STM32F4xx_HAL_Driver/Src/stm32f4xx_ll_usb.c ****       USBx_INEP(epnum)->DIEPTSIZ &= ~(USB_OTG_DIEPTSIZ_PKTCNT);
 2264              		.loc 1 737 34 view .LVU734
 2265 012c 04F51064 		add	r4, r4, #2304
 742:Drivers/STM32F4xx_HAL_Driver/Src/stm32f4xx_ll_usb.c ****       {
 2266              		.loc 1 742 7 is_stmt 1 view .LVU735
 742:Drivers/STM32F4xx_HAL_Driver/Src/stm32f4xx_ll_usb.c ****       {
 2267              		.loc 1 742 13 is_stmt 0 view .LVU736
 2268 0130 CD78     		ldrb	r5, [r1, #3]	@ zero_extendqisi2
 742:Drivers/STM32F4xx_HAL_Driver/Src/stm32f4xx_ll_usb.c ****       {
 2269              		.loc 1 742 10 view .LVU737
 2270 0132 012D     		cmp	r5, #1
 2271 0134 B6D1     		bne	.L148
 744:Drivers/STM32F4xx_HAL_Driver/Src/stm32f4xx_ll_usb.c ****         USBx_INEP(epnum)->DIEPTSIZ |= (USB_OTG_DIEPTSIZ_MULCNT & (1U << 29));
 2272              		.loc 1 744 9 is_stmt 1 view .LVU738
 744:Drivers/STM32F4xx_HAL_Driver/Src/stm32f4xx_ll_usb.c ****         USBx_INEP(epnum)->DIEPTSIZ |= (USB_OTG_DIEPTSIZ_MULCNT & (1U << 29));
 2273              		.loc 1 744 36 is_stmt 0 view .LVU739
 2274 0136 2569     		ldr	r5, [r4, #16]
 2275 0138 25F0C045 		bic	r5, r5, #1610612736
 2276 013c 2561     		str	r5, [r4, #16]
 745:Drivers/STM32F4xx_HAL_Driver/Src/stm32f4xx_ll_usb.c ****       }
 2277              		.loc 1 745 9 is_stmt 1 view .LVU740
 745:Drivers/STM32F4xx_HAL_Driver/Src/stm32f4xx_ll_usb.c ****       }
 2278              		.loc 1 745 36 is_stmt 0 view .LVU741
 2279 013e 2569     		ldr	r5, [r4, #16]
 2280 0140 45F00055 		orr	r5, r5, #536870912
 2281 0144 2561     		str	r5, [r4, #16]
 2282 0146 ADE7     		b	.L148
 2283              	.L166:
 751:Drivers/STM32F4xx_HAL_Driver/Src/stm32f4xx_ll_usb.c ****       {
 2284              		.loc 1 751 7 is_stmt 1 view .LVU742
 751:Drivers/STM32F4xx_HAL_Driver/Src/stm32f4xx_ll_usb.c ****       {
 2285              		.loc 1 751 23 is_stmt 0 view .LVU743
 2286 0148 0A69     		ldr	r2, [r1, #16]
 2287              	.LVL193:
 751:Drivers/STM32F4xx_HAL_Driver/Src/stm32f4xx_ll_usb.c ****       {
 2288              		.loc 1 751 10 view .LVU744
 2289 014a 1AB1     		cbz	r2, .L150
 753:Drivers/STM32F4xx_HAL_Driver/Src/stm32f4xx_ll_usb.c ****       }
 2290              		.loc 1 753 9 is_stmt 1 view .LVU745
 2291 014c 00EB4314 		add	r4, r0, r3, lsl #5
 753:Drivers/STM32F4xx_HAL_Driver/Src/stm32f4xx_ll_usb.c ****       }
 2292              		.loc 1 753 35 is_stmt 0 view .LVU746
 2293 0150 C4F81429 		str	r2, [r4, #2324]
 2294              	.L150:
 756:Drivers/STM32F4xx_HAL_Driver/Src/stm32f4xx_ll_usb.c ****       {
 2295              		.loc 1 756 7 is_stmt 1 view .LVU747
 756:Drivers/STM32F4xx_HAL_Driver/Src/stm32f4xx_ll_usb.c ****       {
 2296              		.loc 1 756 13 is_stmt 0 view .LVU748
ARM GAS  C:\Users\7636~1\AppData\Local\Temp\ccnv92VB.s 			page 77


 2297 0154 CA78     		ldrb	r2, [r1, #3]	@ zero_extendqisi2
 756:Drivers/STM32F4xx_HAL_Driver/Src/stm32f4xx_ll_usb.c ****       {
 2298              		.loc 1 756 10 view .LVU749
 2299 0156 012A     		cmp	r2, #1
 2300 0158 08D0     		beq	.L167
 2301              	.LVL194:
 2302              	.L151:
 769:Drivers/STM32F4xx_HAL_Driver/Src/stm32f4xx_ll_usb.c ****     }
 2303              		.loc 1 769 7 is_stmt 1 view .LVU750
 769:Drivers/STM32F4xx_HAL_Driver/Src/stm32f4xx_ll_usb.c ****     }
 2304              		.loc 1 769 33 is_stmt 0 view .LVU751
 2305 015a 00EB4313 		add	r3, r0, r3, lsl #5
 2306              	.LVL195:
 769:Drivers/STM32F4xx_HAL_Driver/Src/stm32f4xx_ll_usb.c ****     }
 2307              		.loc 1 769 33 view .LVU752
 2308 015e D3F80029 		ldr	r2, [r3, #2304]
 2309 0162 42F00442 		orr	r2, r2, #-2080374784
 2310 0166 C3F80029 		str	r2, [r3, #2304]
 2311 016a 80E7     		b	.L153
 2312              	.LVL196:
 2313              	.L167:
 758:Drivers/STM32F4xx_HAL_Driver/Src/stm32f4xx_ll_usb.c ****         {
 2314              		.loc 1 758 9 is_stmt 1 view .LVU753
 758:Drivers/STM32F4xx_HAL_Driver/Src/stm32f4xx_ll_usb.c ****         {
 2315              		.loc 1 758 25 is_stmt 0 view .LVU754
 2316 016c D0F80828 		ldr	r2, [r0, #2056]
 758:Drivers/STM32F4xx_HAL_Driver/Src/stm32f4xx_ll_usb.c ****         {
 2317              		.loc 1 758 12 view .LVU755
 2318 0170 12F4807F 		tst	r2, #256
 2319 0174 08D1     		bne	.L152
 760:Drivers/STM32F4xx_HAL_Driver/Src/stm32f4xx_ll_usb.c ****         }
 2320              		.loc 1 760 11 is_stmt 1 view .LVU756
 760:Drivers/STM32F4xx_HAL_Driver/Src/stm32f4xx_ll_usb.c ****         }
 2321              		.loc 1 760 37 is_stmt 0 view .LVU757
 2322 0176 00EB4311 		add	r1, r0, r3, lsl #5
 2323              	.LVL197:
 760:Drivers/STM32F4xx_HAL_Driver/Src/stm32f4xx_ll_usb.c ****         }
 2324              		.loc 1 760 37 view .LVU758
 2325 017a D1F80029 		ldr	r2, [r1, #2304]
 2326 017e 42F00052 		orr	r2, r2, #536870912
 2327 0182 C1F80029 		str	r2, [r1, #2304]
 2328 0186 E8E7     		b	.L151
 2329              	.LVL198:
 2330              	.L152:
 764:Drivers/STM32F4xx_HAL_Driver/Src/stm32f4xx_ll_usb.c ****         }
 2331              		.loc 1 764 11 is_stmt 1 view .LVU759
 764:Drivers/STM32F4xx_HAL_Driver/Src/stm32f4xx_ll_usb.c ****         }
 2332              		.loc 1 764 37 is_stmt 0 view .LVU760
 2333 0188 00EB4311 		add	r1, r0, r3, lsl #5
 2334              	.LVL199:
 764:Drivers/STM32F4xx_HAL_Driver/Src/stm32f4xx_ll_usb.c ****         }
 2335              		.loc 1 764 37 view .LVU761
 2336 018c D1F80029 		ldr	r2, [r1, #2304]
 2337 0190 42F08052 		orr	r2, r2, #268435456
 2338 0194 C1F80029 		str	r2, [r1, #2304]
 2339 0198 DFE7     		b	.L151
 2340              	.LVL200:
ARM GAS  C:\Users\7636~1\AppData\Local\Temp\ccnv92VB.s 			page 78


 2341              	.L154:
 786:Drivers/STM32F4xx_HAL_Driver/Src/stm32f4xx_ll_usb.c ****         {
 2342              		.loc 1 786 9 is_stmt 1 view .LVU762
 786:Drivers/STM32F4xx_HAL_Driver/Src/stm32f4xx_ll_usb.c ****         {
 2343              		.loc 1 786 25 is_stmt 0 view .LVU763
 2344 019a D0F80848 		ldr	r4, [r0, #2056]
 786:Drivers/STM32F4xx_HAL_Driver/Src/stm32f4xx_ll_usb.c ****         {
 2345              		.loc 1 786 12 view .LVU764
 2346 019e 14F4807F 		tst	r4, #256
 2347 01a2 0CD1     		bne	.L155
 788:Drivers/STM32F4xx_HAL_Driver/Src/stm32f4xx_ll_usb.c ****         }
 2348              		.loc 1 788 11 is_stmt 1 view .LVU765
 788:Drivers/STM32F4xx_HAL_Driver/Src/stm32f4xx_ll_usb.c ****         }
 2349              		.loc 1 788 37 is_stmt 0 view .LVU766
 2350 01a4 D3F80049 		ldr	r4, [r3, #2304]
 2351 01a8 44F00054 		orr	r4, r4, #536870912
 2352 01ac C3F80049 		str	r4, [r3, #2304]
 2353              	.L156:
 795:Drivers/STM32F4xx_HAL_Driver/Src/stm32f4xx_ll_usb.c ****       }
 2354              		.loc 1 795 9 is_stmt 1 view .LVU767
 795:Drivers/STM32F4xx_HAL_Driver/Src/stm32f4xx_ll_usb.c ****       }
 2355              		.loc 1 795 15 is_stmt 0 view .LVU768
 2356 01b0 0092     		str	r2, [sp]
 2357 01b2 8B8A     		ldrh	r3, [r1, #20]
 2358 01b4 0A78     		ldrb	r2, [r1]	@ zero_extendqisi2
 2359              	.LVL201:
 795:Drivers/STM32F4xx_HAL_Driver/Src/stm32f4xx_ll_usb.c ****       }
 2360              		.loc 1 795 15 view .LVU769
 2361 01b6 C968     		ldr	r1, [r1, #12]
 2362              	.LVL202:
 795:Drivers/STM32F4xx_HAL_Driver/Src/stm32f4xx_ll_usb.c ****       }
 2363              		.loc 1 795 15 view .LVU770
 2364 01b8 FFF7FEFF 		bl	USB_WritePacket
 2365              	.LVL203:
 795:Drivers/STM32F4xx_HAL_Driver/Src/stm32f4xx_ll_usb.c ****       }
 2366              		.loc 1 795 15 view .LVU771
 2367 01bc 57E7     		b	.L153
 2368              	.LVL204:
 2369              	.L155:
 792:Drivers/STM32F4xx_HAL_Driver/Src/stm32f4xx_ll_usb.c ****         }
 2370              		.loc 1 792 11 is_stmt 1 view .LVU772
 792:Drivers/STM32F4xx_HAL_Driver/Src/stm32f4xx_ll_usb.c ****         }
 2371              		.loc 1 792 37 is_stmt 0 view .LVU773
 2372 01be D3F80049 		ldr	r4, [r3, #2304]
 2373 01c2 44F08054 		orr	r4, r4, #268435456
 2374 01c6 C3F80049 		str	r4, [r3, #2304]
 2375 01ca F1E7     		b	.L156
 2376              	.L157:
 815:Drivers/STM32F4xx_HAL_Driver/Src/stm32f4xx_ll_usb.c ****       USBx_OUTEP(epnum)->DOEPTSIZ |= USB_OTG_DOEPTSIZ_PKTCNT & ((uint32_t)pktcnt << 19);
 2377              		.loc 1 815 7 is_stmt 1 view .LVU774
 815:Drivers/STM32F4xx_HAL_Driver/Src/stm32f4xx_ll_usb.c ****       USBx_OUTEP(epnum)->DOEPTSIZ |= USB_OTG_DOEPTSIZ_PKTCNT & ((uint32_t)pktcnt << 19);
 2378              		.loc 1 815 45 is_stmt 0 view .LVU775
 2379 01cc 8D68     		ldr	r5, [r1, #8]
 815:Drivers/STM32F4xx_HAL_Driver/Src/stm32f4xx_ll_usb.c ****       USBx_OUTEP(epnum)->DOEPTSIZ |= USB_OTG_DOEPTSIZ_PKTCNT & ((uint32_t)pktcnt << 19);
 2380              		.loc 1 815 41 view .LVU776
 2381 01ce 2C44     		add	r4, r4, r5
 815:Drivers/STM32F4xx_HAL_Driver/Src/stm32f4xx_ll_usb.c ****       USBx_OUTEP(epnum)->DOEPTSIZ |= USB_OTG_DOEPTSIZ_PKTCNT & ((uint32_t)pktcnt << 19);
ARM GAS  C:\Users\7636~1\AppData\Local\Temp\ccnv92VB.s 			page 79


 2382              		.loc 1 815 57 view .LVU777
 2383 01d0 013C     		subs	r4, r4, #1
 815:Drivers/STM32F4xx_HAL_Driver/Src/stm32f4xx_ll_usb.c ****       USBx_OUTEP(epnum)->DOEPTSIZ |= USB_OTG_DOEPTSIZ_PKTCNT & ((uint32_t)pktcnt << 19);
 2384              		.loc 1 815 63 view .LVU778
 2385 01d2 B4FBF5F4 		udiv	r4, r4, r5
 2386              	.LVL205:
 816:Drivers/STM32F4xx_HAL_Driver/Src/stm32f4xx_ll_usb.c ****       USBx_OUTEP(epnum)->DOEPTSIZ |= USB_OTG_DOEPTSIZ_XFRSIZ & (ep->maxpacket * pktcnt);
 2387              		.loc 1 816 7 is_stmt 1 view .LVU779
 816:Drivers/STM32F4xx_HAL_Driver/Src/stm32f4xx_ll_usb.c ****       USBx_OUTEP(epnum)->DOEPTSIZ |= USB_OTG_DOEPTSIZ_XFRSIZ & (ep->maxpacket * pktcnt);
 2388              		.loc 1 816 35 is_stmt 0 view .LVU780
 2389 01d6 DCF81050 		ldr	r5, [ip, #16]
 2390 01da 1FFA84FE 		uxth	lr, r4
 816:Drivers/STM32F4xx_HAL_Driver/Src/stm32f4xx_ll_usb.c ****       USBx_OUTEP(epnum)->DOEPTSIZ |= USB_OTG_DOEPTSIZ_XFRSIZ & (ep->maxpacket * pktcnt);
 2391              		.loc 1 816 62 view .LVU781
 2392 01de 154E     		ldr	r6, .L168
 2393 01e0 06EAC444 		and	r4, r6, r4, lsl #19
 2394              	.LVL206:
 816:Drivers/STM32F4xx_HAL_Driver/Src/stm32f4xx_ll_usb.c ****       USBx_OUTEP(epnum)->DOEPTSIZ |= USB_OTG_DOEPTSIZ_XFRSIZ & (ep->maxpacket * pktcnt);
 2395              		.loc 1 816 35 view .LVU782
 2396 01e4 2543     		orrs	r5, r5, r4
 2397 01e6 CCF81050 		str	r5, [ip, #16]
 817:Drivers/STM32F4xx_HAL_Driver/Src/stm32f4xx_ll_usb.c ****     }
 2398              		.loc 1 817 7 is_stmt 1 view .LVU783
 817:Drivers/STM32F4xx_HAL_Driver/Src/stm32f4xx_ll_usb.c ****     }
 2399              		.loc 1 817 35 is_stmt 0 view .LVU784
 2400 01ea DCF81050 		ldr	r5, [ip, #16]
 817:Drivers/STM32F4xx_HAL_Driver/Src/stm32f4xx_ll_usb.c ****     }
 2401              		.loc 1 817 67 view .LVU785
 2402 01ee 8C68     		ldr	r4, [r1, #8]
 817:Drivers/STM32F4xx_HAL_Driver/Src/stm32f4xx_ll_usb.c ****     }
 2403              		.loc 1 817 79 view .LVU786
 2404 01f0 0EFB04F4 		mul	r4, lr, r4
 817:Drivers/STM32F4xx_HAL_Driver/Src/stm32f4xx_ll_usb.c ****     }
 2405              		.loc 1 817 62 view .LVU787
 2406 01f4 C4F31204 		ubfx	r4, r4, #0, #19
 817:Drivers/STM32F4xx_HAL_Driver/Src/stm32f4xx_ll_usb.c ****     }
 2407              		.loc 1 817 35 view .LVU788
 2408 01f8 2C43     		orrs	r4, r4, r5
 2409 01fa CCF81040 		str	r4, [ip, #16]
 2410 01fe 29E7     		b	.L158
 2411              	.LVL207:
 2412              	.L164:
 822:Drivers/STM32F4xx_HAL_Driver/Src/stm32f4xx_ll_usb.c ****       {
 2413              		.loc 1 822 7 is_stmt 1 view .LVU789
 822:Drivers/STM32F4xx_HAL_Driver/Src/stm32f4xx_ll_usb.c ****       {
 2414              		.loc 1 822 23 is_stmt 0 view .LVU790
 2415 0200 CA68     		ldr	r2, [r1, #12]
 2416              	.LVL208:
 822:Drivers/STM32F4xx_HAL_Driver/Src/stm32f4xx_ll_usb.c ****       {
 2417              		.loc 1 822 10 view .LVU791
 2418 0202 002A     		cmp	r2, #0
 2419 0204 3FF429AF 		beq	.L159
 824:Drivers/STM32F4xx_HAL_Driver/Src/stm32f4xx_ll_usb.c ****       }
 2420              		.loc 1 824 9 is_stmt 1 view .LVU792
 824:Drivers/STM32F4xx_HAL_Driver/Src/stm32f4xx_ll_usb.c ****       }
 2421              		.loc 1 824 36 is_stmt 0 view .LVU793
 2422 0208 CCF81420 		str	r2, [ip, #20]
ARM GAS  C:\Users\7636~1\AppData\Local\Temp\ccnv92VB.s 			page 80


 2423 020c 25E7     		b	.L159
 2424              	.L165:
 830:Drivers/STM32F4xx_HAL_Driver/Src/stm32f4xx_ll_usb.c ****       {
 2425              		.loc 1 830 7 is_stmt 1 view .LVU794
 830:Drivers/STM32F4xx_HAL_Driver/Src/stm32f4xx_ll_usb.c ****       {
 2426              		.loc 1 830 23 is_stmt 0 view .LVU795
 2427 020e D0F80828 		ldr	r2, [r0, #2056]
 830:Drivers/STM32F4xx_HAL_Driver/Src/stm32f4xx_ll_usb.c ****       {
 2428              		.loc 1 830 10 view .LVU796
 2429 0212 12F4807F 		tst	r2, #256
 2430 0216 06D1     		bne	.L161
 832:Drivers/STM32F4xx_HAL_Driver/Src/stm32f4xx_ll_usb.c ****       }
 2431              		.loc 1 832 9 is_stmt 1 view .LVU797
 832:Drivers/STM32F4xx_HAL_Driver/Src/stm32f4xx_ll_usb.c ****       }
 2432              		.loc 1 832 36 is_stmt 0 view .LVU798
 2433 0218 D3F8002B 		ldr	r2, [r3, #2816]
 2434 021c 42F00052 		orr	r2, r2, #536870912
 2435 0220 C3F8002B 		str	r2, [r3, #2816]
 2436 0224 1DE7     		b	.L160
 2437              	.L161:
 836:Drivers/STM32F4xx_HAL_Driver/Src/stm32f4xx_ll_usb.c ****       }
 2438              		.loc 1 836 9 is_stmt 1 view .LVU799
 836:Drivers/STM32F4xx_HAL_Driver/Src/stm32f4xx_ll_usb.c ****       }
 2439              		.loc 1 836 36 is_stmt 0 view .LVU800
 2440 0226 D3F8002B 		ldr	r2, [r3, #2816]
 2441 022a 42F08052 		orr	r2, r2, #268435456
 2442 022e C3F8002B 		str	r2, [r3, #2816]
 2443 0232 16E7     		b	.L160
 2444              	.L169:
 2445              		.align	2
 2446              	.L168:
 2447 0234 0000F81F 		.word	536346624
 2448              		.cfi_endproc
 2449              	.LFE230:
 2451              		.section	.text.USB_ReadPacket,"ax",%progbits
 2452              		.align	1
 2453              		.global	USB_ReadPacket
 2454              		.syntax unified
 2455              		.thumb
 2456              		.thumb_func
 2458              	USB_ReadPacket:
 2459              	.LVL209:
 2460              	.LFB233:
 984:Drivers/STM32F4xx_HAL_Driver/Src/stm32f4xx_ll_usb.c ****   uint32_t USBx_BASE = (uint32_t)USBx;
 2461              		.loc 1 984 1 is_stmt 1 view -0
 2462              		.cfi_startproc
 2463              		@ args = 0, pretend = 0, frame = 0
 2464              		@ frame_needed = 0, uses_anonymous_args = 0
 2465              		@ link register save eliminated.
 984:Drivers/STM32F4xx_HAL_Driver/Src/stm32f4xx_ll_usb.c ****   uint32_t USBx_BASE = (uint32_t)USBx;
 2466              		.loc 1 984 1 is_stmt 0 view .LVU802
 2467 0000 8446     		mov	ip, r0
 2468 0002 0846     		mov	r0, r1
 2469              	.LVL210:
 985:Drivers/STM32F4xx_HAL_Driver/Src/stm32f4xx_ll_usb.c ****   uint32_t *pDest = (uint32_t *)dest;
 2470              		.loc 1 985 3 is_stmt 1 view .LVU803
 986:Drivers/STM32F4xx_HAL_Driver/Src/stm32f4xx_ll_usb.c ****   uint32_t i;
ARM GAS  C:\Users\7636~1\AppData\Local\Temp\ccnv92VB.s 			page 81


 2471              		.loc 1 986 3 view .LVU804
 987:Drivers/STM32F4xx_HAL_Driver/Src/stm32f4xx_ll_usb.c ****   uint32_t count32b = ((uint32_t)len + 3U) / 4U;
 2472              		.loc 1 987 3 view .LVU805
 988:Drivers/STM32F4xx_HAL_Driver/Src/stm32f4xx_ll_usb.c **** 
 2473              		.loc 1 988 3 view .LVU806
 988:Drivers/STM32F4xx_HAL_Driver/Src/stm32f4xx_ll_usb.c **** 
 2474              		.loc 1 988 38 is_stmt 0 view .LVU807
 2475 0004 D11C     		adds	r1, r2, #3
 2476              	.LVL211:
 988:Drivers/STM32F4xx_HAL_Driver/Src/stm32f4xx_ll_usb.c **** 
 2477              		.loc 1 988 12 view .LVU808
 2478 0006 8908     		lsrs	r1, r1, #2
 2479              	.LVL212:
 990:Drivers/STM32F4xx_HAL_Driver/Src/stm32f4xx_ll_usb.c ****   {
 2480              		.loc 1 990 3 is_stmt 1 view .LVU809
 990:Drivers/STM32F4xx_HAL_Driver/Src/stm32f4xx_ll_usb.c ****   {
 2481              		.loc 1 990 10 is_stmt 0 view .LVU810
 2482 0008 0023     		movs	r3, #0
 990:Drivers/STM32F4xx_HAL_Driver/Src/stm32f4xx_ll_usb.c ****   {
 2483              		.loc 1 990 3 view .LVU811
 2484 000a 05E0     		b	.L171
 2485              	.LVL213:
 2486              	.L172:
 992:Drivers/STM32F4xx_HAL_Driver/Src/stm32f4xx_ll_usb.c ****     pDest++;
 2487              		.loc 1 992 5 is_stmt 1 discriminator 3 view .LVU812
 2488 000c 0CF58052 		add	r2, ip, #4096
 2489 0010 1268     		ldr	r2, [r2]
 2490 0012 40F8042B 		str	r2, [r0], #4	@ unaligned
 2491              	.LVL214:
 993:Drivers/STM32F4xx_HAL_Driver/Src/stm32f4xx_ll_usb.c ****   }
 2492              		.loc 1 993 5 discriminator 3 view .LVU813
 990:Drivers/STM32F4xx_HAL_Driver/Src/stm32f4xx_ll_usb.c ****   {
 2493              		.loc 1 990 30 discriminator 3 view .LVU814
 990:Drivers/STM32F4xx_HAL_Driver/Src/stm32f4xx_ll_usb.c ****   {
 2494              		.loc 1 990 31 is_stmt 0 discriminator 3 view .LVU815
 2495 0016 0133     		adds	r3, r3, #1
 2496              	.LVL215:
 2497              	.L171:
 990:Drivers/STM32F4xx_HAL_Driver/Src/stm32f4xx_ll_usb.c ****   {
 2498              		.loc 1 990 16 is_stmt 1 discriminator 1 view .LVU816
 990:Drivers/STM32F4xx_HAL_Driver/Src/stm32f4xx_ll_usb.c ****   {
 2499              		.loc 1 990 3 is_stmt 0 discriminator 1 view .LVU817
 2500 0018 8B42     		cmp	r3, r1
 2501 001a F7D3     		bcc	.L172
 996:Drivers/STM32F4xx_HAL_Driver/Src/stm32f4xx_ll_usb.c **** }
 2502              		.loc 1 996 3 is_stmt 1 view .LVU818
 997:Drivers/STM32F4xx_HAL_Driver/Src/stm32f4xx_ll_usb.c **** 
 2503              		.loc 1 997 1 is_stmt 0 view .LVU819
 2504 001c 7047     		bx	lr
 2505              		.cfi_endproc
 2506              	.LFE233:
 2508              		.section	.text.USB_EPSetStall,"ax",%progbits
 2509              		.align	1
 2510              		.global	USB_EPSetStall
 2511              		.syntax unified
 2512              		.thumb
 2513              		.thumb_func
ARM GAS  C:\Users\7636~1\AppData\Local\Temp\ccnv92VB.s 			page 82


 2515              	USB_EPSetStall:
 2516              	.LVL216:
 2517              	.LFB234:
1006:Drivers/STM32F4xx_HAL_Driver/Src/stm32f4xx_ll_usb.c ****   uint32_t USBx_BASE = (uint32_t)USBx;
 2518              		.loc 1 1006 1 is_stmt 1 view -0
 2519              		.cfi_startproc
 2520              		@ args = 0, pretend = 0, frame = 0
 2521              		@ frame_needed = 0, uses_anonymous_args = 0
 2522              		@ link register save eliminated.
1007:Drivers/STM32F4xx_HAL_Driver/Src/stm32f4xx_ll_usb.c ****   uint32_t epnum = (uint32_t)ep->num;
 2523              		.loc 1 1007 3 view .LVU821
1008:Drivers/STM32F4xx_HAL_Driver/Src/stm32f4xx_ll_usb.c **** 
 2524              		.loc 1 1008 3 view .LVU822
1008:Drivers/STM32F4xx_HAL_Driver/Src/stm32f4xx_ll_usb.c **** 
 2525              		.loc 1 1008 32 is_stmt 0 view .LVU823
 2526 0000 0B78     		ldrb	r3, [r1]	@ zero_extendqisi2
 2527              	.LVL217:
1010:Drivers/STM32F4xx_HAL_Driver/Src/stm32f4xx_ll_usb.c ****   {
 2528              		.loc 1 1010 3 is_stmt 1 view .LVU824
1010:Drivers/STM32F4xx_HAL_Driver/Src/stm32f4xx_ll_usb.c ****   {
 2529              		.loc 1 1010 9 is_stmt 0 view .LVU825
 2530 0002 4A78     		ldrb	r2, [r1, #1]	@ zero_extendqisi2
1010:Drivers/STM32F4xx_HAL_Driver/Src/stm32f4xx_ll_usb.c ****   {
 2531              		.loc 1 1010 6 view .LVU826
 2532 0004 012A     		cmp	r2, #1
 2533 0006 14D0     		beq	.L178
1020:Drivers/STM32F4xx_HAL_Driver/Src/stm32f4xx_ll_usb.c ****     {
 2534              		.loc 1 1020 5 is_stmt 1 view .LVU827
1020:Drivers/STM32F4xx_HAL_Driver/Src/stm32f4xx_ll_usb.c ****     {
 2535              		.loc 1 1020 11 is_stmt 0 view .LVU828
 2536 0008 00EB4310 		add	r0, r0, r3, lsl #5
 2537              	.LVL218:
1020:Drivers/STM32F4xx_HAL_Driver/Src/stm32f4xx_ll_usb.c ****     {
 2538              		.loc 1 1020 28 view .LVU829
 2539 000c D0F8002B 		ldr	r2, [r0, #2816]
1020:Drivers/STM32F4xx_HAL_Driver/Src/stm32f4xx_ll_usb.c ****     {
 2540              		.loc 1 1020 8 view .LVU830
 2541 0010 002A     		cmp	r2, #0
 2542 0012 06DB     		blt	.L177
1020:Drivers/STM32F4xx_HAL_Driver/Src/stm32f4xx_ll_usb.c ****     {
 2543              		.loc 1 1020 70 discriminator 1 view .LVU831
 2544 0014 2BB1     		cbz	r3, .L177
1022:Drivers/STM32F4xx_HAL_Driver/Src/stm32f4xx_ll_usb.c ****     }
 2545              		.loc 1 1022 7 is_stmt 1 view .LVU832
1022:Drivers/STM32F4xx_HAL_Driver/Src/stm32f4xx_ll_usb.c ****     }
 2546              		.loc 1 1022 34 is_stmt 0 view .LVU833
 2547 0016 D0F8003B 		ldr	r3, [r0, #2816]
 2548              	.LVL219:
1022:Drivers/STM32F4xx_HAL_Driver/Src/stm32f4xx_ll_usb.c ****     }
 2549              		.loc 1 1022 34 view .LVU834
 2550 001a 23F08043 		bic	r3, r3, #1073741824
 2551 001e C0F8003B 		str	r3, [r0, #2816]
 2552              	.LVL220:
 2553              	.L177:
1024:Drivers/STM32F4xx_HAL_Driver/Src/stm32f4xx_ll_usb.c ****   }
 2554              		.loc 1 1024 5 is_stmt 1 view .LVU835
1024:Drivers/STM32F4xx_HAL_Driver/Src/stm32f4xx_ll_usb.c ****   }
ARM GAS  C:\Users\7636~1\AppData\Local\Temp\ccnv92VB.s 			page 83


 2555              		.loc 1 1024 32 is_stmt 0 view .LVU836
 2556 0022 D0F8003B 		ldr	r3, [r0, #2816]
 2557 0026 43F40013 		orr	r3, r3, #2097152
 2558 002a C0F8003B 		str	r3, [r0, #2816]
 2559              	.L176:
1027:Drivers/STM32F4xx_HAL_Driver/Src/stm32f4xx_ll_usb.c **** }
 2560              		.loc 1 1027 3 is_stmt 1 view .LVU837
1028:Drivers/STM32F4xx_HAL_Driver/Src/stm32f4xx_ll_usb.c **** 
 2561              		.loc 1 1028 1 is_stmt 0 view .LVU838
 2562 002e 0020     		movs	r0, #0
 2563 0030 7047     		bx	lr
 2564              	.LVL221:
 2565              	.L178:
1012:Drivers/STM32F4xx_HAL_Driver/Src/stm32f4xx_ll_usb.c ****     {
 2566              		.loc 1 1012 5 is_stmt 1 view .LVU839
1012:Drivers/STM32F4xx_HAL_Driver/Src/stm32f4xx_ll_usb.c ****     {
 2567              		.loc 1 1012 11 is_stmt 0 view .LVU840
 2568 0032 00EB4310 		add	r0, r0, r3, lsl #5
 2569              	.LVL222:
1012:Drivers/STM32F4xx_HAL_Driver/Src/stm32f4xx_ll_usb.c ****     {
 2570              		.loc 1 1012 27 view .LVU841
 2571 0036 D0F80029 		ldr	r2, [r0, #2304]
1012:Drivers/STM32F4xx_HAL_Driver/Src/stm32f4xx_ll_usb.c ****     {
 2572              		.loc 1 1012 8 view .LVU842
 2573 003a 002A     		cmp	r2, #0
 2574 003c 06DB     		blt	.L175
1012:Drivers/STM32F4xx_HAL_Driver/Src/stm32f4xx_ll_usb.c ****     {
 2575              		.loc 1 1012 69 discriminator 1 view .LVU843
 2576 003e 2BB1     		cbz	r3, .L175
1014:Drivers/STM32F4xx_HAL_Driver/Src/stm32f4xx_ll_usb.c ****     }
 2577              		.loc 1 1014 7 is_stmt 1 view .LVU844
1014:Drivers/STM32F4xx_HAL_Driver/Src/stm32f4xx_ll_usb.c ****     }
 2578              		.loc 1 1014 33 is_stmt 0 view .LVU845
 2579 0040 D0F80039 		ldr	r3, [r0, #2304]
 2580              	.LVL223:
1014:Drivers/STM32F4xx_HAL_Driver/Src/stm32f4xx_ll_usb.c ****     }
 2581              		.loc 1 1014 33 view .LVU846
 2582 0044 23F08043 		bic	r3, r3, #1073741824
 2583 0048 C0F80039 		str	r3, [r0, #2304]
 2584              	.LVL224:
 2585              	.L175:
1016:Drivers/STM32F4xx_HAL_Driver/Src/stm32f4xx_ll_usb.c ****   }
 2586              		.loc 1 1016 5 is_stmt 1 view .LVU847
1016:Drivers/STM32F4xx_HAL_Driver/Src/stm32f4xx_ll_usb.c ****   }
 2587              		.loc 1 1016 31 is_stmt 0 view .LVU848
 2588 004c D0F80039 		ldr	r3, [r0, #2304]
 2589 0050 43F40013 		orr	r3, r3, #2097152
 2590 0054 C0F80039 		str	r3, [r0, #2304]
 2591 0058 E9E7     		b	.L176
 2592              		.cfi_endproc
 2593              	.LFE234:
 2595              		.section	.text.USB_EPClearStall,"ax",%progbits
 2596              		.align	1
 2597              		.global	USB_EPClearStall
 2598              		.syntax unified
 2599              		.thumb
 2600              		.thumb_func
ARM GAS  C:\Users\7636~1\AppData\Local\Temp\ccnv92VB.s 			page 84


 2602              	USB_EPClearStall:
 2603              	.LVL225:
 2604              	.LFB235:
1037:Drivers/STM32F4xx_HAL_Driver/Src/stm32f4xx_ll_usb.c ****   uint32_t USBx_BASE = (uint32_t)USBx;
 2605              		.loc 1 1037 1 is_stmt 1 view -0
 2606              		.cfi_startproc
 2607              		@ args = 0, pretend = 0, frame = 0
 2608              		@ frame_needed = 0, uses_anonymous_args = 0
 2609              		@ link register save eliminated.
1038:Drivers/STM32F4xx_HAL_Driver/Src/stm32f4xx_ll_usb.c ****   uint32_t epnum = (uint32_t)ep->num;
 2610              		.loc 1 1038 3 view .LVU850
1039:Drivers/STM32F4xx_HAL_Driver/Src/stm32f4xx_ll_usb.c **** 
 2611              		.loc 1 1039 3 view .LVU851
1039:Drivers/STM32F4xx_HAL_Driver/Src/stm32f4xx_ll_usb.c **** 
 2612              		.loc 1 1039 32 is_stmt 0 view .LVU852
 2613 0000 0B78     		ldrb	r3, [r1]	@ zero_extendqisi2
 2614              	.LVL226:
1041:Drivers/STM32F4xx_HAL_Driver/Src/stm32f4xx_ll_usb.c ****   {
 2615              		.loc 1 1041 3 is_stmt 1 view .LVU853
1041:Drivers/STM32F4xx_HAL_Driver/Src/stm32f4xx_ll_usb.c ****   {
 2616              		.loc 1 1041 9 is_stmt 0 view .LVU854
 2617 0002 4A78     		ldrb	r2, [r1, #1]	@ zero_extendqisi2
1041:Drivers/STM32F4xx_HAL_Driver/Src/stm32f4xx_ll_usb.c ****   {
 2618              		.loc 1 1041 6 view .LVU855
 2619 0004 012A     		cmp	r2, #1
 2620 0006 0ED0     		beq	.L182
1051:Drivers/STM32F4xx_HAL_Driver/Src/stm32f4xx_ll_usb.c ****     if ((ep->type == EP_TYPE_INTR) || (ep->type == EP_TYPE_BULK))
 2621              		.loc 1 1051 5 is_stmt 1 view .LVU856
1051:Drivers/STM32F4xx_HAL_Driver/Src/stm32f4xx_ll_usb.c ****     if ((ep->type == EP_TYPE_INTR) || (ep->type == EP_TYPE_BULK))
 2622              		.loc 1 1051 32 is_stmt 0 view .LVU857
 2623 0008 00EB4310 		add	r0, r0, r3, lsl #5
 2624              	.LVL227:
1051:Drivers/STM32F4xx_HAL_Driver/Src/stm32f4xx_ll_usb.c ****     if ((ep->type == EP_TYPE_INTR) || (ep->type == EP_TYPE_BULK))
 2625              		.loc 1 1051 32 view .LVU858
 2626 000c D0F8003B 		ldr	r3, [r0, #2816]
 2627              	.LVL228:
1051:Drivers/STM32F4xx_HAL_Driver/Src/stm32f4xx_ll_usb.c ****     if ((ep->type == EP_TYPE_INTR) || (ep->type == EP_TYPE_BULK))
 2628              		.loc 1 1051 32 view .LVU859
 2629 0010 23F40013 		bic	r3, r3, #2097152
 2630 0014 C0F8003B 		str	r3, [r0, #2816]
 2631              	.LVL229:
1052:Drivers/STM32F4xx_HAL_Driver/Src/stm32f4xx_ll_usb.c ****     {
 2632              		.loc 1 1052 5 is_stmt 1 view .LVU860
1052:Drivers/STM32F4xx_HAL_Driver/Src/stm32f4xx_ll_usb.c ****     {
 2633              		.loc 1 1052 12 is_stmt 0 view .LVU861
 2634 0018 CB78     		ldrb	r3, [r1, #3]	@ zero_extendqisi2
1052:Drivers/STM32F4xx_HAL_Driver/Src/stm32f4xx_ll_usb.c ****     {
 2635              		.loc 1 1052 36 view .LVU862
 2636 001a 023B     		subs	r3, r3, #2
 2637 001c DBB2     		uxtb	r3, r3
1052:Drivers/STM32F4xx_HAL_Driver/Src/stm32f4xx_ll_usb.c ****     {
 2638              		.loc 1 1052 8 view .LVU863
 2639 001e 012B     		cmp	r3, #1
 2640 0020 15D9     		bls	.L183
 2641              	.L181:
1057:Drivers/STM32F4xx_HAL_Driver/Src/stm32f4xx_ll_usb.c **** }
 2642              		.loc 1 1057 3 is_stmt 1 view .LVU864
ARM GAS  C:\Users\7636~1\AppData\Local\Temp\ccnv92VB.s 			page 85


1058:Drivers/STM32F4xx_HAL_Driver/Src/stm32f4xx_ll_usb.c **** 
 2643              		.loc 1 1058 1 is_stmt 0 view .LVU865
 2644 0022 0020     		movs	r0, #0
 2645 0024 7047     		bx	lr
 2646              	.LVL230:
 2647              	.L182:
1043:Drivers/STM32F4xx_HAL_Driver/Src/stm32f4xx_ll_usb.c ****     if ((ep->type == EP_TYPE_INTR) || (ep->type == EP_TYPE_BULK))
 2648              		.loc 1 1043 5 is_stmt 1 view .LVU866
1043:Drivers/STM32F4xx_HAL_Driver/Src/stm32f4xx_ll_usb.c ****     if ((ep->type == EP_TYPE_INTR) || (ep->type == EP_TYPE_BULK))
 2649              		.loc 1 1043 31 is_stmt 0 view .LVU867
 2650 0026 00EB4310 		add	r0, r0, r3, lsl #5
 2651              	.LVL231:
1043:Drivers/STM32F4xx_HAL_Driver/Src/stm32f4xx_ll_usb.c ****     if ((ep->type == EP_TYPE_INTR) || (ep->type == EP_TYPE_BULK))
 2652              		.loc 1 1043 31 view .LVU868
 2653 002a D0F80039 		ldr	r3, [r0, #2304]
 2654              	.LVL232:
1043:Drivers/STM32F4xx_HAL_Driver/Src/stm32f4xx_ll_usb.c ****     if ((ep->type == EP_TYPE_INTR) || (ep->type == EP_TYPE_BULK))
 2655              		.loc 1 1043 31 view .LVU869
 2656 002e 23F40013 		bic	r3, r3, #2097152
 2657 0032 C0F80039 		str	r3, [r0, #2304]
 2658              	.LVL233:
1044:Drivers/STM32F4xx_HAL_Driver/Src/stm32f4xx_ll_usb.c ****     {
 2659              		.loc 1 1044 5 is_stmt 1 view .LVU870
1044:Drivers/STM32F4xx_HAL_Driver/Src/stm32f4xx_ll_usb.c ****     {
 2660              		.loc 1 1044 12 is_stmt 0 view .LVU871
 2661 0036 CB78     		ldrb	r3, [r1, #3]	@ zero_extendqisi2
1044:Drivers/STM32F4xx_HAL_Driver/Src/stm32f4xx_ll_usb.c ****     {
 2662              		.loc 1 1044 36 view .LVU872
 2663 0038 023B     		subs	r3, r3, #2
 2664 003a DBB2     		uxtb	r3, r3
1044:Drivers/STM32F4xx_HAL_Driver/Src/stm32f4xx_ll_usb.c ****     {
 2665              		.loc 1 1044 8 view .LVU873
 2666 003c 012B     		cmp	r3, #1
 2667 003e F0D8     		bhi	.L181
1046:Drivers/STM32F4xx_HAL_Driver/Src/stm32f4xx_ll_usb.c ****     }
 2668              		.loc 1 1046 7 is_stmt 1 view .LVU874
1046:Drivers/STM32F4xx_HAL_Driver/Src/stm32f4xx_ll_usb.c ****     }
 2669              		.loc 1 1046 33 is_stmt 0 view .LVU875
 2670 0040 D0F80039 		ldr	r3, [r0, #2304]
 2671 0044 43F08053 		orr	r3, r3, #268435456
 2672 0048 C0F80039 		str	r3, [r0, #2304]
 2673 004c E9E7     		b	.L181
 2674              	.L183:
1054:Drivers/STM32F4xx_HAL_Driver/Src/stm32f4xx_ll_usb.c ****     }
 2675              		.loc 1 1054 7 is_stmt 1 view .LVU876
1054:Drivers/STM32F4xx_HAL_Driver/Src/stm32f4xx_ll_usb.c ****     }
 2676              		.loc 1 1054 34 is_stmt 0 view .LVU877
 2677 004e D0F8003B 		ldr	r3, [r0, #2816]
 2678 0052 43F08053 		orr	r3, r3, #268435456
 2679 0056 C0F8003B 		str	r3, [r0, #2816]
 2680 005a E2E7     		b	.L181
 2681              		.cfi_endproc
 2682              	.LFE235:
 2684              		.section	.text.USB_StopDevice,"ax",%progbits
 2685              		.align	1
 2686              		.global	USB_StopDevice
 2687              		.syntax unified
ARM GAS  C:\Users\7636~1\AppData\Local\Temp\ccnv92VB.s 			page 86


 2688              		.thumb
 2689              		.thumb_func
 2691              	USB_StopDevice:
 2692              	.LVL234:
 2693              	.LFB236:
1066:Drivers/STM32F4xx_HAL_Driver/Src/stm32f4xx_ll_usb.c ****   HAL_StatusTypeDef ret;
 2694              		.loc 1 1066 1 is_stmt 1 view -0
 2695              		.cfi_startproc
 2696              		@ args = 0, pretend = 0, frame = 0
 2697              		@ frame_needed = 0, uses_anonymous_args = 0
1066:Drivers/STM32F4xx_HAL_Driver/Src/stm32f4xx_ll_usb.c ****   HAL_StatusTypeDef ret;
 2698              		.loc 1 1066 1 is_stmt 0 view .LVU879
 2699 0000 10B5     		push	{r4, lr}
 2700              	.LCFI24:
 2701              		.cfi_def_cfa_offset 8
 2702              		.cfi_offset 4, -8
 2703              		.cfi_offset 14, -4
 2704 0002 0446     		mov	r4, r0
1067:Drivers/STM32F4xx_HAL_Driver/Src/stm32f4xx_ll_usb.c ****   uint32_t USBx_BASE = (uint32_t)USBx;
 2705              		.loc 1 1067 3 is_stmt 1 view .LVU880
1068:Drivers/STM32F4xx_HAL_Driver/Src/stm32f4xx_ll_usb.c ****   uint32_t i;
 2706              		.loc 1 1068 3 view .LVU881
 2707              	.LVL235:
1069:Drivers/STM32F4xx_HAL_Driver/Src/stm32f4xx_ll_usb.c **** 
 2708              		.loc 1 1069 3 view .LVU882
1072:Drivers/STM32F4xx_HAL_Driver/Src/stm32f4xx_ll_usb.c ****   {
 2709              		.loc 1 1072 3 view .LVU883
1072:Drivers/STM32F4xx_HAL_Driver/Src/stm32f4xx_ll_usb.c ****   {
 2710              		.loc 1 1072 10 is_stmt 0 view .LVU884
 2711 0004 0022     		movs	r2, #0
1072:Drivers/STM32F4xx_HAL_Driver/Src/stm32f4xx_ll_usb.c ****   {
 2712              		.loc 1 1072 3 view .LVU885
 2713 0006 08E0     		b	.L185
 2714              	.LVL236:
 2715              	.L186:
1074:Drivers/STM32F4xx_HAL_Driver/Src/stm32f4xx_ll_usb.c ****     USBx_OUTEP(i)->DOEPINT = 0xFB7FU;
 2716              		.loc 1 1074 5 is_stmt 1 discriminator 3 view .LVU886
 2717 0008 04EB4213 		add	r3, r4, r2, lsl #5
1074:Drivers/STM32F4xx_HAL_Driver/Src/stm32f4xx_ll_usb.c ****     USBx_OUTEP(i)->DOEPINT = 0xFB7FU;
 2718              		.loc 1 1074 27 is_stmt 0 discriminator 3 view .LVU887
 2719 000c 4FF67F31 		movw	r1, #64383
 2720 0010 C3F80819 		str	r1, [r3, #2312]
1075:Drivers/STM32F4xx_HAL_Driver/Src/stm32f4xx_ll_usb.c ****   }
 2721              		.loc 1 1075 5 is_stmt 1 discriminator 3 view .LVU888
1075:Drivers/STM32F4xx_HAL_Driver/Src/stm32f4xx_ll_usb.c ****   }
 2722              		.loc 1 1075 28 is_stmt 0 discriminator 3 view .LVU889
 2723 0014 C3F8081B 		str	r1, [r3, #2824]
1072:Drivers/STM32F4xx_HAL_Driver/Src/stm32f4xx_ll_usb.c ****   {
 2724              		.loc 1 1072 25 is_stmt 1 discriminator 3 view .LVU890
1072:Drivers/STM32F4xx_HAL_Driver/Src/stm32f4xx_ll_usb.c ****   {
 2725              		.loc 1 1072 26 is_stmt 0 discriminator 3 view .LVU891
 2726 0018 0132     		adds	r2, r2, #1
 2727              	.LVL237:
 2728              	.L185:
1072:Drivers/STM32F4xx_HAL_Driver/Src/stm32f4xx_ll_usb.c ****   {
 2729              		.loc 1 1072 16 is_stmt 1 discriminator 1 view .LVU892
1072:Drivers/STM32F4xx_HAL_Driver/Src/stm32f4xx_ll_usb.c ****   {
ARM GAS  C:\Users\7636~1\AppData\Local\Temp\ccnv92VB.s 			page 87


 2730              		.loc 1 1072 3 is_stmt 0 discriminator 1 view .LVU893
 2731 001a 0E2A     		cmp	r2, #14
 2732 001c F4D9     		bls	.L186
1079:Drivers/STM32F4xx_HAL_Driver/Src/stm32f4xx_ll_usb.c ****   USBx_DEVICE->DOEPMSK  = 0U;
 2733              		.loc 1 1079 3 is_stmt 1 view .LVU894
1079:Drivers/STM32F4xx_HAL_Driver/Src/stm32f4xx_ll_usb.c ****   USBx_DEVICE->DOEPMSK  = 0U;
 2734              		.loc 1 1079 25 is_stmt 0 view .LVU895
 2735 001e 0022     		movs	r2, #0
 2736              	.LVL238:
1079:Drivers/STM32F4xx_HAL_Driver/Src/stm32f4xx_ll_usb.c ****   USBx_DEVICE->DOEPMSK  = 0U;
 2737              		.loc 1 1079 25 view .LVU896
 2738 0020 C4F81028 		str	r2, [r4, #2064]
1080:Drivers/STM32F4xx_HAL_Driver/Src/stm32f4xx_ll_usb.c ****   USBx_DEVICE->DAINTMSK = 0U;
 2739              		.loc 1 1080 3 is_stmt 1 view .LVU897
1080:Drivers/STM32F4xx_HAL_Driver/Src/stm32f4xx_ll_usb.c ****   USBx_DEVICE->DAINTMSK = 0U;
 2740              		.loc 1 1080 25 is_stmt 0 view .LVU898
 2741 0024 C4F81428 		str	r2, [r4, #2068]
1081:Drivers/STM32F4xx_HAL_Driver/Src/stm32f4xx_ll_usb.c **** 
 2742              		.loc 1 1081 3 is_stmt 1 view .LVU899
1081:Drivers/STM32F4xx_HAL_Driver/Src/stm32f4xx_ll_usb.c **** 
 2743              		.loc 1 1081 25 is_stmt 0 view .LVU900
 2744 0028 C4F81C28 		str	r2, [r4, #2076]
1084:Drivers/STM32F4xx_HAL_Driver/Src/stm32f4xx_ll_usb.c ****   if (ret != HAL_OK)
 2745              		.loc 1 1084 3 is_stmt 1 view .LVU901
1084:Drivers/STM32F4xx_HAL_Driver/Src/stm32f4xx_ll_usb.c ****   if (ret != HAL_OK)
 2746              		.loc 1 1084 9 is_stmt 0 view .LVU902
 2747 002c 2046     		mov	r0, r4
 2748              	.LVL239:
1084:Drivers/STM32F4xx_HAL_Driver/Src/stm32f4xx_ll_usb.c ****   if (ret != HAL_OK)
 2749              		.loc 1 1084 9 view .LVU903
 2750 002e FFF7FEFF 		bl	USB_FlushRxFifo
 2751              	.LVL240:
1085:Drivers/STM32F4xx_HAL_Driver/Src/stm32f4xx_ll_usb.c ****   {
 2752              		.loc 1 1085 3 is_stmt 1 view .LVU904
1085:Drivers/STM32F4xx_HAL_Driver/Src/stm32f4xx_ll_usb.c ****   {
 2753              		.loc 1 1085 6 is_stmt 0 view .LVU905
 2754 0032 00B1     		cbz	r0, .L189
 2755              	.L187:
1097:Drivers/STM32F4xx_HAL_Driver/Src/stm32f4xx_ll_usb.c **** 
 2756              		.loc 1 1097 1 view .LVU906
 2757 0034 10BD     		pop	{r4, pc}
 2758              	.LVL241:
 2759              	.L189:
1090:Drivers/STM32F4xx_HAL_Driver/Src/stm32f4xx_ll_usb.c ****   if (ret != HAL_OK)
 2760              		.loc 1 1090 3 is_stmt 1 view .LVU907
1090:Drivers/STM32F4xx_HAL_Driver/Src/stm32f4xx_ll_usb.c ****   if (ret != HAL_OK)
 2761              		.loc 1 1090 9 is_stmt 0 view .LVU908
 2762 0036 1021     		movs	r1, #16
 2763 0038 2046     		mov	r0, r4
 2764              	.LVL242:
1090:Drivers/STM32F4xx_HAL_Driver/Src/stm32f4xx_ll_usb.c ****   if (ret != HAL_OK)
 2765              		.loc 1 1090 9 view .LVU909
 2766 003a FFF7FEFF 		bl	USB_FlushTxFifo
 2767              	.LVL243:
1091:Drivers/STM32F4xx_HAL_Driver/Src/stm32f4xx_ll_usb.c ****   {
 2768              		.loc 1 1091 3 is_stmt 1 view .LVU910
 2769 003e F9E7     		b	.L187
ARM GAS  C:\Users\7636~1\AppData\Local\Temp\ccnv92VB.s 			page 88


 2770              		.cfi_endproc
 2771              	.LFE236:
 2773              		.section	.text.USB_SetDevAddress,"ax",%progbits
 2774              		.align	1
 2775              		.global	USB_SetDevAddress
 2776              		.syntax unified
 2777              		.thumb
 2778              		.thumb_func
 2780              	USB_SetDevAddress:
 2781              	.LVL244:
 2782              	.LFB237:
1107:Drivers/STM32F4xx_HAL_Driver/Src/stm32f4xx_ll_usb.c ****   uint32_t USBx_BASE = (uint32_t)USBx;
 2783              		.loc 1 1107 1 view -0
 2784              		.cfi_startproc
 2785              		@ args = 0, pretend = 0, frame = 0
 2786              		@ frame_needed = 0, uses_anonymous_args = 0
 2787              		@ link register save eliminated.
1108:Drivers/STM32F4xx_HAL_Driver/Src/stm32f4xx_ll_usb.c **** 
 2788              		.loc 1 1108 3 view .LVU912
1110:Drivers/STM32F4xx_HAL_Driver/Src/stm32f4xx_ll_usb.c ****   USBx_DEVICE->DCFG |= ((uint32_t)address << 4) & USB_OTG_DCFG_DAD;
 2789              		.loc 1 1110 3 view .LVU913
1110:Drivers/STM32F4xx_HAL_Driver/Src/stm32f4xx_ll_usb.c ****   USBx_DEVICE->DCFG |= ((uint32_t)address << 4) & USB_OTG_DCFG_DAD;
 2790              		.loc 1 1110 21 is_stmt 0 view .LVU914
 2791 0000 D0F80038 		ldr	r3, [r0, #2048]
 2792 0004 23F4FE63 		bic	r3, r3, #2032
 2793 0008 C0F80038 		str	r3, [r0, #2048]
1111:Drivers/STM32F4xx_HAL_Driver/Src/stm32f4xx_ll_usb.c **** 
 2794              		.loc 1 1111 3 is_stmt 1 view .LVU915
1111:Drivers/STM32F4xx_HAL_Driver/Src/stm32f4xx_ll_usb.c **** 
 2795              		.loc 1 1111 21 is_stmt 0 view .LVU916
 2796 000c D0F80038 		ldr	r3, [r0, #2048]
1111:Drivers/STM32F4xx_HAL_Driver/Src/stm32f4xx_ll_usb.c **** 
 2797              		.loc 1 1111 43 view .LVU917
 2798 0010 0901     		lsls	r1, r1, #4
 2799              	.LVL245:
1111:Drivers/STM32F4xx_HAL_Driver/Src/stm32f4xx_ll_usb.c **** 
 2800              		.loc 1 1111 49 view .LVU918
 2801 0012 01F4FE61 		and	r1, r1, #2032
1111:Drivers/STM32F4xx_HAL_Driver/Src/stm32f4xx_ll_usb.c **** 
 2802              		.loc 1 1111 21 view .LVU919
 2803 0016 1943     		orrs	r1, r1, r3
 2804 0018 C0F80018 		str	r1, [r0, #2048]
1113:Drivers/STM32F4xx_HAL_Driver/Src/stm32f4xx_ll_usb.c **** }
 2805              		.loc 1 1113 3 is_stmt 1 view .LVU920
1114:Drivers/STM32F4xx_HAL_Driver/Src/stm32f4xx_ll_usb.c **** 
 2806              		.loc 1 1114 1 is_stmt 0 view .LVU921
 2807 001c 0020     		movs	r0, #0
 2808              	.LVL246:
1114:Drivers/STM32F4xx_HAL_Driver/Src/stm32f4xx_ll_usb.c **** 
 2809              		.loc 1 1114 1 view .LVU922
 2810 001e 7047     		bx	lr
 2811              		.cfi_endproc
 2812              	.LFE237:
 2814              		.section	.text.USB_DevConnect,"ax",%progbits
 2815              		.align	1
 2816              		.global	USB_DevConnect
 2817              		.syntax unified
ARM GAS  C:\Users\7636~1\AppData\Local\Temp\ccnv92VB.s 			page 89


 2818              		.thumb
 2819              		.thumb_func
 2821              	USB_DevConnect:
 2822              	.LVL247:
 2823              	.LFB238:
1122:Drivers/STM32F4xx_HAL_Driver/Src/stm32f4xx_ll_usb.c ****   uint32_t USBx_BASE = (uint32_t)USBx;
 2824              		.loc 1 1122 1 is_stmt 1 view -0
 2825              		.cfi_startproc
 2826              		@ args = 0, pretend = 0, frame = 0
 2827              		@ frame_needed = 0, uses_anonymous_args = 0
 2828              		@ link register save eliminated.
1123:Drivers/STM32F4xx_HAL_Driver/Src/stm32f4xx_ll_usb.c **** 
 2829              		.loc 1 1123 3 view .LVU924
1126:Drivers/STM32F4xx_HAL_Driver/Src/stm32f4xx_ll_usb.c **** 
 2830              		.loc 1 1126 3 view .LVU925
1126:Drivers/STM32F4xx_HAL_Driver/Src/stm32f4xx_ll_usb.c **** 
 2831              		.loc 1 1126 16 is_stmt 0 view .LVU926
 2832 0000 D0F8003E 		ldr	r3, [r0, #3584]
 2833 0004 23F00303 		bic	r3, r3, #3
 2834 0008 C0F8003E 		str	r3, [r0, #3584]
1128:Drivers/STM32F4xx_HAL_Driver/Src/stm32f4xx_ll_usb.c **** 
 2835              		.loc 1 1128 3 is_stmt 1 view .LVU927
1128:Drivers/STM32F4xx_HAL_Driver/Src/stm32f4xx_ll_usb.c **** 
 2836              		.loc 1 1128 21 is_stmt 0 view .LVU928
 2837 000c D0F80438 		ldr	r3, [r0, #2052]
 2838 0010 23F00203 		bic	r3, r3, #2
 2839 0014 C0F80438 		str	r3, [r0, #2052]
1130:Drivers/STM32F4xx_HAL_Driver/Src/stm32f4xx_ll_usb.c **** }
 2840              		.loc 1 1130 3 is_stmt 1 view .LVU929
1131:Drivers/STM32F4xx_HAL_Driver/Src/stm32f4xx_ll_usb.c **** 
 2841              		.loc 1 1131 1 is_stmt 0 view .LVU930
 2842 0018 0020     		movs	r0, #0
 2843              	.LVL248:
1131:Drivers/STM32F4xx_HAL_Driver/Src/stm32f4xx_ll_usb.c **** 
 2844              		.loc 1 1131 1 view .LVU931
 2845 001a 7047     		bx	lr
 2846              		.cfi_endproc
 2847              	.LFE238:
 2849              		.section	.text.USB_DevDisconnect,"ax",%progbits
 2850              		.align	1
 2851              		.global	USB_DevDisconnect
 2852              		.syntax unified
 2853              		.thumb
 2854              		.thumb_func
 2856              	USB_DevDisconnect:
 2857              	.LVL249:
 2858              	.LFB239:
1139:Drivers/STM32F4xx_HAL_Driver/Src/stm32f4xx_ll_usb.c ****   uint32_t USBx_BASE = (uint32_t)USBx;
 2859              		.loc 1 1139 1 is_stmt 1 view -0
 2860              		.cfi_startproc
 2861              		@ args = 0, pretend = 0, frame = 0
 2862              		@ frame_needed = 0, uses_anonymous_args = 0
 2863              		@ link register save eliminated.
1140:Drivers/STM32F4xx_HAL_Driver/Src/stm32f4xx_ll_usb.c **** 
 2864              		.loc 1 1140 3 view .LVU933
1143:Drivers/STM32F4xx_HAL_Driver/Src/stm32f4xx_ll_usb.c **** 
 2865              		.loc 1 1143 3 view .LVU934
ARM GAS  C:\Users\7636~1\AppData\Local\Temp\ccnv92VB.s 			page 90


1143:Drivers/STM32F4xx_HAL_Driver/Src/stm32f4xx_ll_usb.c **** 
 2866              		.loc 1 1143 16 is_stmt 0 view .LVU935
 2867 0000 D0F8003E 		ldr	r3, [r0, #3584]
 2868 0004 23F00303 		bic	r3, r3, #3
 2869 0008 C0F8003E 		str	r3, [r0, #3584]
1145:Drivers/STM32F4xx_HAL_Driver/Src/stm32f4xx_ll_usb.c **** 
 2870              		.loc 1 1145 3 is_stmt 1 view .LVU936
1145:Drivers/STM32F4xx_HAL_Driver/Src/stm32f4xx_ll_usb.c **** 
 2871              		.loc 1 1145 21 is_stmt 0 view .LVU937
 2872 000c D0F80438 		ldr	r3, [r0, #2052]
 2873 0010 43F00203 		orr	r3, r3, #2
 2874 0014 C0F80438 		str	r3, [r0, #2052]
1147:Drivers/STM32F4xx_HAL_Driver/Src/stm32f4xx_ll_usb.c **** }
 2875              		.loc 1 1147 3 is_stmt 1 view .LVU938
1148:Drivers/STM32F4xx_HAL_Driver/Src/stm32f4xx_ll_usb.c **** 
 2876              		.loc 1 1148 1 is_stmt 0 view .LVU939
 2877 0018 0020     		movs	r0, #0
 2878              	.LVL250:
1148:Drivers/STM32F4xx_HAL_Driver/Src/stm32f4xx_ll_usb.c **** 
 2879              		.loc 1 1148 1 view .LVU940
 2880 001a 7047     		bx	lr
 2881              		.cfi_endproc
 2882              	.LFE239:
 2884              		.section	.text.USB_ReadInterrupts,"ax",%progbits
 2885              		.align	1
 2886              		.global	USB_ReadInterrupts
 2887              		.syntax unified
 2888              		.thumb
 2889              		.thumb_func
 2891              	USB_ReadInterrupts:
 2892              	.LVL251:
 2893              	.LFB240:
1156:Drivers/STM32F4xx_HAL_Driver/Src/stm32f4xx_ll_usb.c ****   uint32_t tmpreg;
 2894              		.loc 1 1156 1 is_stmt 1 view -0
 2895              		.cfi_startproc
 2896              		@ args = 0, pretend = 0, frame = 0
 2897              		@ frame_needed = 0, uses_anonymous_args = 0
 2898              		@ link register save eliminated.
1157:Drivers/STM32F4xx_HAL_Driver/Src/stm32f4xx_ll_usb.c **** 
 2899              		.loc 1 1157 3 view .LVU942
1159:Drivers/STM32F4xx_HAL_Driver/Src/stm32f4xx_ll_usb.c ****   tmpreg &= USBx->GINTMSK;
 2900              		.loc 1 1159 3 view .LVU943
1159:Drivers/STM32F4xx_HAL_Driver/Src/stm32f4xx_ll_usb.c ****   tmpreg &= USBx->GINTMSK;
 2901              		.loc 1 1159 10 is_stmt 0 view .LVU944
 2902 0000 4269     		ldr	r2, [r0, #20]
 2903              	.LVL252:
1160:Drivers/STM32F4xx_HAL_Driver/Src/stm32f4xx_ll_usb.c **** 
 2904              		.loc 1 1160 3 is_stmt 1 view .LVU945
1160:Drivers/STM32F4xx_HAL_Driver/Src/stm32f4xx_ll_usb.c **** 
 2905              		.loc 1 1160 17 is_stmt 0 view .LVU946
 2906 0002 8069     		ldr	r0, [r0, #24]
 2907              	.LVL253:
1162:Drivers/STM32F4xx_HAL_Driver/Src/stm32f4xx_ll_usb.c **** }
 2908              		.loc 1 1162 3 is_stmt 1 view .LVU947
1163:Drivers/STM32F4xx_HAL_Driver/Src/stm32f4xx_ll_usb.c **** 
 2909              		.loc 1 1163 1 is_stmt 0 view .LVU948
 2910 0004 1040     		ands	r0, r0, r2
ARM GAS  C:\Users\7636~1\AppData\Local\Temp\ccnv92VB.s 			page 91


 2911              	.LVL254:
1163:Drivers/STM32F4xx_HAL_Driver/Src/stm32f4xx_ll_usb.c **** 
 2912              		.loc 1 1163 1 view .LVU949
 2913 0006 7047     		bx	lr
 2914              		.cfi_endproc
 2915              	.LFE240:
 2917              		.section	.text.USB_ReadDevAllOutEpInterrupt,"ax",%progbits
 2918              		.align	1
 2919              		.global	USB_ReadDevAllOutEpInterrupt
 2920              		.syntax unified
 2921              		.thumb
 2922              		.thumb_func
 2924              	USB_ReadDevAllOutEpInterrupt:
 2925              	.LVL255:
 2926              	.LFB241:
1171:Drivers/STM32F4xx_HAL_Driver/Src/stm32f4xx_ll_usb.c ****   uint32_t USBx_BASE = (uint32_t)USBx;
 2927              		.loc 1 1171 1 is_stmt 1 view -0
 2928              		.cfi_startproc
 2929              		@ args = 0, pretend = 0, frame = 0
 2930              		@ frame_needed = 0, uses_anonymous_args = 0
 2931              		@ link register save eliminated.
1172:Drivers/STM32F4xx_HAL_Driver/Src/stm32f4xx_ll_usb.c ****   uint32_t tmpreg;
 2932              		.loc 1 1172 3 view .LVU951
1173:Drivers/STM32F4xx_HAL_Driver/Src/stm32f4xx_ll_usb.c **** 
 2933              		.loc 1 1173 3 view .LVU952
1175:Drivers/STM32F4xx_HAL_Driver/Src/stm32f4xx_ll_usb.c ****   tmpreg &= USBx_DEVICE->DAINTMSK;
 2934              		.loc 1 1175 3 view .LVU953
1175:Drivers/STM32F4xx_HAL_Driver/Src/stm32f4xx_ll_usb.c ****   tmpreg &= USBx_DEVICE->DAINTMSK;
 2935              		.loc 1 1175 11 is_stmt 0 view .LVU954
 2936 0000 D0F81838 		ldr	r3, [r0, #2072]
1175:Drivers/STM32F4xx_HAL_Driver/Src/stm32f4xx_ll_usb.c ****   tmpreg &= USBx_DEVICE->DAINTMSK;
 2937              		.loc 1 1175 13 view .LVU955
 2938 0004 00F50060 		add	r0, r0, #2048
 2939              	.LVL256:
1176:Drivers/STM32F4xx_HAL_Driver/Src/stm32f4xx_ll_usb.c **** 
 2940              		.loc 1 1176 3 is_stmt 1 view .LVU956
1176:Drivers/STM32F4xx_HAL_Driver/Src/stm32f4xx_ll_usb.c **** 
 2941              		.loc 1 1176 24 is_stmt 0 view .LVU957
 2942 0008 C069     		ldr	r0, [r0, #28]
 2943              	.LVL257:
1176:Drivers/STM32F4xx_HAL_Driver/Src/stm32f4xx_ll_usb.c **** 
 2944              		.loc 1 1176 10 view .LVU958
 2945 000a 1840     		ands	r0, r0, r3
 2946              	.LVL258:
1178:Drivers/STM32F4xx_HAL_Driver/Src/stm32f4xx_ll_usb.c **** }
 2947              		.loc 1 1178 3 is_stmt 1 view .LVU959
1179:Drivers/STM32F4xx_HAL_Driver/Src/stm32f4xx_ll_usb.c **** 
 2948              		.loc 1 1179 1 is_stmt 0 view .LVU960
 2949 000c 000C     		lsrs	r0, r0, #16
 2950              	.LVL259:
1179:Drivers/STM32F4xx_HAL_Driver/Src/stm32f4xx_ll_usb.c **** 
 2951              		.loc 1 1179 1 view .LVU961
 2952 000e 7047     		bx	lr
 2953              		.cfi_endproc
 2954              	.LFE241:
 2956              		.section	.text.USB_ReadDevAllInEpInterrupt,"ax",%progbits
 2957              		.align	1
ARM GAS  C:\Users\7636~1\AppData\Local\Temp\ccnv92VB.s 			page 92


 2958              		.global	USB_ReadDevAllInEpInterrupt
 2959              		.syntax unified
 2960              		.thumb
 2961              		.thumb_func
 2963              	USB_ReadDevAllInEpInterrupt:
 2964              	.LVL260:
 2965              	.LFB242:
1187:Drivers/STM32F4xx_HAL_Driver/Src/stm32f4xx_ll_usb.c ****   uint32_t USBx_BASE = (uint32_t)USBx;
 2966              		.loc 1 1187 1 is_stmt 1 view -0
 2967              		.cfi_startproc
 2968              		@ args = 0, pretend = 0, frame = 0
 2969              		@ frame_needed = 0, uses_anonymous_args = 0
 2970              		@ link register save eliminated.
1188:Drivers/STM32F4xx_HAL_Driver/Src/stm32f4xx_ll_usb.c ****   uint32_t tmpreg;
 2971              		.loc 1 1188 3 view .LVU963
1189:Drivers/STM32F4xx_HAL_Driver/Src/stm32f4xx_ll_usb.c **** 
 2972              		.loc 1 1189 3 view .LVU964
1191:Drivers/STM32F4xx_HAL_Driver/Src/stm32f4xx_ll_usb.c ****   tmpreg &= USBx_DEVICE->DAINTMSK;
 2973              		.loc 1 1191 3 view .LVU965
1191:Drivers/STM32F4xx_HAL_Driver/Src/stm32f4xx_ll_usb.c ****   tmpreg &= USBx_DEVICE->DAINTMSK;
 2974              		.loc 1 1191 11 is_stmt 0 view .LVU966
 2975 0000 D0F81838 		ldr	r3, [r0, #2072]
1191:Drivers/STM32F4xx_HAL_Driver/Src/stm32f4xx_ll_usb.c ****   tmpreg &= USBx_DEVICE->DAINTMSK;
 2976              		.loc 1 1191 13 view .LVU967
 2977 0004 00F50060 		add	r0, r0, #2048
 2978              	.LVL261:
1192:Drivers/STM32F4xx_HAL_Driver/Src/stm32f4xx_ll_usb.c **** 
 2979              		.loc 1 1192 3 is_stmt 1 view .LVU968
1192:Drivers/STM32F4xx_HAL_Driver/Src/stm32f4xx_ll_usb.c **** 
 2980              		.loc 1 1192 24 is_stmt 0 view .LVU969
 2981 0008 C069     		ldr	r0, [r0, #28]
 2982              	.LVL262:
1192:Drivers/STM32F4xx_HAL_Driver/Src/stm32f4xx_ll_usb.c **** 
 2983              		.loc 1 1192 10 view .LVU970
 2984 000a 1840     		ands	r0, r0, r3
 2985              	.LVL263:
1194:Drivers/STM32F4xx_HAL_Driver/Src/stm32f4xx_ll_usb.c **** }
 2986              		.loc 1 1194 3 is_stmt 1 view .LVU971
1195:Drivers/STM32F4xx_HAL_Driver/Src/stm32f4xx_ll_usb.c **** 
 2987              		.loc 1 1195 1 is_stmt 0 view .LVU972
 2988 000c 80B2     		uxth	r0, r0
 2989              	.LVL264:
1195:Drivers/STM32F4xx_HAL_Driver/Src/stm32f4xx_ll_usb.c **** 
 2990              		.loc 1 1195 1 view .LVU973
 2991 000e 7047     		bx	lr
 2992              		.cfi_endproc
 2993              	.LFE242:
 2995              		.section	.text.USB_ReadDevOutEPInterrupt,"ax",%progbits
 2996              		.align	1
 2997              		.global	USB_ReadDevOutEPInterrupt
 2998              		.syntax unified
 2999              		.thumb
 3000              		.thumb_func
 3002              	USB_ReadDevOutEPInterrupt:
 3003              	.LVL265:
 3004              	.LFB243:
1205:Drivers/STM32F4xx_HAL_Driver/Src/stm32f4xx_ll_usb.c ****   uint32_t USBx_BASE = (uint32_t)USBx;
ARM GAS  C:\Users\7636~1\AppData\Local\Temp\ccnv92VB.s 			page 93


 3005              		.loc 1 1205 1 is_stmt 1 view -0
 3006              		.cfi_startproc
 3007              		@ args = 0, pretend = 0, frame = 0
 3008              		@ frame_needed = 0, uses_anonymous_args = 0
 3009              		@ link register save eliminated.
1206:Drivers/STM32F4xx_HAL_Driver/Src/stm32f4xx_ll_usb.c ****   uint32_t tmpreg;
 3010              		.loc 1 1206 3 view .LVU975
1207:Drivers/STM32F4xx_HAL_Driver/Src/stm32f4xx_ll_usb.c **** 
 3011              		.loc 1 1207 3 view .LVU976
1209:Drivers/STM32F4xx_HAL_Driver/Src/stm32f4xx_ll_usb.c ****   tmpreg &= USBx_DEVICE->DOEPMSK;
 3012              		.loc 1 1209 3 view .LVU977
1209:Drivers/STM32F4xx_HAL_Driver/Src/stm32f4xx_ll_usb.c ****   tmpreg &= USBx_DEVICE->DOEPMSK;
 3013              		.loc 1 1209 13 is_stmt 0 view .LVU978
 3014 0000 00EB4111 		add	r1, r0, r1, lsl #5
 3015              	.LVL266:
1209:Drivers/STM32F4xx_HAL_Driver/Src/stm32f4xx_ll_usb.c ****   tmpreg &= USBx_DEVICE->DOEPMSK;
 3016              		.loc 1 1209 11 view .LVU979
 3017 0004 D1F8082B 		ldr	r2, [r1, #2824]
 3018              	.LVL267:
1210:Drivers/STM32F4xx_HAL_Driver/Src/stm32f4xx_ll_usb.c **** 
 3019              		.loc 1 1210 3 is_stmt 1 view .LVU980
1210:Drivers/STM32F4xx_HAL_Driver/Src/stm32f4xx_ll_usb.c **** 
 3020              		.loc 1 1210 13 is_stmt 0 view .LVU981
 3021 0008 00F50060 		add	r0, r0, #2048
 3022              	.LVL268:
1210:Drivers/STM32F4xx_HAL_Driver/Src/stm32f4xx_ll_usb.c **** 
 3023              		.loc 1 1210 24 view .LVU982
 3024 000c 4069     		ldr	r0, [r0, #20]
 3025              	.LVL269:
1212:Drivers/STM32F4xx_HAL_Driver/Src/stm32f4xx_ll_usb.c **** }
 3026              		.loc 1 1212 3 is_stmt 1 view .LVU983
1213:Drivers/STM32F4xx_HAL_Driver/Src/stm32f4xx_ll_usb.c **** 
 3027              		.loc 1 1213 1 is_stmt 0 view .LVU984
 3028 000e 1040     		ands	r0, r0, r2
 3029              	.LVL270:
1213:Drivers/STM32F4xx_HAL_Driver/Src/stm32f4xx_ll_usb.c **** 
 3030              		.loc 1 1213 1 view .LVU985
 3031 0010 7047     		bx	lr
 3032              		.cfi_endproc
 3033              	.LFE243:
 3035              		.section	.text.USB_ReadDevInEPInterrupt,"ax",%progbits
 3036              		.align	1
 3037              		.global	USB_ReadDevInEPInterrupt
 3038              		.syntax unified
 3039              		.thumb
 3040              		.thumb_func
 3042              	USB_ReadDevInEPInterrupt:
 3043              	.LVL271:
 3044              	.LFB244:
1223:Drivers/STM32F4xx_HAL_Driver/Src/stm32f4xx_ll_usb.c ****   uint32_t USBx_BASE = (uint32_t)USBx;
 3045              		.loc 1 1223 1 is_stmt 1 view -0
 3046              		.cfi_startproc
 3047              		@ args = 0, pretend = 0, frame = 0
 3048              		@ frame_needed = 0, uses_anonymous_args = 0
 3049              		@ link register save eliminated.
1223:Drivers/STM32F4xx_HAL_Driver/Src/stm32f4xx_ll_usb.c ****   uint32_t USBx_BASE = (uint32_t)USBx;
 3050              		.loc 1 1223 1 is_stmt 0 view .LVU987
ARM GAS  C:\Users\7636~1\AppData\Local\Temp\ccnv92VB.s 			page 94


 3051 0000 10B4     		push	{r4}
 3052              	.LCFI25:
 3053              		.cfi_def_cfa_offset 4
 3054              		.cfi_offset 4, -4
1224:Drivers/STM32F4xx_HAL_Driver/Src/stm32f4xx_ll_usb.c ****   uint32_t tmpreg, msk, emp;
 3055              		.loc 1 1224 3 is_stmt 1 view .LVU988
 3056              	.LVL272:
1225:Drivers/STM32F4xx_HAL_Driver/Src/stm32f4xx_ll_usb.c **** 
 3057              		.loc 1 1225 3 view .LVU989
1227:Drivers/STM32F4xx_HAL_Driver/Src/stm32f4xx_ll_usb.c ****   emp = USBx_DEVICE->DIEPEMPMSK;
 3058              		.loc 1 1227 3 view .LVU990
1227:Drivers/STM32F4xx_HAL_Driver/Src/stm32f4xx_ll_usb.c ****   emp = USBx_DEVICE->DIEPEMPMSK;
 3059              		.loc 1 1227 7 is_stmt 0 view .LVU991
 3060 0002 D0F81048 		ldr	r4, [r0, #2064]
 3061              	.LVL273:
1228:Drivers/STM32F4xx_HAL_Driver/Src/stm32f4xx_ll_usb.c ****   msk |= ((emp >> (epnum & EP_ADDR_MSK)) & 0x1U) << 7;
 3062              		.loc 1 1228 3 is_stmt 1 view .LVU992
1228:Drivers/STM32F4xx_HAL_Driver/Src/stm32f4xx_ll_usb.c ****   msk |= ((emp >> (epnum & EP_ADDR_MSK)) & 0x1U) << 7;
 3063              		.loc 1 1228 7 is_stmt 0 view .LVU993
 3064 0006 D0F83438 		ldr	r3, [r0, #2100]
 3065              	.LVL274:
1229:Drivers/STM32F4xx_HAL_Driver/Src/stm32f4xx_ll_usb.c ****   tmpreg = USBx_INEP((uint32_t)epnum)->DIEPINT & msk;
 3066              		.loc 1 1229 3 is_stmt 1 view .LVU994
1229:Drivers/STM32F4xx_HAL_Driver/Src/stm32f4xx_ll_usb.c ****   tmpreg = USBx_INEP((uint32_t)epnum)->DIEPINT & msk;
 3067              		.loc 1 1229 26 is_stmt 0 view .LVU995
 3068 000a 01F00F02 		and	r2, r1, #15
1229:Drivers/STM32F4xx_HAL_Driver/Src/stm32f4xx_ll_usb.c ****   tmpreg = USBx_INEP((uint32_t)epnum)->DIEPINT & msk;
 3069              		.loc 1 1229 16 view .LVU996
 3070 000e D340     		lsrs	r3, r3, r2
 3071              	.LVL275:
1229:Drivers/STM32F4xx_HAL_Driver/Src/stm32f4xx_ll_usb.c ****   tmpreg = USBx_INEP((uint32_t)epnum)->DIEPINT & msk;
 3072              		.loc 1 1229 50 view .LVU997
 3073 0010 DB01     		lsls	r3, r3, #7
 3074 0012 DBB2     		uxtb	r3, r3
1229:Drivers/STM32F4xx_HAL_Driver/Src/stm32f4xx_ll_usb.c ****   tmpreg = USBx_INEP((uint32_t)epnum)->DIEPINT & msk;
 3075              		.loc 1 1229 7 view .LVU998
 3076 0014 2343     		orrs	r3, r3, r4
 3077              	.LVL276:
1230:Drivers/STM32F4xx_HAL_Driver/Src/stm32f4xx_ll_usb.c **** 
 3078              		.loc 1 1230 3 is_stmt 1 view .LVU999
1230:Drivers/STM32F4xx_HAL_Driver/Src/stm32f4xx_ll_usb.c **** 
 3079              		.loc 1 1230 12 is_stmt 0 view .LVU1000
 3080 0016 00EB4110 		add	r0, r0, r1, lsl #5
 3081              	.LVL277:
1230:Drivers/STM32F4xx_HAL_Driver/Src/stm32f4xx_ll_usb.c **** 
 3082              		.loc 1 1230 12 view .LVU1001
 3083 001a 00F51060 		add	r0, r0, #2304
1230:Drivers/STM32F4xx_HAL_Driver/Src/stm32f4xx_ll_usb.c **** 
 3084              		.loc 1 1230 38 view .LVU1002
 3085 001e 8068     		ldr	r0, [r0, #8]
 3086              	.LVL278:
1232:Drivers/STM32F4xx_HAL_Driver/Src/stm32f4xx_ll_usb.c **** }
 3087              		.loc 1 1232 3 is_stmt 1 view .LVU1003
1233:Drivers/STM32F4xx_HAL_Driver/Src/stm32f4xx_ll_usb.c **** 
 3088              		.loc 1 1233 1 is_stmt 0 view .LVU1004
 3089 0020 1840     		ands	r0, r0, r3
 3090              	.LVL279:
ARM GAS  C:\Users\7636~1\AppData\Local\Temp\ccnv92VB.s 			page 95


1233:Drivers/STM32F4xx_HAL_Driver/Src/stm32f4xx_ll_usb.c **** 
 3091              		.loc 1 1233 1 view .LVU1005
 3092 0022 5DF8044B 		ldr	r4, [sp], #4
 3093              	.LCFI26:
 3094              		.cfi_restore 4
 3095              		.cfi_def_cfa_offset 0
 3096 0026 7047     		bx	lr
 3097              		.cfi_endproc
 3098              	.LFE244:
 3100              		.section	.text.USB_ClearInterrupts,"ax",%progbits
 3101              		.align	1
 3102              		.global	USB_ClearInterrupts
 3103              		.syntax unified
 3104              		.thumb
 3105              		.thumb_func
 3107              	USB_ClearInterrupts:
 3108              	.LVL280:
 3109              	.LFB245:
1242:Drivers/STM32F4xx_HAL_Driver/Src/stm32f4xx_ll_usb.c ****   USBx->GINTSTS |= interrupt;
 3110              		.loc 1 1242 1 is_stmt 1 view -0
 3111              		.cfi_startproc
 3112              		@ args = 0, pretend = 0, frame = 0
 3113              		@ frame_needed = 0, uses_anonymous_args = 0
 3114              		@ link register save eliminated.
1243:Drivers/STM32F4xx_HAL_Driver/Src/stm32f4xx_ll_usb.c **** }
 3115              		.loc 1 1243 3 view .LVU1007
1243:Drivers/STM32F4xx_HAL_Driver/Src/stm32f4xx_ll_usb.c **** }
 3116              		.loc 1 1243 17 is_stmt 0 view .LVU1008
 3117 0000 4369     		ldr	r3, [r0, #20]
 3118 0002 0B43     		orrs	r3, r3, r1
 3119 0004 4361     		str	r3, [r0, #20]
1244:Drivers/STM32F4xx_HAL_Driver/Src/stm32f4xx_ll_usb.c **** 
 3120              		.loc 1 1244 1 view .LVU1009
 3121 0006 7047     		bx	lr
 3122              		.cfi_endproc
 3123              	.LFE245:
 3125              		.section	.text.USB_GetMode,"ax",%progbits
 3126              		.align	1
 3127              		.global	USB_GetMode
 3128              		.syntax unified
 3129              		.thumb
 3130              		.thumb_func
 3132              	USB_GetMode:
 3133              	.LVL281:
 3134              	.LFB246:
1255:Drivers/STM32F4xx_HAL_Driver/Src/stm32f4xx_ll_usb.c ****   return ((USBx->GINTSTS) & 0x1U);
 3135              		.loc 1 1255 1 is_stmt 1 view -0
 3136              		.cfi_startproc
 3137              		@ args = 0, pretend = 0, frame = 0
 3138              		@ frame_needed = 0, uses_anonymous_args = 0
 3139              		@ link register save eliminated.
1256:Drivers/STM32F4xx_HAL_Driver/Src/stm32f4xx_ll_usb.c **** }
 3140              		.loc 1 1256 3 view .LVU1011
1256:Drivers/STM32F4xx_HAL_Driver/Src/stm32f4xx_ll_usb.c **** }
 3141              		.loc 1 1256 16 is_stmt 0 view .LVU1012
 3142 0000 4069     		ldr	r0, [r0, #20]
 3143              	.LVL282:
ARM GAS  C:\Users\7636~1\AppData\Local\Temp\ccnv92VB.s 			page 96


1257:Drivers/STM32F4xx_HAL_Driver/Src/stm32f4xx_ll_usb.c **** 
 3144              		.loc 1 1257 1 view .LVU1013
 3145 0002 00F00100 		and	r0, r0, #1
 3146 0006 7047     		bx	lr
 3147              		.cfi_endproc
 3148              	.LFE246:
 3150              		.section	.text.USB_ActivateSetup,"ax",%progbits
 3151              		.align	1
 3152              		.global	USB_ActivateSetup
 3153              		.syntax unified
 3154              		.thumb
 3155              		.thumb_func
 3157              	USB_ActivateSetup:
 3158              	.LVL283:
 3159              	.LFB247:
1265:Drivers/STM32F4xx_HAL_Driver/Src/stm32f4xx_ll_usb.c ****   uint32_t USBx_BASE = (uint32_t)USBx;
 3160              		.loc 1 1265 1 is_stmt 1 view -0
 3161              		.cfi_startproc
 3162              		@ args = 0, pretend = 0, frame = 0
 3163              		@ frame_needed = 0, uses_anonymous_args = 0
 3164              		@ link register save eliminated.
1266:Drivers/STM32F4xx_HAL_Driver/Src/stm32f4xx_ll_usb.c **** 
 3165              		.loc 1 1266 3 view .LVU1015
1269:Drivers/STM32F4xx_HAL_Driver/Src/stm32f4xx_ll_usb.c **** 
 3166              		.loc 1 1269 3 view .LVU1016
1269:Drivers/STM32F4xx_HAL_Driver/Src/stm32f4xx_ll_usb.c **** 
 3167              		.loc 1 1269 26 is_stmt 0 view .LVU1017
 3168 0000 D0F80039 		ldr	r3, [r0, #2304]
 3169 0004 23F4FF63 		bic	r3, r3, #2040
 3170 0008 23F00703 		bic	r3, r3, #7
 3171 000c C0F80039 		str	r3, [r0, #2304]
1271:Drivers/STM32F4xx_HAL_Driver/Src/stm32f4xx_ll_usb.c **** 
 3172              		.loc 1 1271 3 is_stmt 1 view .LVU1018
1271:Drivers/STM32F4xx_HAL_Driver/Src/stm32f4xx_ll_usb.c **** 
 3173              		.loc 1 1271 21 is_stmt 0 view .LVU1019
 3174 0010 D0F80438 		ldr	r3, [r0, #2052]
 3175 0014 43F48073 		orr	r3, r3, #256
 3176 0018 C0F80438 		str	r3, [r0, #2052]
1273:Drivers/STM32F4xx_HAL_Driver/Src/stm32f4xx_ll_usb.c **** }
 3177              		.loc 1 1273 3 is_stmt 1 view .LVU1020
1274:Drivers/STM32F4xx_HAL_Driver/Src/stm32f4xx_ll_usb.c **** 
 3178              		.loc 1 1274 1 is_stmt 0 view .LVU1021
 3179 001c 0020     		movs	r0, #0
 3180              	.LVL284:
1274:Drivers/STM32F4xx_HAL_Driver/Src/stm32f4xx_ll_usb.c **** 
 3181              		.loc 1 1274 1 view .LVU1022
 3182 001e 7047     		bx	lr
 3183              		.cfi_endproc
 3184              	.LFE247:
 3186              		.section	.text.USB_EP0_OutStart,"ax",%progbits
 3187              		.align	1
 3188              		.global	USB_EP0_OutStart
 3189              		.syntax unified
 3190              		.thumb
 3191              		.thumb_func
 3193              	USB_EP0_OutStart:
 3194              	.LVL285:
ARM GAS  C:\Users\7636~1\AppData\Local\Temp\ccnv92VB.s 			page 97


 3195              	.LFB248:
1287:Drivers/STM32F4xx_HAL_Driver/Src/stm32f4xx_ll_usb.c ****   uint32_t USBx_BASE = (uint32_t)USBx;
 3196              		.loc 1 1287 1 is_stmt 1 view -0
 3197              		.cfi_startproc
 3198              		@ args = 0, pretend = 0, frame = 0
 3199              		@ frame_needed = 0, uses_anonymous_args = 0
 3200              		@ link register save eliminated.
1287:Drivers/STM32F4xx_HAL_Driver/Src/stm32f4xx_ll_usb.c ****   uint32_t USBx_BASE = (uint32_t)USBx;
 3201              		.loc 1 1287 1 is_stmt 0 view .LVU1024
 3202 0000 10B4     		push	{r4}
 3203              	.LCFI27:
 3204              		.cfi_def_cfa_offset 4
 3205              		.cfi_offset 4, -4
1288:Drivers/STM32F4xx_HAL_Driver/Src/stm32f4xx_ll_usb.c ****   uint32_t gSNPSiD = *(__IO uint32_t *)(&USBx->CID + 0x1U);
 3206              		.loc 1 1288 3 is_stmt 1 view .LVU1025
 3207              	.LVL286:
1289:Drivers/STM32F4xx_HAL_Driver/Src/stm32f4xx_ll_usb.c **** 
 3208              		.loc 1 1289 3 view .LVU1026
1289:Drivers/STM32F4xx_HAL_Driver/Src/stm32f4xx_ll_usb.c **** 
 3209              		.loc 1 1289 12 is_stmt 0 view .LVU1027
 3210 0002 046C     		ldr	r4, [r0, #64]
 3211              	.LVL287:
1291:Drivers/STM32F4xx_HAL_Driver/Src/stm32f4xx_ll_usb.c ****   {
 3212              		.loc 1 1291 3 is_stmt 1 view .LVU1028
1291:Drivers/STM32F4xx_HAL_Driver/Src/stm32f4xx_ll_usb.c ****   {
 3213              		.loc 1 1291 6 is_stmt 0 view .LVU1029
 3214 0004 154B     		ldr	r3, .L207
 3215 0006 9C42     		cmp	r4, r3
 3216 0008 03D9     		bls	.L203
1293:Drivers/STM32F4xx_HAL_Driver/Src/stm32f4xx_ll_usb.c ****     {
 3217              		.loc 1 1293 5 is_stmt 1 view .LVU1030
1293:Drivers/STM32F4xx_HAL_Driver/Src/stm32f4xx_ll_usb.c ****     {
 3218              		.loc 1 1293 24 is_stmt 0 view .LVU1031
 3219 000a D0F8003B 		ldr	r3, [r0, #2816]
1293:Drivers/STM32F4xx_HAL_Driver/Src/stm32f4xx_ll_usb.c ****     {
 3220              		.loc 1 1293 8 view .LVU1032
 3221 000e 002B     		cmp	r3, #0
 3222 0010 16DB     		blt	.L204
 3223              	.L203:
1299:Drivers/STM32F4xx_HAL_Driver/Src/stm32f4xx_ll_usb.c ****   USBx_OUTEP(0U)->DOEPTSIZ |= (USB_OTG_DOEPTSIZ_PKTCNT & (1U << 19));
 3224              		.loc 1 1299 3 is_stmt 1 view .LVU1033
1299:Drivers/STM32F4xx_HAL_Driver/Src/stm32f4xx_ll_usb.c ****   USBx_OUTEP(0U)->DOEPTSIZ |= (USB_OTG_DOEPTSIZ_PKTCNT & (1U << 19));
 3225              		.loc 1 1299 28 is_stmt 0 view .LVU1034
 3226 0012 0024     		movs	r4, #0
 3227              	.LVL288:
1299:Drivers/STM32F4xx_HAL_Driver/Src/stm32f4xx_ll_usb.c ****   USBx_OUTEP(0U)->DOEPTSIZ |= (USB_OTG_DOEPTSIZ_PKTCNT & (1U << 19));
 3228              		.loc 1 1299 28 view .LVU1035
 3229 0014 C0F8104B 		str	r4, [r0, #2832]
1300:Drivers/STM32F4xx_HAL_Driver/Src/stm32f4xx_ll_usb.c ****   USBx_OUTEP(0U)->DOEPTSIZ |= (3U * 8U);
 3230              		.loc 1 1300 3 is_stmt 1 view .LVU1036
1300:Drivers/STM32F4xx_HAL_Driver/Src/stm32f4xx_ll_usb.c ****   USBx_OUTEP(0U)->DOEPTSIZ |= (3U * 8U);
 3231              		.loc 1 1300 28 is_stmt 0 view .LVU1037
 3232 0018 D0F8104B 		ldr	r4, [r0, #2832]
 3233 001c 44F40024 		orr	r4, r4, #524288
 3234 0020 C0F8104B 		str	r4, [r0, #2832]
1301:Drivers/STM32F4xx_HAL_Driver/Src/stm32f4xx_ll_usb.c ****   USBx_OUTEP(0U)->DOEPTSIZ |=  USB_OTG_DOEPTSIZ_STUPCNT;
 3235              		.loc 1 1301 3 is_stmt 1 view .LVU1038
ARM GAS  C:\Users\7636~1\AppData\Local\Temp\ccnv92VB.s 			page 98


1301:Drivers/STM32F4xx_HAL_Driver/Src/stm32f4xx_ll_usb.c ****   USBx_OUTEP(0U)->DOEPTSIZ |=  USB_OTG_DOEPTSIZ_STUPCNT;
 3236              		.loc 1 1301 28 is_stmt 0 view .LVU1039
 3237 0024 D0F8104B 		ldr	r4, [r0, #2832]
 3238 0028 44F01804 		orr	r4, r4, #24
 3239 002c C0F8104B 		str	r4, [r0, #2832]
1302:Drivers/STM32F4xx_HAL_Driver/Src/stm32f4xx_ll_usb.c **** 
 3240              		.loc 1 1302 3 is_stmt 1 view .LVU1040
1302:Drivers/STM32F4xx_HAL_Driver/Src/stm32f4xx_ll_usb.c **** 
 3241              		.loc 1 1302 28 is_stmt 0 view .LVU1041
 3242 0030 D0F8104B 		ldr	r4, [r0, #2832]
 3243 0034 44F0C044 		orr	r4, r4, #1610612736
 3244 0038 C0F8104B 		str	r4, [r0, #2832]
1304:Drivers/STM32F4xx_HAL_Driver/Src/stm32f4xx_ll_usb.c ****   {
 3245              		.loc 1 1304 3 is_stmt 1 view .LVU1042
1304:Drivers/STM32F4xx_HAL_Driver/Src/stm32f4xx_ll_usb.c ****   {
 3246              		.loc 1 1304 6 is_stmt 0 view .LVU1043
 3247 003c 0129     		cmp	r1, #1
 3248 003e 03D0     		beq	.L206
 3249              	.L204:
1312:Drivers/STM32F4xx_HAL_Driver/Src/stm32f4xx_ll_usb.c **** 
 3250              		.loc 1 1312 1 view .LVU1044
 3251 0040 0020     		movs	r0, #0
 3252              	.LVL289:
1312:Drivers/STM32F4xx_HAL_Driver/Src/stm32f4xx_ll_usb.c **** 
 3253              		.loc 1 1312 1 view .LVU1045
 3254 0042 5DF8044B 		ldr	r4, [sp], #4
 3255              	.LCFI28:
 3256              		.cfi_remember_state
 3257              		.cfi_restore 4
 3258              		.cfi_def_cfa_offset 0
 3259 0046 7047     		bx	lr
 3260              	.LVL290:
 3261              	.L206:
 3262              	.LCFI29:
 3263              		.cfi_restore_state
1306:Drivers/STM32F4xx_HAL_Driver/Src/stm32f4xx_ll_usb.c ****     /* EP enable */
 3264              		.loc 1 1306 5 is_stmt 1 view .LVU1046
1306:Drivers/STM32F4xx_HAL_Driver/Src/stm32f4xx_ll_usb.c ****     /* EP enable */
 3265              		.loc 1 1306 29 is_stmt 0 view .LVU1047
 3266 0048 C0F8142B 		str	r2, [r0, #2836]
1308:Drivers/STM32F4xx_HAL_Driver/Src/stm32f4xx_ll_usb.c ****   }
 3267              		.loc 1 1308 5 is_stmt 1 view .LVU1048
1308:Drivers/STM32F4xx_HAL_Driver/Src/stm32f4xx_ll_usb.c ****   }
 3268              		.loc 1 1308 29 is_stmt 0 view .LVU1049
 3269 004c D0F8003B 		ldr	r3, [r0, #2816]
 3270 0050 43F08023 		orr	r3, r3, #-2147450880
 3271 0054 C0F8003B 		str	r3, [r0, #2816]
 3272 0058 F2E7     		b	.L204
 3273              	.L208:
 3274 005a 00BF     		.align	2
 3275              	.L207:
 3276 005c 0A30544F 		.word	1330917386
 3277              		.cfi_endproc
 3278              	.LFE248:
 3280              		.section	.text.USB_InitFSLSPClkSel,"ax",%progbits
 3281              		.align	1
 3282              		.global	USB_InitFSLSPClkSel
ARM GAS  C:\Users\7636~1\AppData\Local\Temp\ccnv92VB.s 			page 99


 3283              		.syntax unified
 3284              		.thumb
 3285              		.thumb_func
 3287              	USB_InitFSLSPClkSel:
 3288              	.LVL291:
 3289              	.LFB251:
1346:Drivers/STM32F4xx_HAL_Driver/Src/stm32f4xx_ll_usb.c **** 
1347:Drivers/STM32F4xx_HAL_Driver/Src/stm32f4xx_ll_usb.c **** /**
1348:Drivers/STM32F4xx_HAL_Driver/Src/stm32f4xx_ll_usb.c ****   * @brief  USB_HostInit : Initializes the USB OTG controller registers
1349:Drivers/STM32F4xx_HAL_Driver/Src/stm32f4xx_ll_usb.c ****   *         for Host mode
1350:Drivers/STM32F4xx_HAL_Driver/Src/stm32f4xx_ll_usb.c ****   * @param  USBx  Selected device
1351:Drivers/STM32F4xx_HAL_Driver/Src/stm32f4xx_ll_usb.c ****   * @param  cfg   pointer to a USB_OTG_CfgTypeDef structure that contains
1352:Drivers/STM32F4xx_HAL_Driver/Src/stm32f4xx_ll_usb.c ****   *         the configuration information for the specified USBx peripheral.
1353:Drivers/STM32F4xx_HAL_Driver/Src/stm32f4xx_ll_usb.c ****   * @retval HAL status
1354:Drivers/STM32F4xx_HAL_Driver/Src/stm32f4xx_ll_usb.c ****   */
1355:Drivers/STM32F4xx_HAL_Driver/Src/stm32f4xx_ll_usb.c **** HAL_StatusTypeDef USB_HostInit(USB_OTG_GlobalTypeDef *USBx, USB_OTG_CfgTypeDef cfg)
1356:Drivers/STM32F4xx_HAL_Driver/Src/stm32f4xx_ll_usb.c **** {
1357:Drivers/STM32F4xx_HAL_Driver/Src/stm32f4xx_ll_usb.c ****   uint32_t USBx_BASE = (uint32_t)USBx;
1358:Drivers/STM32F4xx_HAL_Driver/Src/stm32f4xx_ll_usb.c ****   uint32_t i;
1359:Drivers/STM32F4xx_HAL_Driver/Src/stm32f4xx_ll_usb.c **** 
1360:Drivers/STM32F4xx_HAL_Driver/Src/stm32f4xx_ll_usb.c ****   /* Restart the Phy Clock */
1361:Drivers/STM32F4xx_HAL_Driver/Src/stm32f4xx_ll_usb.c ****   USBx_PCGCCTL = 0U;
1362:Drivers/STM32F4xx_HAL_Driver/Src/stm32f4xx_ll_usb.c **** 
1363:Drivers/STM32F4xx_HAL_Driver/Src/stm32f4xx_ll_usb.c **** #if defined(STM32F446xx) || defined(STM32F469xx) || defined(STM32F479xx) || defined(STM32F412Zx) ||
1364:Drivers/STM32F4xx_HAL_Driver/Src/stm32f4xx_ll_usb.c ****   /* Disable HW VBUS sensing */
1365:Drivers/STM32F4xx_HAL_Driver/Src/stm32f4xx_ll_usb.c ****   USBx->GCCFG &= ~(USB_OTG_GCCFG_VBDEN);
1366:Drivers/STM32F4xx_HAL_Driver/Src/stm32f4xx_ll_usb.c **** #else
1367:Drivers/STM32F4xx_HAL_Driver/Src/stm32f4xx_ll_usb.c ****   /*
1368:Drivers/STM32F4xx_HAL_Driver/Src/stm32f4xx_ll_usb.c ****   * Disable HW VBUS sensing. VBUS is internally considered to be always
1369:Drivers/STM32F4xx_HAL_Driver/Src/stm32f4xx_ll_usb.c ****   * at VBUS-Valid level (5V).
1370:Drivers/STM32F4xx_HAL_Driver/Src/stm32f4xx_ll_usb.c ****   */
1371:Drivers/STM32F4xx_HAL_Driver/Src/stm32f4xx_ll_usb.c ****   USBx->GCCFG |= USB_OTG_GCCFG_NOVBUSSENS;
1372:Drivers/STM32F4xx_HAL_Driver/Src/stm32f4xx_ll_usb.c ****   USBx->GCCFG &= ~USB_OTG_GCCFG_VBUSBSEN;
1373:Drivers/STM32F4xx_HAL_Driver/Src/stm32f4xx_ll_usb.c ****   USBx->GCCFG &= ~USB_OTG_GCCFG_VBUSASEN;
1374:Drivers/STM32F4xx_HAL_Driver/Src/stm32f4xx_ll_usb.c **** #endif /* defined(STM32F446xx) || defined(STM32F469xx) || defined(STM32F479xx) || defined(STM32F412
1375:Drivers/STM32F4xx_HAL_Driver/Src/stm32f4xx_ll_usb.c **** #if defined(STM32F412Zx) || defined(STM32F412Vx) || defined(STM32F412Rx) || defined(STM32F412Cx) ||
1376:Drivers/STM32F4xx_HAL_Driver/Src/stm32f4xx_ll_usb.c ****   /* Disable Battery chargin detector */
1377:Drivers/STM32F4xx_HAL_Driver/Src/stm32f4xx_ll_usb.c ****   USBx->GCCFG &= ~(USB_OTG_GCCFG_BCDEN);
1378:Drivers/STM32F4xx_HAL_Driver/Src/stm32f4xx_ll_usb.c **** #endif /* defined(STM32F412Zx) || defined(STM32F412Vx) || defined(STM32F412Rx) || defined(STM32F412
1379:Drivers/STM32F4xx_HAL_Driver/Src/stm32f4xx_ll_usb.c **** 
1380:Drivers/STM32F4xx_HAL_Driver/Src/stm32f4xx_ll_usb.c ****   if ((USBx->CID & (0x1U << 8)) != 0U)
1381:Drivers/STM32F4xx_HAL_Driver/Src/stm32f4xx_ll_usb.c ****   {
1382:Drivers/STM32F4xx_HAL_Driver/Src/stm32f4xx_ll_usb.c ****     if (cfg.speed == USBH_FSLS_SPEED)
1383:Drivers/STM32F4xx_HAL_Driver/Src/stm32f4xx_ll_usb.c ****     {
1384:Drivers/STM32F4xx_HAL_Driver/Src/stm32f4xx_ll_usb.c ****       /* Force Device Enumeration to FS/LS mode only */
1385:Drivers/STM32F4xx_HAL_Driver/Src/stm32f4xx_ll_usb.c ****       USBx_HOST->HCFG |= USB_OTG_HCFG_FSLSS;
1386:Drivers/STM32F4xx_HAL_Driver/Src/stm32f4xx_ll_usb.c ****     }
1387:Drivers/STM32F4xx_HAL_Driver/Src/stm32f4xx_ll_usb.c ****     else
1388:Drivers/STM32F4xx_HAL_Driver/Src/stm32f4xx_ll_usb.c ****     {
1389:Drivers/STM32F4xx_HAL_Driver/Src/stm32f4xx_ll_usb.c ****       /* Set default Max speed support */
1390:Drivers/STM32F4xx_HAL_Driver/Src/stm32f4xx_ll_usb.c ****       USBx_HOST->HCFG &= ~(USB_OTG_HCFG_FSLSS);
1391:Drivers/STM32F4xx_HAL_Driver/Src/stm32f4xx_ll_usb.c ****     }
1392:Drivers/STM32F4xx_HAL_Driver/Src/stm32f4xx_ll_usb.c ****   }
1393:Drivers/STM32F4xx_HAL_Driver/Src/stm32f4xx_ll_usb.c ****   else
1394:Drivers/STM32F4xx_HAL_Driver/Src/stm32f4xx_ll_usb.c ****   {
1395:Drivers/STM32F4xx_HAL_Driver/Src/stm32f4xx_ll_usb.c ****     /* Set default Max speed support */
1396:Drivers/STM32F4xx_HAL_Driver/Src/stm32f4xx_ll_usb.c ****     USBx_HOST->HCFG &= ~(USB_OTG_HCFG_FSLSS);
ARM GAS  C:\Users\7636~1\AppData\Local\Temp\ccnv92VB.s 			page 100


1397:Drivers/STM32F4xx_HAL_Driver/Src/stm32f4xx_ll_usb.c ****   }
1398:Drivers/STM32F4xx_HAL_Driver/Src/stm32f4xx_ll_usb.c **** 
1399:Drivers/STM32F4xx_HAL_Driver/Src/stm32f4xx_ll_usb.c ****   /* Make sure the FIFOs are flushed. */
1400:Drivers/STM32F4xx_HAL_Driver/Src/stm32f4xx_ll_usb.c ****   (void)USB_FlushTxFifo(USBx, 0x10U); /* all Tx FIFOs */
1401:Drivers/STM32F4xx_HAL_Driver/Src/stm32f4xx_ll_usb.c ****   (void)USB_FlushRxFifo(USBx);
1402:Drivers/STM32F4xx_HAL_Driver/Src/stm32f4xx_ll_usb.c **** 
1403:Drivers/STM32F4xx_HAL_Driver/Src/stm32f4xx_ll_usb.c ****   /* Clear all pending HC Interrupts */
1404:Drivers/STM32F4xx_HAL_Driver/Src/stm32f4xx_ll_usb.c ****   for (i = 0U; i < cfg.Host_channels; i++)
1405:Drivers/STM32F4xx_HAL_Driver/Src/stm32f4xx_ll_usb.c ****   {
1406:Drivers/STM32F4xx_HAL_Driver/Src/stm32f4xx_ll_usb.c ****     USBx_HC(i)->HCINT = 0xFFFFFFFFU;
1407:Drivers/STM32F4xx_HAL_Driver/Src/stm32f4xx_ll_usb.c ****     USBx_HC(i)->HCINTMSK = 0U;
1408:Drivers/STM32F4xx_HAL_Driver/Src/stm32f4xx_ll_usb.c ****   }
1409:Drivers/STM32F4xx_HAL_Driver/Src/stm32f4xx_ll_usb.c **** 
1410:Drivers/STM32F4xx_HAL_Driver/Src/stm32f4xx_ll_usb.c ****   /* Enable VBUS driving */
1411:Drivers/STM32F4xx_HAL_Driver/Src/stm32f4xx_ll_usb.c ****   (void)USB_DriveVbus(USBx, 1U);
1412:Drivers/STM32F4xx_HAL_Driver/Src/stm32f4xx_ll_usb.c **** 
1413:Drivers/STM32F4xx_HAL_Driver/Src/stm32f4xx_ll_usb.c ****   HAL_Delay(200U);
1414:Drivers/STM32F4xx_HAL_Driver/Src/stm32f4xx_ll_usb.c **** 
1415:Drivers/STM32F4xx_HAL_Driver/Src/stm32f4xx_ll_usb.c ****   /* Disable all interrupts. */
1416:Drivers/STM32F4xx_HAL_Driver/Src/stm32f4xx_ll_usb.c ****   USBx->GINTMSK = 0U;
1417:Drivers/STM32F4xx_HAL_Driver/Src/stm32f4xx_ll_usb.c **** 
1418:Drivers/STM32F4xx_HAL_Driver/Src/stm32f4xx_ll_usb.c ****   /* Clear any pending interrupts */
1419:Drivers/STM32F4xx_HAL_Driver/Src/stm32f4xx_ll_usb.c ****   USBx->GINTSTS = 0xFFFFFFFFU;
1420:Drivers/STM32F4xx_HAL_Driver/Src/stm32f4xx_ll_usb.c **** 
1421:Drivers/STM32F4xx_HAL_Driver/Src/stm32f4xx_ll_usb.c ****   if ((USBx->CID & (0x1U << 8)) != 0U)
1422:Drivers/STM32F4xx_HAL_Driver/Src/stm32f4xx_ll_usb.c ****   {
1423:Drivers/STM32F4xx_HAL_Driver/Src/stm32f4xx_ll_usb.c ****     /* set Rx FIFO size */
1424:Drivers/STM32F4xx_HAL_Driver/Src/stm32f4xx_ll_usb.c ****     USBx->GRXFSIZ  = 0x200U;
1425:Drivers/STM32F4xx_HAL_Driver/Src/stm32f4xx_ll_usb.c ****     USBx->DIEPTXF0_HNPTXFSIZ = (uint32_t)(((0x100U << 16) & USB_OTG_NPTXFD) | 0x200U);
1426:Drivers/STM32F4xx_HAL_Driver/Src/stm32f4xx_ll_usb.c ****     USBx->HPTXFSIZ = (uint32_t)(((0xE0U << 16) & USB_OTG_HPTXFSIZ_PTXFD) | 0x300U);
1427:Drivers/STM32F4xx_HAL_Driver/Src/stm32f4xx_ll_usb.c ****   }
1428:Drivers/STM32F4xx_HAL_Driver/Src/stm32f4xx_ll_usb.c ****   else
1429:Drivers/STM32F4xx_HAL_Driver/Src/stm32f4xx_ll_usb.c ****   {
1430:Drivers/STM32F4xx_HAL_Driver/Src/stm32f4xx_ll_usb.c ****     /* set Rx FIFO size */
1431:Drivers/STM32F4xx_HAL_Driver/Src/stm32f4xx_ll_usb.c ****     USBx->GRXFSIZ  = 0x80U;
1432:Drivers/STM32F4xx_HAL_Driver/Src/stm32f4xx_ll_usb.c ****     USBx->DIEPTXF0_HNPTXFSIZ = (uint32_t)(((0x60U << 16) & USB_OTG_NPTXFD) | 0x80U);
1433:Drivers/STM32F4xx_HAL_Driver/Src/stm32f4xx_ll_usb.c ****     USBx->HPTXFSIZ = (uint32_t)(((0x40U << 16)& USB_OTG_HPTXFSIZ_PTXFD) | 0xE0U);
1434:Drivers/STM32F4xx_HAL_Driver/Src/stm32f4xx_ll_usb.c ****   }
1435:Drivers/STM32F4xx_HAL_Driver/Src/stm32f4xx_ll_usb.c **** 
1436:Drivers/STM32F4xx_HAL_Driver/Src/stm32f4xx_ll_usb.c ****   /* Enable the common interrupts */
1437:Drivers/STM32F4xx_HAL_Driver/Src/stm32f4xx_ll_usb.c ****   if (cfg.dma_enable == 0U)
1438:Drivers/STM32F4xx_HAL_Driver/Src/stm32f4xx_ll_usb.c ****   {
1439:Drivers/STM32F4xx_HAL_Driver/Src/stm32f4xx_ll_usb.c ****     USBx->GINTMSK |= USB_OTG_GINTMSK_RXFLVLM;
1440:Drivers/STM32F4xx_HAL_Driver/Src/stm32f4xx_ll_usb.c ****   }
1441:Drivers/STM32F4xx_HAL_Driver/Src/stm32f4xx_ll_usb.c **** 
1442:Drivers/STM32F4xx_HAL_Driver/Src/stm32f4xx_ll_usb.c ****   /* Enable interrupts matching to the Host mode ONLY */
1443:Drivers/STM32F4xx_HAL_Driver/Src/stm32f4xx_ll_usb.c ****   USBx->GINTMSK |= (USB_OTG_GINTMSK_PRTIM            | USB_OTG_GINTMSK_HCIM | \
1444:Drivers/STM32F4xx_HAL_Driver/Src/stm32f4xx_ll_usb.c ****                     USB_OTG_GINTMSK_SOFM             | USB_OTG_GINTSTS_DISCINT | \
1445:Drivers/STM32F4xx_HAL_Driver/Src/stm32f4xx_ll_usb.c ****                     USB_OTG_GINTMSK_PXFRM_IISOOXFRM  | USB_OTG_GINTMSK_WUIM);
1446:Drivers/STM32F4xx_HAL_Driver/Src/stm32f4xx_ll_usb.c **** 
1447:Drivers/STM32F4xx_HAL_Driver/Src/stm32f4xx_ll_usb.c ****   return HAL_OK;
1448:Drivers/STM32F4xx_HAL_Driver/Src/stm32f4xx_ll_usb.c **** }
1449:Drivers/STM32F4xx_HAL_Driver/Src/stm32f4xx_ll_usb.c **** 
1450:Drivers/STM32F4xx_HAL_Driver/Src/stm32f4xx_ll_usb.c **** /**
1451:Drivers/STM32F4xx_HAL_Driver/Src/stm32f4xx_ll_usb.c ****   * @brief  USB_InitFSLSPClkSel : Initializes the FSLSPClkSel field of the
1452:Drivers/STM32F4xx_HAL_Driver/Src/stm32f4xx_ll_usb.c ****   *         HCFG register on the PHY type and set the right frame interval
1453:Drivers/STM32F4xx_HAL_Driver/Src/stm32f4xx_ll_usb.c ****   * @param  USBx  Selected device
ARM GAS  C:\Users\7636~1\AppData\Local\Temp\ccnv92VB.s 			page 101


1454:Drivers/STM32F4xx_HAL_Driver/Src/stm32f4xx_ll_usb.c ****   * @param  freq  clock frequency
1455:Drivers/STM32F4xx_HAL_Driver/Src/stm32f4xx_ll_usb.c ****   *          This parameter can be one of these values:
1456:Drivers/STM32F4xx_HAL_Driver/Src/stm32f4xx_ll_usb.c ****   *           HCFG_48_MHZ : Full Speed 48 MHz Clock
1457:Drivers/STM32F4xx_HAL_Driver/Src/stm32f4xx_ll_usb.c ****   *           HCFG_6_MHZ : Low Speed 6 MHz Clock
1458:Drivers/STM32F4xx_HAL_Driver/Src/stm32f4xx_ll_usb.c ****   * @retval HAL status
1459:Drivers/STM32F4xx_HAL_Driver/Src/stm32f4xx_ll_usb.c ****   */
1460:Drivers/STM32F4xx_HAL_Driver/Src/stm32f4xx_ll_usb.c **** HAL_StatusTypeDef USB_InitFSLSPClkSel(USB_OTG_GlobalTypeDef *USBx, uint8_t freq)
1461:Drivers/STM32F4xx_HAL_Driver/Src/stm32f4xx_ll_usb.c **** {
 3290              		.loc 1 1461 1 is_stmt 1 view -0
 3291              		.cfi_startproc
 3292              		@ args = 0, pretend = 0, frame = 0
 3293              		@ frame_needed = 0, uses_anonymous_args = 0
 3294              		@ link register save eliminated.
1462:Drivers/STM32F4xx_HAL_Driver/Src/stm32f4xx_ll_usb.c ****   uint32_t USBx_BASE = (uint32_t)USBx;
 3295              		.loc 1 1462 3 view .LVU1051
1463:Drivers/STM32F4xx_HAL_Driver/Src/stm32f4xx_ll_usb.c **** 
1464:Drivers/STM32F4xx_HAL_Driver/Src/stm32f4xx_ll_usb.c ****   USBx_HOST->HCFG &= ~(USB_OTG_HCFG_FSLSPCS);
 3296              		.loc 1 1464 3 view .LVU1052
 3297              		.loc 1 1464 19 is_stmt 0 view .LVU1053
 3298 0000 00F5806C 		add	ip, r0, #1024
 3299 0004 D0F80034 		ldr	r3, [r0, #1024]
 3300 0008 23F00303 		bic	r3, r3, #3
 3301 000c C0F80034 		str	r3, [r0, #1024]
1465:Drivers/STM32F4xx_HAL_Driver/Src/stm32f4xx_ll_usb.c ****   USBx_HOST->HCFG |= (uint32_t)freq & USB_OTG_HCFG_FSLSPCS;
 3302              		.loc 1 1465 3 is_stmt 1 view .LVU1054
 3303              		.loc 1 1465 19 is_stmt 0 view .LVU1055
 3304 0010 D0F80034 		ldr	r3, [r0, #1024]
 3305              		.loc 1 1465 37 view .LVU1056
 3306 0014 01F00302 		and	r2, r1, #3
 3307              		.loc 1 1465 19 view .LVU1057
 3308 0018 1343     		orrs	r3, r3, r2
 3309 001a C0F80034 		str	r3, [r0, #1024]
1466:Drivers/STM32F4xx_HAL_Driver/Src/stm32f4xx_ll_usb.c **** 
1467:Drivers/STM32F4xx_HAL_Driver/Src/stm32f4xx_ll_usb.c ****   if (freq == HCFG_48_MHZ)
 3310              		.loc 1 1467 3 is_stmt 1 view .LVU1058
 3311              		.loc 1 1467 6 is_stmt 0 view .LVU1059
 3312 001e 0129     		cmp	r1, #1
 3313 0020 03D0     		beq	.L212
1468:Drivers/STM32F4xx_HAL_Driver/Src/stm32f4xx_ll_usb.c ****   {
1469:Drivers/STM32F4xx_HAL_Driver/Src/stm32f4xx_ll_usb.c ****     USBx_HOST->HFIR = 48000U;
1470:Drivers/STM32F4xx_HAL_Driver/Src/stm32f4xx_ll_usb.c ****   }
1471:Drivers/STM32F4xx_HAL_Driver/Src/stm32f4xx_ll_usb.c ****   else if (freq == HCFG_6_MHZ)
 3314              		.loc 1 1471 8 is_stmt 1 view .LVU1060
 3315              		.loc 1 1471 11 is_stmt 0 view .LVU1061
 3316 0022 0229     		cmp	r1, #2
 3317 0024 06D0     		beq	.L213
 3318              	.L211:
1472:Drivers/STM32F4xx_HAL_Driver/Src/stm32f4xx_ll_usb.c ****   {
1473:Drivers/STM32F4xx_HAL_Driver/Src/stm32f4xx_ll_usb.c ****     USBx_HOST->HFIR = 6000U;
1474:Drivers/STM32F4xx_HAL_Driver/Src/stm32f4xx_ll_usb.c ****   }
1475:Drivers/STM32F4xx_HAL_Driver/Src/stm32f4xx_ll_usb.c ****   else
1476:Drivers/STM32F4xx_HAL_Driver/Src/stm32f4xx_ll_usb.c ****   {
1477:Drivers/STM32F4xx_HAL_Driver/Src/stm32f4xx_ll_usb.c ****     /* ... */
1478:Drivers/STM32F4xx_HAL_Driver/Src/stm32f4xx_ll_usb.c ****   }
 3319              		.loc 1 1478 3 is_stmt 1 view .LVU1062
1479:Drivers/STM32F4xx_HAL_Driver/Src/stm32f4xx_ll_usb.c **** 
1480:Drivers/STM32F4xx_HAL_Driver/Src/stm32f4xx_ll_usb.c ****   return HAL_OK;
ARM GAS  C:\Users\7636~1\AppData\Local\Temp\ccnv92VB.s 			page 102


 3320              		.loc 1 1480 3 view .LVU1063
1481:Drivers/STM32F4xx_HAL_Driver/Src/stm32f4xx_ll_usb.c **** }
 3321              		.loc 1 1481 1 is_stmt 0 view .LVU1064
 3322 0026 0020     		movs	r0, #0
 3323              	.LVL292:
 3324              		.loc 1 1481 1 view .LVU1065
 3325 0028 7047     		bx	lr
 3326              	.LVL293:
 3327              	.L212:
1469:Drivers/STM32F4xx_HAL_Driver/Src/stm32f4xx_ll_usb.c ****   }
 3328              		.loc 1 1469 5 is_stmt 1 view .LVU1066
1469:Drivers/STM32F4xx_HAL_Driver/Src/stm32f4xx_ll_usb.c ****   }
 3329              		.loc 1 1469 21 is_stmt 0 view .LVU1067
 3330 002a 4BF68033 		movw	r3, #48000
 3331 002e CCF80430 		str	r3, [ip, #4]
 3332 0032 F8E7     		b	.L211
 3333              	.L213:
1473:Drivers/STM32F4xx_HAL_Driver/Src/stm32f4xx_ll_usb.c ****   }
 3334              		.loc 1 1473 5 is_stmt 1 view .LVU1068
1473:Drivers/STM32F4xx_HAL_Driver/Src/stm32f4xx_ll_usb.c ****   }
 3335              		.loc 1 1473 21 is_stmt 0 view .LVU1069
 3336 0034 41F27073 		movw	r3, #6000
 3337 0038 CCF80430 		str	r3, [ip, #4]
 3338 003c F3E7     		b	.L211
 3339              		.cfi_endproc
 3340              	.LFE251:
 3342              		.section	.text.USB_ResetPort,"ax",%progbits
 3343              		.align	1
 3344              		.global	USB_ResetPort
 3345              		.syntax unified
 3346              		.thumb
 3347              		.thumb_func
 3349              	USB_ResetPort:
 3350              	.LVL294:
 3351              	.LFB252:
1482:Drivers/STM32F4xx_HAL_Driver/Src/stm32f4xx_ll_usb.c **** 
1483:Drivers/STM32F4xx_HAL_Driver/Src/stm32f4xx_ll_usb.c **** /**
1484:Drivers/STM32F4xx_HAL_Driver/Src/stm32f4xx_ll_usb.c ****   * @brief  USB_OTG_ResetPort : Reset Host Port
1485:Drivers/STM32F4xx_HAL_Driver/Src/stm32f4xx_ll_usb.c ****   * @param  USBx  Selected device
1486:Drivers/STM32F4xx_HAL_Driver/Src/stm32f4xx_ll_usb.c ****   * @retval HAL status
1487:Drivers/STM32F4xx_HAL_Driver/Src/stm32f4xx_ll_usb.c ****   * @note (1)The application must wait at least 10 ms
1488:Drivers/STM32F4xx_HAL_Driver/Src/stm32f4xx_ll_usb.c ****   *   before clearing the reset bit.
1489:Drivers/STM32F4xx_HAL_Driver/Src/stm32f4xx_ll_usb.c ****   */
1490:Drivers/STM32F4xx_HAL_Driver/Src/stm32f4xx_ll_usb.c **** HAL_StatusTypeDef USB_ResetPort(USB_OTG_GlobalTypeDef *USBx)
1491:Drivers/STM32F4xx_HAL_Driver/Src/stm32f4xx_ll_usb.c **** {
 3352              		.loc 1 1491 1 is_stmt 1 view -0
 3353              		.cfi_startproc
 3354              		@ args = 0, pretend = 0, frame = 8
 3355              		@ frame_needed = 0, uses_anonymous_args = 0
 3356              		.loc 1 1491 1 is_stmt 0 view .LVU1071
 3357 0000 30B5     		push	{r4, r5, lr}
 3358              	.LCFI30:
 3359              		.cfi_def_cfa_offset 12
 3360              		.cfi_offset 4, -12
 3361              		.cfi_offset 5, -8
 3362              		.cfi_offset 14, -4
 3363 0002 83B0     		sub	sp, sp, #12
ARM GAS  C:\Users\7636~1\AppData\Local\Temp\ccnv92VB.s 			page 103


 3364              	.LCFI31:
 3365              		.cfi_def_cfa_offset 24
 3366 0004 0446     		mov	r4, r0
1492:Drivers/STM32F4xx_HAL_Driver/Src/stm32f4xx_ll_usb.c ****   uint32_t USBx_BASE = (uint32_t)USBx;
 3367              		.loc 1 1492 3 is_stmt 1 view .LVU1072
 3368              	.LVL295:
1493:Drivers/STM32F4xx_HAL_Driver/Src/stm32f4xx_ll_usb.c **** 
1494:Drivers/STM32F4xx_HAL_Driver/Src/stm32f4xx_ll_usb.c ****   __IO uint32_t hprt0 = 0U;
 3369              		.loc 1 1494 3 view .LVU1073
 3370              		.loc 1 1494 17 is_stmt 0 view .LVU1074
 3371 0006 0025     		movs	r5, #0
 3372 0008 0195     		str	r5, [sp, #4]
1495:Drivers/STM32F4xx_HAL_Driver/Src/stm32f4xx_ll_usb.c **** 
1496:Drivers/STM32F4xx_HAL_Driver/Src/stm32f4xx_ll_usb.c ****   hprt0 = USBx_HPRT0;
 3373              		.loc 1 1496 3 is_stmt 1 view .LVU1075
 3374              		.loc 1 1496 11 is_stmt 0 view .LVU1076
 3375 000a D0F84034 		ldr	r3, [r0, #1088]
 3376              		.loc 1 1496 9 view .LVU1077
 3377 000e 0193     		str	r3, [sp, #4]
1497:Drivers/STM32F4xx_HAL_Driver/Src/stm32f4xx_ll_usb.c **** 
1498:Drivers/STM32F4xx_HAL_Driver/Src/stm32f4xx_ll_usb.c ****   hprt0 &= ~(USB_OTG_HPRT_PENA | USB_OTG_HPRT_PCDET |
 3378              		.loc 1 1498 3 is_stmt 1 view .LVU1078
 3379              		.loc 1 1498 9 is_stmt 0 view .LVU1079
 3380 0010 019B     		ldr	r3, [sp, #4]
 3381 0012 23F02E03 		bic	r3, r3, #46
 3382 0016 0193     		str	r3, [sp, #4]
1499:Drivers/STM32F4xx_HAL_Driver/Src/stm32f4xx_ll_usb.c ****              USB_OTG_HPRT_PENCHNG | USB_OTG_HPRT_POCCHNG);
1500:Drivers/STM32F4xx_HAL_Driver/Src/stm32f4xx_ll_usb.c **** 
1501:Drivers/STM32F4xx_HAL_Driver/Src/stm32f4xx_ll_usb.c ****   USBx_HPRT0 = (USB_OTG_HPRT_PRST | hprt0);
 3383              		.loc 1 1501 3 is_stmt 1 view .LVU1080
 3384              		.loc 1 1501 35 is_stmt 0 view .LVU1081
 3385 0018 019B     		ldr	r3, [sp, #4]
 3386 001a 43F48073 		orr	r3, r3, #256
 3387              		.loc 1 1501 14 view .LVU1082
 3388 001e C0F84034 		str	r3, [r0, #1088]
1502:Drivers/STM32F4xx_HAL_Driver/Src/stm32f4xx_ll_usb.c ****   HAL_Delay(100U);                                 /* See Note #1 */
 3389              		.loc 1 1502 3 is_stmt 1 view .LVU1083
 3390 0022 6420     		movs	r0, #100
 3391              	.LVL296:
 3392              		.loc 1 1502 3 is_stmt 0 view .LVU1084
 3393 0024 FFF7FEFF 		bl	HAL_Delay
 3394              	.LVL297:
1503:Drivers/STM32F4xx_HAL_Driver/Src/stm32f4xx_ll_usb.c ****   USBx_HPRT0 = ((~USB_OTG_HPRT_PRST) & hprt0);
 3395              		.loc 1 1503 3 is_stmt 1 view .LVU1085
 3396              		.loc 1 1503 38 is_stmt 0 view .LVU1086
 3397 0028 019B     		ldr	r3, [sp, #4]
 3398 002a 23F48073 		bic	r3, r3, #256
 3399              		.loc 1 1503 14 view .LVU1087
 3400 002e C4F84034 		str	r3, [r4, #1088]
1504:Drivers/STM32F4xx_HAL_Driver/Src/stm32f4xx_ll_usb.c ****   HAL_Delay(10U);
 3401              		.loc 1 1504 3 is_stmt 1 view .LVU1088
 3402 0032 0A20     		movs	r0, #10
 3403 0034 FFF7FEFF 		bl	HAL_Delay
 3404              	.LVL298:
1505:Drivers/STM32F4xx_HAL_Driver/Src/stm32f4xx_ll_usb.c **** 
1506:Drivers/STM32F4xx_HAL_Driver/Src/stm32f4xx_ll_usb.c ****   return HAL_OK;
 3405              		.loc 1 1506 3 view .LVU1089
ARM GAS  C:\Users\7636~1\AppData\Local\Temp\ccnv92VB.s 			page 104


1507:Drivers/STM32F4xx_HAL_Driver/Src/stm32f4xx_ll_usb.c **** }
 3406              		.loc 1 1507 1 is_stmt 0 view .LVU1090
 3407 0038 2846     		mov	r0, r5
 3408 003a 03B0     		add	sp, sp, #12
 3409              	.LCFI32:
 3410              		.cfi_def_cfa_offset 12
 3411              		@ sp needed
 3412 003c 30BD     		pop	{r4, r5, pc}
 3413              		.loc 1 1507 1 view .LVU1091
 3414              		.cfi_endproc
 3415              	.LFE252:
 3417              		.section	.text.USB_DriveVbus,"ax",%progbits
 3418              		.align	1
 3419              		.global	USB_DriveVbus
 3420              		.syntax unified
 3421              		.thumb
 3422              		.thumb_func
 3424              	USB_DriveVbus:
 3425              	.LVL299:
 3426              	.LFB253:
1508:Drivers/STM32F4xx_HAL_Driver/Src/stm32f4xx_ll_usb.c **** 
1509:Drivers/STM32F4xx_HAL_Driver/Src/stm32f4xx_ll_usb.c **** /**
1510:Drivers/STM32F4xx_HAL_Driver/Src/stm32f4xx_ll_usb.c ****   * @brief  USB_DriveVbus : activate or de-activate vbus
1511:Drivers/STM32F4xx_HAL_Driver/Src/stm32f4xx_ll_usb.c ****   * @param  state  VBUS state
1512:Drivers/STM32F4xx_HAL_Driver/Src/stm32f4xx_ll_usb.c ****   *          This parameter can be one of these values:
1513:Drivers/STM32F4xx_HAL_Driver/Src/stm32f4xx_ll_usb.c ****   *           0 : Deactivate VBUS
1514:Drivers/STM32F4xx_HAL_Driver/Src/stm32f4xx_ll_usb.c ****   *           1 : Activate VBUS
1515:Drivers/STM32F4xx_HAL_Driver/Src/stm32f4xx_ll_usb.c ****   * @retval HAL status
1516:Drivers/STM32F4xx_HAL_Driver/Src/stm32f4xx_ll_usb.c ****   */
1517:Drivers/STM32F4xx_HAL_Driver/Src/stm32f4xx_ll_usb.c **** HAL_StatusTypeDef USB_DriveVbus(USB_OTG_GlobalTypeDef *USBx, uint8_t state)
1518:Drivers/STM32F4xx_HAL_Driver/Src/stm32f4xx_ll_usb.c **** {
 3427              		.loc 1 1518 1 is_stmt 1 view -0
 3428              		.cfi_startproc
 3429              		@ args = 0, pretend = 0, frame = 8
 3430              		@ frame_needed = 0, uses_anonymous_args = 0
 3431              		@ link register save eliminated.
 3432              		.loc 1 1518 1 is_stmt 0 view .LVU1093
 3433 0000 82B0     		sub	sp, sp, #8
 3434              	.LCFI33:
 3435              		.cfi_def_cfa_offset 8
1519:Drivers/STM32F4xx_HAL_Driver/Src/stm32f4xx_ll_usb.c ****   uint32_t USBx_BASE = (uint32_t)USBx;
 3436              		.loc 1 1519 3 is_stmt 1 view .LVU1094
 3437              	.LVL300:
1520:Drivers/STM32F4xx_HAL_Driver/Src/stm32f4xx_ll_usb.c ****   __IO uint32_t hprt0 = 0U;
 3438              		.loc 1 1520 3 view .LVU1095
 3439              		.loc 1 1520 17 is_stmt 0 view .LVU1096
 3440 0002 0023     		movs	r3, #0
 3441 0004 0193     		str	r3, [sp, #4]
1521:Drivers/STM32F4xx_HAL_Driver/Src/stm32f4xx_ll_usb.c **** 
1522:Drivers/STM32F4xx_HAL_Driver/Src/stm32f4xx_ll_usb.c ****   hprt0 = USBx_HPRT0;
 3442              		.loc 1 1522 3 is_stmt 1 view .LVU1097
 3443              		.loc 1 1522 11 is_stmt 0 view .LVU1098
 3444 0006 D0F84034 		ldr	r3, [r0, #1088]
 3445              		.loc 1 1522 9 view .LVU1099
 3446 000a 0193     		str	r3, [sp, #4]
1523:Drivers/STM32F4xx_HAL_Driver/Src/stm32f4xx_ll_usb.c **** 
1524:Drivers/STM32F4xx_HAL_Driver/Src/stm32f4xx_ll_usb.c ****   hprt0 &= ~(USB_OTG_HPRT_PENA | USB_OTG_HPRT_PCDET |
ARM GAS  C:\Users\7636~1\AppData\Local\Temp\ccnv92VB.s 			page 105


 3447              		.loc 1 1524 3 is_stmt 1 view .LVU1100
 3448              		.loc 1 1524 9 is_stmt 0 view .LVU1101
 3449 000c 019B     		ldr	r3, [sp, #4]
 3450 000e 23F02E03 		bic	r3, r3, #46
 3451 0012 0193     		str	r3, [sp, #4]
1525:Drivers/STM32F4xx_HAL_Driver/Src/stm32f4xx_ll_usb.c ****              USB_OTG_HPRT_PENCHNG | USB_OTG_HPRT_POCCHNG);
1526:Drivers/STM32F4xx_HAL_Driver/Src/stm32f4xx_ll_usb.c **** 
1527:Drivers/STM32F4xx_HAL_Driver/Src/stm32f4xx_ll_usb.c ****   if (((hprt0 & USB_OTG_HPRT_PPWR) == 0U) && (state == 1U))
 3452              		.loc 1 1527 3 is_stmt 1 view .LVU1102
 3453              		.loc 1 1527 15 is_stmt 0 view .LVU1103
 3454 0014 019B     		ldr	r3, [sp, #4]
 3455              		.loc 1 1527 6 view .LVU1104
 3456 0016 13F4805F 		tst	r3, #4096
 3457 001a 01D1     		bne	.L217
 3458              		.loc 1 1527 43 discriminator 1 view .LVU1105
 3459 001c 0129     		cmp	r1, #1
 3460 001e 0CD0     		beq	.L220
 3461              	.L217:
1528:Drivers/STM32F4xx_HAL_Driver/Src/stm32f4xx_ll_usb.c ****   {
1529:Drivers/STM32F4xx_HAL_Driver/Src/stm32f4xx_ll_usb.c ****     USBx_HPRT0 = (USB_OTG_HPRT_PPWR | hprt0);
1530:Drivers/STM32F4xx_HAL_Driver/Src/stm32f4xx_ll_usb.c ****   }
1531:Drivers/STM32F4xx_HAL_Driver/Src/stm32f4xx_ll_usb.c ****   if (((hprt0 & USB_OTG_HPRT_PPWR) == USB_OTG_HPRT_PPWR) && (state == 0U))
 3462              		.loc 1 1531 3 is_stmt 1 view .LVU1106
 3463              		.loc 1 1531 15 is_stmt 0 view .LVU1107
 3464 0020 019B     		ldr	r3, [sp, #4]
 3465              		.loc 1 1531 6 view .LVU1108
 3466 0022 13F4805F 		tst	r3, #4096
 3467 0026 05D0     		beq	.L218
 3468              		.loc 1 1531 58 discriminator 1 view .LVU1109
 3469 0028 21B9     		cbnz	r1, .L218
1532:Drivers/STM32F4xx_HAL_Driver/Src/stm32f4xx_ll_usb.c ****   {
1533:Drivers/STM32F4xx_HAL_Driver/Src/stm32f4xx_ll_usb.c ****     USBx_HPRT0 = ((~USB_OTG_HPRT_PPWR) & hprt0);
 3470              		.loc 1 1533 5 is_stmt 1 view .LVU1110
 3471              		.loc 1 1533 40 is_stmt 0 view .LVU1111
 3472 002a 019B     		ldr	r3, [sp, #4]
 3473 002c 23F48053 		bic	r3, r3, #4096
 3474              		.loc 1 1533 16 view .LVU1112
 3475 0030 C0F84034 		str	r3, [r0, #1088]
 3476              	.L218:
1534:Drivers/STM32F4xx_HAL_Driver/Src/stm32f4xx_ll_usb.c ****   }
1535:Drivers/STM32F4xx_HAL_Driver/Src/stm32f4xx_ll_usb.c ****   return HAL_OK;
 3477              		.loc 1 1535 3 is_stmt 1 view .LVU1113
1536:Drivers/STM32F4xx_HAL_Driver/Src/stm32f4xx_ll_usb.c **** }
 3478              		.loc 1 1536 1 is_stmt 0 view .LVU1114
 3479 0034 0020     		movs	r0, #0
 3480              	.LVL301:
 3481              		.loc 1 1536 1 view .LVU1115
 3482 0036 02B0     		add	sp, sp, #8
 3483              	.LCFI34:
 3484              		.cfi_remember_state
 3485              		.cfi_def_cfa_offset 0
 3486              		@ sp needed
 3487 0038 7047     		bx	lr
 3488              	.LVL302:
 3489              	.L220:
 3490              	.LCFI35:
 3491              		.cfi_restore_state
ARM GAS  C:\Users\7636~1\AppData\Local\Temp\ccnv92VB.s 			page 106


1529:Drivers/STM32F4xx_HAL_Driver/Src/stm32f4xx_ll_usb.c ****   }
 3492              		.loc 1 1529 5 is_stmt 1 view .LVU1116
1529:Drivers/STM32F4xx_HAL_Driver/Src/stm32f4xx_ll_usb.c ****   }
 3493              		.loc 1 1529 37 is_stmt 0 view .LVU1117
 3494 003a 019B     		ldr	r3, [sp, #4]
 3495 003c 43F48053 		orr	r3, r3, #4096
1529:Drivers/STM32F4xx_HAL_Driver/Src/stm32f4xx_ll_usb.c ****   }
 3496              		.loc 1 1529 16 view .LVU1118
 3497 0040 C0F84034 		str	r3, [r0, #1088]
 3498 0044 ECE7     		b	.L217
 3499              		.cfi_endproc
 3500              	.LFE253:
 3502              		.section	.text.USB_HostInit,"ax",%progbits
 3503              		.align	1
 3504              		.global	USB_HostInit
 3505              		.syntax unified
 3506              		.thumb
 3507              		.thumb_func
 3509              	USB_HostInit:
 3510              	.LVL303:
 3511              	.LFB250:
1356:Drivers/STM32F4xx_HAL_Driver/Src/stm32f4xx_ll_usb.c ****   uint32_t USBx_BASE = (uint32_t)USBx;
 3512              		.loc 1 1356 1 is_stmt 1 view -0
 3513              		.cfi_startproc
 3514              		@ args = 56, pretend = 16, frame = 0
 3515              		@ frame_needed = 0, uses_anonymous_args = 0
1356:Drivers/STM32F4xx_HAL_Driver/Src/stm32f4xx_ll_usb.c ****   uint32_t USBx_BASE = (uint32_t)USBx;
 3516              		.loc 1 1356 1 is_stmt 0 view .LVU1120
 3517 0000 84B0     		sub	sp, sp, #16
 3518              	.LCFI36:
 3519              		.cfi_def_cfa_offset 16
 3520 0002 10B5     		push	{r4, lr}
 3521              	.LCFI37:
 3522              		.cfi_def_cfa_offset 24
 3523              		.cfi_offset 4, -24
 3524              		.cfi_offset 14, -20
 3525 0004 0446     		mov	r4, r0
 3526 0006 03A8     		add	r0, sp, #12
 3527 0008 80E80E00 		stm	r0, {r1, r2, r3}
1357:Drivers/STM32F4xx_HAL_Driver/Src/stm32f4xx_ll_usb.c ****   uint32_t i;
 3528              		.loc 1 1357 3 is_stmt 1 view .LVU1121
 3529              	.LVL304:
1358:Drivers/STM32F4xx_HAL_Driver/Src/stm32f4xx_ll_usb.c **** 
 3530              		.loc 1 1358 3 view .LVU1122
1361:Drivers/STM32F4xx_HAL_Driver/Src/stm32f4xx_ll_usb.c **** 
 3531              		.loc 1 1361 3 view .LVU1123
1361:Drivers/STM32F4xx_HAL_Driver/Src/stm32f4xx_ll_usb.c **** 
 3532              		.loc 1 1361 16 is_stmt 0 view .LVU1124
 3533 000c 0023     		movs	r3, #0
 3534 000e C4F8003E 		str	r3, [r4, #3584]
1371:Drivers/STM32F4xx_HAL_Driver/Src/stm32f4xx_ll_usb.c ****   USBx->GCCFG &= ~USB_OTG_GCCFG_VBUSBSEN;
 3535              		.loc 1 1371 3 is_stmt 1 view .LVU1125
1371:Drivers/STM32F4xx_HAL_Driver/Src/stm32f4xx_ll_usb.c ****   USBx->GCCFG &= ~USB_OTG_GCCFG_VBUSBSEN;
 3536              		.loc 1 1371 15 is_stmt 0 view .LVU1126
 3537 0012 A36B     		ldr	r3, [r4, #56]
 3538 0014 43F40013 		orr	r3, r3, #2097152
 3539 0018 A363     		str	r3, [r4, #56]
ARM GAS  C:\Users\7636~1\AppData\Local\Temp\ccnv92VB.s 			page 107


1372:Drivers/STM32F4xx_HAL_Driver/Src/stm32f4xx_ll_usb.c ****   USBx->GCCFG &= ~USB_OTG_GCCFG_VBUSASEN;
 3540              		.loc 1 1372 3 is_stmt 1 view .LVU1127
1372:Drivers/STM32F4xx_HAL_Driver/Src/stm32f4xx_ll_usb.c ****   USBx->GCCFG &= ~USB_OTG_GCCFG_VBUSASEN;
 3541              		.loc 1 1372 15 is_stmt 0 view .LVU1128
 3542 001a A36B     		ldr	r3, [r4, #56]
 3543 001c 23F40023 		bic	r3, r3, #524288
 3544 0020 A363     		str	r3, [r4, #56]
1373:Drivers/STM32F4xx_HAL_Driver/Src/stm32f4xx_ll_usb.c **** #endif /* defined(STM32F446xx) || defined(STM32F469xx) || defined(STM32F479xx) || defined(STM32F412
 3545              		.loc 1 1373 3 is_stmt 1 view .LVU1129
1373:Drivers/STM32F4xx_HAL_Driver/Src/stm32f4xx_ll_usb.c **** #endif /* defined(STM32F446xx) || defined(STM32F469xx) || defined(STM32F479xx) || defined(STM32F412
 3546              		.loc 1 1373 15 is_stmt 0 view .LVU1130
 3547 0022 A36B     		ldr	r3, [r4, #56]
 3548 0024 23F48023 		bic	r3, r3, #262144
 3549 0028 A363     		str	r3, [r4, #56]
1380:Drivers/STM32F4xx_HAL_Driver/Src/stm32f4xx_ll_usb.c ****   {
 3550              		.loc 1 1380 3 is_stmt 1 view .LVU1131
1380:Drivers/STM32F4xx_HAL_Driver/Src/stm32f4xx_ll_usb.c ****   {
 3551              		.loc 1 1380 12 is_stmt 0 view .LVU1132
 3552 002a E36B     		ldr	r3, [r4, #60]
1380:Drivers/STM32F4xx_HAL_Driver/Src/stm32f4xx_ll_usb.c ****   {
 3553              		.loc 1 1380 6 view .LVU1133
 3554 002c 13F4807F 		tst	r3, #256
 3555 0030 10D0     		beq	.L222
1382:Drivers/STM32F4xx_HAL_Driver/Src/stm32f4xx_ll_usb.c ****     {
 3556              		.loc 1 1382 5 is_stmt 1 view .LVU1134
1382:Drivers/STM32F4xx_HAL_Driver/Src/stm32f4xx_ll_usb.c ****     {
 3557              		.loc 1 1382 12 is_stmt 0 view .LVU1135
 3558 0032 059B     		ldr	r3, [sp, #20]
1382:Drivers/STM32F4xx_HAL_Driver/Src/stm32f4xx_ll_usb.c ****     {
 3559              		.loc 1 1382 8 view .LVU1136
 3560 0034 012B     		cmp	r3, #1
 3561 0036 06D0     		beq	.L231
1390:Drivers/STM32F4xx_HAL_Driver/Src/stm32f4xx_ll_usb.c ****     }
 3562              		.loc 1 1390 7 is_stmt 1 view .LVU1137
1390:Drivers/STM32F4xx_HAL_Driver/Src/stm32f4xx_ll_usb.c ****     }
 3563              		.loc 1 1390 23 is_stmt 0 view .LVU1138
 3564 0038 D4F80034 		ldr	r3, [r4, #1024]
 3565 003c 23F00403 		bic	r3, r3, #4
 3566 0040 C4F80034 		str	r3, [r4, #1024]
 3567 0044 0CE0     		b	.L224
 3568              	.L231:
1385:Drivers/STM32F4xx_HAL_Driver/Src/stm32f4xx_ll_usb.c ****     }
 3569              		.loc 1 1385 7 is_stmt 1 view .LVU1139
1385:Drivers/STM32F4xx_HAL_Driver/Src/stm32f4xx_ll_usb.c ****     }
 3570              		.loc 1 1385 23 is_stmt 0 view .LVU1140
 3571 0046 D4F80034 		ldr	r3, [r4, #1024]
 3572 004a 43F00403 		orr	r3, r3, #4
 3573 004e C4F80034 		str	r3, [r4, #1024]
 3574 0052 05E0     		b	.L224
 3575              	.L222:
1396:Drivers/STM32F4xx_HAL_Driver/Src/stm32f4xx_ll_usb.c ****   }
 3576              		.loc 1 1396 5 is_stmt 1 view .LVU1141
1396:Drivers/STM32F4xx_HAL_Driver/Src/stm32f4xx_ll_usb.c ****   }
 3577              		.loc 1 1396 21 is_stmt 0 view .LVU1142
 3578 0054 D4F80034 		ldr	r3, [r4, #1024]
 3579 0058 23F00403 		bic	r3, r3, #4
 3580 005c C4F80034 		str	r3, [r4, #1024]
ARM GAS  C:\Users\7636~1\AppData\Local\Temp\ccnv92VB.s 			page 108


 3581              	.L224:
1400:Drivers/STM32F4xx_HAL_Driver/Src/stm32f4xx_ll_usb.c ****   (void)USB_FlushRxFifo(USBx);
 3582              		.loc 1 1400 3 is_stmt 1 view .LVU1143
1400:Drivers/STM32F4xx_HAL_Driver/Src/stm32f4xx_ll_usb.c ****   (void)USB_FlushRxFifo(USBx);
 3583              		.loc 1 1400 9 is_stmt 0 view .LVU1144
 3584 0060 1021     		movs	r1, #16
 3585 0062 2046     		mov	r0, r4
 3586              	.LVL305:
1400:Drivers/STM32F4xx_HAL_Driver/Src/stm32f4xx_ll_usb.c ****   (void)USB_FlushRxFifo(USBx);
 3587              		.loc 1 1400 9 view .LVU1145
 3588 0064 FFF7FEFF 		bl	USB_FlushTxFifo
 3589              	.LVL306:
1401:Drivers/STM32F4xx_HAL_Driver/Src/stm32f4xx_ll_usb.c **** 
 3590              		.loc 1 1401 3 is_stmt 1 view .LVU1146
1401:Drivers/STM32F4xx_HAL_Driver/Src/stm32f4xx_ll_usb.c **** 
 3591              		.loc 1 1401 9 is_stmt 0 view .LVU1147
 3592 0068 2046     		mov	r0, r4
 3593 006a FFF7FEFF 		bl	USB_FlushRxFifo
 3594              	.LVL307:
1404:Drivers/STM32F4xx_HAL_Driver/Src/stm32f4xx_ll_usb.c ****   {
 3595              		.loc 1 1404 3 is_stmt 1 view .LVU1148
1404:Drivers/STM32F4xx_HAL_Driver/Src/stm32f4xx_ll_usb.c ****   {
 3596              		.loc 1 1404 10 is_stmt 0 view .LVU1149
 3597 006e 0022     		movs	r2, #0
1404:Drivers/STM32F4xx_HAL_Driver/Src/stm32f4xx_ll_usb.c ****   {
 3598              		.loc 1 1404 3 view .LVU1150
 3599 0070 09E0     		b	.L225
 3600              	.LVL308:
 3601              	.L226:
1406:Drivers/STM32F4xx_HAL_Driver/Src/stm32f4xx_ll_usb.c ****     USBx_HC(i)->HCINTMSK = 0U;
 3602              		.loc 1 1406 5 is_stmt 1 discriminator 3 view .LVU1151
 3603 0072 04EB4213 		add	r3, r4, r2, lsl #5
1406:Drivers/STM32F4xx_HAL_Driver/Src/stm32f4xx_ll_usb.c ****     USBx_HC(i)->HCINTMSK = 0U;
 3604              		.loc 1 1406 23 is_stmt 0 discriminator 3 view .LVU1152
 3605 0076 4FF0FF31 		mov	r1, #-1
 3606 007a C3F80815 		str	r1, [r3, #1288]
1407:Drivers/STM32F4xx_HAL_Driver/Src/stm32f4xx_ll_usb.c ****   }
 3607              		.loc 1 1407 5 is_stmt 1 discriminator 3 view .LVU1153
1407:Drivers/STM32F4xx_HAL_Driver/Src/stm32f4xx_ll_usb.c ****   }
 3608              		.loc 1 1407 26 is_stmt 0 discriminator 3 view .LVU1154
 3609 007e 0021     		movs	r1, #0
 3610 0080 C3F80C15 		str	r1, [r3, #1292]
1404:Drivers/STM32F4xx_HAL_Driver/Src/stm32f4xx_ll_usb.c ****   {
 3611              		.loc 1 1404 39 is_stmt 1 discriminator 3 view .LVU1155
1404:Drivers/STM32F4xx_HAL_Driver/Src/stm32f4xx_ll_usb.c ****   {
 3612              		.loc 1 1404 40 is_stmt 0 discriminator 3 view .LVU1156
 3613 0084 0132     		adds	r2, r2, #1
 3614              	.LVL309:
 3615              	.L225:
1404:Drivers/STM32F4xx_HAL_Driver/Src/stm32f4xx_ll_usb.c ****   {
 3616              		.loc 1 1404 16 is_stmt 1 discriminator 1 view .LVU1157
1404:Drivers/STM32F4xx_HAL_Driver/Src/stm32f4xx_ll_usb.c ****   {
 3617              		.loc 1 1404 23 is_stmt 0 discriminator 1 view .LVU1158
 3618 0086 049B     		ldr	r3, [sp, #16]
1404:Drivers/STM32F4xx_HAL_Driver/Src/stm32f4xx_ll_usb.c ****   {
 3619              		.loc 1 1404 3 discriminator 1 view .LVU1159
 3620 0088 9342     		cmp	r3, r2
ARM GAS  C:\Users\7636~1\AppData\Local\Temp\ccnv92VB.s 			page 109


 3621 008a F2D8     		bhi	.L226
1411:Drivers/STM32F4xx_HAL_Driver/Src/stm32f4xx_ll_usb.c **** 
 3622              		.loc 1 1411 3 is_stmt 1 view .LVU1160
1411:Drivers/STM32F4xx_HAL_Driver/Src/stm32f4xx_ll_usb.c **** 
 3623              		.loc 1 1411 9 is_stmt 0 view .LVU1161
 3624 008c 0121     		movs	r1, #1
 3625 008e 2046     		mov	r0, r4
 3626 0090 FFF7FEFF 		bl	USB_DriveVbus
 3627              	.LVL310:
1413:Drivers/STM32F4xx_HAL_Driver/Src/stm32f4xx_ll_usb.c **** 
 3628              		.loc 1 1413 3 is_stmt 1 view .LVU1162
 3629 0094 C820     		movs	r0, #200
 3630 0096 FFF7FEFF 		bl	HAL_Delay
 3631              	.LVL311:
1416:Drivers/STM32F4xx_HAL_Driver/Src/stm32f4xx_ll_usb.c **** 
 3632              		.loc 1 1416 3 view .LVU1163
1416:Drivers/STM32F4xx_HAL_Driver/Src/stm32f4xx_ll_usb.c **** 
 3633              		.loc 1 1416 17 is_stmt 0 view .LVU1164
 3634 009a 0023     		movs	r3, #0
 3635 009c A361     		str	r3, [r4, #24]
1419:Drivers/STM32F4xx_HAL_Driver/Src/stm32f4xx_ll_usb.c **** 
 3636              		.loc 1 1419 3 is_stmt 1 view .LVU1165
1419:Drivers/STM32F4xx_HAL_Driver/Src/stm32f4xx_ll_usb.c **** 
 3637              		.loc 1 1419 17 is_stmt 0 view .LVU1166
 3638 009e 4FF0FF33 		mov	r3, #-1
 3639 00a2 6361     		str	r3, [r4, #20]
1421:Drivers/STM32F4xx_HAL_Driver/Src/stm32f4xx_ll_usb.c ****   {
 3640              		.loc 1 1421 3 is_stmt 1 view .LVU1167
1421:Drivers/STM32F4xx_HAL_Driver/Src/stm32f4xx_ll_usb.c ****   {
 3641              		.loc 1 1421 12 is_stmt 0 view .LVU1168
 3642 00a4 E36B     		ldr	r3, [r4, #60]
1421:Drivers/STM32F4xx_HAL_Driver/Src/stm32f4xx_ll_usb.c ****   {
 3643              		.loc 1 1421 6 view .LVU1169
 3644 00a6 13F4807F 		tst	r3, #256
 3645 00aa 17D0     		beq	.L227
1424:Drivers/STM32F4xx_HAL_Driver/Src/stm32f4xx_ll_usb.c ****     USBx->DIEPTXF0_HNPTXFSIZ = (uint32_t)(((0x100U << 16) & USB_OTG_NPTXFD) | 0x200U);
 3646              		.loc 1 1424 5 is_stmt 1 view .LVU1170
1424:Drivers/STM32F4xx_HAL_Driver/Src/stm32f4xx_ll_usb.c ****     USBx->DIEPTXF0_HNPTXFSIZ = (uint32_t)(((0x100U << 16) & USB_OTG_NPTXFD) | 0x200U);
 3647              		.loc 1 1424 20 is_stmt 0 view .LVU1171
 3648 00ac 4FF40073 		mov	r3, #512
 3649 00b0 6362     		str	r3, [r4, #36]
1425:Drivers/STM32F4xx_HAL_Driver/Src/stm32f4xx_ll_usb.c ****     USBx->HPTXFSIZ = (uint32_t)(((0xE0U << 16) & USB_OTG_HPTXFSIZ_PTXFD) | 0x300U);
 3650              		.loc 1 1425 5 is_stmt 1 view .LVU1172
1425:Drivers/STM32F4xx_HAL_Driver/Src/stm32f4xx_ll_usb.c ****     USBx->HPTXFSIZ = (uint32_t)(((0xE0U << 16) & USB_OTG_HPTXFSIZ_PTXFD) | 0x300U);
 3651              		.loc 1 1425 30 is_stmt 0 view .LVU1173
 3652 00b2 03F18073 		add	r3, r3, #16777216
 3653 00b6 A362     		str	r3, [r4, #40]
1426:Drivers/STM32F4xx_HAL_Driver/Src/stm32f4xx_ll_usb.c ****   }
 3654              		.loc 1 1426 5 is_stmt 1 view .LVU1174
1426:Drivers/STM32F4xx_HAL_Driver/Src/stm32f4xx_ll_usb.c ****   }
 3655              		.loc 1 1426 20 is_stmt 0 view .LVU1175
 3656 00b8 0D4B     		ldr	r3, .L232
 3657 00ba C4F80031 		str	r3, [r4, #256]
 3658              	.L228:
1437:Drivers/STM32F4xx_HAL_Driver/Src/stm32f4xx_ll_usb.c ****   {
 3659              		.loc 1 1437 3 is_stmt 1 view .LVU1176
1437:Drivers/STM32F4xx_HAL_Driver/Src/stm32f4xx_ll_usb.c ****   {
ARM GAS  C:\Users\7636~1\AppData\Local\Temp\ccnv92VB.s 			page 110


 3660              		.loc 1 1437 10 is_stmt 0 view .LVU1177
 3661 00be 069B     		ldr	r3, [sp, #24]
1437:Drivers/STM32F4xx_HAL_Driver/Src/stm32f4xx_ll_usb.c ****   {
 3662              		.loc 1 1437 6 view .LVU1178
 3663 00c0 1BB9     		cbnz	r3, .L229
1439:Drivers/STM32F4xx_HAL_Driver/Src/stm32f4xx_ll_usb.c ****   }
 3664              		.loc 1 1439 5 is_stmt 1 view .LVU1179
1439:Drivers/STM32F4xx_HAL_Driver/Src/stm32f4xx_ll_usb.c ****   }
 3665              		.loc 1 1439 19 is_stmt 0 view .LVU1180
 3666 00c2 A369     		ldr	r3, [r4, #24]
 3667 00c4 43F01003 		orr	r3, r3, #16
 3668 00c8 A361     		str	r3, [r4, #24]
 3669              	.L229:
1443:Drivers/STM32F4xx_HAL_Driver/Src/stm32f4xx_ll_usb.c ****                     USB_OTG_GINTMSK_SOFM             | USB_OTG_GINTSTS_DISCINT | \
 3670              		.loc 1 1443 3 is_stmt 1 view .LVU1181
1443:Drivers/STM32F4xx_HAL_Driver/Src/stm32f4xx_ll_usb.c ****                     USB_OTG_GINTMSK_SOFM             | USB_OTG_GINTSTS_DISCINT | \
 3671              		.loc 1 1443 17 is_stmt 0 view .LVU1182
 3672 00ca A269     		ldr	r2, [r4, #24]
 3673 00cc 094B     		ldr	r3, .L232+4
 3674 00ce 1343     		orrs	r3, r3, r2
 3675 00d0 A361     		str	r3, [r4, #24]
1447:Drivers/STM32F4xx_HAL_Driver/Src/stm32f4xx_ll_usb.c **** }
 3676              		.loc 1 1447 3 is_stmt 1 view .LVU1183
1448:Drivers/STM32F4xx_HAL_Driver/Src/stm32f4xx_ll_usb.c **** 
 3677              		.loc 1 1448 1 is_stmt 0 view .LVU1184
 3678 00d2 0020     		movs	r0, #0
 3679 00d4 BDE81040 		pop	{r4, lr}
 3680              	.LCFI38:
 3681              		.cfi_remember_state
 3682              		.cfi_restore 14
 3683              		.cfi_restore 4
 3684              		.cfi_def_cfa_offset 16
 3685              	.LVL312:
1448:Drivers/STM32F4xx_HAL_Driver/Src/stm32f4xx_ll_usb.c **** 
 3686              		.loc 1 1448 1 view .LVU1185
 3687 00d8 04B0     		add	sp, sp, #16
 3688              	.LCFI39:
 3689              		.cfi_def_cfa_offset 0
 3690 00da 7047     		bx	lr
 3691              	.LVL313:
 3692              	.L227:
 3693              	.LCFI40:
 3694              		.cfi_restore_state
1431:Drivers/STM32F4xx_HAL_Driver/Src/stm32f4xx_ll_usb.c ****     USBx->DIEPTXF0_HNPTXFSIZ = (uint32_t)(((0x60U << 16) & USB_OTG_NPTXFD) | 0x80U);
 3695              		.loc 1 1431 5 is_stmt 1 view .LVU1186
1431:Drivers/STM32F4xx_HAL_Driver/Src/stm32f4xx_ll_usb.c ****     USBx->DIEPTXF0_HNPTXFSIZ = (uint32_t)(((0x60U << 16) & USB_OTG_NPTXFD) | 0x80U);
 3696              		.loc 1 1431 20 is_stmt 0 view .LVU1187
 3697 00dc 8023     		movs	r3, #128
 3698 00de 6362     		str	r3, [r4, #36]
1432:Drivers/STM32F4xx_HAL_Driver/Src/stm32f4xx_ll_usb.c ****     USBx->HPTXFSIZ = (uint32_t)(((0x40U << 16)& USB_OTG_HPTXFSIZ_PTXFD) | 0xE0U);
 3699              		.loc 1 1432 5 is_stmt 1 view .LVU1188
1432:Drivers/STM32F4xx_HAL_Driver/Src/stm32f4xx_ll_usb.c ****     USBx->HPTXFSIZ = (uint32_t)(((0x40U << 16)& USB_OTG_HPTXFSIZ_PTXFD) | 0xE0U);
 3700              		.loc 1 1432 30 is_stmt 0 view .LVU1189
 3701 00e0 03F5C003 		add	r3, r3, #6291456
 3702 00e4 A362     		str	r3, [r4, #40]
1433:Drivers/STM32F4xx_HAL_Driver/Src/stm32f4xx_ll_usb.c ****   }
 3703              		.loc 1 1433 5 is_stmt 1 view .LVU1190
ARM GAS  C:\Users\7636~1\AppData\Local\Temp\ccnv92VB.s 			page 111


1433:Drivers/STM32F4xx_HAL_Driver/Src/stm32f4xx_ll_usb.c ****   }
 3704              		.loc 1 1433 20 is_stmt 0 view .LVU1191
 3705 00e6 044B     		ldr	r3, .L232+8
 3706 00e8 C4F80031 		str	r3, [r4, #256]
 3707 00ec E7E7     		b	.L228
 3708              	.L233:
 3709 00ee 00BF     		.align	2
 3710              	.L232:
 3711 00f0 0003E000 		.word	14680832
 3712 00f4 080020A3 		.word	-1558183928
 3713 00f8 E0004000 		.word	4194528
 3714              		.cfi_endproc
 3715              	.LFE250:
 3717              		.section	.text.USB_GetHostSpeed,"ax",%progbits
 3718              		.align	1
 3719              		.global	USB_GetHostSpeed
 3720              		.syntax unified
 3721              		.thumb
 3722              		.thumb_func
 3724              	USB_GetHostSpeed:
 3725              	.LVL314:
 3726              	.LFB254:
1537:Drivers/STM32F4xx_HAL_Driver/Src/stm32f4xx_ll_usb.c **** 
1538:Drivers/STM32F4xx_HAL_Driver/Src/stm32f4xx_ll_usb.c **** /**
1539:Drivers/STM32F4xx_HAL_Driver/Src/stm32f4xx_ll_usb.c ****   * @brief  Return Host Core speed
1540:Drivers/STM32F4xx_HAL_Driver/Src/stm32f4xx_ll_usb.c ****   * @param  USBx  Selected device
1541:Drivers/STM32F4xx_HAL_Driver/Src/stm32f4xx_ll_usb.c ****   * @retval speed : Host speed
1542:Drivers/STM32F4xx_HAL_Driver/Src/stm32f4xx_ll_usb.c ****   *          This parameter can be one of these values:
1543:Drivers/STM32F4xx_HAL_Driver/Src/stm32f4xx_ll_usb.c ****   *            @arg HCD_SPEED_HIGH: High speed mode
1544:Drivers/STM32F4xx_HAL_Driver/Src/stm32f4xx_ll_usb.c ****   *            @arg HCD_SPEED_FULL: Full speed mode
1545:Drivers/STM32F4xx_HAL_Driver/Src/stm32f4xx_ll_usb.c ****   *            @arg HCD_SPEED_LOW: Low speed mode
1546:Drivers/STM32F4xx_HAL_Driver/Src/stm32f4xx_ll_usb.c ****   */
1547:Drivers/STM32F4xx_HAL_Driver/Src/stm32f4xx_ll_usb.c **** uint32_t USB_GetHostSpeed(USB_OTG_GlobalTypeDef *USBx)
1548:Drivers/STM32F4xx_HAL_Driver/Src/stm32f4xx_ll_usb.c **** {
 3727              		.loc 1 1548 1 is_stmt 1 view -0
 3728              		.cfi_startproc
 3729              		@ args = 0, pretend = 0, frame = 8
 3730              		@ frame_needed = 0, uses_anonymous_args = 0
 3731              		@ link register save eliminated.
 3732              		.loc 1 1548 1 is_stmt 0 view .LVU1193
 3733 0000 82B0     		sub	sp, sp, #8
 3734              	.LCFI41:
 3735              		.cfi_def_cfa_offset 8
1549:Drivers/STM32F4xx_HAL_Driver/Src/stm32f4xx_ll_usb.c ****   uint32_t USBx_BASE = (uint32_t)USBx;
 3736              		.loc 1 1549 3 is_stmt 1 view .LVU1194
 3737              	.LVL315:
1550:Drivers/STM32F4xx_HAL_Driver/Src/stm32f4xx_ll_usb.c ****   __IO uint32_t hprt0 = 0U;
 3738              		.loc 1 1550 3 view .LVU1195
 3739              		.loc 1 1550 17 is_stmt 0 view .LVU1196
 3740 0002 0023     		movs	r3, #0
 3741 0004 0193     		str	r3, [sp, #4]
1551:Drivers/STM32F4xx_HAL_Driver/Src/stm32f4xx_ll_usb.c **** 
1552:Drivers/STM32F4xx_HAL_Driver/Src/stm32f4xx_ll_usb.c ****   hprt0 = USBx_HPRT0;
 3742              		.loc 1 1552 3 is_stmt 1 view .LVU1197
 3743              		.loc 1 1552 11 is_stmt 0 view .LVU1198
 3744 0006 D0F84034 		ldr	r3, [r0, #1088]
 3745              		.loc 1 1552 9 view .LVU1199
ARM GAS  C:\Users\7636~1\AppData\Local\Temp\ccnv92VB.s 			page 112


 3746 000a 0193     		str	r3, [sp, #4]
1553:Drivers/STM32F4xx_HAL_Driver/Src/stm32f4xx_ll_usb.c ****   return ((hprt0 & USB_OTG_HPRT_PSPD) >> 17);
 3747              		.loc 1 1553 3 is_stmt 1 view .LVU1200
 3748              		.loc 1 1553 39 is_stmt 0 view .LVU1201
 3749 000c 0198     		ldr	r0, [sp, #4]
 3750              	.LVL316:
1554:Drivers/STM32F4xx_HAL_Driver/Src/stm32f4xx_ll_usb.c **** }
 3751              		.loc 1 1554 1 view .LVU1202
 3752 000e C0F34140 		ubfx	r0, r0, #17, #2
 3753 0012 02B0     		add	sp, sp, #8
 3754              	.LCFI42:
 3755              		.cfi_def_cfa_offset 0
 3756              		@ sp needed
 3757 0014 7047     		bx	lr
 3758              		.cfi_endproc
 3759              	.LFE254:
 3761              		.section	.text.USB_GetCurrentFrame,"ax",%progbits
 3762              		.align	1
 3763              		.global	USB_GetCurrentFrame
 3764              		.syntax unified
 3765              		.thumb
 3766              		.thumb_func
 3768              	USB_GetCurrentFrame:
 3769              	.LVL317:
 3770              	.LFB255:
1555:Drivers/STM32F4xx_HAL_Driver/Src/stm32f4xx_ll_usb.c **** 
1556:Drivers/STM32F4xx_HAL_Driver/Src/stm32f4xx_ll_usb.c **** /**
1557:Drivers/STM32F4xx_HAL_Driver/Src/stm32f4xx_ll_usb.c ****   * @brief  Return Host Current Frame number
1558:Drivers/STM32F4xx_HAL_Driver/Src/stm32f4xx_ll_usb.c ****   * @param  USBx  Selected device
1559:Drivers/STM32F4xx_HAL_Driver/Src/stm32f4xx_ll_usb.c ****   * @retval current frame number
1560:Drivers/STM32F4xx_HAL_Driver/Src/stm32f4xx_ll_usb.c ****   */
1561:Drivers/STM32F4xx_HAL_Driver/Src/stm32f4xx_ll_usb.c **** uint32_t USB_GetCurrentFrame(USB_OTG_GlobalTypeDef *USBx)
1562:Drivers/STM32F4xx_HAL_Driver/Src/stm32f4xx_ll_usb.c **** {
 3771              		.loc 1 1562 1 is_stmt 1 view -0
 3772              		.cfi_startproc
 3773              		@ args = 0, pretend = 0, frame = 0
 3774              		@ frame_needed = 0, uses_anonymous_args = 0
 3775              		@ link register save eliminated.
1563:Drivers/STM32F4xx_HAL_Driver/Src/stm32f4xx_ll_usb.c ****   uint32_t USBx_BASE = (uint32_t)USBx;
 3776              		.loc 1 1563 3 view .LVU1204
1564:Drivers/STM32F4xx_HAL_Driver/Src/stm32f4xx_ll_usb.c **** 
1565:Drivers/STM32F4xx_HAL_Driver/Src/stm32f4xx_ll_usb.c ****   return (USBx_HOST->HFNUM & USB_OTG_HFNUM_FRNUM);
 3777              		.loc 1 1565 3 view .LVU1205
 3778              		.loc 1 1565 11 is_stmt 0 view .LVU1206
 3779 0000 00F58060 		add	r0, r0, #1024
 3780              	.LVL318:
 3781              		.loc 1 1565 20 view .LVU1207
 3782 0004 8068     		ldr	r0, [r0, #8]
 3783              	.LVL319:
1566:Drivers/STM32F4xx_HAL_Driver/Src/stm32f4xx_ll_usb.c **** }
 3784              		.loc 1 1566 1 view .LVU1208
 3785 0006 80B2     		uxth	r0, r0
 3786 0008 7047     		bx	lr
 3787              		.cfi_endproc
 3788              	.LFE255:
 3790              		.section	.text.USB_HC_Init,"ax",%progbits
 3791              		.align	1
ARM GAS  C:\Users\7636~1\AppData\Local\Temp\ccnv92VB.s 			page 113


 3792              		.global	USB_HC_Init
 3793              		.syntax unified
 3794              		.thumb
 3795              		.thumb_func
 3797              	USB_HC_Init:
 3798              	.LVL320:
 3799              	.LFB256:
1567:Drivers/STM32F4xx_HAL_Driver/Src/stm32f4xx_ll_usb.c **** 
1568:Drivers/STM32F4xx_HAL_Driver/Src/stm32f4xx_ll_usb.c **** /**
1569:Drivers/STM32F4xx_HAL_Driver/Src/stm32f4xx_ll_usb.c ****   * @brief  Initialize a host channel
1570:Drivers/STM32F4xx_HAL_Driver/Src/stm32f4xx_ll_usb.c ****   * @param  USBx  Selected device
1571:Drivers/STM32F4xx_HAL_Driver/Src/stm32f4xx_ll_usb.c ****   * @param  ch_num  Channel number
1572:Drivers/STM32F4xx_HAL_Driver/Src/stm32f4xx_ll_usb.c ****   *         This parameter can be a value from 1 to 15
1573:Drivers/STM32F4xx_HAL_Driver/Src/stm32f4xx_ll_usb.c ****   * @param  epnum  Endpoint number
1574:Drivers/STM32F4xx_HAL_Driver/Src/stm32f4xx_ll_usb.c ****   *          This parameter can be a value from 1 to 15
1575:Drivers/STM32F4xx_HAL_Driver/Src/stm32f4xx_ll_usb.c ****   * @param  dev_address  Current device address
1576:Drivers/STM32F4xx_HAL_Driver/Src/stm32f4xx_ll_usb.c ****   *          This parameter can be a value from 0 to 255
1577:Drivers/STM32F4xx_HAL_Driver/Src/stm32f4xx_ll_usb.c ****   * @param  speed  Current device speed
1578:Drivers/STM32F4xx_HAL_Driver/Src/stm32f4xx_ll_usb.c ****   *          This parameter can be one of these values:
1579:Drivers/STM32F4xx_HAL_Driver/Src/stm32f4xx_ll_usb.c ****   *            @arg USB_OTG_SPEED_HIGH: High speed mode
1580:Drivers/STM32F4xx_HAL_Driver/Src/stm32f4xx_ll_usb.c ****   *            @arg USB_OTG_SPEED_FULL: Full speed mode
1581:Drivers/STM32F4xx_HAL_Driver/Src/stm32f4xx_ll_usb.c ****   *            @arg USB_OTG_SPEED_LOW: Low speed mode
1582:Drivers/STM32F4xx_HAL_Driver/Src/stm32f4xx_ll_usb.c ****   * @param  ep_type  Endpoint Type
1583:Drivers/STM32F4xx_HAL_Driver/Src/stm32f4xx_ll_usb.c ****   *          This parameter can be one of these values:
1584:Drivers/STM32F4xx_HAL_Driver/Src/stm32f4xx_ll_usb.c ****   *            @arg EP_TYPE_CTRL: Control type
1585:Drivers/STM32F4xx_HAL_Driver/Src/stm32f4xx_ll_usb.c ****   *            @arg EP_TYPE_ISOC: Isochronous type
1586:Drivers/STM32F4xx_HAL_Driver/Src/stm32f4xx_ll_usb.c ****   *            @arg EP_TYPE_BULK: Bulk type
1587:Drivers/STM32F4xx_HAL_Driver/Src/stm32f4xx_ll_usb.c ****   *            @arg EP_TYPE_INTR: Interrupt type
1588:Drivers/STM32F4xx_HAL_Driver/Src/stm32f4xx_ll_usb.c ****   * @param  mps  Max Packet Size
1589:Drivers/STM32F4xx_HAL_Driver/Src/stm32f4xx_ll_usb.c ****   *          This parameter can be a value from 0 to 32K
1590:Drivers/STM32F4xx_HAL_Driver/Src/stm32f4xx_ll_usb.c ****   * @retval HAL state
1591:Drivers/STM32F4xx_HAL_Driver/Src/stm32f4xx_ll_usb.c ****   */
1592:Drivers/STM32F4xx_HAL_Driver/Src/stm32f4xx_ll_usb.c **** HAL_StatusTypeDef USB_HC_Init(USB_OTG_GlobalTypeDef *USBx, uint8_t ch_num,
1593:Drivers/STM32F4xx_HAL_Driver/Src/stm32f4xx_ll_usb.c ****                               uint8_t epnum, uint8_t dev_address, uint8_t speed,
1594:Drivers/STM32F4xx_HAL_Driver/Src/stm32f4xx_ll_usb.c ****                               uint8_t ep_type, uint16_t mps)
1595:Drivers/STM32F4xx_HAL_Driver/Src/stm32f4xx_ll_usb.c **** {
 3800              		.loc 1 1595 1 is_stmt 1 view -0
 3801              		.cfi_startproc
 3802              		@ args = 12, pretend = 0, frame = 0
 3803              		@ frame_needed = 0, uses_anonymous_args = 0
 3804              		.loc 1 1595 1 is_stmt 0 view .LVU1210
 3805 0000 2DE9F843 		push	{r3, r4, r5, r6, r7, r8, r9, lr}
 3806              	.LCFI43:
 3807              		.cfi_def_cfa_offset 32
 3808              		.cfi_offset 3, -32
 3809              		.cfi_offset 4, -28
 3810              		.cfi_offset 5, -24
 3811              		.cfi_offset 6, -20
 3812              		.cfi_offset 7, -16
 3813              		.cfi_offset 8, -12
 3814              		.cfi_offset 9, -8
 3815              		.cfi_offset 14, -4
 3816 0004 9146     		mov	r9, r2
 3817 0006 1C46     		mov	r4, r3
 3818 0008 9DF82450 		ldrb	r5, [sp, #36]	@ zero_extendqisi2
1596:Drivers/STM32F4xx_HAL_Driver/Src/stm32f4xx_ll_usb.c ****   HAL_StatusTypeDef ret = HAL_OK;
 3819              		.loc 1 1596 3 is_stmt 1 view .LVU1211
ARM GAS  C:\Users\7636~1\AppData\Local\Temp\ccnv92VB.s 			page 114


 3820              	.LVL321:
1597:Drivers/STM32F4xx_HAL_Driver/Src/stm32f4xx_ll_usb.c ****   uint32_t USBx_BASE = (uint32_t)USBx;
 3821              		.loc 1 1597 3 view .LVU1212
1598:Drivers/STM32F4xx_HAL_Driver/Src/stm32f4xx_ll_usb.c ****   uint32_t HCcharEpDir, HCcharLowSpeed;
 3822              		.loc 1 1598 3 view .LVU1213
1599:Drivers/STM32F4xx_HAL_Driver/Src/stm32f4xx_ll_usb.c ****   uint32_t HostCoreSpeed;
 3823              		.loc 1 1599 3 view .LVU1214
1600:Drivers/STM32F4xx_HAL_Driver/Src/stm32f4xx_ll_usb.c **** 
1601:Drivers/STM32F4xx_HAL_Driver/Src/stm32f4xx_ll_usb.c ****   /* Clear old interrupt conditions for this host channel. */
1602:Drivers/STM32F4xx_HAL_Driver/Src/stm32f4xx_ll_usb.c ****   USBx_HC((uint32_t)ch_num)->HCINT = 0xFFFFFFFFU;
 3824              		.loc 1 1602 3 view .LVU1215
 3825 000c 00EB4116 		add	r6, r0, r1, lsl #5
 3826 0010 06F5A063 		add	r3, r6, #1280
 3827              	.LVL322:
 3828              		.loc 1 1602 36 is_stmt 0 view .LVU1216
 3829 0014 4FF0FF32 		mov	r2, #-1
 3830              	.LVL323:
 3831              		.loc 1 1602 36 view .LVU1217
 3832 0018 9A60     		str	r2, [r3, #8]
1603:Drivers/STM32F4xx_HAL_Driver/Src/stm32f4xx_ll_usb.c **** 
1604:Drivers/STM32F4xx_HAL_Driver/Src/stm32f4xx_ll_usb.c ****   /* Enable channel interrupts required for this transfer. */
1605:Drivers/STM32F4xx_HAL_Driver/Src/stm32f4xx_ll_usb.c ****   switch (ep_type)
 3833              		.loc 1 1605 3 is_stmt 1 view .LVU1218
 3834 001a 032D     		cmp	r5, #3
 3835 001c 6AD8     		bhi	.L247
 3836 001e DFE805F0 		tbb	[pc, r5]
 3837              	.L240:
 3838 0022 02       		.byte	(.L241-.L240)/2
 3839 0023 5B       		.byte	(.L242-.L240)/2
 3840 0024 02       		.byte	(.L241-.L240)/2
 3841 0025 18       		.byte	(.L239-.L240)/2
 3842              		.p2align 1
 3843              	.L241:
1606:Drivers/STM32F4xx_HAL_Driver/Src/stm32f4xx_ll_usb.c ****   {
1607:Drivers/STM32F4xx_HAL_Driver/Src/stm32f4xx_ll_usb.c ****     case EP_TYPE_CTRL:
1608:Drivers/STM32F4xx_HAL_Driver/Src/stm32f4xx_ll_usb.c ****     case EP_TYPE_BULK:
1609:Drivers/STM32F4xx_HAL_Driver/Src/stm32f4xx_ll_usb.c ****       USBx_HC((uint32_t)ch_num)->HCINTMSK = USB_OTG_HCINTMSK_XFRCM  |
 3844              		.loc 1 1609 7 view .LVU1219
 3845              		.loc 1 1609 43 is_stmt 0 view .LVU1220
 3846 0026 40F29D42 		movw	r2, #1181
 3847 002a DA60     		str	r2, [r3, #12]
1610:Drivers/STM32F4xx_HAL_Driver/Src/stm32f4xx_ll_usb.c ****                                             USB_OTG_HCINTMSK_STALLM |
1611:Drivers/STM32F4xx_HAL_Driver/Src/stm32f4xx_ll_usb.c ****                                             USB_OTG_HCINTMSK_TXERRM |
1612:Drivers/STM32F4xx_HAL_Driver/Src/stm32f4xx_ll_usb.c ****                                             USB_OTG_HCINTMSK_DTERRM |
1613:Drivers/STM32F4xx_HAL_Driver/Src/stm32f4xx_ll_usb.c ****                                             USB_OTG_HCINTMSK_AHBERR |
1614:Drivers/STM32F4xx_HAL_Driver/Src/stm32f4xx_ll_usb.c ****                                             USB_OTG_HCINTMSK_NAKM;
1615:Drivers/STM32F4xx_HAL_Driver/Src/stm32f4xx_ll_usb.c **** 
1616:Drivers/STM32F4xx_HAL_Driver/Src/stm32f4xx_ll_usb.c ****       if ((epnum & 0x80U) == 0x80U)
 3848              		.loc 1 1616 7 is_stmt 1 view .LVU1221
 3849              		.loc 1 1616 10 is_stmt 0 view .LVU1222
 3850 002c 19F0800F 		tst	r9, #128
 3851 0030 09D1     		bne	.L255
1617:Drivers/STM32F4xx_HAL_Driver/Src/stm32f4xx_ll_usb.c ****       {
1618:Drivers/STM32F4xx_HAL_Driver/Src/stm32f4xx_ll_usb.c ****         USBx_HC((uint32_t)ch_num)->HCINTMSK |= USB_OTG_HCINTMSK_BBERRM;
1619:Drivers/STM32F4xx_HAL_Driver/Src/stm32f4xx_ll_usb.c ****       }
1620:Drivers/STM32F4xx_HAL_Driver/Src/stm32f4xx_ll_usb.c ****       else
1621:Drivers/STM32F4xx_HAL_Driver/Src/stm32f4xx_ll_usb.c ****       {
ARM GAS  C:\Users\7636~1\AppData\Local\Temp\ccnv92VB.s 			page 115


1622:Drivers/STM32F4xx_HAL_Driver/Src/stm32f4xx_ll_usb.c ****         if ((USBx->CID & (0x1U << 8)) != 0U)
 3852              		.loc 1 1622 9 is_stmt 1 view .LVU1223
 3853              		.loc 1 1622 18 is_stmt 0 view .LVU1224
 3854 0032 C26B     		ldr	r2, [r0, #60]
 3855              		.loc 1 1622 12 view .LVU1225
 3856 0034 12F4807F 		tst	r2, #256
 3857 0038 5ED0     		beq	.L248
1623:Drivers/STM32F4xx_HAL_Driver/Src/stm32f4xx_ll_usb.c ****         {
1624:Drivers/STM32F4xx_HAL_Driver/Src/stm32f4xx_ll_usb.c ****           USBx_HC((uint32_t)ch_num)->HCINTMSK |= USB_OTG_HCINTMSK_NYET |
 3858              		.loc 1 1624 11 is_stmt 1 view .LVU1226
 3859              		.loc 1 1624 47 is_stmt 0 view .LVU1227
 3860 003a DA68     		ldr	r2, [r3, #12]
 3861 003c 42F06002 		orr	r2, r2, #96
 3862 0040 DA60     		str	r2, [r3, #12]
1596:Drivers/STM32F4xx_HAL_Driver/Src/stm32f4xx_ll_usb.c ****   uint32_t USBx_BASE = (uint32_t)USBx;
 3863              		.loc 1 1596 21 view .LVU1228
 3864 0042 0027     		movs	r7, #0
 3865 0044 0CE0     		b	.L238
 3866              	.L255:
1618:Drivers/STM32F4xx_HAL_Driver/Src/stm32f4xx_ll_usb.c ****       }
 3867              		.loc 1 1618 9 is_stmt 1 view .LVU1229
1618:Drivers/STM32F4xx_HAL_Driver/Src/stm32f4xx_ll_usb.c ****       }
 3868              		.loc 1 1618 45 is_stmt 0 view .LVU1230
 3869 0046 DA68     		ldr	r2, [r3, #12]
 3870 0048 42F48072 		orr	r2, r2, #256
 3871 004c DA60     		str	r2, [r3, #12]
1596:Drivers/STM32F4xx_HAL_Driver/Src/stm32f4xx_ll_usb.c ****   uint32_t USBx_BASE = (uint32_t)USBx;
 3872              		.loc 1 1596 21 view .LVU1231
 3873 004e 0027     		movs	r7, #0
 3874 0050 06E0     		b	.L238
 3875              	.L239:
1625:Drivers/STM32F4xx_HAL_Driver/Src/stm32f4xx_ll_usb.c ****                                                  USB_OTG_HCINTMSK_ACKM;
1626:Drivers/STM32F4xx_HAL_Driver/Src/stm32f4xx_ll_usb.c ****         }
1627:Drivers/STM32F4xx_HAL_Driver/Src/stm32f4xx_ll_usb.c ****       }
1628:Drivers/STM32F4xx_HAL_Driver/Src/stm32f4xx_ll_usb.c ****       break;
1629:Drivers/STM32F4xx_HAL_Driver/Src/stm32f4xx_ll_usb.c **** 
1630:Drivers/STM32F4xx_HAL_Driver/Src/stm32f4xx_ll_usb.c ****     case EP_TYPE_INTR:
1631:Drivers/STM32F4xx_HAL_Driver/Src/stm32f4xx_ll_usb.c ****       USBx_HC((uint32_t)ch_num)->HCINTMSK = USB_OTG_HCINTMSK_XFRCM  |
 3876              		.loc 1 1631 7 is_stmt 1 view .LVU1232
 3877              		.loc 1 1631 43 is_stmt 0 view .LVU1233
 3878 0052 40F29D62 		movw	r2, #1693
 3879 0056 DA60     		str	r2, [r3, #12]
1632:Drivers/STM32F4xx_HAL_Driver/Src/stm32f4xx_ll_usb.c ****                                             USB_OTG_HCINTMSK_STALLM |
1633:Drivers/STM32F4xx_HAL_Driver/Src/stm32f4xx_ll_usb.c ****                                             USB_OTG_HCINTMSK_TXERRM |
1634:Drivers/STM32F4xx_HAL_Driver/Src/stm32f4xx_ll_usb.c ****                                             USB_OTG_HCINTMSK_DTERRM |
1635:Drivers/STM32F4xx_HAL_Driver/Src/stm32f4xx_ll_usb.c ****                                             USB_OTG_HCINTMSK_NAKM   |
1636:Drivers/STM32F4xx_HAL_Driver/Src/stm32f4xx_ll_usb.c ****                                             USB_OTG_HCINTMSK_AHBERR |
1637:Drivers/STM32F4xx_HAL_Driver/Src/stm32f4xx_ll_usb.c ****                                             USB_OTG_HCINTMSK_FRMORM;
1638:Drivers/STM32F4xx_HAL_Driver/Src/stm32f4xx_ll_usb.c **** 
1639:Drivers/STM32F4xx_HAL_Driver/Src/stm32f4xx_ll_usb.c ****       if ((epnum & 0x80U) == 0x80U)
 3880              		.loc 1 1639 7 is_stmt 1 view .LVU1234
 3881              		.loc 1 1639 10 is_stmt 0 view .LVU1235
 3882 0058 19F0800F 		tst	r9, #128
 3883 005c 36D1     		bne	.L256
1596:Drivers/STM32F4xx_HAL_Driver/Src/stm32f4xx_ll_usb.c ****   uint32_t USBx_BASE = (uint32_t)USBx;
 3884              		.loc 1 1596 21 view .LVU1236
 3885 005e 0027     		movs	r7, #0
ARM GAS  C:\Users\7636~1\AppData\Local\Temp\ccnv92VB.s 			page 116


 3886              	.L238:
 3887              	.LVL324:
1640:Drivers/STM32F4xx_HAL_Driver/Src/stm32f4xx_ll_usb.c ****       {
1641:Drivers/STM32F4xx_HAL_Driver/Src/stm32f4xx_ll_usb.c ****         USBx_HC((uint32_t)ch_num)->HCINTMSK |= USB_OTG_HCINTMSK_BBERRM;
1642:Drivers/STM32F4xx_HAL_Driver/Src/stm32f4xx_ll_usb.c ****       }
1643:Drivers/STM32F4xx_HAL_Driver/Src/stm32f4xx_ll_usb.c **** 
1644:Drivers/STM32F4xx_HAL_Driver/Src/stm32f4xx_ll_usb.c ****       break;
1645:Drivers/STM32F4xx_HAL_Driver/Src/stm32f4xx_ll_usb.c **** 
1646:Drivers/STM32F4xx_HAL_Driver/Src/stm32f4xx_ll_usb.c ****     case EP_TYPE_ISOC:
1647:Drivers/STM32F4xx_HAL_Driver/Src/stm32f4xx_ll_usb.c ****       USBx_HC((uint32_t)ch_num)->HCINTMSK = USB_OTG_HCINTMSK_XFRCM  |
1648:Drivers/STM32F4xx_HAL_Driver/Src/stm32f4xx_ll_usb.c ****                                             USB_OTG_HCINTMSK_ACKM   |
1649:Drivers/STM32F4xx_HAL_Driver/Src/stm32f4xx_ll_usb.c ****                                             USB_OTG_HCINTMSK_AHBERR |
1650:Drivers/STM32F4xx_HAL_Driver/Src/stm32f4xx_ll_usb.c ****                                             USB_OTG_HCINTMSK_FRMORM;
1651:Drivers/STM32F4xx_HAL_Driver/Src/stm32f4xx_ll_usb.c **** 
1652:Drivers/STM32F4xx_HAL_Driver/Src/stm32f4xx_ll_usb.c ****       if ((epnum & 0x80U) == 0x80U)
1653:Drivers/STM32F4xx_HAL_Driver/Src/stm32f4xx_ll_usb.c ****       {
1654:Drivers/STM32F4xx_HAL_Driver/Src/stm32f4xx_ll_usb.c ****         USBx_HC((uint32_t)ch_num)->HCINTMSK |= (USB_OTG_HCINTMSK_TXERRM | USB_OTG_HCINTMSK_BBERRM);
1655:Drivers/STM32F4xx_HAL_Driver/Src/stm32f4xx_ll_usb.c ****       }
1656:Drivers/STM32F4xx_HAL_Driver/Src/stm32f4xx_ll_usb.c ****       break;
1657:Drivers/STM32F4xx_HAL_Driver/Src/stm32f4xx_ll_usb.c **** 
1658:Drivers/STM32F4xx_HAL_Driver/Src/stm32f4xx_ll_usb.c ****     default:
1659:Drivers/STM32F4xx_HAL_Driver/Src/stm32f4xx_ll_usb.c ****       ret = HAL_ERROR;
1660:Drivers/STM32F4xx_HAL_Driver/Src/stm32f4xx_ll_usb.c ****       break;
1661:Drivers/STM32F4xx_HAL_Driver/Src/stm32f4xx_ll_usb.c ****   }
1662:Drivers/STM32F4xx_HAL_Driver/Src/stm32f4xx_ll_usb.c **** 
1663:Drivers/STM32F4xx_HAL_Driver/Src/stm32f4xx_ll_usb.c ****   /* Enable the top level host channel interrupt. */
1664:Drivers/STM32F4xx_HAL_Driver/Src/stm32f4xx_ll_usb.c ****   USBx_HOST->HAINTMSK |= 1UL << (ch_num & 0xFU);
 3888              		.loc 1 1664 3 is_stmt 1 view .LVU1237
 3889              		.loc 1 1664 23 is_stmt 0 view .LVU1238
 3890 0060 D0F81834 		ldr	r3, [r0, #1048]
 3891              		.loc 1 1664 41 view .LVU1239
 3892 0064 01F00F01 		and	r1, r1, #15
 3893              	.LVL325:
 3894              		.loc 1 1664 30 view .LVU1240
 3895 0068 0122     		movs	r2, #1
 3896 006a 02FA01F1 		lsl	r1, r2, r1
 3897              		.loc 1 1664 23 view .LVU1241
 3898 006e 1943     		orrs	r1, r1, r3
 3899 0070 C0F81814 		str	r1, [r0, #1048]
1665:Drivers/STM32F4xx_HAL_Driver/Src/stm32f4xx_ll_usb.c **** 
1666:Drivers/STM32F4xx_HAL_Driver/Src/stm32f4xx_ll_usb.c ****   /* Make sure host channel interrupts are enabled. */
1667:Drivers/STM32F4xx_HAL_Driver/Src/stm32f4xx_ll_usb.c ****   USBx->GINTMSK |= USB_OTG_GINTMSK_HCIM;
 3900              		.loc 1 1667 3 is_stmt 1 view .LVU1242
 3901              		.loc 1 1667 17 is_stmt 0 view .LVU1243
 3902 0074 8369     		ldr	r3, [r0, #24]
 3903 0076 43F00073 		orr	r3, r3, #33554432
 3904 007a 8361     		str	r3, [r0, #24]
1668:Drivers/STM32F4xx_HAL_Driver/Src/stm32f4xx_ll_usb.c **** 
1669:Drivers/STM32F4xx_HAL_Driver/Src/stm32f4xx_ll_usb.c ****   /* Program the HCCHAR register */
1670:Drivers/STM32F4xx_HAL_Driver/Src/stm32f4xx_ll_usb.c ****   if ((epnum & 0x80U) == 0x80U)
 3905              		.loc 1 1670 3 is_stmt 1 view .LVU1244
 3906              		.loc 1 1670 6 is_stmt 0 view .LVU1245
 3907 007c 19F0800F 		tst	r9, #128
 3908 0080 3CD1     		bne	.L257
1671:Drivers/STM32F4xx_HAL_Driver/Src/stm32f4xx_ll_usb.c ****   {
1672:Drivers/STM32F4xx_HAL_Driver/Src/stm32f4xx_ll_usb.c ****     HCcharEpDir = (0x1U << 15) & USB_OTG_HCCHAR_EPDIR;
1673:Drivers/STM32F4xx_HAL_Driver/Src/stm32f4xx_ll_usb.c ****   }
ARM GAS  C:\Users\7636~1\AppData\Local\Temp\ccnv92VB.s 			page 117


1674:Drivers/STM32F4xx_HAL_Driver/Src/stm32f4xx_ll_usb.c ****   else
1675:Drivers/STM32F4xx_HAL_Driver/Src/stm32f4xx_ll_usb.c ****   {
1676:Drivers/STM32F4xx_HAL_Driver/Src/stm32f4xx_ll_usb.c ****     HCcharEpDir = 0U;
 3909              		.loc 1 1676 17 view .LVU1246
 3910 0082 4FF00008 		mov	r8, #0
 3911              	.L244:
 3912              	.LVL326:
1677:Drivers/STM32F4xx_HAL_Driver/Src/stm32f4xx_ll_usb.c ****   }
1678:Drivers/STM32F4xx_HAL_Driver/Src/stm32f4xx_ll_usb.c **** 
1679:Drivers/STM32F4xx_HAL_Driver/Src/stm32f4xx_ll_usb.c ****   HostCoreSpeed = USB_GetHostSpeed(USBx);
 3913              		.loc 1 1679 3 is_stmt 1 view .LVU1247
 3914              		.loc 1 1679 19 is_stmt 0 view .LVU1248
 3915 0086 FFF7FEFF 		bl	USB_GetHostSpeed
 3916              	.LVL327:
1680:Drivers/STM32F4xx_HAL_Driver/Src/stm32f4xx_ll_usb.c **** 
1681:Drivers/STM32F4xx_HAL_Driver/Src/stm32f4xx_ll_usb.c ****   /* LS device plugged to HUB */
1682:Drivers/STM32F4xx_HAL_Driver/Src/stm32f4xx_ll_usb.c ****   if ((speed == HPRT0_PRTSPD_LOW_SPEED) && (HostCoreSpeed != HPRT0_PRTSPD_LOW_SPEED))
 3917              		.loc 1 1682 3 is_stmt 1 view .LVU1249
 3918              		.loc 1 1682 6 is_stmt 0 view .LVU1250
 3919 008a 9DF82030 		ldrb	r3, [sp, #32]	@ zero_extendqisi2
 3920 008e 022B     		cmp	r3, #2
 3921 0090 37D0     		beq	.L258
1683:Drivers/STM32F4xx_HAL_Driver/Src/stm32f4xx_ll_usb.c ****   {
1684:Drivers/STM32F4xx_HAL_Driver/Src/stm32f4xx_ll_usb.c ****     HCcharLowSpeed = (0x1U << 17) & USB_OTG_HCCHAR_LSDEV;
1685:Drivers/STM32F4xx_HAL_Driver/Src/stm32f4xx_ll_usb.c ****   }
1686:Drivers/STM32F4xx_HAL_Driver/Src/stm32f4xx_ll_usb.c ****   else
1687:Drivers/STM32F4xx_HAL_Driver/Src/stm32f4xx_ll_usb.c ****   {
1688:Drivers/STM32F4xx_HAL_Driver/Src/stm32f4xx_ll_usb.c ****     HCcharLowSpeed = 0U;
 3922              		.loc 1 1688 20 view .LVU1251
 3923 0092 0021     		movs	r1, #0
 3924              	.L245:
 3925              	.LVL328:
1689:Drivers/STM32F4xx_HAL_Driver/Src/stm32f4xx_ll_usb.c ****   }
1690:Drivers/STM32F4xx_HAL_Driver/Src/stm32f4xx_ll_usb.c **** 
1691:Drivers/STM32F4xx_HAL_Driver/Src/stm32f4xx_ll_usb.c ****   USBx_HC((uint32_t)ch_num)->HCCHAR = (((uint32_t)dev_address << 22) & USB_OTG_HCCHAR_DAD) |
 3926              		.loc 1 1691 3 is_stmt 1 view .LVU1252
 3927              		.loc 1 1691 63 is_stmt 0 view .LVU1253
 3928 0094 A305     		lsls	r3, r4, #22
 3929              		.loc 1 1691 70 view .LVU1254
 3930 0096 03F0FE53 		and	r3, r3, #532676608
1692:Drivers/STM32F4xx_HAL_Driver/Src/stm32f4xx_ll_usb.c ****                                       ((((uint32_t)epnum & 0x7FU) << 11) & USB_OTG_HCCHAR_EPNUM) |
 3931              		.loc 1 1692 67 view .LVU1255
 3932 009a 4FEAC929 		lsl	r9, r9, #11
 3933              		.loc 1 1692 74 view .LVU1256
 3934 009e 09F4F049 		and	r9, r9, #30720
1691:Drivers/STM32F4xx_HAL_Driver/Src/stm32f4xx_ll_usb.c ****                                       ((((uint32_t)epnum & 0x7FU) << 11) & USB_OTG_HCCHAR_EPNUM) |
 3935              		.loc 1 1691 92 view .LVU1257
 3936 00a2 43EA0903 		orr	r3, r3, r9
1693:Drivers/STM32F4xx_HAL_Driver/Src/stm32f4xx_ll_usb.c ****                                       (((uint32_t)ep_type << 18) & USB_OTG_HCCHAR_EPTYP) |
 3937              		.loc 1 1693 59 view .LVU1258
 3938 00a6 AC04     		lsls	r4, r5, #18
 3939              		.loc 1 1693 66 view .LVU1259
 3940 00a8 04F44024 		and	r4, r4, #786432
1692:Drivers/STM32F4xx_HAL_Driver/Src/stm32f4xx_ll_usb.c ****                                       ((((uint32_t)epnum & 0x7FU) << 11) & USB_OTG_HCCHAR_EPNUM) |
 3941              		.loc 1 1692 98 view .LVU1260
 3942 00ac 2343     		orrs	r3, r3, r4
1694:Drivers/STM32F4xx_HAL_Driver/Src/stm32f4xx_ll_usb.c ****                                       ((uint32_t)mps & USB_OTG_HCCHAR_MPSIZ) | HCcharEpDir | HCchar
ARM GAS  C:\Users\7636~1\AppData\Local\Temp\ccnv92VB.s 			page 118


 3943              		.loc 1 1694 54 view .LVU1261
 3944 00ae BDF82820 		ldrh	r2, [sp, #40]
 3945 00b2 C2F30A02 		ubfx	r2, r2, #0, #11
1693:Drivers/STM32F4xx_HAL_Driver/Src/stm32f4xx_ll_usb.c ****                                       (((uint32_t)ep_type << 18) & USB_OTG_HCCHAR_EPTYP) |
 3946              		.loc 1 1693 90 view .LVU1262
 3947 00b6 1343     		orrs	r3, r3, r2
 3948              		.loc 1 1694 78 view .LVU1263
 3949 00b8 43EA0803 		orr	r3, r3, r8
 3950              		.loc 1 1694 92 view .LVU1264
 3951 00bc 0B43     		orrs	r3, r3, r1
1691:Drivers/STM32F4xx_HAL_Driver/Src/stm32f4xx_ll_usb.c ****                                       ((((uint32_t)epnum & 0x7FU) << 11) & USB_OTG_HCCHAR_EPNUM) |
 3952              		.loc 1 1691 37 view .LVU1265
 3953 00be C6F80035 		str	r3, [r6, #1280]
1695:Drivers/STM32F4xx_HAL_Driver/Src/stm32f4xx_ll_usb.c **** 
1696:Drivers/STM32F4xx_HAL_Driver/Src/stm32f4xx_ll_usb.c ****   if (ep_type == EP_TYPE_INTR)
 3954              		.loc 1 1696 3 is_stmt 1 view .LVU1266
 3955              		.loc 1 1696 6 is_stmt 0 view .LVU1267
 3956 00c2 032D     		cmp	r5, #3
 3957 00c4 24D0     		beq	.L259
 3958              	.L246:
1697:Drivers/STM32F4xx_HAL_Driver/Src/stm32f4xx_ll_usb.c ****   {
1698:Drivers/STM32F4xx_HAL_Driver/Src/stm32f4xx_ll_usb.c ****     USBx_HC((uint32_t)ch_num)->HCCHAR |= USB_OTG_HCCHAR_ODDFRM ;
1699:Drivers/STM32F4xx_HAL_Driver/Src/stm32f4xx_ll_usb.c ****   }
1700:Drivers/STM32F4xx_HAL_Driver/Src/stm32f4xx_ll_usb.c **** 
1701:Drivers/STM32F4xx_HAL_Driver/Src/stm32f4xx_ll_usb.c ****   return ret;
 3959              		.loc 1 1701 3 is_stmt 1 view .LVU1268
1702:Drivers/STM32F4xx_HAL_Driver/Src/stm32f4xx_ll_usb.c **** }
 3960              		.loc 1 1702 1 is_stmt 0 view .LVU1269
 3961 00c6 3846     		mov	r0, r7
 3962              	.LVL329:
 3963              		.loc 1 1702 1 view .LVU1270
 3964 00c8 BDE8F883 		pop	{r3, r4, r5, r6, r7, r8, r9, pc}
 3965              	.LVL330:
 3966              	.L256:
1641:Drivers/STM32F4xx_HAL_Driver/Src/stm32f4xx_ll_usb.c ****       }
 3967              		.loc 1 1641 9 is_stmt 1 view .LVU1271
1641:Drivers/STM32F4xx_HAL_Driver/Src/stm32f4xx_ll_usb.c ****       }
 3968              		.loc 1 1641 45 is_stmt 0 view .LVU1272
 3969 00cc DA68     		ldr	r2, [r3, #12]
 3970 00ce 42F48072 		orr	r2, r2, #256
 3971 00d2 DA60     		str	r2, [r3, #12]
1596:Drivers/STM32F4xx_HAL_Driver/Src/stm32f4xx_ll_usb.c ****   uint32_t USBx_BASE = (uint32_t)USBx;
 3972              		.loc 1 1596 21 view .LVU1273
 3973 00d4 0027     		movs	r7, #0
 3974 00d6 C3E7     		b	.L238
 3975              	.L242:
1647:Drivers/STM32F4xx_HAL_Driver/Src/stm32f4xx_ll_usb.c ****                                             USB_OTG_HCINTMSK_ACKM   |
 3976              		.loc 1 1647 7 is_stmt 1 view .LVU1274
1647:Drivers/STM32F4xx_HAL_Driver/Src/stm32f4xx_ll_usb.c ****                                             USB_OTG_HCINTMSK_ACKM   |
 3977              		.loc 1 1647 43 is_stmt 0 view .LVU1275
 3978 00d8 40F22522 		movw	r2, #549
 3979 00dc DA60     		str	r2, [r3, #12]
1652:Drivers/STM32F4xx_HAL_Driver/Src/stm32f4xx_ll_usb.c ****       {
 3980              		.loc 1 1652 7 is_stmt 1 view .LVU1276
1652:Drivers/STM32F4xx_HAL_Driver/Src/stm32f4xx_ll_usb.c ****       {
 3981              		.loc 1 1652 10 is_stmt 0 view .LVU1277
 3982 00de 19F0800F 		tst	r9, #128
ARM GAS  C:\Users\7636~1\AppData\Local\Temp\ccnv92VB.s 			page 119


 3983 00e2 01D1     		bne	.L260
1596:Drivers/STM32F4xx_HAL_Driver/Src/stm32f4xx_ll_usb.c ****   uint32_t USBx_BASE = (uint32_t)USBx;
 3984              		.loc 1 1596 21 view .LVU1278
 3985 00e4 0027     		movs	r7, #0
 3986 00e6 BBE7     		b	.L238
 3987              	.L260:
1654:Drivers/STM32F4xx_HAL_Driver/Src/stm32f4xx_ll_usb.c ****       }
 3988              		.loc 1 1654 9 is_stmt 1 view .LVU1279
1654:Drivers/STM32F4xx_HAL_Driver/Src/stm32f4xx_ll_usb.c ****       }
 3989              		.loc 1 1654 45 is_stmt 0 view .LVU1280
 3990 00e8 DA68     		ldr	r2, [r3, #12]
 3991 00ea 42F4C072 		orr	r2, r2, #384
 3992 00ee DA60     		str	r2, [r3, #12]
1596:Drivers/STM32F4xx_HAL_Driver/Src/stm32f4xx_ll_usb.c ****   uint32_t USBx_BASE = (uint32_t)USBx;
 3993              		.loc 1 1596 21 view .LVU1281
 3994 00f0 0027     		movs	r7, #0
 3995 00f2 B5E7     		b	.L238
 3996              	.L247:
1605:Drivers/STM32F4xx_HAL_Driver/Src/stm32f4xx_ll_usb.c ****   {
 3997              		.loc 1 1605 3 view .LVU1282
 3998 00f4 0127     		movs	r7, #1
 3999 00f6 B3E7     		b	.L238
 4000              	.L248:
1596:Drivers/STM32F4xx_HAL_Driver/Src/stm32f4xx_ll_usb.c ****   uint32_t USBx_BASE = (uint32_t)USBx;
 4001              		.loc 1 1596 21 view .LVU1283
 4002 00f8 0027     		movs	r7, #0
 4003 00fa B1E7     		b	.L238
 4004              	.LVL331:
 4005              	.L257:
1672:Drivers/STM32F4xx_HAL_Driver/Src/stm32f4xx_ll_usb.c ****   }
 4006              		.loc 1 1672 17 view .LVU1284
 4007 00fc 4FF40048 		mov	r8, #32768
 4008 0100 C1E7     		b	.L244
 4009              	.LVL332:
 4010              	.L258:
1682:Drivers/STM32F4xx_HAL_Driver/Src/stm32f4xx_ll_usb.c ****   {
 4011              		.loc 1 1682 41 discriminator 1 view .LVU1285
 4012 0102 0228     		cmp	r0, #2
 4013 0104 02D0     		beq	.L261
1684:Drivers/STM32F4xx_HAL_Driver/Src/stm32f4xx_ll_usb.c ****   }
 4014              		.loc 1 1684 20 view .LVU1286
 4015 0106 4FF40031 		mov	r1, #131072
 4016 010a C3E7     		b	.L245
 4017              	.L261:
1688:Drivers/STM32F4xx_HAL_Driver/Src/stm32f4xx_ll_usb.c ****   }
 4018              		.loc 1 1688 20 view .LVU1287
 4019 010c 0021     		movs	r1, #0
 4020 010e C1E7     		b	.L245
 4021              	.LVL333:
 4022              	.L259:
1698:Drivers/STM32F4xx_HAL_Driver/Src/stm32f4xx_ll_usb.c ****   }
 4023              		.loc 1 1698 5 is_stmt 1 view .LVU1288
1698:Drivers/STM32F4xx_HAL_Driver/Src/stm32f4xx_ll_usb.c ****   }
 4024              		.loc 1 1698 39 is_stmt 0 view .LVU1289
 4025 0110 D6F80035 		ldr	r3, [r6, #1280]
 4026 0114 43F00053 		orr	r3, r3, #536870912
 4027 0118 C6F80035 		str	r3, [r6, #1280]
ARM GAS  C:\Users\7636~1\AppData\Local\Temp\ccnv92VB.s 			page 120


 4028 011c D3E7     		b	.L246
 4029              		.cfi_endproc
 4030              	.LFE256:
 4032              		.section	.text.USB_HC_ReadInterrupt,"ax",%progbits
 4033              		.align	1
 4034              		.global	USB_HC_ReadInterrupt
 4035              		.syntax unified
 4036              		.thumb
 4037              		.thumb_func
 4039              	USB_HC_ReadInterrupt:
 4040              	.LVL334:
 4041              	.LFB258:
1703:Drivers/STM32F4xx_HAL_Driver/Src/stm32f4xx_ll_usb.c **** 
1704:Drivers/STM32F4xx_HAL_Driver/Src/stm32f4xx_ll_usb.c **** /**
1705:Drivers/STM32F4xx_HAL_Driver/Src/stm32f4xx_ll_usb.c ****   * @brief  Start a transfer over a host channel
1706:Drivers/STM32F4xx_HAL_Driver/Src/stm32f4xx_ll_usb.c ****   * @param  USBx  Selected device
1707:Drivers/STM32F4xx_HAL_Driver/Src/stm32f4xx_ll_usb.c ****   * @param  hc  pointer to host channel structure
1708:Drivers/STM32F4xx_HAL_Driver/Src/stm32f4xx_ll_usb.c ****   * @param  dma USB dma enabled or disabled
1709:Drivers/STM32F4xx_HAL_Driver/Src/stm32f4xx_ll_usb.c ****   *          This parameter can be one of these values:
1710:Drivers/STM32F4xx_HAL_Driver/Src/stm32f4xx_ll_usb.c ****   *           0 : DMA feature not used
1711:Drivers/STM32F4xx_HAL_Driver/Src/stm32f4xx_ll_usb.c ****   *           1 : DMA feature used
1712:Drivers/STM32F4xx_HAL_Driver/Src/stm32f4xx_ll_usb.c ****   * @retval HAL state
1713:Drivers/STM32F4xx_HAL_Driver/Src/stm32f4xx_ll_usb.c ****   */
1714:Drivers/STM32F4xx_HAL_Driver/Src/stm32f4xx_ll_usb.c **** HAL_StatusTypeDef USB_HC_StartXfer(USB_OTG_GlobalTypeDef *USBx, USB_OTG_HCTypeDef *hc, uint8_t dma)
1715:Drivers/STM32F4xx_HAL_Driver/Src/stm32f4xx_ll_usb.c **** {
1716:Drivers/STM32F4xx_HAL_Driver/Src/stm32f4xx_ll_usb.c ****   uint32_t USBx_BASE = (uint32_t)USBx;
1717:Drivers/STM32F4xx_HAL_Driver/Src/stm32f4xx_ll_usb.c ****   uint32_t ch_num = (uint32_t)hc->ch_num;
1718:Drivers/STM32F4xx_HAL_Driver/Src/stm32f4xx_ll_usb.c ****   __IO uint32_t tmpreg;
1719:Drivers/STM32F4xx_HAL_Driver/Src/stm32f4xx_ll_usb.c ****   uint8_t  is_oddframe;
1720:Drivers/STM32F4xx_HAL_Driver/Src/stm32f4xx_ll_usb.c ****   uint16_t len_words;
1721:Drivers/STM32F4xx_HAL_Driver/Src/stm32f4xx_ll_usb.c ****   uint16_t num_packets;
1722:Drivers/STM32F4xx_HAL_Driver/Src/stm32f4xx_ll_usb.c ****   uint16_t max_hc_pkt_count = 256U;
1723:Drivers/STM32F4xx_HAL_Driver/Src/stm32f4xx_ll_usb.c **** 
1724:Drivers/STM32F4xx_HAL_Driver/Src/stm32f4xx_ll_usb.c ****   if (((USBx->CID & (0x1U << 8)) != 0U) && (hc->speed == USBH_HS_SPEED))
1725:Drivers/STM32F4xx_HAL_Driver/Src/stm32f4xx_ll_usb.c ****   {
1726:Drivers/STM32F4xx_HAL_Driver/Src/stm32f4xx_ll_usb.c ****     /* in DMA mode host Core automatically issues ping  in case of NYET/NAK */
1727:Drivers/STM32F4xx_HAL_Driver/Src/stm32f4xx_ll_usb.c ****     if ((dma == 1U) && ((hc->ep_type == EP_TYPE_CTRL) || (hc->ep_type == EP_TYPE_BULK)))
1728:Drivers/STM32F4xx_HAL_Driver/Src/stm32f4xx_ll_usb.c ****     {
1729:Drivers/STM32F4xx_HAL_Driver/Src/stm32f4xx_ll_usb.c ****       USBx_HC((uint32_t)ch_num)->HCINTMSK &= ~(USB_OTG_HCINTMSK_NYET |
1730:Drivers/STM32F4xx_HAL_Driver/Src/stm32f4xx_ll_usb.c ****                                                USB_OTG_HCINTMSK_ACKM |
1731:Drivers/STM32F4xx_HAL_Driver/Src/stm32f4xx_ll_usb.c ****                                                USB_OTG_HCINTMSK_NAKM);
1732:Drivers/STM32F4xx_HAL_Driver/Src/stm32f4xx_ll_usb.c ****     }
1733:Drivers/STM32F4xx_HAL_Driver/Src/stm32f4xx_ll_usb.c **** 
1734:Drivers/STM32F4xx_HAL_Driver/Src/stm32f4xx_ll_usb.c ****     if ((dma == 0U) && (hc->do_ping == 1U))
1735:Drivers/STM32F4xx_HAL_Driver/Src/stm32f4xx_ll_usb.c ****     {
1736:Drivers/STM32F4xx_HAL_Driver/Src/stm32f4xx_ll_usb.c ****       (void)USB_DoPing(USBx, hc->ch_num);
1737:Drivers/STM32F4xx_HAL_Driver/Src/stm32f4xx_ll_usb.c ****       return HAL_OK;
1738:Drivers/STM32F4xx_HAL_Driver/Src/stm32f4xx_ll_usb.c ****     }
1739:Drivers/STM32F4xx_HAL_Driver/Src/stm32f4xx_ll_usb.c **** 
1740:Drivers/STM32F4xx_HAL_Driver/Src/stm32f4xx_ll_usb.c ****   }
1741:Drivers/STM32F4xx_HAL_Driver/Src/stm32f4xx_ll_usb.c **** 
1742:Drivers/STM32F4xx_HAL_Driver/Src/stm32f4xx_ll_usb.c ****   /* Compute the expected number of packets associated to the transfer */
1743:Drivers/STM32F4xx_HAL_Driver/Src/stm32f4xx_ll_usb.c ****   if (hc->xfer_len > 0U)
1744:Drivers/STM32F4xx_HAL_Driver/Src/stm32f4xx_ll_usb.c ****   {
1745:Drivers/STM32F4xx_HAL_Driver/Src/stm32f4xx_ll_usb.c ****     num_packets = (uint16_t)((hc->xfer_len + hc->max_packet - 1U) / hc->max_packet);
1746:Drivers/STM32F4xx_HAL_Driver/Src/stm32f4xx_ll_usb.c **** 
1747:Drivers/STM32F4xx_HAL_Driver/Src/stm32f4xx_ll_usb.c ****     if (num_packets > max_hc_pkt_count)
ARM GAS  C:\Users\7636~1\AppData\Local\Temp\ccnv92VB.s 			page 121


1748:Drivers/STM32F4xx_HAL_Driver/Src/stm32f4xx_ll_usb.c ****     {
1749:Drivers/STM32F4xx_HAL_Driver/Src/stm32f4xx_ll_usb.c ****       num_packets = max_hc_pkt_count;
1750:Drivers/STM32F4xx_HAL_Driver/Src/stm32f4xx_ll_usb.c ****       hc->XferSize = (uint32_t)num_packets * hc->max_packet;
1751:Drivers/STM32F4xx_HAL_Driver/Src/stm32f4xx_ll_usb.c ****     }
1752:Drivers/STM32F4xx_HAL_Driver/Src/stm32f4xx_ll_usb.c ****   }
1753:Drivers/STM32F4xx_HAL_Driver/Src/stm32f4xx_ll_usb.c ****   else
1754:Drivers/STM32F4xx_HAL_Driver/Src/stm32f4xx_ll_usb.c ****   {
1755:Drivers/STM32F4xx_HAL_Driver/Src/stm32f4xx_ll_usb.c ****     num_packets = 1U;
1756:Drivers/STM32F4xx_HAL_Driver/Src/stm32f4xx_ll_usb.c ****   }
1757:Drivers/STM32F4xx_HAL_Driver/Src/stm32f4xx_ll_usb.c **** 
1758:Drivers/STM32F4xx_HAL_Driver/Src/stm32f4xx_ll_usb.c ****   /*
1759:Drivers/STM32F4xx_HAL_Driver/Src/stm32f4xx_ll_usb.c ****    * For IN channel HCTSIZ.XferSize is expected to be an integer multiple of
1760:Drivers/STM32F4xx_HAL_Driver/Src/stm32f4xx_ll_usb.c ****    * max_packet size.
1761:Drivers/STM32F4xx_HAL_Driver/Src/stm32f4xx_ll_usb.c ****    */
1762:Drivers/STM32F4xx_HAL_Driver/Src/stm32f4xx_ll_usb.c ****   if (hc->ep_is_in != 0U)
1763:Drivers/STM32F4xx_HAL_Driver/Src/stm32f4xx_ll_usb.c ****   {
1764:Drivers/STM32F4xx_HAL_Driver/Src/stm32f4xx_ll_usb.c ****     hc->XferSize = (uint32_t)num_packets * hc->max_packet;
1765:Drivers/STM32F4xx_HAL_Driver/Src/stm32f4xx_ll_usb.c ****   }
1766:Drivers/STM32F4xx_HAL_Driver/Src/stm32f4xx_ll_usb.c ****   else
1767:Drivers/STM32F4xx_HAL_Driver/Src/stm32f4xx_ll_usb.c ****   {
1768:Drivers/STM32F4xx_HAL_Driver/Src/stm32f4xx_ll_usb.c ****     hc->XferSize = hc->xfer_len;
1769:Drivers/STM32F4xx_HAL_Driver/Src/stm32f4xx_ll_usb.c ****   }
1770:Drivers/STM32F4xx_HAL_Driver/Src/stm32f4xx_ll_usb.c **** 
1771:Drivers/STM32F4xx_HAL_Driver/Src/stm32f4xx_ll_usb.c ****   /* Initialize the HCTSIZn register */
1772:Drivers/STM32F4xx_HAL_Driver/Src/stm32f4xx_ll_usb.c ****   USBx_HC(ch_num)->HCTSIZ = (hc->XferSize & USB_OTG_HCTSIZ_XFRSIZ) |
1773:Drivers/STM32F4xx_HAL_Driver/Src/stm32f4xx_ll_usb.c ****                             (((uint32_t)num_packets << 19) & USB_OTG_HCTSIZ_PKTCNT) |
1774:Drivers/STM32F4xx_HAL_Driver/Src/stm32f4xx_ll_usb.c ****                             (((uint32_t)hc->data_pid << 29) & USB_OTG_HCTSIZ_DPID);
1775:Drivers/STM32F4xx_HAL_Driver/Src/stm32f4xx_ll_usb.c **** 
1776:Drivers/STM32F4xx_HAL_Driver/Src/stm32f4xx_ll_usb.c ****   if (dma != 0U)
1777:Drivers/STM32F4xx_HAL_Driver/Src/stm32f4xx_ll_usb.c ****   {
1778:Drivers/STM32F4xx_HAL_Driver/Src/stm32f4xx_ll_usb.c ****     /* xfer_buff MUST be 32-bits aligned */
1779:Drivers/STM32F4xx_HAL_Driver/Src/stm32f4xx_ll_usb.c ****     USBx_HC(ch_num)->HCDMA = (uint32_t)hc->xfer_buff;
1780:Drivers/STM32F4xx_HAL_Driver/Src/stm32f4xx_ll_usb.c ****   }
1781:Drivers/STM32F4xx_HAL_Driver/Src/stm32f4xx_ll_usb.c **** 
1782:Drivers/STM32F4xx_HAL_Driver/Src/stm32f4xx_ll_usb.c ****   is_oddframe = (((uint32_t)USBx_HOST->HFNUM & 0x01U) != 0U) ? 0U : 1U;
1783:Drivers/STM32F4xx_HAL_Driver/Src/stm32f4xx_ll_usb.c ****   USBx_HC(ch_num)->HCCHAR &= ~USB_OTG_HCCHAR_ODDFRM;
1784:Drivers/STM32F4xx_HAL_Driver/Src/stm32f4xx_ll_usb.c ****   USBx_HC(ch_num)->HCCHAR |= (uint32_t)is_oddframe << 29;
1785:Drivers/STM32F4xx_HAL_Driver/Src/stm32f4xx_ll_usb.c **** 
1786:Drivers/STM32F4xx_HAL_Driver/Src/stm32f4xx_ll_usb.c ****   /* Set host channel enable */
1787:Drivers/STM32F4xx_HAL_Driver/Src/stm32f4xx_ll_usb.c ****   tmpreg = USBx_HC(ch_num)->HCCHAR;
1788:Drivers/STM32F4xx_HAL_Driver/Src/stm32f4xx_ll_usb.c ****   tmpreg &= ~USB_OTG_HCCHAR_CHDIS;
1789:Drivers/STM32F4xx_HAL_Driver/Src/stm32f4xx_ll_usb.c **** 
1790:Drivers/STM32F4xx_HAL_Driver/Src/stm32f4xx_ll_usb.c ****   /* make sure to set the correct ep direction */
1791:Drivers/STM32F4xx_HAL_Driver/Src/stm32f4xx_ll_usb.c ****   if (hc->ep_is_in != 0U)
1792:Drivers/STM32F4xx_HAL_Driver/Src/stm32f4xx_ll_usb.c ****   {
1793:Drivers/STM32F4xx_HAL_Driver/Src/stm32f4xx_ll_usb.c ****     tmpreg |= USB_OTG_HCCHAR_EPDIR;
1794:Drivers/STM32F4xx_HAL_Driver/Src/stm32f4xx_ll_usb.c ****   }
1795:Drivers/STM32F4xx_HAL_Driver/Src/stm32f4xx_ll_usb.c ****   else
1796:Drivers/STM32F4xx_HAL_Driver/Src/stm32f4xx_ll_usb.c ****   {
1797:Drivers/STM32F4xx_HAL_Driver/Src/stm32f4xx_ll_usb.c ****     tmpreg &= ~USB_OTG_HCCHAR_EPDIR;
1798:Drivers/STM32F4xx_HAL_Driver/Src/stm32f4xx_ll_usb.c ****   }
1799:Drivers/STM32F4xx_HAL_Driver/Src/stm32f4xx_ll_usb.c ****   tmpreg |= USB_OTG_HCCHAR_CHENA;
1800:Drivers/STM32F4xx_HAL_Driver/Src/stm32f4xx_ll_usb.c ****   USBx_HC(ch_num)->HCCHAR = tmpreg;
1801:Drivers/STM32F4xx_HAL_Driver/Src/stm32f4xx_ll_usb.c **** 
1802:Drivers/STM32F4xx_HAL_Driver/Src/stm32f4xx_ll_usb.c ****   if (dma != 0U) /* dma mode */
1803:Drivers/STM32F4xx_HAL_Driver/Src/stm32f4xx_ll_usb.c ****   {
1804:Drivers/STM32F4xx_HAL_Driver/Src/stm32f4xx_ll_usb.c ****     return HAL_OK;
ARM GAS  C:\Users\7636~1\AppData\Local\Temp\ccnv92VB.s 			page 122


1805:Drivers/STM32F4xx_HAL_Driver/Src/stm32f4xx_ll_usb.c ****   }
1806:Drivers/STM32F4xx_HAL_Driver/Src/stm32f4xx_ll_usb.c **** 
1807:Drivers/STM32F4xx_HAL_Driver/Src/stm32f4xx_ll_usb.c ****   if ((hc->ep_is_in == 0U) && (hc->xfer_len > 0U))
1808:Drivers/STM32F4xx_HAL_Driver/Src/stm32f4xx_ll_usb.c ****   {
1809:Drivers/STM32F4xx_HAL_Driver/Src/stm32f4xx_ll_usb.c ****     switch (hc->ep_type)
1810:Drivers/STM32F4xx_HAL_Driver/Src/stm32f4xx_ll_usb.c ****     {
1811:Drivers/STM32F4xx_HAL_Driver/Src/stm32f4xx_ll_usb.c ****       /* Non periodic transfer */
1812:Drivers/STM32F4xx_HAL_Driver/Src/stm32f4xx_ll_usb.c ****       case EP_TYPE_CTRL:
1813:Drivers/STM32F4xx_HAL_Driver/Src/stm32f4xx_ll_usb.c ****       case EP_TYPE_BULK:
1814:Drivers/STM32F4xx_HAL_Driver/Src/stm32f4xx_ll_usb.c **** 
1815:Drivers/STM32F4xx_HAL_Driver/Src/stm32f4xx_ll_usb.c ****         len_words = (uint16_t)((hc->xfer_len + 3U) / 4U);
1816:Drivers/STM32F4xx_HAL_Driver/Src/stm32f4xx_ll_usb.c **** 
1817:Drivers/STM32F4xx_HAL_Driver/Src/stm32f4xx_ll_usb.c ****         /* check if there is enough space in FIFO space */
1818:Drivers/STM32F4xx_HAL_Driver/Src/stm32f4xx_ll_usb.c ****         if (len_words > (USBx->HNPTXSTS & 0xFFFFU))
1819:Drivers/STM32F4xx_HAL_Driver/Src/stm32f4xx_ll_usb.c ****         {
1820:Drivers/STM32F4xx_HAL_Driver/Src/stm32f4xx_ll_usb.c ****           /* need to process data in nptxfempty interrupt */
1821:Drivers/STM32F4xx_HAL_Driver/Src/stm32f4xx_ll_usb.c ****           USBx->GINTMSK |= USB_OTG_GINTMSK_NPTXFEM;
1822:Drivers/STM32F4xx_HAL_Driver/Src/stm32f4xx_ll_usb.c ****         }
1823:Drivers/STM32F4xx_HAL_Driver/Src/stm32f4xx_ll_usb.c ****         break;
1824:Drivers/STM32F4xx_HAL_Driver/Src/stm32f4xx_ll_usb.c **** 
1825:Drivers/STM32F4xx_HAL_Driver/Src/stm32f4xx_ll_usb.c ****       /* Periodic transfer */
1826:Drivers/STM32F4xx_HAL_Driver/Src/stm32f4xx_ll_usb.c ****       case EP_TYPE_INTR:
1827:Drivers/STM32F4xx_HAL_Driver/Src/stm32f4xx_ll_usb.c ****       case EP_TYPE_ISOC:
1828:Drivers/STM32F4xx_HAL_Driver/Src/stm32f4xx_ll_usb.c ****         len_words = (uint16_t)((hc->xfer_len + 3U) / 4U);
1829:Drivers/STM32F4xx_HAL_Driver/Src/stm32f4xx_ll_usb.c ****         /* check if there is enough space in FIFO space */
1830:Drivers/STM32F4xx_HAL_Driver/Src/stm32f4xx_ll_usb.c ****         if (len_words > (USBx_HOST->HPTXSTS & 0xFFFFU)) /* split the transfer */
1831:Drivers/STM32F4xx_HAL_Driver/Src/stm32f4xx_ll_usb.c ****         {
1832:Drivers/STM32F4xx_HAL_Driver/Src/stm32f4xx_ll_usb.c ****           /* need to process data in ptxfempty interrupt */
1833:Drivers/STM32F4xx_HAL_Driver/Src/stm32f4xx_ll_usb.c ****           USBx->GINTMSK |= USB_OTG_GINTMSK_PTXFEM;
1834:Drivers/STM32F4xx_HAL_Driver/Src/stm32f4xx_ll_usb.c ****         }
1835:Drivers/STM32F4xx_HAL_Driver/Src/stm32f4xx_ll_usb.c ****         break;
1836:Drivers/STM32F4xx_HAL_Driver/Src/stm32f4xx_ll_usb.c **** 
1837:Drivers/STM32F4xx_HAL_Driver/Src/stm32f4xx_ll_usb.c ****       default:
1838:Drivers/STM32F4xx_HAL_Driver/Src/stm32f4xx_ll_usb.c ****         break;
1839:Drivers/STM32F4xx_HAL_Driver/Src/stm32f4xx_ll_usb.c ****     }
1840:Drivers/STM32F4xx_HAL_Driver/Src/stm32f4xx_ll_usb.c **** 
1841:Drivers/STM32F4xx_HAL_Driver/Src/stm32f4xx_ll_usb.c ****     /* Write packet into the Tx FIFO. */
1842:Drivers/STM32F4xx_HAL_Driver/Src/stm32f4xx_ll_usb.c ****     (void)USB_WritePacket(USBx, hc->xfer_buff, hc->ch_num, (uint16_t)hc->xfer_len, 0);
1843:Drivers/STM32F4xx_HAL_Driver/Src/stm32f4xx_ll_usb.c ****   }
1844:Drivers/STM32F4xx_HAL_Driver/Src/stm32f4xx_ll_usb.c **** 
1845:Drivers/STM32F4xx_HAL_Driver/Src/stm32f4xx_ll_usb.c ****   return HAL_OK;
1846:Drivers/STM32F4xx_HAL_Driver/Src/stm32f4xx_ll_usb.c **** }
1847:Drivers/STM32F4xx_HAL_Driver/Src/stm32f4xx_ll_usb.c **** 
1848:Drivers/STM32F4xx_HAL_Driver/Src/stm32f4xx_ll_usb.c **** /**
1849:Drivers/STM32F4xx_HAL_Driver/Src/stm32f4xx_ll_usb.c ****   * @brief Read all host channel interrupts status
1850:Drivers/STM32F4xx_HAL_Driver/Src/stm32f4xx_ll_usb.c ****   * @param  USBx  Selected device
1851:Drivers/STM32F4xx_HAL_Driver/Src/stm32f4xx_ll_usb.c ****   * @retval HAL state
1852:Drivers/STM32F4xx_HAL_Driver/Src/stm32f4xx_ll_usb.c ****   */
1853:Drivers/STM32F4xx_HAL_Driver/Src/stm32f4xx_ll_usb.c **** uint32_t USB_HC_ReadInterrupt(USB_OTG_GlobalTypeDef *USBx)
1854:Drivers/STM32F4xx_HAL_Driver/Src/stm32f4xx_ll_usb.c **** {
 4042              		.loc 1 1854 1 is_stmt 1 view -0
 4043              		.cfi_startproc
 4044              		@ args = 0, pretend = 0, frame = 0
 4045              		@ frame_needed = 0, uses_anonymous_args = 0
 4046              		@ link register save eliminated.
1855:Drivers/STM32F4xx_HAL_Driver/Src/stm32f4xx_ll_usb.c ****   uint32_t USBx_BASE = (uint32_t)USBx;
 4047              		.loc 1 1855 3 view .LVU1291
ARM GAS  C:\Users\7636~1\AppData\Local\Temp\ccnv92VB.s 			page 123


1856:Drivers/STM32F4xx_HAL_Driver/Src/stm32f4xx_ll_usb.c **** 
1857:Drivers/STM32F4xx_HAL_Driver/Src/stm32f4xx_ll_usb.c ****   return ((USBx_HOST->HAINT) & 0xFFFFU);
 4048              		.loc 1 1857 3 view .LVU1292
 4049              		.loc 1 1857 12 is_stmt 0 view .LVU1293
 4050 0000 00F58060 		add	r0, r0, #1024
 4051              	.LVL335:
 4052              		.loc 1 1857 21 view .LVU1294
 4053 0004 4069     		ldr	r0, [r0, #20]
 4054              	.LVL336:
1858:Drivers/STM32F4xx_HAL_Driver/Src/stm32f4xx_ll_usb.c **** }
 4055              		.loc 1 1858 1 view .LVU1295
 4056 0006 80B2     		uxth	r0, r0
 4057 0008 7047     		bx	lr
 4058              		.cfi_endproc
 4059              	.LFE258:
 4061              		.section	.text.USB_HC_Halt,"ax",%progbits
 4062              		.align	1
 4063              		.global	USB_HC_Halt
 4064              		.syntax unified
 4065              		.thumb
 4066              		.thumb_func
 4068              	USB_HC_Halt:
 4069              	.LVL337:
 4070              	.LFB259:
1859:Drivers/STM32F4xx_HAL_Driver/Src/stm32f4xx_ll_usb.c **** 
1860:Drivers/STM32F4xx_HAL_Driver/Src/stm32f4xx_ll_usb.c **** /**
1861:Drivers/STM32F4xx_HAL_Driver/Src/stm32f4xx_ll_usb.c ****   * @brief  Halt a host channel
1862:Drivers/STM32F4xx_HAL_Driver/Src/stm32f4xx_ll_usb.c ****   * @param  USBx  Selected device
1863:Drivers/STM32F4xx_HAL_Driver/Src/stm32f4xx_ll_usb.c ****   * @param  hc_num  Host Channel number
1864:Drivers/STM32F4xx_HAL_Driver/Src/stm32f4xx_ll_usb.c ****   *         This parameter can be a value from 1 to 15
1865:Drivers/STM32F4xx_HAL_Driver/Src/stm32f4xx_ll_usb.c ****   * @retval HAL state
1866:Drivers/STM32F4xx_HAL_Driver/Src/stm32f4xx_ll_usb.c ****   */
1867:Drivers/STM32F4xx_HAL_Driver/Src/stm32f4xx_ll_usb.c **** HAL_StatusTypeDef USB_HC_Halt(USB_OTG_GlobalTypeDef *USBx, uint8_t hc_num)
1868:Drivers/STM32F4xx_HAL_Driver/Src/stm32f4xx_ll_usb.c **** {
 4071              		.loc 1 1868 1 is_stmt 1 view -0
 4072              		.cfi_startproc
 4073              		@ args = 0, pretend = 0, frame = 0
 4074              		@ frame_needed = 0, uses_anonymous_args = 0
 4075              		@ link register save eliminated.
 4076              		.loc 1 1868 1 is_stmt 0 view .LVU1297
 4077 0000 30B4     		push	{r4, r5}
 4078              	.LCFI44:
 4079              		.cfi_def_cfa_offset 8
 4080              		.cfi_offset 4, -8
 4081              		.cfi_offset 5, -4
1869:Drivers/STM32F4xx_HAL_Driver/Src/stm32f4xx_ll_usb.c ****   uint32_t USBx_BASE = (uint32_t)USBx;
 4082              		.loc 1 1869 3 is_stmt 1 view .LVU1298
 4083              	.LVL338:
1870:Drivers/STM32F4xx_HAL_Driver/Src/stm32f4xx_ll_usb.c ****   uint32_t hcnum = (uint32_t)hc_num;
 4084              		.loc 1 1870 3 view .LVU1299
1871:Drivers/STM32F4xx_HAL_Driver/Src/stm32f4xx_ll_usb.c ****   uint32_t count = 0U;
 4085              		.loc 1 1871 3 view .LVU1300
1872:Drivers/STM32F4xx_HAL_Driver/Src/stm32f4xx_ll_usb.c ****   uint32_t HcEpType = (USBx_HC(hcnum)->HCCHAR & USB_OTG_HCCHAR_EPTYP) >> 18;
 4086              		.loc 1 1872 3 view .LVU1301
 4087              		.loc 1 1872 24 is_stmt 0 view .LVU1302
 4088 0002 00EB4111 		add	r1, r0, r1, lsl #5
 4089              	.LVL339:
ARM GAS  C:\Users\7636~1\AppData\Local\Temp\ccnv92VB.s 			page 124


 4090              		.loc 1 1872 24 view .LVU1303
 4091 0006 01F5A062 		add	r2, r1, #1280
 4092              		.loc 1 1872 38 view .LVU1304
 4093 000a D1F80035 		ldr	r3, [r1, #1280]
 4094              		.loc 1 1872 12 view .LVU1305
 4095 000e C3F38143 		ubfx	r3, r3, #18, #2
 4096              	.LVL340:
1873:Drivers/STM32F4xx_HAL_Driver/Src/stm32f4xx_ll_usb.c ****   uint32_t ChannelEna = (USBx_HC(hcnum)->HCCHAR & USB_OTG_HCCHAR_CHENA) >> 31;
 4097              		.loc 1 1873 3 is_stmt 1 view .LVU1306
 4098              		.loc 1 1873 40 is_stmt 0 view .LVU1307
 4099 0012 D1F80045 		ldr	r4, [r1, #1280]
 4100              	.LVL341:
1874:Drivers/STM32F4xx_HAL_Driver/Src/stm32f4xx_ll_usb.c **** 
1875:Drivers/STM32F4xx_HAL_Driver/Src/stm32f4xx_ll_usb.c ****   if (((USBx->GAHBCFG & USB_OTG_GAHBCFG_DMAEN) == USB_OTG_GAHBCFG_DMAEN) &&
 4101              		.loc 1 1875 3 is_stmt 1 view .LVU1308
 4102              		.loc 1 1875 13 is_stmt 0 view .LVU1309
 4103 0016 8568     		ldr	r5, [r0, #8]
 4104              		.loc 1 1875 6 view .LVU1310
 4105 0018 15F0200F 		tst	r5, #32
 4106 001c 02D0     		beq	.L264
 4107 001e E40F     		lsrs	r4, r4, #31
 4108              	.LVL342:
 4109              		.loc 1 1875 74 discriminator 1 view .LVU1311
 4110 0020 002C     		cmp	r4, #0
 4111 0022 55D0     		beq	.L265
 4112              	.LVL343:
 4113              	.L264:
1876:Drivers/STM32F4xx_HAL_Driver/Src/stm32f4xx_ll_usb.c ****       (ChannelEna == 0U))
1877:Drivers/STM32F4xx_HAL_Driver/Src/stm32f4xx_ll_usb.c ****   {
1878:Drivers/STM32F4xx_HAL_Driver/Src/stm32f4xx_ll_usb.c ****     return HAL_OK;
1879:Drivers/STM32F4xx_HAL_Driver/Src/stm32f4xx_ll_usb.c ****   }
1880:Drivers/STM32F4xx_HAL_Driver/Src/stm32f4xx_ll_usb.c **** 
1881:Drivers/STM32F4xx_HAL_Driver/Src/stm32f4xx_ll_usb.c ****   /* Check for space in the request queue to issue the halt. */
1882:Drivers/STM32F4xx_HAL_Driver/Src/stm32f4xx_ll_usb.c ****   if ((HcEpType == HCCHAR_CTRL) || (HcEpType == HCCHAR_BULK))
 4114              		.loc 1 1882 3 is_stmt 1 view .LVU1312
 4115              		.loc 1 1882 6 is_stmt 0 view .LVU1313
 4116 0024 33B3     		cbz	r3, .L266
 4117              		.loc 1 1882 33 discriminator 1 view .LVU1314
 4118 0026 022B     		cmp	r3, #2
 4119 0028 24D0     		beq	.L266
1883:Drivers/STM32F4xx_HAL_Driver/Src/stm32f4xx_ll_usb.c ****   {
1884:Drivers/STM32F4xx_HAL_Driver/Src/stm32f4xx_ll_usb.c ****     USBx_HC(hcnum)->HCCHAR |= USB_OTG_HCCHAR_CHDIS;
1885:Drivers/STM32F4xx_HAL_Driver/Src/stm32f4xx_ll_usb.c **** 
1886:Drivers/STM32F4xx_HAL_Driver/Src/stm32f4xx_ll_usb.c ****     if ((USBx->GAHBCFG & USB_OTG_GAHBCFG_DMAEN) == 0U)
1887:Drivers/STM32F4xx_HAL_Driver/Src/stm32f4xx_ll_usb.c ****     {
1888:Drivers/STM32F4xx_HAL_Driver/Src/stm32f4xx_ll_usb.c ****       if ((USBx->HNPTXSTS & (0xFFU << 16)) == 0U)
1889:Drivers/STM32F4xx_HAL_Driver/Src/stm32f4xx_ll_usb.c ****       {
1890:Drivers/STM32F4xx_HAL_Driver/Src/stm32f4xx_ll_usb.c ****         USBx_HC(hcnum)->HCCHAR &= ~USB_OTG_HCCHAR_CHENA;
1891:Drivers/STM32F4xx_HAL_Driver/Src/stm32f4xx_ll_usb.c ****         USBx_HC(hcnum)->HCCHAR |= USB_OTG_HCCHAR_CHENA;
1892:Drivers/STM32F4xx_HAL_Driver/Src/stm32f4xx_ll_usb.c ****         USBx_HC(hcnum)->HCCHAR &= ~USB_OTG_HCCHAR_EPDIR;
1893:Drivers/STM32F4xx_HAL_Driver/Src/stm32f4xx_ll_usb.c ****         do
1894:Drivers/STM32F4xx_HAL_Driver/Src/stm32f4xx_ll_usb.c ****         {
1895:Drivers/STM32F4xx_HAL_Driver/Src/stm32f4xx_ll_usb.c ****           if (++count > 1000U)
1896:Drivers/STM32F4xx_HAL_Driver/Src/stm32f4xx_ll_usb.c ****           {
1897:Drivers/STM32F4xx_HAL_Driver/Src/stm32f4xx_ll_usb.c ****             break;
1898:Drivers/STM32F4xx_HAL_Driver/Src/stm32f4xx_ll_usb.c ****           }
1899:Drivers/STM32F4xx_HAL_Driver/Src/stm32f4xx_ll_usb.c ****         } while ((USBx_HC(hcnum)->HCCHAR & USB_OTG_HCCHAR_CHENA) == USB_OTG_HCCHAR_CHENA);
ARM GAS  C:\Users\7636~1\AppData\Local\Temp\ccnv92VB.s 			page 125


1900:Drivers/STM32F4xx_HAL_Driver/Src/stm32f4xx_ll_usb.c ****       }
1901:Drivers/STM32F4xx_HAL_Driver/Src/stm32f4xx_ll_usb.c ****       else
1902:Drivers/STM32F4xx_HAL_Driver/Src/stm32f4xx_ll_usb.c ****       {
1903:Drivers/STM32F4xx_HAL_Driver/Src/stm32f4xx_ll_usb.c ****         USBx_HC(hcnum)->HCCHAR |= USB_OTG_HCCHAR_CHENA;
1904:Drivers/STM32F4xx_HAL_Driver/Src/stm32f4xx_ll_usb.c ****       }
1905:Drivers/STM32F4xx_HAL_Driver/Src/stm32f4xx_ll_usb.c ****     }
1906:Drivers/STM32F4xx_HAL_Driver/Src/stm32f4xx_ll_usb.c ****   }
1907:Drivers/STM32F4xx_HAL_Driver/Src/stm32f4xx_ll_usb.c ****   else
1908:Drivers/STM32F4xx_HAL_Driver/Src/stm32f4xx_ll_usb.c ****   {
1909:Drivers/STM32F4xx_HAL_Driver/Src/stm32f4xx_ll_usb.c ****     USBx_HC(hcnum)->HCCHAR |= USB_OTG_HCCHAR_CHDIS;
 4120              		.loc 1 1909 5 is_stmt 1 view .LVU1315
 4121              		.loc 1 1909 28 is_stmt 0 view .LVU1316
 4122 002a D1F80035 		ldr	r3, [r1, #1280]
 4123              	.LVL344:
 4124              		.loc 1 1909 28 view .LVU1317
 4125 002e 43F08043 		orr	r3, r3, #1073741824
 4126 0032 C1F80035 		str	r3, [r1, #1280]
1910:Drivers/STM32F4xx_HAL_Driver/Src/stm32f4xx_ll_usb.c **** 
1911:Drivers/STM32F4xx_HAL_Driver/Src/stm32f4xx_ll_usb.c ****     if ((USBx_HOST->HPTXSTS & (0xFFU << 16)) == 0U)
 4127              		.loc 1 1911 5 is_stmt 1 view .LVU1318
 4128              		.loc 1 1911 19 is_stmt 0 view .LVU1319
 4129 0036 D0F81034 		ldr	r3, [r0, #1040]
 4130              		.loc 1 1911 8 view .LVU1320
 4131 003a 13F47F03 		ands	r3, r3, #16711680
 4132 003e 4AD1     		bne	.L270
1912:Drivers/STM32F4xx_HAL_Driver/Src/stm32f4xx_ll_usb.c ****     {
1913:Drivers/STM32F4xx_HAL_Driver/Src/stm32f4xx_ll_usb.c ****       USBx_HC(hcnum)->HCCHAR &= ~USB_OTG_HCCHAR_CHENA;
 4133              		.loc 1 1913 7 is_stmt 1 view .LVU1321
 4134              		.loc 1 1913 30 is_stmt 0 view .LVU1322
 4135 0040 D1F80005 		ldr	r0, [r1, #1280]
 4136              	.LVL345:
 4137              		.loc 1 1913 30 view .LVU1323
 4138 0044 20F00040 		bic	r0, r0, #-2147483648
 4139 0048 C1F80005 		str	r0, [r1, #1280]
1914:Drivers/STM32F4xx_HAL_Driver/Src/stm32f4xx_ll_usb.c ****       USBx_HC(hcnum)->HCCHAR |= USB_OTG_HCCHAR_CHENA;
 4140              		.loc 1 1914 7 is_stmt 1 view .LVU1324
 4141              		.loc 1 1914 30 is_stmt 0 view .LVU1325
 4142 004c D1F80005 		ldr	r0, [r1, #1280]
 4143 0050 40F00040 		orr	r0, r0, #-2147483648
 4144 0054 C1F80005 		str	r0, [r1, #1280]
1915:Drivers/STM32F4xx_HAL_Driver/Src/stm32f4xx_ll_usb.c ****       USBx_HC(hcnum)->HCCHAR &= ~USB_OTG_HCCHAR_EPDIR;
 4145              		.loc 1 1915 7 is_stmt 1 view .LVU1326
 4146              		.loc 1 1915 30 is_stmt 0 view .LVU1327
 4147 0058 D1F80005 		ldr	r0, [r1, #1280]
 4148 005c 20F40040 		bic	r0, r0, #32768
 4149 0060 C1F80005 		str	r0, [r1, #1280]
 4150              	.LVL346:
 4151              	.L271:
1916:Drivers/STM32F4xx_HAL_Driver/Src/stm32f4xx_ll_usb.c ****       do
 4152              		.loc 1 1916 7 is_stmt 1 view .LVU1328
1917:Drivers/STM32F4xx_HAL_Driver/Src/stm32f4xx_ll_usb.c ****       {
1918:Drivers/STM32F4xx_HAL_Driver/Src/stm32f4xx_ll_usb.c ****         if (++count > 1000U)
 4153              		.loc 1 1918 9 view .LVU1329
 4154              		.loc 1 1918 12 is_stmt 0 view .LVU1330
 4155 0064 0133     		adds	r3, r3, #1
 4156              	.LVL347:
 4157              		.loc 1 1918 12 view .LVU1331
ARM GAS  C:\Users\7636~1\AppData\Local\Temp\ccnv92VB.s 			page 126


 4158 0066 B3F57A7F 		cmp	r3, #1000
 4159 006a 31D8     		bhi	.L265
1919:Drivers/STM32F4xx_HAL_Driver/Src/stm32f4xx_ll_usb.c ****         {
1920:Drivers/STM32F4xx_HAL_Driver/Src/stm32f4xx_ll_usb.c ****           break;
1921:Drivers/STM32F4xx_HAL_Driver/Src/stm32f4xx_ll_usb.c ****         }
1922:Drivers/STM32F4xx_HAL_Driver/Src/stm32f4xx_ll_usb.c ****       } while ((USBx_HC(hcnum)->HCCHAR & USB_OTG_HCCHAR_CHENA) == USB_OTG_HCCHAR_CHENA);
 4160              		.loc 1 1922 15 is_stmt 1 view .LVU1332
 4161              		.loc 1 1922 31 is_stmt 0 view .LVU1333
 4162 006c 1168     		ldr	r1, [r2]
 4163              		.loc 1 1922 7 view .LVU1334
 4164 006e 0029     		cmp	r1, #0
 4165 0070 F8DB     		blt	.L271
 4166 0072 2DE0     		b	.L265
 4167              	.LVL348:
 4168              	.L266:
1884:Drivers/STM32F4xx_HAL_Driver/Src/stm32f4xx_ll_usb.c **** 
 4169              		.loc 1 1884 5 is_stmt 1 view .LVU1335
1884:Drivers/STM32F4xx_HAL_Driver/Src/stm32f4xx_ll_usb.c **** 
 4170              		.loc 1 1884 28 is_stmt 0 view .LVU1336
 4171 0074 D1F80035 		ldr	r3, [r1, #1280]
 4172              	.LVL349:
1884:Drivers/STM32F4xx_HAL_Driver/Src/stm32f4xx_ll_usb.c **** 
 4173              		.loc 1 1884 28 view .LVU1337
 4174 0078 43F08043 		orr	r3, r3, #1073741824
 4175 007c C1F80035 		str	r3, [r1, #1280]
1886:Drivers/STM32F4xx_HAL_Driver/Src/stm32f4xx_ll_usb.c ****     {
 4176              		.loc 1 1886 5 is_stmt 1 view .LVU1338
1886:Drivers/STM32F4xx_HAL_Driver/Src/stm32f4xx_ll_usb.c ****     {
 4177              		.loc 1 1886 14 is_stmt 0 view .LVU1339
 4178 0080 8368     		ldr	r3, [r0, #8]
1886:Drivers/STM32F4xx_HAL_Driver/Src/stm32f4xx_ll_usb.c ****     {
 4179              		.loc 1 1886 8 view .LVU1340
 4180 0082 13F0200F 		tst	r3, #32
 4181 0086 23D1     		bne	.L265
1888:Drivers/STM32F4xx_HAL_Driver/Src/stm32f4xx_ll_usb.c ****       {
 4182              		.loc 1 1888 7 is_stmt 1 view .LVU1341
1888:Drivers/STM32F4xx_HAL_Driver/Src/stm32f4xx_ll_usb.c ****       {
 4183              		.loc 1 1888 16 is_stmt 0 view .LVU1342
 4184 0088 C36A     		ldr	r3, [r0, #44]
1888:Drivers/STM32F4xx_HAL_Driver/Src/stm32f4xx_ll_usb.c ****       {
 4185              		.loc 1 1888 10 view .LVU1343
 4186 008a 13F47F03 		ands	r3, r3, #16711680
 4187 008e 19D1     		bne	.L268
1890:Drivers/STM32F4xx_HAL_Driver/Src/stm32f4xx_ll_usb.c ****         USBx_HC(hcnum)->HCCHAR |= USB_OTG_HCCHAR_CHENA;
 4188              		.loc 1 1890 9 is_stmt 1 view .LVU1344
1890:Drivers/STM32F4xx_HAL_Driver/Src/stm32f4xx_ll_usb.c ****         USBx_HC(hcnum)->HCCHAR |= USB_OTG_HCCHAR_CHENA;
 4189              		.loc 1 1890 32 is_stmt 0 view .LVU1345
 4190 0090 D1F80005 		ldr	r0, [r1, #1280]
 4191              	.LVL350:
1890:Drivers/STM32F4xx_HAL_Driver/Src/stm32f4xx_ll_usb.c ****         USBx_HC(hcnum)->HCCHAR |= USB_OTG_HCCHAR_CHENA;
 4192              		.loc 1 1890 32 view .LVU1346
 4193 0094 20F00040 		bic	r0, r0, #-2147483648
 4194 0098 C1F80005 		str	r0, [r1, #1280]
1891:Drivers/STM32F4xx_HAL_Driver/Src/stm32f4xx_ll_usb.c ****         USBx_HC(hcnum)->HCCHAR &= ~USB_OTG_HCCHAR_EPDIR;
 4195              		.loc 1 1891 9 is_stmt 1 view .LVU1347
1891:Drivers/STM32F4xx_HAL_Driver/Src/stm32f4xx_ll_usb.c ****         USBx_HC(hcnum)->HCCHAR &= ~USB_OTG_HCCHAR_EPDIR;
 4196              		.loc 1 1891 32 is_stmt 0 view .LVU1348
ARM GAS  C:\Users\7636~1\AppData\Local\Temp\ccnv92VB.s 			page 127


 4197 009c D1F80005 		ldr	r0, [r1, #1280]
 4198 00a0 40F00040 		orr	r0, r0, #-2147483648
 4199 00a4 C1F80005 		str	r0, [r1, #1280]
1892:Drivers/STM32F4xx_HAL_Driver/Src/stm32f4xx_ll_usb.c ****         do
 4200              		.loc 1 1892 9 is_stmt 1 view .LVU1349
1892:Drivers/STM32F4xx_HAL_Driver/Src/stm32f4xx_ll_usb.c ****         do
 4201              		.loc 1 1892 32 is_stmt 0 view .LVU1350
 4202 00a8 D1F80005 		ldr	r0, [r1, #1280]
 4203 00ac 20F40040 		bic	r0, r0, #32768
 4204 00b0 C1F80005 		str	r0, [r1, #1280]
 4205              	.LVL351:
 4206              	.L269:
1893:Drivers/STM32F4xx_HAL_Driver/Src/stm32f4xx_ll_usb.c ****         {
 4207              		.loc 1 1893 9 is_stmt 1 view .LVU1351
1895:Drivers/STM32F4xx_HAL_Driver/Src/stm32f4xx_ll_usb.c ****           {
 4208              		.loc 1 1895 11 view .LVU1352
1895:Drivers/STM32F4xx_HAL_Driver/Src/stm32f4xx_ll_usb.c ****           {
 4209              		.loc 1 1895 14 is_stmt 0 view .LVU1353
 4210 00b4 0133     		adds	r3, r3, #1
 4211              	.LVL352:
1895:Drivers/STM32F4xx_HAL_Driver/Src/stm32f4xx_ll_usb.c ****           {
 4212              		.loc 1 1895 14 view .LVU1354
 4213 00b6 B3F57A7F 		cmp	r3, #1000
 4214 00ba 09D8     		bhi	.L265
1899:Drivers/STM32F4xx_HAL_Driver/Src/stm32f4xx_ll_usb.c ****       }
 4215              		.loc 1 1899 17 is_stmt 1 view .LVU1355
1899:Drivers/STM32F4xx_HAL_Driver/Src/stm32f4xx_ll_usb.c ****       }
 4216              		.loc 1 1899 33 is_stmt 0 view .LVU1356
 4217 00bc 1168     		ldr	r1, [r2]
1899:Drivers/STM32F4xx_HAL_Driver/Src/stm32f4xx_ll_usb.c ****       }
 4218              		.loc 1 1899 9 view .LVU1357
 4219 00be 0029     		cmp	r1, #0
 4220 00c0 F8DB     		blt	.L269
 4221 00c2 05E0     		b	.L265
 4222              	.LVL353:
 4223              	.L268:
1903:Drivers/STM32F4xx_HAL_Driver/Src/stm32f4xx_ll_usb.c ****       }
 4224              		.loc 1 1903 9 is_stmt 1 view .LVU1358
1903:Drivers/STM32F4xx_HAL_Driver/Src/stm32f4xx_ll_usb.c ****       }
 4225              		.loc 1 1903 32 is_stmt 0 view .LVU1359
 4226 00c4 D1F80035 		ldr	r3, [r1, #1280]
 4227 00c8 43F00043 		orr	r3, r3, #-2147483648
 4228 00cc C1F80035 		str	r3, [r1, #1280]
 4229              	.LVL354:
 4230              	.L265:
1923:Drivers/STM32F4xx_HAL_Driver/Src/stm32f4xx_ll_usb.c ****     }
1924:Drivers/STM32F4xx_HAL_Driver/Src/stm32f4xx_ll_usb.c ****     else
1925:Drivers/STM32F4xx_HAL_Driver/Src/stm32f4xx_ll_usb.c ****     {
1926:Drivers/STM32F4xx_HAL_Driver/Src/stm32f4xx_ll_usb.c ****       USBx_HC(hcnum)->HCCHAR |= USB_OTG_HCCHAR_CHENA;
1927:Drivers/STM32F4xx_HAL_Driver/Src/stm32f4xx_ll_usb.c ****     }
1928:Drivers/STM32F4xx_HAL_Driver/Src/stm32f4xx_ll_usb.c ****   }
1929:Drivers/STM32F4xx_HAL_Driver/Src/stm32f4xx_ll_usb.c **** 
1930:Drivers/STM32F4xx_HAL_Driver/Src/stm32f4xx_ll_usb.c ****   return HAL_OK;
1931:Drivers/STM32F4xx_HAL_Driver/Src/stm32f4xx_ll_usb.c **** }
 4231              		.loc 1 1931 1 view .LVU1360
 4232 00d0 0020     		movs	r0, #0
 4233 00d2 30BC     		pop	{r4, r5}
ARM GAS  C:\Users\7636~1\AppData\Local\Temp\ccnv92VB.s 			page 128


 4234              	.LCFI45:
 4235              		.cfi_remember_state
 4236              		.cfi_restore 5
 4237              		.cfi_restore 4
 4238              		.cfi_def_cfa_offset 0
 4239 00d4 7047     		bx	lr
 4240              	.LVL355:
 4241              	.L270:
 4242              	.LCFI46:
 4243              		.cfi_restore_state
1926:Drivers/STM32F4xx_HAL_Driver/Src/stm32f4xx_ll_usb.c ****     }
 4244              		.loc 1 1926 7 is_stmt 1 view .LVU1361
1926:Drivers/STM32F4xx_HAL_Driver/Src/stm32f4xx_ll_usb.c ****     }
 4245              		.loc 1 1926 30 is_stmt 0 view .LVU1362
 4246 00d6 D1F80035 		ldr	r3, [r1, #1280]
 4247 00da 43F00043 		orr	r3, r3, #-2147483648
 4248 00de C1F80035 		str	r3, [r1, #1280]
 4249 00e2 F5E7     		b	.L265
 4250              		.cfi_endproc
 4251              	.LFE259:
 4253              		.section	.text.USB_DoPing,"ax",%progbits
 4254              		.align	1
 4255              		.global	USB_DoPing
 4256              		.syntax unified
 4257              		.thumb
 4258              		.thumb_func
 4260              	USB_DoPing:
 4261              	.LVL356:
 4262              	.LFB260:
1932:Drivers/STM32F4xx_HAL_Driver/Src/stm32f4xx_ll_usb.c **** 
1933:Drivers/STM32F4xx_HAL_Driver/Src/stm32f4xx_ll_usb.c **** /**
1934:Drivers/STM32F4xx_HAL_Driver/Src/stm32f4xx_ll_usb.c ****   * @brief  Initiate Do Ping protocol
1935:Drivers/STM32F4xx_HAL_Driver/Src/stm32f4xx_ll_usb.c ****   * @param  USBx  Selected device
1936:Drivers/STM32F4xx_HAL_Driver/Src/stm32f4xx_ll_usb.c ****   * @param  hc_num  Host Channel number
1937:Drivers/STM32F4xx_HAL_Driver/Src/stm32f4xx_ll_usb.c ****   *         This parameter can be a value from 1 to 15
1938:Drivers/STM32F4xx_HAL_Driver/Src/stm32f4xx_ll_usb.c ****   * @retval HAL state
1939:Drivers/STM32F4xx_HAL_Driver/Src/stm32f4xx_ll_usb.c ****   */
1940:Drivers/STM32F4xx_HAL_Driver/Src/stm32f4xx_ll_usb.c **** HAL_StatusTypeDef USB_DoPing(USB_OTG_GlobalTypeDef *USBx, uint8_t ch_num)
1941:Drivers/STM32F4xx_HAL_Driver/Src/stm32f4xx_ll_usb.c **** {
 4263              		.loc 1 1941 1 is_stmt 1 view -0
 4264              		.cfi_startproc
 4265              		@ args = 0, pretend = 0, frame = 0
 4266              		@ frame_needed = 0, uses_anonymous_args = 0
 4267              		@ link register save eliminated.
1942:Drivers/STM32F4xx_HAL_Driver/Src/stm32f4xx_ll_usb.c ****   uint32_t USBx_BASE = (uint32_t)USBx;
 4268              		.loc 1 1942 3 view .LVU1364
1943:Drivers/STM32F4xx_HAL_Driver/Src/stm32f4xx_ll_usb.c ****   uint32_t chnum = (uint32_t)ch_num;
 4269              		.loc 1 1943 3 view .LVU1365
1944:Drivers/STM32F4xx_HAL_Driver/Src/stm32f4xx_ll_usb.c ****   uint32_t num_packets = 1U;
 4270              		.loc 1 1944 3 view .LVU1366
1945:Drivers/STM32F4xx_HAL_Driver/Src/stm32f4xx_ll_usb.c ****   uint32_t tmpreg;
 4271              		.loc 1 1945 3 view .LVU1367
1946:Drivers/STM32F4xx_HAL_Driver/Src/stm32f4xx_ll_usb.c **** 
1947:Drivers/STM32F4xx_HAL_Driver/Src/stm32f4xx_ll_usb.c ****   USBx_HC(chnum)->HCTSIZ = ((num_packets << 19) & USB_OTG_HCTSIZ_PKTCNT) |
 4272              		.loc 1 1947 3 view .LVU1368
 4273 0000 00EB4111 		add	r1, r0, r1, lsl #5
 4274              	.LVL357:
ARM GAS  C:\Users\7636~1\AppData\Local\Temp\ccnv92VB.s 			page 129


 4275              		.loc 1 1947 26 is_stmt 0 view .LVU1369
 4276 0004 064A     		ldr	r2, .L274
 4277 0006 C1F81025 		str	r2, [r1, #1296]
1948:Drivers/STM32F4xx_HAL_Driver/Src/stm32f4xx_ll_usb.c ****                            USB_OTG_HCTSIZ_DOPING;
1949:Drivers/STM32F4xx_HAL_Driver/Src/stm32f4xx_ll_usb.c **** 
1950:Drivers/STM32F4xx_HAL_Driver/Src/stm32f4xx_ll_usb.c ****   /* Set host channel enable */
1951:Drivers/STM32F4xx_HAL_Driver/Src/stm32f4xx_ll_usb.c ****   tmpreg = USBx_HC(chnum)->HCCHAR;
 4278              		.loc 1 1951 3 is_stmt 1 view .LVU1370
 4279              		.loc 1 1951 10 is_stmt 0 view .LVU1371
 4280 000a D1F80035 		ldr	r3, [r1, #1280]
 4281              	.LVL358:
1952:Drivers/STM32F4xx_HAL_Driver/Src/stm32f4xx_ll_usb.c ****   tmpreg &= ~USB_OTG_HCCHAR_CHDIS;
 4282              		.loc 1 1952 3 is_stmt 1 view .LVU1372
 4283              		.loc 1 1952 10 is_stmt 0 view .LVU1373
 4284 000e 23F08043 		bic	r3, r3, #1073741824
 4285              	.LVL359:
1953:Drivers/STM32F4xx_HAL_Driver/Src/stm32f4xx_ll_usb.c ****   tmpreg |= USB_OTG_HCCHAR_CHENA;
 4286              		.loc 1 1953 3 is_stmt 1 view .LVU1374
 4287              		.loc 1 1953 10 is_stmt 0 view .LVU1375
 4288 0012 43F00043 		orr	r3, r3, #-2147483648
 4289              	.LVL360:
1954:Drivers/STM32F4xx_HAL_Driver/Src/stm32f4xx_ll_usb.c ****   USBx_HC(chnum)->HCCHAR = tmpreg;
 4290              		.loc 1 1954 3 is_stmt 1 view .LVU1376
 4291              		.loc 1 1954 26 is_stmt 0 view .LVU1377
 4292 0016 C1F80035 		str	r3, [r1, #1280]
1955:Drivers/STM32F4xx_HAL_Driver/Src/stm32f4xx_ll_usb.c **** 
1956:Drivers/STM32F4xx_HAL_Driver/Src/stm32f4xx_ll_usb.c ****   return HAL_OK;
 4293              		.loc 1 1956 3 is_stmt 1 view .LVU1378
1957:Drivers/STM32F4xx_HAL_Driver/Src/stm32f4xx_ll_usb.c **** }
 4294              		.loc 1 1957 1 is_stmt 0 view .LVU1379
 4295 001a 0020     		movs	r0, #0
 4296              	.LVL361:
 4297              		.loc 1 1957 1 view .LVU1380
 4298 001c 7047     		bx	lr
 4299              	.L275:
 4300 001e 00BF     		.align	2
 4301              	.L274:
 4302 0020 00000880 		.word	-2146959360
 4303              		.cfi_endproc
 4304              	.LFE260:
 4306              		.section	.text.USB_HC_StartXfer,"ax",%progbits
 4307              		.align	1
 4308              		.global	USB_HC_StartXfer
 4309              		.syntax unified
 4310              		.thumb
 4311              		.thumb_func
 4313              	USB_HC_StartXfer:
 4314              	.LVL362:
 4315              	.LFB257:
1715:Drivers/STM32F4xx_HAL_Driver/Src/stm32f4xx_ll_usb.c ****   uint32_t USBx_BASE = (uint32_t)USBx;
 4316              		.loc 1 1715 1 is_stmt 1 view -0
 4317              		.cfi_startproc
 4318              		@ args = 0, pretend = 0, frame = 8
 4319              		@ frame_needed = 0, uses_anonymous_args = 0
1715:Drivers/STM32F4xx_HAL_Driver/Src/stm32f4xx_ll_usb.c ****   uint32_t USBx_BASE = (uint32_t)USBx;
 4320              		.loc 1 1715 1 is_stmt 0 view .LVU1382
 4321 0000 30B5     		push	{r4, r5, lr}
ARM GAS  C:\Users\7636~1\AppData\Local\Temp\ccnv92VB.s 			page 130


 4322              	.LCFI47:
 4323              		.cfi_def_cfa_offset 12
 4324              		.cfi_offset 4, -12
 4325              		.cfi_offset 5, -8
 4326              		.cfi_offset 14, -4
 4327 0002 85B0     		sub	sp, sp, #20
 4328              	.LCFI48:
 4329              		.cfi_def_cfa_offset 32
1716:Drivers/STM32F4xx_HAL_Driver/Src/stm32f4xx_ll_usb.c ****   uint32_t ch_num = (uint32_t)hc->ch_num;
 4330              		.loc 1 1716 3 is_stmt 1 view .LVU1383
 4331              	.LVL363:
1717:Drivers/STM32F4xx_HAL_Driver/Src/stm32f4xx_ll_usb.c ****   __IO uint32_t tmpreg;
 4332              		.loc 1 1717 3 view .LVU1384
1717:Drivers/STM32F4xx_HAL_Driver/Src/stm32f4xx_ll_usb.c ****   __IO uint32_t tmpreg;
 4333              		.loc 1 1717 33 is_stmt 0 view .LVU1385
 4334 0004 4B78     		ldrb	r3, [r1, #1]	@ zero_extendqisi2
 4335              	.LVL364:
1718:Drivers/STM32F4xx_HAL_Driver/Src/stm32f4xx_ll_usb.c ****   uint8_t  is_oddframe;
 4336              		.loc 1 1718 3 is_stmt 1 view .LVU1386
1719:Drivers/STM32F4xx_HAL_Driver/Src/stm32f4xx_ll_usb.c ****   uint16_t len_words;
 4337              		.loc 1 1719 3 view .LVU1387
1720:Drivers/STM32F4xx_HAL_Driver/Src/stm32f4xx_ll_usb.c ****   uint16_t num_packets;
 4338              		.loc 1 1720 3 view .LVU1388
1721:Drivers/STM32F4xx_HAL_Driver/Src/stm32f4xx_ll_usb.c ****   uint16_t max_hc_pkt_count = 256U;
 4339              		.loc 1 1721 3 view .LVU1389
1722:Drivers/STM32F4xx_HAL_Driver/Src/stm32f4xx_ll_usb.c **** 
 4340              		.loc 1 1722 3 view .LVU1390
1724:Drivers/STM32F4xx_HAL_Driver/Src/stm32f4xx_ll_usb.c ****   {
 4341              		.loc 1 1724 3 view .LVU1391
1724:Drivers/STM32F4xx_HAL_Driver/Src/stm32f4xx_ll_usb.c ****   {
 4342              		.loc 1 1724 13 is_stmt 0 view .LVU1392
 4343 0006 C46B     		ldr	r4, [r0, #60]
1724:Drivers/STM32F4xx_HAL_Driver/Src/stm32f4xx_ll_usb.c ****   {
 4344              		.loc 1 1724 6 view .LVU1393
 4345 0008 14F4807F 		tst	r4, #256
 4346 000c 07D0     		beq	.L277
1724:Drivers/STM32F4xx_HAL_Driver/Src/stm32f4xx_ll_usb.c ****   {
 4347              		.loc 1 1724 47 discriminator 1 view .LVU1394
 4348 000e 0C79     		ldrb	r4, [r1, #4]	@ zero_extendqisi2
1724:Drivers/STM32F4xx_HAL_Driver/Src/stm32f4xx_ll_usb.c ****   {
 4349              		.loc 1 1724 41 discriminator 1 view .LVU1395
 4350 0010 2CB9     		cbnz	r4, .L277
1727:Drivers/STM32F4xx_HAL_Driver/Src/stm32f4xx_ll_usb.c ****     {
 4351              		.loc 1 1727 5 is_stmt 1 view .LVU1396
1727:Drivers/STM32F4xx_HAL_Driver/Src/stm32f4xx_ll_usb.c ****     {
 4352              		.loc 1 1727 8 is_stmt 0 view .LVU1397
 4353 0012 012A     		cmp	r2, #1
 4354 0014 16D0     		beq	.L293
 4355              	.L278:
1734:Drivers/STM32F4xx_HAL_Driver/Src/stm32f4xx_ll_usb.c ****     {
 4356              		.loc 1 1734 5 is_stmt 1 view .LVU1398
1734:Drivers/STM32F4xx_HAL_Driver/Src/stm32f4xx_ll_usb.c ****     {
 4357              		.loc 1 1734 8 is_stmt 0 view .LVU1399
 4358 0016 12B9     		cbnz	r2, .L277
1734:Drivers/STM32F4xx_HAL_Driver/Src/stm32f4xx_ll_usb.c ****     {
 4359              		.loc 1 1734 27 discriminator 1 view .LVU1400
 4360 0018 4C79     		ldrb	r4, [r1, #5]	@ zero_extendqisi2
ARM GAS  C:\Users\7636~1\AppData\Local\Temp\ccnv92VB.s 			page 131


1734:Drivers/STM32F4xx_HAL_Driver/Src/stm32f4xx_ll_usb.c ****     {
 4361              		.loc 1 1734 21 discriminator 1 view .LVU1401
 4362 001a 012C     		cmp	r4, #1
 4363 001c 1FD0     		beq	.L294
 4364              	.L277:
1743:Drivers/STM32F4xx_HAL_Driver/Src/stm32f4xx_ll_usb.c ****   {
 4365              		.loc 1 1743 3 is_stmt 1 view .LVU1402
1743:Drivers/STM32F4xx_HAL_Driver/Src/stm32f4xx_ll_usb.c ****   {
 4366              		.loc 1 1743 9 is_stmt 0 view .LVU1403
 4367 001e 4C69     		ldr	r4, [r1, #20]
1743:Drivers/STM32F4xx_HAL_Driver/Src/stm32f4xx_ll_usb.c ****   {
 4368              		.loc 1 1743 6 view .LVU1404
 4369 0020 0CB3     		cbz	r4, .L291
1745:Drivers/STM32F4xx_HAL_Driver/Src/stm32f4xx_ll_usb.c **** 
 4370              		.loc 1 1745 5 is_stmt 1 view .LVU1405
1745:Drivers/STM32F4xx_HAL_Driver/Src/stm32f4xx_ll_usb.c **** 
 4371              		.loc 1 1745 48 is_stmt 0 view .LVU1406
 4372 0022 0D89     		ldrh	r5, [r1, #8]
1745:Drivers/STM32F4xx_HAL_Driver/Src/stm32f4xx_ll_usb.c **** 
 4373              		.loc 1 1745 44 view .LVU1407
 4374 0024 04EB050C 		add	ip, r4, r5
1745:Drivers/STM32F4xx_HAL_Driver/Src/stm32f4xx_ll_usb.c **** 
 4375              		.loc 1 1745 61 view .LVU1408
 4376 0028 0CF1FF3C 		add	ip, ip, #-1
1745:Drivers/STM32F4xx_HAL_Driver/Src/stm32f4xx_ll_usb.c **** 
 4377              		.loc 1 1745 67 view .LVU1409
 4378 002c BCFBF5FC 		udiv	ip, ip, r5
1745:Drivers/STM32F4xx_HAL_Driver/Src/stm32f4xx_ll_usb.c **** 
 4379              		.loc 1 1745 17 view .LVU1410
 4380 0030 1FFA8CFC 		uxth	ip, ip
 4381              	.LVL365:
1747:Drivers/STM32F4xx_HAL_Driver/Src/stm32f4xx_ll_usb.c ****     {
 4382              		.loc 1 1747 5 is_stmt 1 view .LVU1411
1747:Drivers/STM32F4xx_HAL_Driver/Src/stm32f4xx_ll_usb.c ****     {
 4383              		.loc 1 1747 8 is_stmt 0 view .LVU1412
 4384 0034 BCF5807F 		cmp	ip, #256
 4385 0038 17D9     		bls	.L281
1749:Drivers/STM32F4xx_HAL_Driver/Src/stm32f4xx_ll_usb.c ****       hc->XferSize = (uint32_t)num_packets * hc->max_packet;
 4386              		.loc 1 1749 7 is_stmt 1 view .LVU1413
 4387              	.LVL366:
1750:Drivers/STM32F4xx_HAL_Driver/Src/stm32f4xx_ll_usb.c ****     }
 4388              		.loc 1 1750 7 view .LVU1414
1750:Drivers/STM32F4xx_HAL_Driver/Src/stm32f4xx_ll_usb.c ****     }
 4389              		.loc 1 1750 44 is_stmt 0 view .LVU1415
 4390 003a 2D02     		lsls	r5, r5, #8
1750:Drivers/STM32F4xx_HAL_Driver/Src/stm32f4xx_ll_usb.c ****     }
 4391              		.loc 1 1750 20 view .LVU1416
 4392 003c 0D61     		str	r5, [r1, #16]
1749:Drivers/STM32F4xx_HAL_Driver/Src/stm32f4xx_ll_usb.c ****       hc->XferSize = (uint32_t)num_packets * hc->max_packet;
 4393              		.loc 1 1749 19 view .LVU1417
 4394 003e 4FF4807C 		mov	ip, #256
 4395 0042 12E0     		b	.L281
 4396              	.LVL367:
 4397              	.L293:
1727:Drivers/STM32F4xx_HAL_Driver/Src/stm32f4xx_ll_usb.c ****     {
 4398              		.loc 1 1727 28 discriminator 1 view .LVU1418
 4399 0044 CC79     		ldrb	r4, [r1, #7]	@ zero_extendqisi2
ARM GAS  C:\Users\7636~1\AppData\Local\Temp\ccnv92VB.s 			page 132


1727:Drivers/STM32F4xx_HAL_Driver/Src/stm32f4xx_ll_usb.c ****     {
 4400              		.loc 1 1727 21 discriminator 1 view .LVU1419
 4401 0046 0CB1     		cbz	r4, .L279
1727:Drivers/STM32F4xx_HAL_Driver/Src/stm32f4xx_ll_usb.c ****     {
 4402              		.loc 1 1727 55 discriminator 2 view .LVU1420
 4403 0048 022C     		cmp	r4, #2
 4404 004a E4D1     		bne	.L278
 4405              	.L279:
1729:Drivers/STM32F4xx_HAL_Driver/Src/stm32f4xx_ll_usb.c ****                                                USB_OTG_HCINTMSK_ACKM |
 4406              		.loc 1 1729 7 is_stmt 1 view .LVU1421
1729:Drivers/STM32F4xx_HAL_Driver/Src/stm32f4xx_ll_usb.c ****                                                USB_OTG_HCINTMSK_ACKM |
 4407              		.loc 1 1729 43 is_stmt 0 view .LVU1422
 4408 004c 00EB4314 		add	r4, r0, r3, lsl #5
 4409 0050 D4F80C55 		ldr	r5, [r4, #1292]
 4410 0054 25F07005 		bic	r5, r5, #112
 4411 0058 C4F80C55 		str	r5, [r4, #1292]
 4412 005c DBE7     		b	.L278
 4413              	.L294:
1736:Drivers/STM32F4xx_HAL_Driver/Src/stm32f4xx_ll_usb.c ****       return HAL_OK;
 4414              		.loc 1 1736 7 is_stmt 1 view .LVU1423
1736:Drivers/STM32F4xx_HAL_Driver/Src/stm32f4xx_ll_usb.c ****       return HAL_OK;
 4415              		.loc 1 1736 13 is_stmt 0 view .LVU1424
 4416 005e 4978     		ldrb	r1, [r1, #1]	@ zero_extendqisi2
 4417              	.LVL368:
1736:Drivers/STM32F4xx_HAL_Driver/Src/stm32f4xx_ll_usb.c ****       return HAL_OK;
 4418              		.loc 1 1736 13 view .LVU1425
 4419 0060 FFF7FEFF 		bl	USB_DoPing
 4420              	.LVL369:
1737:Drivers/STM32F4xx_HAL_Driver/Src/stm32f4xx_ll_usb.c ****     }
 4421              		.loc 1 1737 7 is_stmt 1 view .LVU1426
1737:Drivers/STM32F4xx_HAL_Driver/Src/stm32f4xx_ll_usb.c ****     }
 4422              		.loc 1 1737 14 is_stmt 0 view .LVU1427
 4423 0064 70E0     		b	.L280
 4424              	.LVL370:
 4425              	.L291:
1755:Drivers/STM32F4xx_HAL_Driver/Src/stm32f4xx_ll_usb.c ****   }
 4426              		.loc 1 1755 17 view .LVU1428
 4427 0066 4FF0010C 		mov	ip, #1
 4428              	.L281:
 4429              	.LVL371:
1762:Drivers/STM32F4xx_HAL_Driver/Src/stm32f4xx_ll_usb.c ****   {
 4430              		.loc 1 1762 3 is_stmt 1 view .LVU1429
1762:Drivers/STM32F4xx_HAL_Driver/Src/stm32f4xx_ll_usb.c ****   {
 4431              		.loc 1 1762 9 is_stmt 0 view .LVU1430
 4432 006a CD78     		ldrb	r5, [r1, #3]	@ zero_extendqisi2
1762:Drivers/STM32F4xx_HAL_Driver/Src/stm32f4xx_ll_usb.c ****   {
 4433              		.loc 1 1762 6 view .LVU1431
 4434 006c 002D     		cmp	r5, #0
 4435 006e 52D0     		beq	.L282
1764:Drivers/STM32F4xx_HAL_Driver/Src/stm32f4xx_ll_usb.c ****   }
 4436              		.loc 1 1764 5 is_stmt 1 view .LVU1432
1764:Drivers/STM32F4xx_HAL_Driver/Src/stm32f4xx_ll_usb.c ****   }
 4437              		.loc 1 1764 46 is_stmt 0 view .LVU1433
 4438 0070 0C89     		ldrh	r4, [r1, #8]
1764:Drivers/STM32F4xx_HAL_Driver/Src/stm32f4xx_ll_usb.c ****   }
 4439              		.loc 1 1764 42 view .LVU1434
 4440 0072 04FB0CF4 		mul	r4, r4, ip
ARM GAS  C:\Users\7636~1\AppData\Local\Temp\ccnv92VB.s 			page 133


1764:Drivers/STM32F4xx_HAL_Driver/Src/stm32f4xx_ll_usb.c ****   }
 4441              		.loc 1 1764 18 view .LVU1435
 4442 0076 0C61     		str	r4, [r1, #16]
 4443              	.L283:
1772:Drivers/STM32F4xx_HAL_Driver/Src/stm32f4xx_ll_usb.c ****                             (((uint32_t)num_packets << 19) & USB_OTG_HCTSIZ_PKTCNT) |
 4444              		.loc 1 1772 3 is_stmt 1 view .LVU1436
1772:Drivers/STM32F4xx_HAL_Driver/Src/stm32f4xx_ll_usb.c ****                             (((uint32_t)num_packets << 19) & USB_OTG_HCTSIZ_PKTCNT) |
 4445              		.loc 1 1772 32 is_stmt 0 view .LVU1437
 4446 0078 0C69     		ldr	r4, [r1, #16]
1772:Drivers/STM32F4xx_HAL_Driver/Src/stm32f4xx_ll_usb.c ****                             (((uint32_t)num_packets << 19) & USB_OTG_HCTSIZ_PKTCNT) |
 4447              		.loc 1 1772 43 view .LVU1438
 4448 007a C4F31204 		ubfx	r4, r4, #0, #19
1773:Drivers/STM32F4xx_HAL_Driver/Src/stm32f4xx_ll_usb.c ****                             (((uint32_t)hc->data_pid << 29) & USB_OTG_HCTSIZ_DPID);
 4449              		.loc 1 1773 60 view .LVU1439
 4450 007e 3A4D     		ldr	r5, .L295
 4451 0080 05EACC4C 		and	ip, r5, ip, lsl #19
 4452              	.LVL372:
1772:Drivers/STM32F4xx_HAL_Driver/Src/stm32f4xx_ll_usb.c ****                             (((uint32_t)num_packets << 19) & USB_OTG_HCTSIZ_PKTCNT) |
 4453              		.loc 1 1772 68 view .LVU1440
 4454 0084 44EA0C04 		orr	r4, r4, ip
1774:Drivers/STM32F4xx_HAL_Driver/Src/stm32f4xx_ll_usb.c **** 
 4455              		.loc 1 1774 43 view .LVU1441
 4456 0088 91F80AC0 		ldrb	ip, [r1, #10]	@ zero_extendqisi2
1774:Drivers/STM32F4xx_HAL_Driver/Src/stm32f4xx_ll_usb.c **** 
 4457              		.loc 1 1774 54 view .LVU1442
 4458 008c 4FEA4C7C 		lsl	ip, ip, #29
1774:Drivers/STM32F4xx_HAL_Driver/Src/stm32f4xx_ll_usb.c **** 
 4459              		.loc 1 1774 61 view .LVU1443
 4460 0090 0CF0C04C 		and	ip, ip, #1610612736
1772:Drivers/STM32F4xx_HAL_Driver/Src/stm32f4xx_ll_usb.c ****                             (((uint32_t)num_packets << 19) & USB_OTG_HCTSIZ_PKTCNT) |
 4461              		.loc 1 1772 3 view .LVU1444
 4462 0094 00EB4313 		add	r3, r0, r3, lsl #5
 4463              	.LVL373:
1773:Drivers/STM32F4xx_HAL_Driver/Src/stm32f4xx_ll_usb.c ****                             (((uint32_t)hc->data_pid << 29) & USB_OTG_HCTSIZ_DPID);
 4464              		.loc 1 1773 85 view .LVU1445
 4465 0098 44EA0C04 		orr	r4, r4, ip
1772:Drivers/STM32F4xx_HAL_Driver/Src/stm32f4xx_ll_usb.c ****                             (((uint32_t)num_packets << 19) & USB_OTG_HCTSIZ_PKTCNT) |
 4466              		.loc 1 1772 27 view .LVU1446
 4467 009c C3F81045 		str	r4, [r3, #1296]
1776:Drivers/STM32F4xx_HAL_Driver/Src/stm32f4xx_ll_usb.c ****   {
 4468              		.loc 1 1776 3 is_stmt 1 view .LVU1447
1776:Drivers/STM32F4xx_HAL_Driver/Src/stm32f4xx_ll_usb.c ****   {
 4469              		.loc 1 1776 6 is_stmt 0 view .LVU1448
 4470 00a0 12B1     		cbz	r2, .L284
1779:Drivers/STM32F4xx_HAL_Driver/Src/stm32f4xx_ll_usb.c ****   }
 4471              		.loc 1 1779 5 is_stmt 1 view .LVU1449
1779:Drivers/STM32F4xx_HAL_Driver/Src/stm32f4xx_ll_usb.c ****   }
 4472              		.loc 1 1779 42 is_stmt 0 view .LVU1450
 4473 00a2 CC68     		ldr	r4, [r1, #12]
1779:Drivers/STM32F4xx_HAL_Driver/Src/stm32f4xx_ll_usb.c ****   }
 4474              		.loc 1 1779 28 view .LVU1451
 4475 00a4 C3F81445 		str	r4, [r3, #1300]
 4476              	.L284:
1782:Drivers/STM32F4xx_HAL_Driver/Src/stm32f4xx_ll_usb.c ****   USBx_HC(ch_num)->HCCHAR &= ~USB_OTG_HCCHAR_ODDFRM;
 4477              		.loc 1 1782 3 is_stmt 1 view .LVU1452
1782:Drivers/STM32F4xx_HAL_Driver/Src/stm32f4xx_ll_usb.c ****   USBx_HC(ch_num)->HCCHAR &= ~USB_OTG_HCCHAR_ODDFRM;
 4478              		.loc 1 1782 29 is_stmt 0 view .LVU1453
ARM GAS  C:\Users\7636~1\AppData\Local\Temp\ccnv92VB.s 			page 134


 4479 00a8 00F5806C 		add	ip, r0, #1024
1782:Drivers/STM32F4xx_HAL_Driver/Src/stm32f4xx_ll_usb.c ****   USBx_HC(ch_num)->HCCHAR &= ~USB_OTG_HCCHAR_ODDFRM;
 4480              		.loc 1 1782 38 view .LVU1454
 4481 00ac DCF80840 		ldr	r4, [ip, #8]
1782:Drivers/STM32F4xx_HAL_Driver/Src/stm32f4xx_ll_usb.c ****   USBx_HC(ch_num)->HCCHAR &= ~USB_OTG_HCCHAR_ODDFRM;
 4482              		.loc 1 1782 67 view .LVU1455
 4483 00b0 14F0010F 		tst	r4, #1
 4484 00b4 0CBF     		ite	eq
 4485 00b6 4FF0010E 		moveq	lr, #1
 4486 00ba 4FF0000E 		movne	lr, #0
 4487              	.LVL374:
1783:Drivers/STM32F4xx_HAL_Driver/Src/stm32f4xx_ll_usb.c ****   USBx_HC(ch_num)->HCCHAR |= (uint32_t)is_oddframe << 29;
 4488              		.loc 1 1783 3 is_stmt 1 view .LVU1456
1783:Drivers/STM32F4xx_HAL_Driver/Src/stm32f4xx_ll_usb.c ****   USBx_HC(ch_num)->HCCHAR |= (uint32_t)is_oddframe << 29;
 4489              		.loc 1 1783 27 is_stmt 0 view .LVU1457
 4490 00be D3F80055 		ldr	r5, [r3, #1280]
 4491 00c2 25F00055 		bic	r5, r5, #536870912
 4492 00c6 C3F80055 		str	r5, [r3, #1280]
1784:Drivers/STM32F4xx_HAL_Driver/Src/stm32f4xx_ll_usb.c **** 
 4493              		.loc 1 1784 3 is_stmt 1 view .LVU1458
1784:Drivers/STM32F4xx_HAL_Driver/Src/stm32f4xx_ll_usb.c **** 
 4494              		.loc 1 1784 27 is_stmt 0 view .LVU1459
 4495 00ca D3F80045 		ldr	r4, [r3, #1280]
 4496 00ce 44EA4E74 		orr	r4, r4, lr, lsl #29
 4497 00d2 C3F80045 		str	r4, [r3, #1280]
1787:Drivers/STM32F4xx_HAL_Driver/Src/stm32f4xx_ll_usb.c ****   tmpreg &= ~USB_OTG_HCCHAR_CHDIS;
 4498              		.loc 1 1787 3 is_stmt 1 view .LVU1460
1787:Drivers/STM32F4xx_HAL_Driver/Src/stm32f4xx_ll_usb.c ****   tmpreg &= ~USB_OTG_HCCHAR_CHDIS;
 4499              		.loc 1 1787 27 is_stmt 0 view .LVU1461
 4500 00d6 D3F80045 		ldr	r4, [r3, #1280]
1787:Drivers/STM32F4xx_HAL_Driver/Src/stm32f4xx_ll_usb.c ****   tmpreg &= ~USB_OTG_HCCHAR_CHDIS;
 4501              		.loc 1 1787 10 view .LVU1462
 4502 00da 0394     		str	r4, [sp, #12]
1788:Drivers/STM32F4xx_HAL_Driver/Src/stm32f4xx_ll_usb.c **** 
 4503              		.loc 1 1788 3 is_stmt 1 view .LVU1463
1788:Drivers/STM32F4xx_HAL_Driver/Src/stm32f4xx_ll_usb.c **** 
 4504              		.loc 1 1788 10 is_stmt 0 view .LVU1464
 4505 00dc 039C     		ldr	r4, [sp, #12]
 4506 00de 24F08044 		bic	r4, r4, #1073741824
 4507 00e2 0394     		str	r4, [sp, #12]
1791:Drivers/STM32F4xx_HAL_Driver/Src/stm32f4xx_ll_usb.c ****   {
 4508              		.loc 1 1791 3 is_stmt 1 view .LVU1465
1791:Drivers/STM32F4xx_HAL_Driver/Src/stm32f4xx_ll_usb.c ****   {
 4509              		.loc 1 1791 9 is_stmt 0 view .LVU1466
 4510 00e4 CC78     		ldrb	r4, [r1, #3]	@ zero_extendqisi2
1791:Drivers/STM32F4xx_HAL_Driver/Src/stm32f4xx_ll_usb.c ****   {
 4511              		.loc 1 1791 6 view .LVU1467
 4512 00e6 C4B1     		cbz	r4, .L285
1793:Drivers/STM32F4xx_HAL_Driver/Src/stm32f4xx_ll_usb.c ****   }
 4513              		.loc 1 1793 5 is_stmt 1 view .LVU1468
1793:Drivers/STM32F4xx_HAL_Driver/Src/stm32f4xx_ll_usb.c ****   }
 4514              		.loc 1 1793 12 is_stmt 0 view .LVU1469
 4515 00e8 039C     		ldr	r4, [sp, #12]
 4516 00ea 44F40044 		orr	r4, r4, #32768
 4517 00ee 0394     		str	r4, [sp, #12]
 4518              	.L286:
1799:Drivers/STM32F4xx_HAL_Driver/Src/stm32f4xx_ll_usb.c ****   USBx_HC(ch_num)->HCCHAR = tmpreg;
ARM GAS  C:\Users\7636~1\AppData\Local\Temp\ccnv92VB.s 			page 135


 4519              		.loc 1 1799 3 is_stmt 1 view .LVU1470
1799:Drivers/STM32F4xx_HAL_Driver/Src/stm32f4xx_ll_usb.c ****   USBx_HC(ch_num)->HCCHAR = tmpreg;
 4520              		.loc 1 1799 10 is_stmt 0 view .LVU1471
 4521 00f0 039C     		ldr	r4, [sp, #12]
 4522 00f2 44F00044 		orr	r4, r4, #-2147483648
 4523 00f6 0394     		str	r4, [sp, #12]
1800:Drivers/STM32F4xx_HAL_Driver/Src/stm32f4xx_ll_usb.c **** 
 4524              		.loc 1 1800 3 is_stmt 1 view .LVU1472
1800:Drivers/STM32F4xx_HAL_Driver/Src/stm32f4xx_ll_usb.c **** 
 4525              		.loc 1 1800 27 is_stmt 0 view .LVU1473
 4526 00f8 039C     		ldr	r4, [sp, #12]
 4527 00fa C3F80045 		str	r4, [r3, #1280]
1802:Drivers/STM32F4xx_HAL_Driver/Src/stm32f4xx_ll_usb.c ****   {
 4528              		.loc 1 1802 3 is_stmt 1 view .LVU1474
1802:Drivers/STM32F4xx_HAL_Driver/Src/stm32f4xx_ll_usb.c ****   {
 4529              		.loc 1 1802 6 is_stmt 0 view .LVU1475
 4530 00fe 1ABB     		cbnz	r2, .L280
1807:Drivers/STM32F4xx_HAL_Driver/Src/stm32f4xx_ll_usb.c ****   {
 4531              		.loc 1 1807 3 is_stmt 1 view .LVU1476
1807:Drivers/STM32F4xx_HAL_Driver/Src/stm32f4xx_ll_usb.c ****   {
 4532              		.loc 1 1807 10 is_stmt 0 view .LVU1477
 4533 0100 CB78     		ldrb	r3, [r1, #3]	@ zero_extendqisi2
1807:Drivers/STM32F4xx_HAL_Driver/Src/stm32f4xx_ll_usb.c ****   {
 4534              		.loc 1 1807 6 view .LVU1478
 4535 0102 0BBB     		cbnz	r3, .L280
1807:Drivers/STM32F4xx_HAL_Driver/Src/stm32f4xx_ll_usb.c ****   {
 4536              		.loc 1 1807 34 discriminator 1 view .LVU1479
 4537 0104 4B69     		ldr	r3, [r1, #20]
1807:Drivers/STM32F4xx_HAL_Driver/Src/stm32f4xx_ll_usb.c ****   {
 4538              		.loc 1 1807 28 discriminator 1 view .LVU1480
 4539 0106 FBB1     		cbz	r3, .L280
1809:Drivers/STM32F4xx_HAL_Driver/Src/stm32f4xx_ll_usb.c ****     {
 4540              		.loc 1 1809 5 is_stmt 1 view .LVU1481
1809:Drivers/STM32F4xx_HAL_Driver/Src/stm32f4xx_ll_usb.c ****     {
 4541              		.loc 1 1809 15 is_stmt 0 view .LVU1482
 4542 0108 CA79     		ldrb	r2, [r1, #7]	@ zero_extendqisi2
 4543              	.LVL375:
1809:Drivers/STM32F4xx_HAL_Driver/Src/stm32f4xx_ll_usb.c ****     {
 4544              		.loc 1 1809 5 view .LVU1483
 4545 010a 032A     		cmp	r2, #3
 4546 010c 15D8     		bhi	.L287
 4547 010e DFE802F0 		tbb	[pc, r2]
 4548              	.L289:
 4549 0112 09       		.byte	(.L290-.L289)/2
 4550 0113 1E       		.byte	(.L288-.L289)/2
 4551 0114 09       		.byte	(.L290-.L289)/2
 4552 0115 1E       		.byte	(.L288-.L289)/2
 4553              	.LVL376:
 4554              		.p2align 1
 4555              	.L282:
1768:Drivers/STM32F4xx_HAL_Driver/Src/stm32f4xx_ll_usb.c ****   }
 4556              		.loc 1 1768 5 is_stmt 1 view .LVU1484
1768:Drivers/STM32F4xx_HAL_Driver/Src/stm32f4xx_ll_usb.c ****   }
 4557              		.loc 1 1768 18 is_stmt 0 view .LVU1485
 4558 0116 0C61     		str	r4, [r1, #16]
 4559 0118 AEE7     		b	.L283
 4560              	.LVL377:
ARM GAS  C:\Users\7636~1\AppData\Local\Temp\ccnv92VB.s 			page 136


 4561              	.L285:
1797:Drivers/STM32F4xx_HAL_Driver/Src/stm32f4xx_ll_usb.c ****   }
 4562              		.loc 1 1797 5 is_stmt 1 view .LVU1486
1797:Drivers/STM32F4xx_HAL_Driver/Src/stm32f4xx_ll_usb.c ****   }
 4563              		.loc 1 1797 12 is_stmt 0 view .LVU1487
 4564 011a 039C     		ldr	r4, [sp, #12]
 4565 011c 24F40044 		bic	r4, r4, #32768
 4566 0120 0394     		str	r4, [sp, #12]
 4567 0122 E5E7     		b	.L286
 4568              	.LVL378:
 4569              	.L290:
1815:Drivers/STM32F4xx_HAL_Driver/Src/stm32f4xx_ll_usb.c **** 
 4570              		.loc 1 1815 9 is_stmt 1 view .LVU1488
1815:Drivers/STM32F4xx_HAL_Driver/Src/stm32f4xx_ll_usb.c **** 
 4571              		.loc 1 1815 46 is_stmt 0 view .LVU1489
 4572 0124 0333     		adds	r3, r3, #3
 4573              	.LVL379:
1818:Drivers/STM32F4xx_HAL_Driver/Src/stm32f4xx_ll_usb.c ****         {
 4574              		.loc 1 1818 9 is_stmt 1 view .LVU1490
1818:Drivers/STM32F4xx_HAL_Driver/Src/stm32f4xx_ll_usb.c ****         {
 4575              		.loc 1 1818 30 is_stmt 0 view .LVU1491
 4576 0126 C26A     		ldr	r2, [r0, #44]
1818:Drivers/STM32F4xx_HAL_Driver/Src/stm32f4xx_ll_usb.c ****         {
 4577              		.loc 1 1818 41 view .LVU1492
 4578 0128 92B2     		uxth	r2, r2
1818:Drivers/STM32F4xx_HAL_Driver/Src/stm32f4xx_ll_usb.c ****         {
 4579              		.loc 1 1818 12 view .LVU1493
 4580 012a C3F38F03 		ubfx	r3, r3, #2, #16
 4581              	.LVL380:
1818:Drivers/STM32F4xx_HAL_Driver/Src/stm32f4xx_ll_usb.c ****         {
 4582              		.loc 1 1818 12 view .LVU1494
 4583 012e 9A42     		cmp	r2, r3
 4584 0130 03D2     		bcs	.L287
1821:Drivers/STM32F4xx_HAL_Driver/Src/stm32f4xx_ll_usb.c ****         }
 4585              		.loc 1 1821 11 is_stmt 1 view .LVU1495
1821:Drivers/STM32F4xx_HAL_Driver/Src/stm32f4xx_ll_usb.c ****         }
 4586              		.loc 1 1821 25 is_stmt 0 view .LVU1496
 4587 0132 8369     		ldr	r3, [r0, #24]
 4588 0134 43F02003 		orr	r3, r3, #32
 4589 0138 8361     		str	r3, [r0, #24]
 4590              	.LVL381:
 4591              	.L287:
1842:Drivers/STM32F4xx_HAL_Driver/Src/stm32f4xx_ll_usb.c ****   }
 4592              		.loc 1 1842 5 is_stmt 1 view .LVU1497
1842:Drivers/STM32F4xx_HAL_Driver/Src/stm32f4xx_ll_usb.c ****   }
 4593              		.loc 1 1842 11 is_stmt 0 view .LVU1498
 4594 013a 0023     		movs	r3, #0
 4595 013c 0093     		str	r3, [sp]
 4596 013e 8B8A     		ldrh	r3, [r1, #20]
 4597 0140 4A78     		ldrb	r2, [r1, #1]	@ zero_extendqisi2
 4598 0142 C968     		ldr	r1, [r1, #12]
 4599              	.LVL382:
1842:Drivers/STM32F4xx_HAL_Driver/Src/stm32f4xx_ll_usb.c ****   }
 4600              		.loc 1 1842 11 view .LVU1499
 4601 0144 FFF7FEFF 		bl	USB_WritePacket
 4602              	.LVL383:
 4603              	.L280:
ARM GAS  C:\Users\7636~1\AppData\Local\Temp\ccnv92VB.s 			page 137


1846:Drivers/STM32F4xx_HAL_Driver/Src/stm32f4xx_ll_usb.c **** 
 4604              		.loc 1 1846 1 view .LVU1500
 4605 0148 0020     		movs	r0, #0
 4606 014a 05B0     		add	sp, sp, #20
 4607              	.LCFI49:
 4608              		.cfi_remember_state
 4609              		.cfi_def_cfa_offset 12
 4610              		@ sp needed
 4611 014c 30BD     		pop	{r4, r5, pc}
 4612              	.LVL384:
 4613              	.L288:
 4614              	.LCFI50:
 4615              		.cfi_restore_state
1828:Drivers/STM32F4xx_HAL_Driver/Src/stm32f4xx_ll_usb.c ****         /* check if there is enough space in FIFO space */
 4616              		.loc 1 1828 9 is_stmt 1 view .LVU1501
1828:Drivers/STM32F4xx_HAL_Driver/Src/stm32f4xx_ll_usb.c ****         /* check if there is enough space in FIFO space */
 4617              		.loc 1 1828 46 is_stmt 0 view .LVU1502
 4618 014e 0333     		adds	r3, r3, #3
 4619              	.LVL385:
1830:Drivers/STM32F4xx_HAL_Driver/Src/stm32f4xx_ll_usb.c ****         {
 4620              		.loc 1 1830 9 is_stmt 1 view .LVU1503
1830:Drivers/STM32F4xx_HAL_Driver/Src/stm32f4xx_ll_usb.c ****         {
 4621              		.loc 1 1830 35 is_stmt 0 view .LVU1504
 4622 0150 DCF81020 		ldr	r2, [ip, #16]
1830:Drivers/STM32F4xx_HAL_Driver/Src/stm32f4xx_ll_usb.c ****         {
 4623              		.loc 1 1830 45 view .LVU1505
 4624 0154 92B2     		uxth	r2, r2
1830:Drivers/STM32F4xx_HAL_Driver/Src/stm32f4xx_ll_usb.c ****         {
 4625              		.loc 1 1830 12 view .LVU1506
 4626 0156 C3F38F03 		ubfx	r3, r3, #2, #16
 4627              	.LVL386:
1830:Drivers/STM32F4xx_HAL_Driver/Src/stm32f4xx_ll_usb.c ****         {
 4628              		.loc 1 1830 12 view .LVU1507
 4629 015a 9A42     		cmp	r2, r3
 4630 015c EDD2     		bcs	.L287
1833:Drivers/STM32F4xx_HAL_Driver/Src/stm32f4xx_ll_usb.c ****         }
 4631              		.loc 1 1833 11 is_stmt 1 view .LVU1508
1833:Drivers/STM32F4xx_HAL_Driver/Src/stm32f4xx_ll_usb.c ****         }
 4632              		.loc 1 1833 25 is_stmt 0 view .LVU1509
 4633 015e 8369     		ldr	r3, [r0, #24]
 4634 0160 43F08063 		orr	r3, r3, #67108864
 4635 0164 8361     		str	r3, [r0, #24]
 4636              	.LVL387:
1833:Drivers/STM32F4xx_HAL_Driver/Src/stm32f4xx_ll_usb.c ****         }
 4637              		.loc 1 1833 25 view .LVU1510
 4638 0166 E8E7     		b	.L287
 4639              	.L296:
 4640              		.align	2
 4641              	.L295:
 4642 0168 0000F81F 		.word	536346624
 4643              		.cfi_endproc
 4644              	.LFE257:
 4646              		.section	.text.USB_StopHost,"ax",%progbits
 4647              		.align	1
 4648              		.global	USB_StopHost
 4649              		.syntax unified
 4650              		.thumb
ARM GAS  C:\Users\7636~1\AppData\Local\Temp\ccnv92VB.s 			page 138


 4651              		.thumb_func
 4653              	USB_StopHost:
 4654              	.LVL388:
 4655              	.LFB261:
1958:Drivers/STM32F4xx_HAL_Driver/Src/stm32f4xx_ll_usb.c **** 
1959:Drivers/STM32F4xx_HAL_Driver/Src/stm32f4xx_ll_usb.c **** /**
1960:Drivers/STM32F4xx_HAL_Driver/Src/stm32f4xx_ll_usb.c ****   * @brief  Stop Host Core
1961:Drivers/STM32F4xx_HAL_Driver/Src/stm32f4xx_ll_usb.c ****   * @param  USBx  Selected device
1962:Drivers/STM32F4xx_HAL_Driver/Src/stm32f4xx_ll_usb.c ****   * @retval HAL state
1963:Drivers/STM32F4xx_HAL_Driver/Src/stm32f4xx_ll_usb.c ****   */
1964:Drivers/STM32F4xx_HAL_Driver/Src/stm32f4xx_ll_usb.c **** HAL_StatusTypeDef USB_StopHost(USB_OTG_GlobalTypeDef *USBx)
1965:Drivers/STM32F4xx_HAL_Driver/Src/stm32f4xx_ll_usb.c **** {
 4656              		.loc 1 1965 1 is_stmt 1 view -0
 4657              		.cfi_startproc
 4658              		@ args = 0, pretend = 0, frame = 0
 4659              		@ frame_needed = 0, uses_anonymous_args = 0
 4660              		.loc 1 1965 1 is_stmt 0 view .LVU1512
 4661 0000 10B5     		push	{r4, lr}
 4662              	.LCFI51:
 4663              		.cfi_def_cfa_offset 8
 4664              		.cfi_offset 4, -8
 4665              		.cfi_offset 14, -4
 4666 0002 0446     		mov	r4, r0
1966:Drivers/STM32F4xx_HAL_Driver/Src/stm32f4xx_ll_usb.c ****   uint32_t USBx_BASE = (uint32_t)USBx;
 4667              		.loc 1 1966 3 is_stmt 1 view .LVU1513
 4668              	.LVL389:
1967:Drivers/STM32F4xx_HAL_Driver/Src/stm32f4xx_ll_usb.c ****   uint32_t count = 0U;
 4669              		.loc 1 1967 3 view .LVU1514
1968:Drivers/STM32F4xx_HAL_Driver/Src/stm32f4xx_ll_usb.c ****   uint32_t value;
 4670              		.loc 1 1968 3 view .LVU1515
1969:Drivers/STM32F4xx_HAL_Driver/Src/stm32f4xx_ll_usb.c ****   uint32_t i;
 4671              		.loc 1 1969 3 view .LVU1516
1970:Drivers/STM32F4xx_HAL_Driver/Src/stm32f4xx_ll_usb.c **** 
1971:Drivers/STM32F4xx_HAL_Driver/Src/stm32f4xx_ll_usb.c ****   (void)USB_DisableGlobalInt(USBx);
 4672              		.loc 1 1971 3 view .LVU1517
 4673              		.loc 1 1971 9 is_stmt 0 view .LVU1518
 4674 0004 FFF7FEFF 		bl	USB_DisableGlobalInt
 4675              	.LVL390:
1972:Drivers/STM32F4xx_HAL_Driver/Src/stm32f4xx_ll_usb.c **** 
1973:Drivers/STM32F4xx_HAL_Driver/Src/stm32f4xx_ll_usb.c ****   /* Flush FIFO */
1974:Drivers/STM32F4xx_HAL_Driver/Src/stm32f4xx_ll_usb.c ****   (void)USB_FlushTxFifo(USBx, 0x10U);
 4676              		.loc 1 1974 3 is_stmt 1 view .LVU1519
 4677              		.loc 1 1974 9 is_stmt 0 view .LVU1520
 4678 0008 1021     		movs	r1, #16
 4679 000a 2046     		mov	r0, r4
 4680 000c FFF7FEFF 		bl	USB_FlushTxFifo
 4681              	.LVL391:
1975:Drivers/STM32F4xx_HAL_Driver/Src/stm32f4xx_ll_usb.c ****   (void)USB_FlushRxFifo(USBx);
 4682              		.loc 1 1975 3 is_stmt 1 view .LVU1521
 4683              		.loc 1 1975 9 is_stmt 0 view .LVU1522
 4684 0010 2046     		mov	r0, r4
 4685 0012 FFF7FEFF 		bl	USB_FlushRxFifo
 4686              	.LVL392:
1976:Drivers/STM32F4xx_HAL_Driver/Src/stm32f4xx_ll_usb.c **** 
1977:Drivers/STM32F4xx_HAL_Driver/Src/stm32f4xx_ll_usb.c ****   /* Flush out any leftover queued requests. */
1978:Drivers/STM32F4xx_HAL_Driver/Src/stm32f4xx_ll_usb.c ****   for (i = 0U; i <= 15U; i++)
 4687              		.loc 1 1978 3 is_stmt 1 view .LVU1523
ARM GAS  C:\Users\7636~1\AppData\Local\Temp\ccnv92VB.s 			page 139


 4688              		.loc 1 1978 10 is_stmt 0 view .LVU1524
 4689 0016 0022     		movs	r2, #0
 4690              		.loc 1 1978 3 view .LVU1525
 4691 0018 0AE0     		b	.L298
 4692              	.LVL393:
 4693              	.L299:
1979:Drivers/STM32F4xx_HAL_Driver/Src/stm32f4xx_ll_usb.c ****   {
1980:Drivers/STM32F4xx_HAL_Driver/Src/stm32f4xx_ll_usb.c ****     value = USBx_HC(i)->HCCHAR;
 4694              		.loc 1 1980 5 is_stmt 1 discriminator 3 view .LVU1526
 4695              		.loc 1 1980 13 is_stmt 0 discriminator 3 view .LVU1527
 4696 001a 04EB4211 		add	r1, r4, r2, lsl #5
 4697              		.loc 1 1980 11 discriminator 3 view .LVU1528
 4698 001e D1F80035 		ldr	r3, [r1, #1280]
 4699              	.LVL394:
1981:Drivers/STM32F4xx_HAL_Driver/Src/stm32f4xx_ll_usb.c ****     value |=  USB_OTG_HCCHAR_CHDIS;
 4700              		.loc 1 1981 5 is_stmt 1 discriminator 3 view .LVU1529
1982:Drivers/STM32F4xx_HAL_Driver/Src/stm32f4xx_ll_usb.c ****     value &= ~USB_OTG_HCCHAR_CHENA;
 4701              		.loc 1 1982 5 discriminator 3 view .LVU1530
1983:Drivers/STM32F4xx_HAL_Driver/Src/stm32f4xx_ll_usb.c ****     value &= ~USB_OTG_HCCHAR_EPDIR;
 4702              		.loc 1 1983 5 discriminator 3 view .LVU1531
 4703 0022 23F08023 		bic	r3, r3, #-2147450880
 4704              	.LVL395:
 4705              		.loc 1 1983 11 is_stmt 0 discriminator 3 view .LVU1532
 4706 0026 43F08043 		orr	r3, r3, #1073741824
 4707              	.LVL396:
1984:Drivers/STM32F4xx_HAL_Driver/Src/stm32f4xx_ll_usb.c ****     USBx_HC(i)->HCCHAR = value;
 4708              		.loc 1 1984 5 is_stmt 1 discriminator 3 view .LVU1533
 4709              		.loc 1 1984 24 is_stmt 0 discriminator 3 view .LVU1534
 4710 002a C1F80035 		str	r3, [r1, #1280]
1978:Drivers/STM32F4xx_HAL_Driver/Src/stm32f4xx_ll_usb.c ****   {
 4711              		.loc 1 1978 26 is_stmt 1 discriminator 3 view .LVU1535
1978:Drivers/STM32F4xx_HAL_Driver/Src/stm32f4xx_ll_usb.c ****   {
 4712              		.loc 1 1978 27 is_stmt 0 discriminator 3 view .LVU1536
 4713 002e 0132     		adds	r2, r2, #1
 4714              	.LVL397:
 4715              	.L298:
1978:Drivers/STM32F4xx_HAL_Driver/Src/stm32f4xx_ll_usb.c ****   {
 4716              		.loc 1 1978 16 is_stmt 1 discriminator 1 view .LVU1537
1978:Drivers/STM32F4xx_HAL_Driver/Src/stm32f4xx_ll_usb.c ****   {
 4717              		.loc 1 1978 3 is_stmt 0 discriminator 1 view .LVU1538
 4718 0030 0F2A     		cmp	r2, #15
 4719 0032 F2D9     		bls	.L299
1985:Drivers/STM32F4xx_HAL_Driver/Src/stm32f4xx_ll_usb.c ****   }
1986:Drivers/STM32F4xx_HAL_Driver/Src/stm32f4xx_ll_usb.c **** 
1987:Drivers/STM32F4xx_HAL_Driver/Src/stm32f4xx_ll_usb.c ****   /* Halt all channels to put them into a known state. */
1988:Drivers/STM32F4xx_HAL_Driver/Src/stm32f4xx_ll_usb.c ****   for (i = 0U; i <= 15U; i++)
 4720              		.loc 1 1988 10 view .LVU1539
 4721 0034 0020     		movs	r0, #0
1967:Drivers/STM32F4xx_HAL_Driver/Src/stm32f4xx_ll_usb.c ****   uint32_t value;
 4722              		.loc 1 1967 12 view .LVU1540
 4723 0036 0346     		mov	r3, r0
 4724 0038 00E0     		b	.L300
 4725              	.LVL398:
 4726              	.L301:
 4727              		.loc 1 1988 26 is_stmt 1 discriminator 2 view .LVU1541
 4728              		.loc 1 1988 27 is_stmt 0 discriminator 2 view .LVU1542
 4729 003a 0130     		adds	r0, r0, #1
ARM GAS  C:\Users\7636~1\AppData\Local\Temp\ccnv92VB.s 			page 140


 4730              	.LVL399:
 4731              	.L300:
 4732              		.loc 1 1988 16 is_stmt 1 discriminator 1 view .LVU1543
 4733              		.loc 1 1988 3 is_stmt 0 discriminator 1 view .LVU1544
 4734 003c 0F28     		cmp	r0, #15
 4735 003e 13D8     		bhi	.L305
1989:Drivers/STM32F4xx_HAL_Driver/Src/stm32f4xx_ll_usb.c ****   {
1990:Drivers/STM32F4xx_HAL_Driver/Src/stm32f4xx_ll_usb.c ****     value = USBx_HC(i)->HCCHAR;
 4736              		.loc 1 1990 5 is_stmt 1 view .LVU1545
 4737              		.loc 1 1990 13 is_stmt 0 view .LVU1546
 4738 0040 04EB401C 		add	ip, r4, r0, lsl #5
 4739 0044 0CF5A061 		add	r1, ip, #1280
 4740              		.loc 1 1990 11 view .LVU1547
 4741 0048 DCF80025 		ldr	r2, [ip, #1280]
 4742              	.LVL400:
1991:Drivers/STM32F4xx_HAL_Driver/Src/stm32f4xx_ll_usb.c ****     value |= USB_OTG_HCCHAR_CHDIS;
 4743              		.loc 1 1991 5 is_stmt 1 view .LVU1548
1992:Drivers/STM32F4xx_HAL_Driver/Src/stm32f4xx_ll_usb.c ****     value |= USB_OTG_HCCHAR_CHENA;
 4744              		.loc 1 1992 5 view .LVU1549
1993:Drivers/STM32F4xx_HAL_Driver/Src/stm32f4xx_ll_usb.c ****     value &= ~USB_OTG_HCCHAR_EPDIR;
 4745              		.loc 1 1993 5 view .LVU1550
 4746 004c 22F40042 		bic	r2, r2, #32768
 4747              	.LVL401:
 4748              		.loc 1 1993 11 is_stmt 0 view .LVU1551
 4749 0050 42F04042 		orr	r2, r2, #-1073741824
 4750              	.LVL402:
1994:Drivers/STM32F4xx_HAL_Driver/Src/stm32f4xx_ll_usb.c ****     USBx_HC(i)->HCCHAR = value;
 4751              		.loc 1 1994 5 is_stmt 1 view .LVU1552
 4752              		.loc 1 1994 24 is_stmt 0 view .LVU1553
 4753 0054 CCF80025 		str	r2, [ip, #1280]
 4754              	.LVL403:
 4755              	.L302:
1995:Drivers/STM32F4xx_HAL_Driver/Src/stm32f4xx_ll_usb.c **** 
1996:Drivers/STM32F4xx_HAL_Driver/Src/stm32f4xx_ll_usb.c ****     do
 4756              		.loc 1 1996 5 is_stmt 1 view .LVU1554
1997:Drivers/STM32F4xx_HAL_Driver/Src/stm32f4xx_ll_usb.c ****     {
1998:Drivers/STM32F4xx_HAL_Driver/Src/stm32f4xx_ll_usb.c ****       if (++count > 1000U)
 4757              		.loc 1 1998 7 view .LVU1555
 4758              		.loc 1 1998 10 is_stmt 0 view .LVU1556
 4759 0058 0133     		adds	r3, r3, #1
 4760              	.LVL404:
 4761              		.loc 1 1998 10 view .LVU1557
 4762 005a B3F57A7F 		cmp	r3, #1000
 4763 005e ECD8     		bhi	.L301
1999:Drivers/STM32F4xx_HAL_Driver/Src/stm32f4xx_ll_usb.c ****       {
2000:Drivers/STM32F4xx_HAL_Driver/Src/stm32f4xx_ll_usb.c ****         break;
2001:Drivers/STM32F4xx_HAL_Driver/Src/stm32f4xx_ll_usb.c ****       }
2002:Drivers/STM32F4xx_HAL_Driver/Src/stm32f4xx_ll_usb.c ****     } while ((USBx_HC(i)->HCCHAR & USB_OTG_HCCHAR_CHENA) == USB_OTG_HCCHAR_CHENA);
 4764              		.loc 1 2002 13 is_stmt 1 view .LVU1558
 4765              		.loc 1 2002 25 is_stmt 0 view .LVU1559
 4766 0060 0A68     		ldr	r2, [r1]
 4767              		.loc 1 2002 5 view .LVU1560
 4768 0062 002A     		cmp	r2, #0
 4769 0064 F8DB     		blt	.L302
 4770 0066 E8E7     		b	.L301
 4771              	.LVL405:
 4772              	.L305:
ARM GAS  C:\Users\7636~1\AppData\Local\Temp\ccnv92VB.s 			page 141


2003:Drivers/STM32F4xx_HAL_Driver/Src/stm32f4xx_ll_usb.c ****   }
2004:Drivers/STM32F4xx_HAL_Driver/Src/stm32f4xx_ll_usb.c **** 
2005:Drivers/STM32F4xx_HAL_Driver/Src/stm32f4xx_ll_usb.c ****   /* Clear any pending Host interrupts */
2006:Drivers/STM32F4xx_HAL_Driver/Src/stm32f4xx_ll_usb.c ****   USBx_HOST->HAINT = 0xFFFFFFFFU;
 4773              		.loc 1 2006 3 is_stmt 1 view .LVU1561
 4774              		.loc 1 2006 20 is_stmt 0 view .LVU1562
 4775 0068 4FF0FF33 		mov	r3, #-1
 4776              	.LVL406:
 4777              		.loc 1 2006 20 view .LVU1563
 4778 006c C4F81434 		str	r3, [r4, #1044]
2007:Drivers/STM32F4xx_HAL_Driver/Src/stm32f4xx_ll_usb.c ****   USBx->GINTSTS = 0xFFFFFFFFU;
 4779              		.loc 1 2007 3 is_stmt 1 view .LVU1564
 4780              		.loc 1 2007 17 is_stmt 0 view .LVU1565
 4781 0070 6361     		str	r3, [r4, #20]
2008:Drivers/STM32F4xx_HAL_Driver/Src/stm32f4xx_ll_usb.c **** 
2009:Drivers/STM32F4xx_HAL_Driver/Src/stm32f4xx_ll_usb.c ****   (void)USB_EnableGlobalInt(USBx);
 4782              		.loc 1 2009 3 is_stmt 1 view .LVU1566
 4783              		.loc 1 2009 9 is_stmt 0 view .LVU1567
 4784 0072 2046     		mov	r0, r4
 4785              	.LVL407:
 4786              		.loc 1 2009 9 view .LVU1568
 4787 0074 FFF7FEFF 		bl	USB_EnableGlobalInt
 4788              	.LVL408:
2010:Drivers/STM32F4xx_HAL_Driver/Src/stm32f4xx_ll_usb.c **** 
2011:Drivers/STM32F4xx_HAL_Driver/Src/stm32f4xx_ll_usb.c ****   return HAL_OK;
 4789              		.loc 1 2011 3 is_stmt 1 view .LVU1569
2012:Drivers/STM32F4xx_HAL_Driver/Src/stm32f4xx_ll_usb.c **** }
 4790              		.loc 1 2012 1 is_stmt 0 view .LVU1570
 4791 0078 0020     		movs	r0, #0
 4792 007a 10BD     		pop	{r4, pc}
 4793              		.loc 1 2012 1 view .LVU1571
 4794              		.cfi_endproc
 4795              	.LFE261:
 4797              		.section	.text.USB_ActivateRemoteWakeup,"ax",%progbits
 4798              		.align	1
 4799              		.global	USB_ActivateRemoteWakeup
 4800              		.syntax unified
 4801              		.thumb
 4802              		.thumb_func
 4804              	USB_ActivateRemoteWakeup:
 4805              	.LVL409:
 4806              	.LFB262:
2013:Drivers/STM32F4xx_HAL_Driver/Src/stm32f4xx_ll_usb.c **** 
2014:Drivers/STM32F4xx_HAL_Driver/Src/stm32f4xx_ll_usb.c **** /**
2015:Drivers/STM32F4xx_HAL_Driver/Src/stm32f4xx_ll_usb.c ****   * @brief  USB_ActivateRemoteWakeup active remote wakeup signalling
2016:Drivers/STM32F4xx_HAL_Driver/Src/stm32f4xx_ll_usb.c ****   * @param  USBx Selected device
2017:Drivers/STM32F4xx_HAL_Driver/Src/stm32f4xx_ll_usb.c ****   * @retval HAL status
2018:Drivers/STM32F4xx_HAL_Driver/Src/stm32f4xx_ll_usb.c ****   */
2019:Drivers/STM32F4xx_HAL_Driver/Src/stm32f4xx_ll_usb.c **** HAL_StatusTypeDef USB_ActivateRemoteWakeup(USB_OTG_GlobalTypeDef *USBx)
2020:Drivers/STM32F4xx_HAL_Driver/Src/stm32f4xx_ll_usb.c **** {
 4807              		.loc 1 2020 1 is_stmt 1 view -0
 4808              		.cfi_startproc
 4809              		@ args = 0, pretend = 0, frame = 0
 4810              		@ frame_needed = 0, uses_anonymous_args = 0
 4811              		@ link register save eliminated.
2021:Drivers/STM32F4xx_HAL_Driver/Src/stm32f4xx_ll_usb.c ****   uint32_t USBx_BASE = (uint32_t)USBx;
 4812              		.loc 1 2021 3 view .LVU1573
ARM GAS  C:\Users\7636~1\AppData\Local\Temp\ccnv92VB.s 			page 142


2022:Drivers/STM32F4xx_HAL_Driver/Src/stm32f4xx_ll_usb.c **** 
2023:Drivers/STM32F4xx_HAL_Driver/Src/stm32f4xx_ll_usb.c ****   if ((USBx_DEVICE->DSTS & USB_OTG_DSTS_SUSPSTS) == USB_OTG_DSTS_SUSPSTS)
 4813              		.loc 1 2023 3 view .LVU1574
 4814              		.loc 1 2023 19 is_stmt 0 view .LVU1575
 4815 0000 D0F80838 		ldr	r3, [r0, #2056]
 4816              		.loc 1 2023 8 view .LVU1576
 4817 0004 00F50060 		add	r0, r0, #2048
 4818              	.LVL410:
 4819              		.loc 1 2023 6 view .LVU1577
 4820 0008 13F0010F 		tst	r3, #1
 4821 000c 03D0     		beq	.L307
2024:Drivers/STM32F4xx_HAL_Driver/Src/stm32f4xx_ll_usb.c ****   {
2025:Drivers/STM32F4xx_HAL_Driver/Src/stm32f4xx_ll_usb.c ****     /* active Remote wakeup signalling */
2026:Drivers/STM32F4xx_HAL_Driver/Src/stm32f4xx_ll_usb.c ****     USBx_DEVICE->DCTL |= USB_OTG_DCTL_RWUSIG;
 4822              		.loc 1 2026 5 is_stmt 1 view .LVU1578
 4823              		.loc 1 2026 23 is_stmt 0 view .LVU1579
 4824 000e 4368     		ldr	r3, [r0, #4]
 4825 0010 43F00103 		orr	r3, r3, #1
 4826 0014 4360     		str	r3, [r0, #4]
 4827              	.L307:
2027:Drivers/STM32F4xx_HAL_Driver/Src/stm32f4xx_ll_usb.c ****   }
2028:Drivers/STM32F4xx_HAL_Driver/Src/stm32f4xx_ll_usb.c **** 
2029:Drivers/STM32F4xx_HAL_Driver/Src/stm32f4xx_ll_usb.c ****   return HAL_OK;
 4828              		.loc 1 2029 3 is_stmt 1 view .LVU1580
2030:Drivers/STM32F4xx_HAL_Driver/Src/stm32f4xx_ll_usb.c **** }
 4829              		.loc 1 2030 1 is_stmt 0 view .LVU1581
 4830 0016 0020     		movs	r0, #0
 4831              	.LVL411:
 4832              		.loc 1 2030 1 view .LVU1582
 4833 0018 7047     		bx	lr
 4834              		.cfi_endproc
 4835              	.LFE262:
 4837              		.section	.text.USB_DeActivateRemoteWakeup,"ax",%progbits
 4838              		.align	1
 4839              		.global	USB_DeActivateRemoteWakeup
 4840              		.syntax unified
 4841              		.thumb
 4842              		.thumb_func
 4844              	USB_DeActivateRemoteWakeup:
 4845              	.LVL412:
 4846              	.LFB263:
2031:Drivers/STM32F4xx_HAL_Driver/Src/stm32f4xx_ll_usb.c **** 
2032:Drivers/STM32F4xx_HAL_Driver/Src/stm32f4xx_ll_usb.c **** /**
2033:Drivers/STM32F4xx_HAL_Driver/Src/stm32f4xx_ll_usb.c ****   * @brief  USB_DeActivateRemoteWakeup de-active remote wakeup signalling
2034:Drivers/STM32F4xx_HAL_Driver/Src/stm32f4xx_ll_usb.c ****   * @param  USBx Selected device
2035:Drivers/STM32F4xx_HAL_Driver/Src/stm32f4xx_ll_usb.c ****   * @retval HAL status
2036:Drivers/STM32F4xx_HAL_Driver/Src/stm32f4xx_ll_usb.c ****   */
2037:Drivers/STM32F4xx_HAL_Driver/Src/stm32f4xx_ll_usb.c **** HAL_StatusTypeDef USB_DeActivateRemoteWakeup(USB_OTG_GlobalTypeDef *USBx)
2038:Drivers/STM32F4xx_HAL_Driver/Src/stm32f4xx_ll_usb.c **** {
 4847              		.loc 1 2038 1 is_stmt 1 view -0
 4848              		.cfi_startproc
 4849              		@ args = 0, pretend = 0, frame = 0
 4850              		@ frame_needed = 0, uses_anonymous_args = 0
 4851              		@ link register save eliminated.
2039:Drivers/STM32F4xx_HAL_Driver/Src/stm32f4xx_ll_usb.c ****   uint32_t USBx_BASE = (uint32_t)USBx;
 4852              		.loc 1 2039 3 view .LVU1584
2040:Drivers/STM32F4xx_HAL_Driver/Src/stm32f4xx_ll_usb.c **** 
ARM GAS  C:\Users\7636~1\AppData\Local\Temp\ccnv92VB.s 			page 143


2041:Drivers/STM32F4xx_HAL_Driver/Src/stm32f4xx_ll_usb.c ****   /* active Remote wakeup signalling */
2042:Drivers/STM32F4xx_HAL_Driver/Src/stm32f4xx_ll_usb.c ****   USBx_DEVICE->DCTL &= ~(USB_OTG_DCTL_RWUSIG);
 4853              		.loc 1 2042 3 view .LVU1585
 4854              		.loc 1 2042 21 is_stmt 0 view .LVU1586
 4855 0000 D0F80438 		ldr	r3, [r0, #2052]
 4856 0004 23F00103 		bic	r3, r3, #1
 4857 0008 C0F80438 		str	r3, [r0, #2052]
2043:Drivers/STM32F4xx_HAL_Driver/Src/stm32f4xx_ll_usb.c **** 
2044:Drivers/STM32F4xx_HAL_Driver/Src/stm32f4xx_ll_usb.c ****   return HAL_OK;
 4858              		.loc 1 2044 3 is_stmt 1 view .LVU1587
2045:Drivers/STM32F4xx_HAL_Driver/Src/stm32f4xx_ll_usb.c **** }
 4859              		.loc 1 2045 1 is_stmt 0 view .LVU1588
 4860 000c 0020     		movs	r0, #0
 4861              	.LVL413:
 4862              		.loc 1 2045 1 view .LVU1589
 4863 000e 7047     		bx	lr
 4864              		.cfi_endproc
 4865              	.LFE263:
 4867              		.text
 4868              	.Letext0:
 4869              		.file 2 "c:\\arm-none-eabi-gcc\\arm-none-eabi\\include\\machine\\_default_types.h"
 4870              		.file 3 "c:\\arm-none-eabi-gcc\\arm-none-eabi\\include\\sys\\_stdint.h"
 4871              		.file 4 "Drivers/CMSIS/Include/cmsis_gcc.h"
 4872              		.file 5 "Drivers/CMSIS/Device/ST/STM32F4xx/Include/stm32f401xc.h"
 4873              		.file 6 "Drivers/STM32F4xx_HAL_Driver/Inc/stm32f4xx_hal_def.h"
 4874              		.file 7 "Drivers/STM32F4xx_HAL_Driver/Inc/stm32f4xx_ll_usb.h"
 4875              		.file 8 "Drivers/STM32F4xx_HAL_Driver/Inc/stm32f4xx_hal.h"
ARM GAS  C:\Users\7636~1\AppData\Local\Temp\ccnv92VB.s 			page 144


DEFINED SYMBOLS
                            *ABS*:00000000 stm32f4xx_ll_usb.c
C:\Users\7636~1\AppData\Local\Temp\ccnv92VB.s:20     .text.USB_CoreReset:00000000 $t
C:\Users\7636~1\AppData\Local\Temp\ccnv92VB.s:25     .text.USB_CoreReset:00000000 USB_CoreReset
C:\Users\7636~1\AppData\Local\Temp\ccnv92VB.s:102    .text.USB_CoreReset:00000038 $d
C:\Users\7636~1\AppData\Local\Temp\ccnv92VB.s:107    .text.USB_CoreInit:00000000 $t
C:\Users\7636~1\AppData\Local\Temp\ccnv92VB.s:113    .text.USB_CoreInit:00000000 USB_CoreInit
C:\Users\7636~1\AppData\Local\Temp\ccnv92VB.s:248    .text.USB_SetTurnaroundTime:00000000 $t
C:\Users\7636~1\AppData\Local\Temp\ccnv92VB.s:254    .text.USB_SetTurnaroundTime:00000000 USB_SetTurnaroundTime
C:\Users\7636~1\AppData\Local\Temp\ccnv92VB.s:434    .text.USB_SetTurnaroundTime:000000a8 $d
C:\Users\7636~1\AppData\Local\Temp\ccnv92VB.s:453    .text.USB_EnableGlobalInt:00000000 $t
C:\Users\7636~1\AppData\Local\Temp\ccnv92VB.s:459    .text.USB_EnableGlobalInt:00000000 USB_EnableGlobalInt
C:\Users\7636~1\AppData\Local\Temp\ccnv92VB.s:482    .text.USB_DisableGlobalInt:00000000 $t
C:\Users\7636~1\AppData\Local\Temp\ccnv92VB.s:488    .text.USB_DisableGlobalInt:00000000 USB_DisableGlobalInt
C:\Users\7636~1\AppData\Local\Temp\ccnv92VB.s:511    .text.USB_SetCurrentMode:00000000 $t
C:\Users\7636~1\AppData\Local\Temp\ccnv92VB.s:517    .text.USB_SetCurrentMode:00000000 USB_SetCurrentMode
C:\Users\7636~1\AppData\Local\Temp\ccnv92VB.s:578    .text.USB_FlushTxFifo:00000000 $t
C:\Users\7636~1\AppData\Local\Temp\ccnv92VB.s:584    .text.USB_FlushTxFifo:00000000 USB_FlushTxFifo
C:\Users\7636~1\AppData\Local\Temp\ccnv92VB.s:635    .text.USB_FlushTxFifo:00000024 $d
C:\Users\7636~1\AppData\Local\Temp\ccnv92VB.s:640    .text.USB_FlushRxFifo:00000000 $t
C:\Users\7636~1\AppData\Local\Temp\ccnv92VB.s:646    .text.USB_FlushRxFifo:00000000 USB_FlushRxFifo
C:\Users\7636~1\AppData\Local\Temp\ccnv92VB.s:693    .text.USB_FlushRxFifo:00000020 $d
C:\Users\7636~1\AppData\Local\Temp\ccnv92VB.s:698    .text.USB_SetDevSpeed:00000000 $t
C:\Users\7636~1\AppData\Local\Temp\ccnv92VB.s:704    .text.USB_SetDevSpeed:00000000 USB_SetDevSpeed
C:\Users\7636~1\AppData\Local\Temp\ccnv92VB.s:730    .text.USB_DevInit:00000000 $t
C:\Users\7636~1\AppData\Local\Temp\ccnv92VB.s:736    .text.USB_DevInit:00000000 USB_DevInit
C:\Users\7636~1\AppData\Local\Temp\ccnv92VB.s:1100   .text.USB_DevInit:0000018c $d
C:\Users\7636~1\AppData\Local\Temp\ccnv92VB.s:1105   .text.USB_GetDevSpeed:00000000 $t
C:\Users\7636~1\AppData\Local\Temp\ccnv92VB.s:1111   .text.USB_GetDevSpeed:00000000 USB_GetDevSpeed
C:\Users\7636~1\AppData\Local\Temp\ccnv92VB.s:1169   .text.USB_ActivateEndpoint:00000000 $t
C:\Users\7636~1\AppData\Local\Temp\ccnv92VB.s:1175   .text.USB_ActivateEndpoint:00000000 USB_ActivateEndpoint
C:\Users\7636~1\AppData\Local\Temp\ccnv92VB.s:1292   .text.USB_ActivateDedicatedEndpoint:00000000 $t
C:\Users\7636~1\AppData\Local\Temp\ccnv92VB.s:1298   .text.USB_ActivateDedicatedEndpoint:00000000 USB_ActivateDedicatedEndpoint
C:\Users\7636~1\AppData\Local\Temp\ccnv92VB.s:1423   .text.USB_DeactivateEndpoint:00000000 $t
C:\Users\7636~1\AppData\Local\Temp\ccnv92VB.s:1429   .text.USB_DeactivateEndpoint:00000000 USB_DeactivateEndpoint
C:\Users\7636~1\AppData\Local\Temp\ccnv92VB.s:1594   .text.USB_DeactivateEndpoint:000000d8 $d
C:\Users\7636~1\AppData\Local\Temp\ccnv92VB.s:1600   .text.USB_DeactivateDedicatedEndpoint:00000000 $t
C:\Users\7636~1\AppData\Local\Temp\ccnv92VB.s:1606   .text.USB_DeactivateDedicatedEndpoint:00000000 USB_DeactivateDedicatedEndpoint
C:\Users\7636~1\AppData\Local\Temp\ccnv92VB.s:1729   .text.USB_EP0StartXfer:00000000 $t
C:\Users\7636~1\AppData\Local\Temp\ccnv92VB.s:1735   .text.USB_EP0StartXfer:00000000 USB_EP0StartXfer
C:\Users\7636~1\AppData\Local\Temp\ccnv92VB.s:1974   .text.USB_WritePacket:00000000 $t
C:\Users\7636~1\AppData\Local\Temp\ccnv92VB.s:1980   .text.USB_WritePacket:00000000 USB_WritePacket
C:\Users\7636~1\AppData\Local\Temp\ccnv92VB.s:2047   .text.USB_EPStartXfer:00000000 $t
C:\Users\7636~1\AppData\Local\Temp\ccnv92VB.s:2053   .text.USB_EPStartXfer:00000000 USB_EPStartXfer
C:\Users\7636~1\AppData\Local\Temp\ccnv92VB.s:2447   .text.USB_EPStartXfer:00000234 $d
C:\Users\7636~1\AppData\Local\Temp\ccnv92VB.s:2452   .text.USB_ReadPacket:00000000 $t
C:\Users\7636~1\AppData\Local\Temp\ccnv92VB.s:2458   .text.USB_ReadPacket:00000000 USB_ReadPacket
C:\Users\7636~1\AppData\Local\Temp\ccnv92VB.s:2509   .text.USB_EPSetStall:00000000 $t
C:\Users\7636~1\AppData\Local\Temp\ccnv92VB.s:2515   .text.USB_EPSetStall:00000000 USB_EPSetStall
C:\Users\7636~1\AppData\Local\Temp\ccnv92VB.s:2596   .text.USB_EPClearStall:00000000 $t
C:\Users\7636~1\AppData\Local\Temp\ccnv92VB.s:2602   .text.USB_EPClearStall:00000000 USB_EPClearStall
C:\Users\7636~1\AppData\Local\Temp\ccnv92VB.s:2685   .text.USB_StopDevice:00000000 $t
C:\Users\7636~1\AppData\Local\Temp\ccnv92VB.s:2691   .text.USB_StopDevice:00000000 USB_StopDevice
C:\Users\7636~1\AppData\Local\Temp\ccnv92VB.s:2774   .text.USB_SetDevAddress:00000000 $t
C:\Users\7636~1\AppData\Local\Temp\ccnv92VB.s:2780   .text.USB_SetDevAddress:00000000 USB_SetDevAddress
C:\Users\7636~1\AppData\Local\Temp\ccnv92VB.s:2815   .text.USB_DevConnect:00000000 $t
C:\Users\7636~1\AppData\Local\Temp\ccnv92VB.s:2821   .text.USB_DevConnect:00000000 USB_DevConnect
ARM GAS  C:\Users\7636~1\AppData\Local\Temp\ccnv92VB.s 			page 145


C:\Users\7636~1\AppData\Local\Temp\ccnv92VB.s:2850   .text.USB_DevDisconnect:00000000 $t
C:\Users\7636~1\AppData\Local\Temp\ccnv92VB.s:2856   .text.USB_DevDisconnect:00000000 USB_DevDisconnect
C:\Users\7636~1\AppData\Local\Temp\ccnv92VB.s:2885   .text.USB_ReadInterrupts:00000000 $t
C:\Users\7636~1\AppData\Local\Temp\ccnv92VB.s:2891   .text.USB_ReadInterrupts:00000000 USB_ReadInterrupts
C:\Users\7636~1\AppData\Local\Temp\ccnv92VB.s:2918   .text.USB_ReadDevAllOutEpInterrupt:00000000 $t
C:\Users\7636~1\AppData\Local\Temp\ccnv92VB.s:2924   .text.USB_ReadDevAllOutEpInterrupt:00000000 USB_ReadDevAllOutEpInterrupt
C:\Users\7636~1\AppData\Local\Temp\ccnv92VB.s:2957   .text.USB_ReadDevAllInEpInterrupt:00000000 $t
C:\Users\7636~1\AppData\Local\Temp\ccnv92VB.s:2963   .text.USB_ReadDevAllInEpInterrupt:00000000 USB_ReadDevAllInEpInterrupt
C:\Users\7636~1\AppData\Local\Temp\ccnv92VB.s:2996   .text.USB_ReadDevOutEPInterrupt:00000000 $t
C:\Users\7636~1\AppData\Local\Temp\ccnv92VB.s:3002   .text.USB_ReadDevOutEPInterrupt:00000000 USB_ReadDevOutEPInterrupt
C:\Users\7636~1\AppData\Local\Temp\ccnv92VB.s:3036   .text.USB_ReadDevInEPInterrupt:00000000 $t
C:\Users\7636~1\AppData\Local\Temp\ccnv92VB.s:3042   .text.USB_ReadDevInEPInterrupt:00000000 USB_ReadDevInEPInterrupt
C:\Users\7636~1\AppData\Local\Temp\ccnv92VB.s:3101   .text.USB_ClearInterrupts:00000000 $t
C:\Users\7636~1\AppData\Local\Temp\ccnv92VB.s:3107   .text.USB_ClearInterrupts:00000000 USB_ClearInterrupts
C:\Users\7636~1\AppData\Local\Temp\ccnv92VB.s:3126   .text.USB_GetMode:00000000 $t
C:\Users\7636~1\AppData\Local\Temp\ccnv92VB.s:3132   .text.USB_GetMode:00000000 USB_GetMode
C:\Users\7636~1\AppData\Local\Temp\ccnv92VB.s:3151   .text.USB_ActivateSetup:00000000 $t
C:\Users\7636~1\AppData\Local\Temp\ccnv92VB.s:3157   .text.USB_ActivateSetup:00000000 USB_ActivateSetup
C:\Users\7636~1\AppData\Local\Temp\ccnv92VB.s:3187   .text.USB_EP0_OutStart:00000000 $t
C:\Users\7636~1\AppData\Local\Temp\ccnv92VB.s:3193   .text.USB_EP0_OutStart:00000000 USB_EP0_OutStart
C:\Users\7636~1\AppData\Local\Temp\ccnv92VB.s:3276   .text.USB_EP0_OutStart:0000005c $d
C:\Users\7636~1\AppData\Local\Temp\ccnv92VB.s:3281   .text.USB_InitFSLSPClkSel:00000000 $t
C:\Users\7636~1\AppData\Local\Temp\ccnv92VB.s:3287   .text.USB_InitFSLSPClkSel:00000000 USB_InitFSLSPClkSel
C:\Users\7636~1\AppData\Local\Temp\ccnv92VB.s:3343   .text.USB_ResetPort:00000000 $t
C:\Users\7636~1\AppData\Local\Temp\ccnv92VB.s:3349   .text.USB_ResetPort:00000000 USB_ResetPort
C:\Users\7636~1\AppData\Local\Temp\ccnv92VB.s:3418   .text.USB_DriveVbus:00000000 $t
C:\Users\7636~1\AppData\Local\Temp\ccnv92VB.s:3424   .text.USB_DriveVbus:00000000 USB_DriveVbus
C:\Users\7636~1\AppData\Local\Temp\ccnv92VB.s:3503   .text.USB_HostInit:00000000 $t
C:\Users\7636~1\AppData\Local\Temp\ccnv92VB.s:3509   .text.USB_HostInit:00000000 USB_HostInit
C:\Users\7636~1\AppData\Local\Temp\ccnv92VB.s:3711   .text.USB_HostInit:000000f0 $d
C:\Users\7636~1\AppData\Local\Temp\ccnv92VB.s:3718   .text.USB_GetHostSpeed:00000000 $t
C:\Users\7636~1\AppData\Local\Temp\ccnv92VB.s:3724   .text.USB_GetHostSpeed:00000000 USB_GetHostSpeed
C:\Users\7636~1\AppData\Local\Temp\ccnv92VB.s:3762   .text.USB_GetCurrentFrame:00000000 $t
C:\Users\7636~1\AppData\Local\Temp\ccnv92VB.s:3768   .text.USB_GetCurrentFrame:00000000 USB_GetCurrentFrame
C:\Users\7636~1\AppData\Local\Temp\ccnv92VB.s:3791   .text.USB_HC_Init:00000000 $t
C:\Users\7636~1\AppData\Local\Temp\ccnv92VB.s:3797   .text.USB_HC_Init:00000000 USB_HC_Init
C:\Users\7636~1\AppData\Local\Temp\ccnv92VB.s:3838   .text.USB_HC_Init:00000022 $d
C:\Users\7636~1\AppData\Local\Temp\ccnv92VB.s:3842   .text.USB_HC_Init:00000026 $t
C:\Users\7636~1\AppData\Local\Temp\ccnv92VB.s:4033   .text.USB_HC_ReadInterrupt:00000000 $t
C:\Users\7636~1\AppData\Local\Temp\ccnv92VB.s:4039   .text.USB_HC_ReadInterrupt:00000000 USB_HC_ReadInterrupt
C:\Users\7636~1\AppData\Local\Temp\ccnv92VB.s:4062   .text.USB_HC_Halt:00000000 $t
C:\Users\7636~1\AppData\Local\Temp\ccnv92VB.s:4068   .text.USB_HC_Halt:00000000 USB_HC_Halt
C:\Users\7636~1\AppData\Local\Temp\ccnv92VB.s:4254   .text.USB_DoPing:00000000 $t
C:\Users\7636~1\AppData\Local\Temp\ccnv92VB.s:4260   .text.USB_DoPing:00000000 USB_DoPing
C:\Users\7636~1\AppData\Local\Temp\ccnv92VB.s:4302   .text.USB_DoPing:00000020 $d
C:\Users\7636~1\AppData\Local\Temp\ccnv92VB.s:4307   .text.USB_HC_StartXfer:00000000 $t
C:\Users\7636~1\AppData\Local\Temp\ccnv92VB.s:4313   .text.USB_HC_StartXfer:00000000 USB_HC_StartXfer
C:\Users\7636~1\AppData\Local\Temp\ccnv92VB.s:4549   .text.USB_HC_StartXfer:00000112 $d
C:\Users\7636~1\AppData\Local\Temp\ccnv92VB.s:4554   .text.USB_HC_StartXfer:00000116 $t
C:\Users\7636~1\AppData\Local\Temp\ccnv92VB.s:4642   .text.USB_HC_StartXfer:00000168 $d
C:\Users\7636~1\AppData\Local\Temp\ccnv92VB.s:4647   .text.USB_StopHost:00000000 $t
C:\Users\7636~1\AppData\Local\Temp\ccnv92VB.s:4653   .text.USB_StopHost:00000000 USB_StopHost
C:\Users\7636~1\AppData\Local\Temp\ccnv92VB.s:4798   .text.USB_ActivateRemoteWakeup:00000000 $t
C:\Users\7636~1\AppData\Local\Temp\ccnv92VB.s:4804   .text.USB_ActivateRemoteWakeup:00000000 USB_ActivateRemoteWakeup
C:\Users\7636~1\AppData\Local\Temp\ccnv92VB.s:4838   .text.USB_DeActivateRemoteWakeup:00000000 $t
C:\Users\7636~1\AppData\Local\Temp\ccnv92VB.s:4844   .text.USB_DeActivateRemoteWakeup:00000000 USB_DeActivateRemoteWakeup

ARM GAS  C:\Users\7636~1\AppData\Local\Temp\ccnv92VB.s 			page 146


UNDEFINED SYMBOLS
HAL_Delay
