ARM GAS  C:\Users\7636~1\AppData\Local\Temp\ccIWThgb.s 			page 1


   1              		.cpu cortex-m4
   2              		.arch armv7e-m
   3              		.fpu fpv4-sp-d16
   4              		.eabi_attribute 27, 1
   5              		.eabi_attribute 28, 1
   6              		.eabi_attribute 20, 1
   7              		.eabi_attribute 21, 1
   8              		.eabi_attribute 23, 3
   9              		.eabi_attribute 24, 1
  10              		.eabi_attribute 25, 1
  11              		.eabi_attribute 26, 1
  12              		.eabi_attribute 30, 1
  13              		.eabi_attribute 34, 1
  14              		.eabi_attribute 18, 4
  15              		.file	"SupportFunctions.c"
  16              		.text
  17              	.Ltext0:
  18              		.cfi_sections	.debug_frame
  19              		.section	.text.arm_bitonic_sort_core_f32,"ax",%progbits
  20              		.align	1
  21              		.syntax unified
  22              		.thumb
  23              		.thumb_func
  25              	arm_bitonic_sort_core_f32:
  26              	.LVL0:
  27              	.LFB139:
  28              		.file 1 "Middlewares/Third_Party/ARM_CMSIS/CMSIS/DSP/Source/SupportFunctions/arm_bitonic_sort_f32.
   1:Middlewares/Third_Party/ARM_CMSIS/CMSIS/DSP/Source/SupportFunctions/arm_bitonic_sort_f32.c **** /* ----------------------------------------------------------------------
   2:Middlewares/Third_Party/ARM_CMSIS/CMSIS/DSP/Source/SupportFunctions/arm_bitonic_sort_f32.c ****  * Project:      CMSIS DSP Library
   3:Middlewares/Third_Party/ARM_CMSIS/CMSIS/DSP/Source/SupportFunctions/arm_bitonic_sort_f32.c ****  * Title:        arm_bitonic_sort_f32.c
   4:Middlewares/Third_Party/ARM_CMSIS/CMSIS/DSP/Source/SupportFunctions/arm_bitonic_sort_f32.c ****  * Description:  Floating point bitonic sort
   5:Middlewares/Third_Party/ARM_CMSIS/CMSIS/DSP/Source/SupportFunctions/arm_bitonic_sort_f32.c ****  *
   6:Middlewares/Third_Party/ARM_CMSIS/CMSIS/DSP/Source/SupportFunctions/arm_bitonic_sort_f32.c ****  * $Date:        23 April 2021
   7:Middlewares/Third_Party/ARM_CMSIS/CMSIS/DSP/Source/SupportFunctions/arm_bitonic_sort_f32.c ****  * $Revision:    V1.9.0
   8:Middlewares/Third_Party/ARM_CMSIS/CMSIS/DSP/Source/SupportFunctions/arm_bitonic_sort_f32.c ****  *
   9:Middlewares/Third_Party/ARM_CMSIS/CMSIS/DSP/Source/SupportFunctions/arm_bitonic_sort_f32.c ****  * Target Processor: Cortex-M and Cortex-A cores
  10:Middlewares/Third_Party/ARM_CMSIS/CMSIS/DSP/Source/SupportFunctions/arm_bitonic_sort_f32.c ****  * -------------------------------------------------------------------- */
  11:Middlewares/Third_Party/ARM_CMSIS/CMSIS/DSP/Source/SupportFunctions/arm_bitonic_sort_f32.c **** /*
  12:Middlewares/Third_Party/ARM_CMSIS/CMSIS/DSP/Source/SupportFunctions/arm_bitonic_sort_f32.c ****  * Copyright (C) 2010-2021 ARM Limited or its affiliates. All rights reserved.
  13:Middlewares/Third_Party/ARM_CMSIS/CMSIS/DSP/Source/SupportFunctions/arm_bitonic_sort_f32.c ****  *
  14:Middlewares/Third_Party/ARM_CMSIS/CMSIS/DSP/Source/SupportFunctions/arm_bitonic_sort_f32.c ****  * SPDX-License-Identifier: Apache-2.0
  15:Middlewares/Third_Party/ARM_CMSIS/CMSIS/DSP/Source/SupportFunctions/arm_bitonic_sort_f32.c ****  *
  16:Middlewares/Third_Party/ARM_CMSIS/CMSIS/DSP/Source/SupportFunctions/arm_bitonic_sort_f32.c ****  * Licensed under the Apache License, Version 2.0 (the License); you may
  17:Middlewares/Third_Party/ARM_CMSIS/CMSIS/DSP/Source/SupportFunctions/arm_bitonic_sort_f32.c ****  * not use this file except in compliance with the License.
  18:Middlewares/Third_Party/ARM_CMSIS/CMSIS/DSP/Source/SupportFunctions/arm_bitonic_sort_f32.c ****  * You may obtain a copy of the License at
  19:Middlewares/Third_Party/ARM_CMSIS/CMSIS/DSP/Source/SupportFunctions/arm_bitonic_sort_f32.c ****  *
  20:Middlewares/Third_Party/ARM_CMSIS/CMSIS/DSP/Source/SupportFunctions/arm_bitonic_sort_f32.c ****  * www.apache.org/licenses/LICENSE-2.0
  21:Middlewares/Third_Party/ARM_CMSIS/CMSIS/DSP/Source/SupportFunctions/arm_bitonic_sort_f32.c ****  *
  22:Middlewares/Third_Party/ARM_CMSIS/CMSIS/DSP/Source/SupportFunctions/arm_bitonic_sort_f32.c ****  * Unless required by applicable law or agreed to in writing, software
  23:Middlewares/Third_Party/ARM_CMSIS/CMSIS/DSP/Source/SupportFunctions/arm_bitonic_sort_f32.c ****  * distributed under the License is distributed on an AS IS BASIS, WITHOUT
  24:Middlewares/Third_Party/ARM_CMSIS/CMSIS/DSP/Source/SupportFunctions/arm_bitonic_sort_f32.c ****  * WARRANTIES OR CONDITIONS OF ANY KIND, either express or implied.
  25:Middlewares/Third_Party/ARM_CMSIS/CMSIS/DSP/Source/SupportFunctions/arm_bitonic_sort_f32.c ****  * See the License for the specific language governing permissions and
  26:Middlewares/Third_Party/ARM_CMSIS/CMSIS/DSP/Source/SupportFunctions/arm_bitonic_sort_f32.c ****  * limitations under the License.
  27:Middlewares/Third_Party/ARM_CMSIS/CMSIS/DSP/Source/SupportFunctions/arm_bitonic_sort_f32.c ****  */
  28:Middlewares/Third_Party/ARM_CMSIS/CMSIS/DSP/Source/SupportFunctions/arm_bitonic_sort_f32.c **** 
  29:Middlewares/Third_Party/ARM_CMSIS/CMSIS/DSP/Source/SupportFunctions/arm_bitonic_sort_f32.c **** #include "dsp/support_functions.h"
  30:Middlewares/Third_Party/ARM_CMSIS/CMSIS/DSP/Source/SupportFunctions/arm_bitonic_sort_f32.c **** #include "arm_sorting.h"
ARM GAS  C:\Users\7636~1\AppData\Local\Temp\ccIWThgb.s 			page 2


  31:Middlewares/Third_Party/ARM_CMSIS/CMSIS/DSP/Source/SupportFunctions/arm_bitonic_sort_f32.c **** 
  32:Middlewares/Third_Party/ARM_CMSIS/CMSIS/DSP/Source/SupportFunctions/arm_bitonic_sort_f32.c **** 
  33:Middlewares/Third_Party/ARM_CMSIS/CMSIS/DSP/Source/SupportFunctions/arm_bitonic_sort_f32.c **** #if !defined(ARM_MATH_NEON)
  34:Middlewares/Third_Party/ARM_CMSIS/CMSIS/DSP/Source/SupportFunctions/arm_bitonic_sort_f32.c **** 
  35:Middlewares/Third_Party/ARM_CMSIS/CMSIS/DSP/Source/SupportFunctions/arm_bitonic_sort_f32.c **** static void arm_bitonic_sort_core_f32(float32_t *pSrc, uint32_t n, uint8_t dir)
  36:Middlewares/Third_Party/ARM_CMSIS/CMSIS/DSP/Source/SupportFunctions/arm_bitonic_sort_f32.c **** {
  29              		.loc 1 36 1 view -0
  30              		.cfi_startproc
  31              		@ args = 0, pretend = 0, frame = 0
  32              		@ frame_needed = 0, uses_anonymous_args = 0
  33              		.loc 1 36 1 is_stmt 0 view .LVU1
  34 0000 30B5     		push	{r4, r5, lr}
  35              	.LCFI0:
  36              		.cfi_def_cfa_offset 12
  37              		.cfi_offset 4, -12
  38              		.cfi_offset 5, -8
  39              		.cfi_offset 14, -4
  40 0002 8646     		mov	lr, r0
  41 0004 0C46     		mov	r4, r1
  42 0006 1546     		mov	r5, r2
  37:Middlewares/Third_Party/ARM_CMSIS/CMSIS/DSP/Source/SupportFunctions/arm_bitonic_sort_f32.c ****     uint32_t step;
  43              		.loc 1 37 5 is_stmt 1 view .LVU2
  38:Middlewares/Third_Party/ARM_CMSIS/CMSIS/DSP/Source/SupportFunctions/arm_bitonic_sort_f32.c ****     uint32_t k, j;
  44              		.loc 1 38 5 view .LVU3
  39:Middlewares/Third_Party/ARM_CMSIS/CMSIS/DSP/Source/SupportFunctions/arm_bitonic_sort_f32.c ****     float32_t *leftPtr, *rightPtr;
  45              		.loc 1 39 5 view .LVU4
  40:Middlewares/Third_Party/ARM_CMSIS/CMSIS/DSP/Source/SupportFunctions/arm_bitonic_sort_f32.c ****     float32_t temp;
  46              		.loc 1 40 5 view .LVU5
  41:Middlewares/Third_Party/ARM_CMSIS/CMSIS/DSP/Source/SupportFunctions/arm_bitonic_sort_f32.c **** 
  42:Middlewares/Third_Party/ARM_CMSIS/CMSIS/DSP/Source/SupportFunctions/arm_bitonic_sort_f32.c ****     step = n>>1;
  47              		.loc 1 42 5 view .LVU6
  48              		.loc 1 42 10 is_stmt 0 view .LVU7
  49 0008 4FEA510C 		lsr	ip, r1, #1
  50              	.LVL1:
  43:Middlewares/Third_Party/ARM_CMSIS/CMSIS/DSP/Source/SupportFunctions/arm_bitonic_sort_f32.c ****     leftPtr = pSrc;
  51              		.loc 1 43 5 is_stmt 1 view .LVU8
  44:Middlewares/Third_Party/ARM_CMSIS/CMSIS/DSP/Source/SupportFunctions/arm_bitonic_sort_f32.c ****     rightPtr = pSrc+n-1;
  52              		.loc 1 44 5 view .LVU9
  53              		.loc 1 44 22 is_stmt 0 view .LVU10
  54 000c 01F18043 		add	r3, r1, #1073741824
  55 0010 013B     		subs	r3, r3, #1
  56              		.loc 1 44 14 view .LVU11
  57 0012 00EB8303 		add	r3, r0, r3, lsl #2
  58              	.LVL2:
  45:Middlewares/Third_Party/ARM_CMSIS/CMSIS/DSP/Source/SupportFunctions/arm_bitonic_sort_f32.c **** 
  46:Middlewares/Third_Party/ARM_CMSIS/CMSIS/DSP/Source/SupportFunctions/arm_bitonic_sort_f32.c ****     for(k=0; k<step; k++)
  59              		.loc 1 46 5 is_stmt 1 view .LVU12
  43:Middlewares/Third_Party/ARM_CMSIS/CMSIS/DSP/Source/SupportFunctions/arm_bitonic_sort_f32.c ****     rightPtr = pSrc+n-1;
  60              		.loc 1 43 13 is_stmt 0 view .LVU13
  61 0016 0246     		mov	r2, r0
  62              	.LVL3:
  63              		.loc 1 46 10 view .LVU14
  64 0018 0021     		movs	r1, #0
  65              	.LVL4:
  66              		.loc 1 46 5 view .LVU15
  67 001a 02E0     		b	.L2
  68              	.LVL5:
ARM GAS  C:\Users\7636~1\AppData\Local\Temp\ccIWThgb.s 			page 3


  69              	.L3:
  47:Middlewares/Third_Party/ARM_CMSIS/CMSIS/DSP/Source/SupportFunctions/arm_bitonic_sort_f32.c ****     {
  48:Middlewares/Third_Party/ARM_CMSIS/CMSIS/DSP/Source/SupportFunctions/arm_bitonic_sort_f32.c **** 	if(dir == (*leftPtr > *rightPtr))
  49:Middlewares/Third_Party/ARM_CMSIS/CMSIS/DSP/Source/SupportFunctions/arm_bitonic_sort_f32.c **** 	{
  50:Middlewares/Third_Party/ARM_CMSIS/CMSIS/DSP/Source/SupportFunctions/arm_bitonic_sort_f32.c ****             // Swap
  51:Middlewares/Third_Party/ARM_CMSIS/CMSIS/DSP/Source/SupportFunctions/arm_bitonic_sort_f32.c **** 	    temp=*leftPtr;
  52:Middlewares/Third_Party/ARM_CMSIS/CMSIS/DSP/Source/SupportFunctions/arm_bitonic_sort_f32.c **** 	    *leftPtr=*rightPtr;
  53:Middlewares/Third_Party/ARM_CMSIS/CMSIS/DSP/Source/SupportFunctions/arm_bitonic_sort_f32.c **** 	    *rightPtr=temp;
  54:Middlewares/Third_Party/ARM_CMSIS/CMSIS/DSP/Source/SupportFunctions/arm_bitonic_sort_f32.c **** 	}
  55:Middlewares/Third_Party/ARM_CMSIS/CMSIS/DSP/Source/SupportFunctions/arm_bitonic_sort_f32.c **** 
  56:Middlewares/Third_Party/ARM_CMSIS/CMSIS/DSP/Source/SupportFunctions/arm_bitonic_sort_f32.c **** 	leftPtr++;  // Move right
  70              		.loc 1 56 2 is_stmt 1 discriminator 2 view .LVU16
  71              		.loc 1 56 9 is_stmt 0 discriminator 2 view .LVU17
  72 001c 0432     		adds	r2, r2, #4
  73              	.LVL6:
  57:Middlewares/Third_Party/ARM_CMSIS/CMSIS/DSP/Source/SupportFunctions/arm_bitonic_sort_f32.c **** 	rightPtr--; // Move left
  74              		.loc 1 57 2 is_stmt 1 discriminator 2 view .LVU18
  75              		.loc 1 57 10 is_stmt 0 discriminator 2 view .LVU19
  76 001e 043B     		subs	r3, r3, #4
  77              	.LVL7:
  46:Middlewares/Third_Party/ARM_CMSIS/CMSIS/DSP/Source/SupportFunctions/arm_bitonic_sort_f32.c ****     {
  78              		.loc 1 46 22 is_stmt 1 discriminator 2 view .LVU20
  46:Middlewares/Third_Party/ARM_CMSIS/CMSIS/DSP/Source/SupportFunctions/arm_bitonic_sort_f32.c ****     {
  79              		.loc 1 46 23 is_stmt 0 discriminator 2 view .LVU21
  80 0020 0131     		adds	r1, r1, #1
  81              	.LVL8:
  82              	.L2:
  46:Middlewares/Third_Party/ARM_CMSIS/CMSIS/DSP/Source/SupportFunctions/arm_bitonic_sort_f32.c ****     {
  83              		.loc 1 46 14 is_stmt 1 discriminator 1 view .LVU22
  46:Middlewares/Third_Party/ARM_CMSIS/CMSIS/DSP/Source/SupportFunctions/arm_bitonic_sort_f32.c ****     {
  84              		.loc 1 46 5 is_stmt 0 discriminator 1 view .LVU23
  85 0022 6145     		cmp	r1, ip
  86 0024 11D2     		bcs	.L15
  48:Middlewares/Third_Party/ARM_CMSIS/CMSIS/DSP/Source/SupportFunctions/arm_bitonic_sort_f32.c **** 	{
  87              		.loc 1 48 2 is_stmt 1 view .LVU24
  48:Middlewares/Third_Party/ARM_CMSIS/CMSIS/DSP/Source/SupportFunctions/arm_bitonic_sort_f32.c **** 	{
  88              		.loc 1 48 13 is_stmt 0 view .LVU25
  89 0026 D2ED007A 		vldr.32	s15, [r2]
  48:Middlewares/Third_Party/ARM_CMSIS/CMSIS/DSP/Source/SupportFunctions/arm_bitonic_sort_f32.c **** 	{
  90              		.loc 1 48 24 view .LVU26
  91 002a 93ED007A 		vldr.32	s14, [r3]
  48:Middlewares/Third_Party/ARM_CMSIS/CMSIS/DSP/Source/SupportFunctions/arm_bitonic_sort_f32.c **** 	{
  92              		.loc 1 48 22 view .LVU27
  93 002e F4EEC77A 		vcmpe.f32	s15, s14
  94 0032 F1EE10FA 		vmrs	APSR_nzcv, FPSCR
  95 0036 CCBF     		ite	gt
  96 0038 0120     		movgt	r0, #1
  97 003a 0020     		movle	r0, #0
  48:Middlewares/Third_Party/ARM_CMSIS/CMSIS/DSP/Source/SupportFunctions/arm_bitonic_sort_f32.c **** 	{
  98              		.loc 1 48 4 view .LVU28
  99 003c A842     		cmp	r0, r5
 100 003e EDD1     		bne	.L3
  51:Middlewares/Third_Party/ARM_CMSIS/CMSIS/DSP/Source/SupportFunctions/arm_bitonic_sort_f32.c **** 	    *leftPtr=*rightPtr;
 101              		.loc 1 51 6 is_stmt 1 view .LVU29
 102              	.LVL9:
  52:Middlewares/Third_Party/ARM_CMSIS/CMSIS/DSP/Source/SupportFunctions/arm_bitonic_sort_f32.c **** 	    *rightPtr=temp;
 103              		.loc 1 52 6 view .LVU30
ARM GAS  C:\Users\7636~1\AppData\Local\Temp\ccIWThgb.s 			page 4


  52:Middlewares/Third_Party/ARM_CMSIS/CMSIS/DSP/Source/SupportFunctions/arm_bitonic_sort_f32.c **** 	    *rightPtr=temp;
 104              		.loc 1 52 14 is_stmt 0 view .LVU31
 105 0040 82ED007A 		vstr.32	s14, [r2]
  53:Middlewares/Third_Party/ARM_CMSIS/CMSIS/DSP/Source/SupportFunctions/arm_bitonic_sort_f32.c **** 	}
 106              		.loc 1 53 6 is_stmt 1 view .LVU32
  53:Middlewares/Third_Party/ARM_CMSIS/CMSIS/DSP/Source/SupportFunctions/arm_bitonic_sort_f32.c **** 	}
 107              		.loc 1 53 15 is_stmt 0 view .LVU33
 108 0044 C3ED007A 		vstr.32	s15, [r3]
 109 0048 E8E7     		b	.L3
 110              	.LVL10:
 111              	.L15:
  58:Middlewares/Third_Party/ARM_CMSIS/CMSIS/DSP/Source/SupportFunctions/arm_bitonic_sort_f32.c ****     }
  59:Middlewares/Third_Party/ARM_CMSIS/CMSIS/DSP/Source/SupportFunctions/arm_bitonic_sort_f32.c **** 
  60:Middlewares/Third_Party/ARM_CMSIS/CMSIS/DSP/Source/SupportFunctions/arm_bitonic_sort_f32.c ****     // Merge
  61:Middlewares/Third_Party/ARM_CMSIS/CMSIS/DSP/Source/SupportFunctions/arm_bitonic_sort_f32.c ****     for(step=(n>>2); step>0; step/=2)
 112              		.loc 1 61 5 is_stmt 1 view .LVU34
 113              		.loc 1 61 13 is_stmt 0 view .LVU35
 114 004a A008     		lsrs	r0, r4, #2
 115              	.LVL11:
 116              		.loc 1 61 5 view .LVU36
 117 004c 1FE0     		b	.L5
 118              	.LVL12:
 119              	.L7:
  62:Middlewares/Third_Party/ARM_CMSIS/CMSIS/DSP/Source/SupportFunctions/arm_bitonic_sort_f32.c ****     {
  63:Middlewares/Third_Party/ARM_CMSIS/CMSIS/DSP/Source/SupportFunctions/arm_bitonic_sort_f32.c **** 	for(j=0; j<n; j=j+step*2)
  64:Middlewares/Third_Party/ARM_CMSIS/CMSIS/DSP/Source/SupportFunctions/arm_bitonic_sort_f32.c **** 	{
  65:Middlewares/Third_Party/ARM_CMSIS/CMSIS/DSP/Source/SupportFunctions/arm_bitonic_sort_f32.c **** 	    leftPtr  = pSrc+j;
  66:Middlewares/Third_Party/ARM_CMSIS/CMSIS/DSP/Source/SupportFunctions/arm_bitonic_sort_f32.c **** 	    rightPtr = pSrc+j+step;
  67:Middlewares/Third_Party/ARM_CMSIS/CMSIS/DSP/Source/SupportFunctions/arm_bitonic_sort_f32.c **** 
  68:Middlewares/Third_Party/ARM_CMSIS/CMSIS/DSP/Source/SupportFunctions/arm_bitonic_sort_f32.c **** 	    for(k=0; k<step; k++)
  69:Middlewares/Third_Party/ARM_CMSIS/CMSIS/DSP/Source/SupportFunctions/arm_bitonic_sort_f32.c **** 	    {
  70:Middlewares/Third_Party/ARM_CMSIS/CMSIS/DSP/Source/SupportFunctions/arm_bitonic_sort_f32.c **** 		if(*leftPtr > *rightPtr)
  71:Middlewares/Third_Party/ARM_CMSIS/CMSIS/DSP/Source/SupportFunctions/arm_bitonic_sort_f32.c **** 		{
  72:Middlewares/Third_Party/ARM_CMSIS/CMSIS/DSP/Source/SupportFunctions/arm_bitonic_sort_f32.c **** 		    // Swap
  73:Middlewares/Third_Party/ARM_CMSIS/CMSIS/DSP/Source/SupportFunctions/arm_bitonic_sort_f32.c **** 	    	    temp=*leftPtr;
  74:Middlewares/Third_Party/ARM_CMSIS/CMSIS/DSP/Source/SupportFunctions/arm_bitonic_sort_f32.c **** 		    *leftPtr=*rightPtr;
  75:Middlewares/Third_Party/ARM_CMSIS/CMSIS/DSP/Source/SupportFunctions/arm_bitonic_sort_f32.c **** 		    *rightPtr=temp;
  76:Middlewares/Third_Party/ARM_CMSIS/CMSIS/DSP/Source/SupportFunctions/arm_bitonic_sort_f32.c **** 		}
  77:Middlewares/Third_Party/ARM_CMSIS/CMSIS/DSP/Source/SupportFunctions/arm_bitonic_sort_f32.c **** 
  78:Middlewares/Third_Party/ARM_CMSIS/CMSIS/DSP/Source/SupportFunctions/arm_bitonic_sort_f32.c **** 		leftPtr++;
 120              		.loc 1 78 3 is_stmt 1 discriminator 2 view .LVU37
 121              		.loc 1 78 10 is_stmt 0 discriminator 2 view .LVU38
 122 004e 0432     		adds	r2, r2, #4
 123              	.LVL13:
  79:Middlewares/Third_Party/ARM_CMSIS/CMSIS/DSP/Source/SupportFunctions/arm_bitonic_sort_f32.c **** 		rightPtr++;
 124              		.loc 1 79 3 is_stmt 1 discriminator 2 view .LVU39
 125              		.loc 1 79 11 is_stmt 0 discriminator 2 view .LVU40
 126 0050 0433     		adds	r3, r3, #4
 127              	.LVL14:
  68:Middlewares/Third_Party/ARM_CMSIS/CMSIS/DSP/Source/SupportFunctions/arm_bitonic_sort_f32.c **** 	    {
 128              		.loc 1 68 23 is_stmt 1 discriminator 2 view .LVU41
  68:Middlewares/Third_Party/ARM_CMSIS/CMSIS/DSP/Source/SupportFunctions/arm_bitonic_sort_f32.c **** 	    {
 129              		.loc 1 68 24 is_stmt 0 discriminator 2 view .LVU42
 130 0052 0131     		adds	r1, r1, #1
 131              	.LVL15:
 132              	.L6:
  68:Middlewares/Third_Party/ARM_CMSIS/CMSIS/DSP/Source/SupportFunctions/arm_bitonic_sort_f32.c **** 	    {
ARM GAS  C:\Users\7636~1\AppData\Local\Temp\ccIWThgb.s 			page 5


 133              		.loc 1 68 15 is_stmt 1 discriminator 1 view .LVU43
  68:Middlewares/Third_Party/ARM_CMSIS/CMSIS/DSP/Source/SupportFunctions/arm_bitonic_sort_f32.c **** 	    {
 134              		.loc 1 68 6 is_stmt 0 discriminator 1 view .LVU44
 135 0054 8842     		cmp	r0, r1
 136 0056 0DD9     		bls	.L16
  70:Middlewares/Third_Party/ARM_CMSIS/CMSIS/DSP/Source/SupportFunctions/arm_bitonic_sort_f32.c **** 		{
 137              		.loc 1 70 3 is_stmt 1 view .LVU45
  70:Middlewares/Third_Party/ARM_CMSIS/CMSIS/DSP/Source/SupportFunctions/arm_bitonic_sort_f32.c **** 		{
 138              		.loc 1 70 6 is_stmt 0 view .LVU46
 139 0058 D2ED007A 		vldr.32	s15, [r2]
  70:Middlewares/Third_Party/ARM_CMSIS/CMSIS/DSP/Source/SupportFunctions/arm_bitonic_sort_f32.c **** 		{
 140              		.loc 1 70 17 view .LVU47
 141 005c 93ED007A 		vldr.32	s14, [r3]
  70:Middlewares/Third_Party/ARM_CMSIS/CMSIS/DSP/Source/SupportFunctions/arm_bitonic_sort_f32.c **** 		{
 142              		.loc 1 70 5 view .LVU48
 143 0060 F4EEC77A 		vcmpe.f32	s15, s14
 144 0064 F1EE10FA 		vmrs	APSR_nzcv, FPSCR
 145 0068 F1DD     		ble	.L7
  73:Middlewares/Third_Party/ARM_CMSIS/CMSIS/DSP/Source/SupportFunctions/arm_bitonic_sort_f32.c **** 		    *leftPtr=*rightPtr;
 146              		.loc 1 73 11 is_stmt 1 view .LVU49
 147              	.LVL16:
  74:Middlewares/Third_Party/ARM_CMSIS/CMSIS/DSP/Source/SupportFunctions/arm_bitonic_sort_f32.c **** 		    *rightPtr=temp;
 148              		.loc 1 74 7 view .LVU50
  74:Middlewares/Third_Party/ARM_CMSIS/CMSIS/DSP/Source/SupportFunctions/arm_bitonic_sort_f32.c **** 		    *rightPtr=temp;
 149              		.loc 1 74 15 is_stmt 0 view .LVU51
 150 006a 82ED007A 		vstr.32	s14, [r2]
  75:Middlewares/Third_Party/ARM_CMSIS/CMSIS/DSP/Source/SupportFunctions/arm_bitonic_sort_f32.c **** 		}
 151              		.loc 1 75 7 is_stmt 1 view .LVU52
  75:Middlewares/Third_Party/ARM_CMSIS/CMSIS/DSP/Source/SupportFunctions/arm_bitonic_sort_f32.c **** 		}
 152              		.loc 1 75 16 is_stmt 0 view .LVU53
 153 006e C3ED007A 		vstr.32	s15, [r3]
 154 0072 ECE7     		b	.L7
 155              	.LVL17:
 156              	.L16:
  63:Middlewares/Third_Party/ARM_CMSIS/CMSIS/DSP/Source/SupportFunctions/arm_bitonic_sort_f32.c **** 	{
 157              		.loc 1 63 16 is_stmt 1 discriminator 2 view .LVU54
  63:Middlewares/Third_Party/ARM_CMSIS/CMSIS/DSP/Source/SupportFunctions/arm_bitonic_sort_f32.c **** 	{
 158              		.loc 1 63 17 is_stmt 0 discriminator 2 view .LVU55
 159 0074 0CEB400C 		add	ip, ip, r0, lsl #1
 160              	.LVL18:
 161              	.L11:
  63:Middlewares/Third_Party/ARM_CMSIS/CMSIS/DSP/Source/SupportFunctions/arm_bitonic_sort_f32.c **** 	{
 162              		.loc 1 63 11 is_stmt 1 discriminator 1 view .LVU56
  63:Middlewares/Third_Party/ARM_CMSIS/CMSIS/DSP/Source/SupportFunctions/arm_bitonic_sort_f32.c **** 	{
 163              		.loc 1 63 2 is_stmt 0 discriminator 1 view .LVU57
 164 0078 A445     		cmp	ip, r4
 165 007a 07D2     		bcs	.L17
  65:Middlewares/Third_Party/ARM_CMSIS/CMSIS/DSP/Source/SupportFunctions/arm_bitonic_sort_f32.c **** 	    rightPtr = pSrc+j+step;
 166              		.loc 1 65 6 is_stmt 1 view .LVU58
  65:Middlewares/Third_Party/ARM_CMSIS/CMSIS/DSP/Source/SupportFunctions/arm_bitonic_sort_f32.c **** 	    rightPtr = pSrc+j+step;
 167              		.loc 1 65 15 is_stmt 0 view .LVU59
 168 007c 0EEB8C02 		add	r2, lr, ip, lsl #2
 169              	.LVL19:
  66:Middlewares/Third_Party/ARM_CMSIS/CMSIS/DSP/Source/SupportFunctions/arm_bitonic_sort_f32.c **** 
 170              		.loc 1 66 6 is_stmt 1 view .LVU60
  66:Middlewares/Third_Party/ARM_CMSIS/CMSIS/DSP/Source/SupportFunctions/arm_bitonic_sort_f32.c **** 
 171              		.loc 1 66 23 is_stmt 0 view .LVU61
ARM GAS  C:\Users\7636~1\AppData\Local\Temp\ccIWThgb.s 			page 6


 172 0080 00EB0C03 		add	r3, r0, ip
 173              	.LVL20:
  66:Middlewares/Third_Party/ARM_CMSIS/CMSIS/DSP/Source/SupportFunctions/arm_bitonic_sort_f32.c **** 
 174              		.loc 1 66 15 view .LVU62
 175 0084 0EEB8303 		add	r3, lr, r3, lsl #2
 176              	.LVL21:
  68:Middlewares/Third_Party/ARM_CMSIS/CMSIS/DSP/Source/SupportFunctions/arm_bitonic_sort_f32.c **** 	    {
 177              		.loc 1 68 6 is_stmt 1 view .LVU63
  68:Middlewares/Third_Party/ARM_CMSIS/CMSIS/DSP/Source/SupportFunctions/arm_bitonic_sort_f32.c **** 	    {
 178              		.loc 1 68 11 is_stmt 0 view .LVU64
 179 0088 0021     		movs	r1, #0
  68:Middlewares/Third_Party/ARM_CMSIS/CMSIS/DSP/Source/SupportFunctions/arm_bitonic_sort_f32.c **** 	    {
 180              		.loc 1 68 6 view .LVU65
 181 008a E3E7     		b	.L6
 182              	.LVL22:
 183              	.L17:
  61:Middlewares/Third_Party/ARM_CMSIS/CMSIS/DSP/Source/SupportFunctions/arm_bitonic_sort_f32.c ****     {
 184              		.loc 1 61 30 is_stmt 1 discriminator 2 view .LVU66
  61:Middlewares/Third_Party/ARM_CMSIS/CMSIS/DSP/Source/SupportFunctions/arm_bitonic_sort_f32.c ****     {
 185              		.loc 1 61 34 is_stmt 0 discriminator 2 view .LVU67
 186 008c 4008     		lsrs	r0, r0, #1
 187              	.LVL23:
 188              	.L5:
  61:Middlewares/Third_Party/ARM_CMSIS/CMSIS/DSP/Source/SupportFunctions/arm_bitonic_sort_f32.c ****     {
 189              		.loc 1 61 22 is_stmt 1 discriminator 1 view .LVU68
  61:Middlewares/Third_Party/ARM_CMSIS/CMSIS/DSP/Source/SupportFunctions/arm_bitonic_sort_f32.c ****     {
 190              		.loc 1 61 5 is_stmt 0 discriminator 1 view .LVU69
 191 008e 10B1     		cbz	r0, .L18
  63:Middlewares/Third_Party/ARM_CMSIS/CMSIS/DSP/Source/SupportFunctions/arm_bitonic_sort_f32.c **** 	{
 192              		.loc 1 63 7 view .LVU70
 193 0090 4FF0000C 		mov	ip, #0
 194 0094 F0E7     		b	.L11
 195              	.L18:
  80:Middlewares/Third_Party/ARM_CMSIS/CMSIS/DSP/Source/SupportFunctions/arm_bitonic_sort_f32.c **** 	    }
  81:Middlewares/Third_Party/ARM_CMSIS/CMSIS/DSP/Source/SupportFunctions/arm_bitonic_sort_f32.c **** 	}
  82:Middlewares/Third_Party/ARM_CMSIS/CMSIS/DSP/Source/SupportFunctions/arm_bitonic_sort_f32.c ****     }
  83:Middlewares/Third_Party/ARM_CMSIS/CMSIS/DSP/Source/SupportFunctions/arm_bitonic_sort_f32.c **** }
 196              		.loc 1 83 1 view .LVU71
 197 0096 30BD     		pop	{r4, r5, pc}
 198              		.loc 1 83 1 view .LVU72
 199              		.cfi_endproc
 200              	.LFE139:
 202              		.section	.text.arm_heapify,"ax",%progbits
 203              		.align	1
 204              		.syntax unified
 205              		.thumb
 206              		.thumb_func
 208              	arm_heapify:
 209              	.LVL24:
 210              	.LFB150:
 211              		.file 2 "Middlewares/Third_Party/ARM_CMSIS/CMSIS/DSP/Source/SupportFunctions/arm_heap_sort_f32.c"
   1:Middlewares/Third_Party/ARM_CMSIS/CMSIS/DSP/Source/SupportFunctions/arm_heap_sort_f32.c **** /* ----------------------------------------------------------------------
   2:Middlewares/Third_Party/ARM_CMSIS/CMSIS/DSP/Source/SupportFunctions/arm_heap_sort_f32.c ****  * Project:      CMSIS DSP Library
   3:Middlewares/Third_Party/ARM_CMSIS/CMSIS/DSP/Source/SupportFunctions/arm_heap_sort_f32.c ****  * Title:        arm_heap_sort_f32.c
   4:Middlewares/Third_Party/ARM_CMSIS/CMSIS/DSP/Source/SupportFunctions/arm_heap_sort_f32.c ****  * Description:  Floating point heap sort
   5:Middlewares/Third_Party/ARM_CMSIS/CMSIS/DSP/Source/SupportFunctions/arm_heap_sort_f32.c ****  *
   6:Middlewares/Third_Party/ARM_CMSIS/CMSIS/DSP/Source/SupportFunctions/arm_heap_sort_f32.c ****  * $Date:        23 April 2021
ARM GAS  C:\Users\7636~1\AppData\Local\Temp\ccIWThgb.s 			page 7


   7:Middlewares/Third_Party/ARM_CMSIS/CMSIS/DSP/Source/SupportFunctions/arm_heap_sort_f32.c ****  * $Revision:    V1.9.0
   8:Middlewares/Third_Party/ARM_CMSIS/CMSIS/DSP/Source/SupportFunctions/arm_heap_sort_f32.c ****  *
   9:Middlewares/Third_Party/ARM_CMSIS/CMSIS/DSP/Source/SupportFunctions/arm_heap_sort_f32.c ****  * Target Processor: Cortex-M and Cortex-A cores
  10:Middlewares/Third_Party/ARM_CMSIS/CMSIS/DSP/Source/SupportFunctions/arm_heap_sort_f32.c ****  * -------------------------------------------------------------------- */
  11:Middlewares/Third_Party/ARM_CMSIS/CMSIS/DSP/Source/SupportFunctions/arm_heap_sort_f32.c **** /*
  12:Middlewares/Third_Party/ARM_CMSIS/CMSIS/DSP/Source/SupportFunctions/arm_heap_sort_f32.c ****  * Copyright (C) 2010-2021 ARM Limited or its affiliates. All rights reserved.
  13:Middlewares/Third_Party/ARM_CMSIS/CMSIS/DSP/Source/SupportFunctions/arm_heap_sort_f32.c ****  *
  14:Middlewares/Third_Party/ARM_CMSIS/CMSIS/DSP/Source/SupportFunctions/arm_heap_sort_f32.c ****  * SPDX-License-Identifier: Apache-2.0
  15:Middlewares/Third_Party/ARM_CMSIS/CMSIS/DSP/Source/SupportFunctions/arm_heap_sort_f32.c ****  *
  16:Middlewares/Third_Party/ARM_CMSIS/CMSIS/DSP/Source/SupportFunctions/arm_heap_sort_f32.c ****  * Licensed under the Apache License, Version 2.0 (the License); you may
  17:Middlewares/Third_Party/ARM_CMSIS/CMSIS/DSP/Source/SupportFunctions/arm_heap_sort_f32.c ****  * not use this file except in compliance with the License.
  18:Middlewares/Third_Party/ARM_CMSIS/CMSIS/DSP/Source/SupportFunctions/arm_heap_sort_f32.c ****  * You may obtain a copy of the License at
  19:Middlewares/Third_Party/ARM_CMSIS/CMSIS/DSP/Source/SupportFunctions/arm_heap_sort_f32.c ****  *
  20:Middlewares/Third_Party/ARM_CMSIS/CMSIS/DSP/Source/SupportFunctions/arm_heap_sort_f32.c ****  * www.apache.org/licenses/LICENSE-2.0
  21:Middlewares/Third_Party/ARM_CMSIS/CMSIS/DSP/Source/SupportFunctions/arm_heap_sort_f32.c ****  *
  22:Middlewares/Third_Party/ARM_CMSIS/CMSIS/DSP/Source/SupportFunctions/arm_heap_sort_f32.c ****  * Unless required by applicable law or agreed to in writing, software
  23:Middlewares/Third_Party/ARM_CMSIS/CMSIS/DSP/Source/SupportFunctions/arm_heap_sort_f32.c ****  * distributed under the License is distributed on an AS IS BASIS, WITHOUT
  24:Middlewares/Third_Party/ARM_CMSIS/CMSIS/DSP/Source/SupportFunctions/arm_heap_sort_f32.c ****  * WARRANTIES OR CONDITIONS OF ANY KIND, either express or implied.
  25:Middlewares/Third_Party/ARM_CMSIS/CMSIS/DSP/Source/SupportFunctions/arm_heap_sort_f32.c ****  * See the License for the specific language governing permissions and
  26:Middlewares/Third_Party/ARM_CMSIS/CMSIS/DSP/Source/SupportFunctions/arm_heap_sort_f32.c ****  * limitations under the License.
  27:Middlewares/Third_Party/ARM_CMSIS/CMSIS/DSP/Source/SupportFunctions/arm_heap_sort_f32.c ****  */
  28:Middlewares/Third_Party/ARM_CMSIS/CMSIS/DSP/Source/SupportFunctions/arm_heap_sort_f32.c **** 
  29:Middlewares/Third_Party/ARM_CMSIS/CMSIS/DSP/Source/SupportFunctions/arm_heap_sort_f32.c **** #include "dsp/support_functions.h"
  30:Middlewares/Third_Party/ARM_CMSIS/CMSIS/DSP/Source/SupportFunctions/arm_heap_sort_f32.c **** #include "arm_sorting.h"
  31:Middlewares/Third_Party/ARM_CMSIS/CMSIS/DSP/Source/SupportFunctions/arm_heap_sort_f32.c **** 
  32:Middlewares/Third_Party/ARM_CMSIS/CMSIS/DSP/Source/SupportFunctions/arm_heap_sort_f32.c **** 
  33:Middlewares/Third_Party/ARM_CMSIS/CMSIS/DSP/Source/SupportFunctions/arm_heap_sort_f32.c **** 
  34:Middlewares/Third_Party/ARM_CMSIS/CMSIS/DSP/Source/SupportFunctions/arm_heap_sort_f32.c **** static void arm_heapify(float32_t * pSrc, uint32_t n, uint32_t i, uint8_t dir)
  35:Middlewares/Third_Party/ARM_CMSIS/CMSIS/DSP/Source/SupportFunctions/arm_heap_sort_f32.c **** {
 212              		.loc 2 35 1 is_stmt 1 view -0
 213              		.cfi_startproc
 214              		@ args = 0, pretend = 0, frame = 0
 215              		@ frame_needed = 0, uses_anonymous_args = 0
 216              		.loc 2 35 1 is_stmt 0 view .LVU74
 217 0000 38B5     		push	{r3, r4, r5, lr}
 218              	.LCFI1:
 219              		.cfi_def_cfa_offset 16
 220              		.cfi_offset 3, -16
 221              		.cfi_offset 4, -12
 222              		.cfi_offset 5, -8
 223              		.cfi_offset 14, -4
 224 0002 9446     		mov	ip, r2
  36:Middlewares/Third_Party/ARM_CMSIS/CMSIS/DSP/Source/SupportFunctions/arm_heap_sort_f32.c ****     /* Put all the elements of pSrc in heap order */
  37:Middlewares/Third_Party/ARM_CMSIS/CMSIS/DSP/Source/SupportFunctions/arm_heap_sort_f32.c ****     uint32_t k = i; // Initialize largest/smallest as root 
 225              		.loc 2 37 5 is_stmt 1 view .LVU75
 226              	.LVL25:
  38:Middlewares/Third_Party/ARM_CMSIS/CMSIS/DSP/Source/SupportFunctions/arm_heap_sort_f32.c ****     uint32_t l = 2*i + 1; // left = 2*i + 1 
 227              		.loc 2 38 5 view .LVU76
 228              		.loc 2 38 19 is_stmt 0 view .LVU77
 229 0004 5200     		lsls	r2, r2, #1
 230              	.LVL26:
 231              		.loc 2 38 14 view .LVU78
 232 0006 0132     		adds	r2, r2, #1
 233              	.LVL27:
  39:Middlewares/Third_Party/ARM_CMSIS/CMSIS/DSP/Source/SupportFunctions/arm_heap_sort_f32.c ****     uint32_t r = 2*i + 2; // right = 2*i + 2 
 234              		.loc 2 39 5 is_stmt 1 view .LVU79
 235              		.loc 2 39 22 is_stmt 0 view .LVU80
ARM GAS  C:\Users\7636~1\AppData\Local\Temp\ccIWThgb.s 			page 8


 236 0008 0CF1010E 		add	lr, ip, #1
 237              		.loc 2 39 14 view .LVU81
 238 000c 4FEA4E04 		lsl	r4, lr, #1
 239              	.LVL28:
  40:Middlewares/Third_Party/ARM_CMSIS/CMSIS/DSP/Source/SupportFunctions/arm_heap_sort_f32.c ****     float32_t temp;
 240              		.loc 2 40 5 is_stmt 1 view .LVU82
  41:Middlewares/Third_Party/ARM_CMSIS/CMSIS/DSP/Source/SupportFunctions/arm_heap_sort_f32.c **** 
  42:Middlewares/Third_Party/ARM_CMSIS/CMSIS/DSP/Source/SupportFunctions/arm_heap_sort_f32.c ****     if (l < n && dir==(pSrc[l] > pSrc[k]) )
 241              		.loc 2 42 5 view .LVU83
 242              		.loc 2 42 8 is_stmt 0 view .LVU84
 243 0010 8A42     		cmp	r2, r1
 244 0012 12D2     		bcs	.L23
 245              		.loc 2 42 28 discriminator 1 view .LVU85
 246 0014 00EB8205 		add	r5, r0, r2, lsl #2
 247 0018 95ED007A 		vldr.32	s14, [r5]
 248              		.loc 2 42 38 discriminator 1 view .LVU86
 249 001c 00EB8C05 		add	r5, r0, ip, lsl #2
 250 0020 D5ED007A 		vldr.32	s15, [r5]
 251              		.loc 2 42 32 discriminator 1 view .LVU87
 252 0024 B4EEE77A 		vcmpe.f32	s14, s15
 253 0028 F1EE10FA 		vmrs	APSR_nzcv, FPSCR
 254 002c CCBF     		ite	gt
 255 002e 0125     		movgt	r5, #1
 256 0030 0025     		movle	r5, #0
 257              		.loc 2 42 15 discriminator 1 view .LVU88
 258 0032 9D42     		cmp	r5, r3
 259 0034 02D0     		beq	.L20
  37:Middlewares/Third_Party/ARM_CMSIS/CMSIS/DSP/Source/SupportFunctions/arm_heap_sort_f32.c ****     uint32_t l = 2*i + 1; // left = 2*i + 1 
 260              		.loc 2 37 14 view .LVU89
 261 0036 6246     		mov	r2, ip
 262              	.LVL29:
  37:Middlewares/Third_Party/ARM_CMSIS/CMSIS/DSP/Source/SupportFunctions/arm_heap_sort_f32.c ****     uint32_t l = 2*i + 1; // left = 2*i + 1 
 263              		.loc 2 37 14 view .LVU90
 264 0038 00E0     		b	.L20
 265              	.LVL30:
 266              	.L23:
  37:Middlewares/Third_Party/ARM_CMSIS/CMSIS/DSP/Source/SupportFunctions/arm_heap_sort_f32.c ****     uint32_t l = 2*i + 1; // left = 2*i + 1 
 267              		.loc 2 37 14 view .LVU91
 268 003a 6246     		mov	r2, ip
 269              	.LVL31:
 270              	.L20:
  43:Middlewares/Third_Party/ARM_CMSIS/CMSIS/DSP/Source/SupportFunctions/arm_heap_sort_f32.c ****         k = l; 
  44:Middlewares/Third_Party/ARM_CMSIS/CMSIS/DSP/Source/SupportFunctions/arm_heap_sort_f32.c **** 
  45:Middlewares/Third_Party/ARM_CMSIS/CMSIS/DSP/Source/SupportFunctions/arm_heap_sort_f32.c ****     if (r < n && dir==(pSrc[r] > pSrc[k]) )
 271              		.loc 2 45 5 is_stmt 1 view .LVU92
 272              		.loc 2 45 8 is_stmt 0 view .LVU93
 273 003c 8C42     		cmp	r4, r1
 274 003e 12D2     		bcs	.L21
 275              		.loc 2 45 28 discriminator 1 view .LVU94
 276 0040 00EBCE0E 		add	lr, r0, lr, lsl #3
 277 0044 9EED007A 		vldr.32	s14, [lr]
 278              		.loc 2 45 38 discriminator 1 view .LVU95
 279 0048 00EB820E 		add	lr, r0, r2, lsl #2
 280 004c DEED007A 		vldr.32	s15, [lr]
 281              		.loc 2 45 32 discriminator 1 view .LVU96
 282 0050 B4EEE77A 		vcmpe.f32	s14, s15
 283 0054 F1EE10FA 		vmrs	APSR_nzcv, FPSCR
ARM GAS  C:\Users\7636~1\AppData\Local\Temp\ccIWThgb.s 			page 9


 284 0058 CCBF     		ite	gt
 285 005a 4FF0010E 		movgt	lr, #1
 286 005e 4FF0000E 		movle	lr, #0
 287              		.loc 2 45 15 discriminator 1 view .LVU97
 288 0062 7345     		cmp	r3, lr
 289 0064 02D0     		beq	.L26
 290              	.LVL32:
 291              	.L21:
  46:Middlewares/Third_Party/ARM_CMSIS/CMSIS/DSP/Source/SupportFunctions/arm_heap_sort_f32.c ****         k = r; 
  47:Middlewares/Third_Party/ARM_CMSIS/CMSIS/DSP/Source/SupportFunctions/arm_heap_sort_f32.c **** 
  48:Middlewares/Third_Party/ARM_CMSIS/CMSIS/DSP/Source/SupportFunctions/arm_heap_sort_f32.c ****     if (k != i) 
 292              		.loc 2 48 5 is_stmt 1 view .LVU98
 293              		.loc 2 48 8 is_stmt 0 view .LVU99
 294 0066 6245     		cmp	r2, ip
 295 0068 02D1     		bne	.L27
 296              	.LVL33:
 297              	.L19:
  49:Middlewares/Third_Party/ARM_CMSIS/CMSIS/DSP/Source/SupportFunctions/arm_heap_sort_f32.c ****     { 
  50:Middlewares/Third_Party/ARM_CMSIS/CMSIS/DSP/Source/SupportFunctions/arm_heap_sort_f32.c **** 	temp = pSrc[i];
  51:Middlewares/Third_Party/ARM_CMSIS/CMSIS/DSP/Source/SupportFunctions/arm_heap_sort_f32.c **** 	pSrc[i]=pSrc[k];
  52:Middlewares/Third_Party/ARM_CMSIS/CMSIS/DSP/Source/SupportFunctions/arm_heap_sort_f32.c **** 	pSrc[k]=temp;
  53:Middlewares/Third_Party/ARM_CMSIS/CMSIS/DSP/Source/SupportFunctions/arm_heap_sort_f32.c **** 
  54:Middlewares/Third_Party/ARM_CMSIS/CMSIS/DSP/Source/SupportFunctions/arm_heap_sort_f32.c ****         arm_heapify(pSrc, n, k, dir); 
  55:Middlewares/Third_Party/ARM_CMSIS/CMSIS/DSP/Source/SupportFunctions/arm_heap_sort_f32.c ****     }
  56:Middlewares/Third_Party/ARM_CMSIS/CMSIS/DSP/Source/SupportFunctions/arm_heap_sort_f32.c **** }
 298              		.loc 2 56 1 view .LVU100
 299 006a 38BD     		pop	{r3, r4, r5, pc}
 300              	.LVL34:
 301              	.L26:
  46:Middlewares/Third_Party/ARM_CMSIS/CMSIS/DSP/Source/SupportFunctions/arm_heap_sort_f32.c ****         k = r; 
 302              		.loc 2 46 11 view .LVU101
 303 006c 2246     		mov	r2, r4
 304              	.LVL35:
  46:Middlewares/Third_Party/ARM_CMSIS/CMSIS/DSP/Source/SupportFunctions/arm_heap_sort_f32.c ****         k = r; 
 305              		.loc 2 46 11 view .LVU102
 306 006e FAE7     		b	.L21
 307              	.LVL36:
 308              	.L27:
  50:Middlewares/Third_Party/ARM_CMSIS/CMSIS/DSP/Source/SupportFunctions/arm_heap_sort_f32.c **** 	pSrc[i]=pSrc[k];
 309              		.loc 2 50 2 is_stmt 1 view .LVU103
  50:Middlewares/Third_Party/ARM_CMSIS/CMSIS/DSP/Source/SupportFunctions/arm_heap_sort_f32.c **** 	pSrc[i]=pSrc[k];
 310              		.loc 2 50 13 is_stmt 0 view .LVU104
 311 0070 00EB8C0C 		add	ip, r0, ip, lsl #2
 312              	.LVL37:
  50:Middlewares/Third_Party/ARM_CMSIS/CMSIS/DSP/Source/SupportFunctions/arm_heap_sort_f32.c **** 	pSrc[i]=pSrc[k];
 313              		.loc 2 50 7 view .LVU105
 314 0074 DCF80050 		ldr	r5, [ip]	@ float
 315              	.LVL38:
  51:Middlewares/Third_Party/ARM_CMSIS/CMSIS/DSP/Source/SupportFunctions/arm_heap_sort_f32.c **** 	pSrc[k]=temp;
 316              		.loc 2 51 2 is_stmt 1 view .LVU106
  51:Middlewares/Third_Party/ARM_CMSIS/CMSIS/DSP/Source/SupportFunctions/arm_heap_sort_f32.c **** 	pSrc[k]=temp;
 317              		.loc 2 51 14 is_stmt 0 view .LVU107
 318 0078 00EB8204 		add	r4, r0, r2, lsl #2
 319              	.LVL39:
  51:Middlewares/Third_Party/ARM_CMSIS/CMSIS/DSP/Source/SupportFunctions/arm_heap_sort_f32.c **** 	pSrc[k]=temp;
 320              		.loc 2 51 14 view .LVU108
 321 007c D4F800E0 		ldr	lr, [r4]	@ float
ARM GAS  C:\Users\7636~1\AppData\Local\Temp\ccIWThgb.s 			page 10


  51:Middlewares/Third_Party/ARM_CMSIS/CMSIS/DSP/Source/SupportFunctions/arm_heap_sort_f32.c **** 	pSrc[k]=temp;
 322              		.loc 2 51 9 view .LVU109
 323 0080 CCF800E0 		str	lr, [ip]	@ float
  52:Middlewares/Third_Party/ARM_CMSIS/CMSIS/DSP/Source/SupportFunctions/arm_heap_sort_f32.c **** 
 324              		.loc 2 52 2 is_stmt 1 view .LVU110
  52:Middlewares/Third_Party/ARM_CMSIS/CMSIS/DSP/Source/SupportFunctions/arm_heap_sort_f32.c **** 
 325              		.loc 2 52 9 is_stmt 0 view .LVU111
 326 0084 2560     		str	r5, [r4]	@ float
  54:Middlewares/Third_Party/ARM_CMSIS/CMSIS/DSP/Source/SupportFunctions/arm_heap_sort_f32.c ****     }
 327              		.loc 2 54 9 is_stmt 1 view .LVU112
 328 0086 FFF7BBFF 		bl	arm_heapify
 329              	.LVL40:
 330              		.loc 2 56 1 is_stmt 0 view .LVU113
 331 008a EEE7     		b	.L19
 332              		.cfi_endproc
 333              	.LFE150:
 335              		.section	.text.topDownMerge,"ax",%progbits
 336              		.align	1
 337              		.syntax unified
 338              		.thumb
 339              		.thumb_func
 341              	topDownMerge:
 342              	.LVL41:
 343              	.LFB153:
 344              		.file 3 "Middlewares/Third_Party/ARM_CMSIS/CMSIS/DSP/Source/SupportFunctions/arm_merge_sort_f32.c"
   1:Middlewares/Third_Party/ARM_CMSIS/CMSIS/DSP/Source/SupportFunctions/arm_merge_sort_f32.c **** /* ----------------------------------------------------------------------
   2:Middlewares/Third_Party/ARM_CMSIS/CMSIS/DSP/Source/SupportFunctions/arm_merge_sort_f32.c ****  * Project:      CMSIS DSP Library
   3:Middlewares/Third_Party/ARM_CMSIS/CMSIS/DSP/Source/SupportFunctions/arm_merge_sort_f32.c ****  * Title:        arm_merge_sort_f32.c
   4:Middlewares/Third_Party/ARM_CMSIS/CMSIS/DSP/Source/SupportFunctions/arm_merge_sort_f32.c ****  * Description:  Floating point merge sort
   5:Middlewares/Third_Party/ARM_CMSIS/CMSIS/DSP/Source/SupportFunctions/arm_merge_sort_f32.c ****  *
   6:Middlewares/Third_Party/ARM_CMSIS/CMSIS/DSP/Source/SupportFunctions/arm_merge_sort_f32.c ****  * $Date:        23 April 2021
   7:Middlewares/Third_Party/ARM_CMSIS/CMSIS/DSP/Source/SupportFunctions/arm_merge_sort_f32.c ****  * $Revision:    V1.9.0
   8:Middlewares/Third_Party/ARM_CMSIS/CMSIS/DSP/Source/SupportFunctions/arm_merge_sort_f32.c ****  *
   9:Middlewares/Third_Party/ARM_CMSIS/CMSIS/DSP/Source/SupportFunctions/arm_merge_sort_f32.c ****  * Target Processor: Cortex-M and Cortex-A cores
  10:Middlewares/Third_Party/ARM_CMSIS/CMSIS/DSP/Source/SupportFunctions/arm_merge_sort_f32.c ****  * -------------------------------------------------------------------- */
  11:Middlewares/Third_Party/ARM_CMSIS/CMSIS/DSP/Source/SupportFunctions/arm_merge_sort_f32.c **** /*
  12:Middlewares/Third_Party/ARM_CMSIS/CMSIS/DSP/Source/SupportFunctions/arm_merge_sort_f32.c ****  * Copyright (C) 2010-2021 ARM Limited or its affiliates. All rights reserved.
  13:Middlewares/Third_Party/ARM_CMSIS/CMSIS/DSP/Source/SupportFunctions/arm_merge_sort_f32.c ****  *
  14:Middlewares/Third_Party/ARM_CMSIS/CMSIS/DSP/Source/SupportFunctions/arm_merge_sort_f32.c ****  * SPDX-License-Identifier: Apache-2.0
  15:Middlewares/Third_Party/ARM_CMSIS/CMSIS/DSP/Source/SupportFunctions/arm_merge_sort_f32.c ****  *
  16:Middlewares/Third_Party/ARM_CMSIS/CMSIS/DSP/Source/SupportFunctions/arm_merge_sort_f32.c ****  * Licensed under the Apache License, Version 2.0 (the License); you may
  17:Middlewares/Third_Party/ARM_CMSIS/CMSIS/DSP/Source/SupportFunctions/arm_merge_sort_f32.c ****  * not use this file except in compliance with the License.
  18:Middlewares/Third_Party/ARM_CMSIS/CMSIS/DSP/Source/SupportFunctions/arm_merge_sort_f32.c ****  * You may obtain a copy of the License at
  19:Middlewares/Third_Party/ARM_CMSIS/CMSIS/DSP/Source/SupportFunctions/arm_merge_sort_f32.c ****  *
  20:Middlewares/Third_Party/ARM_CMSIS/CMSIS/DSP/Source/SupportFunctions/arm_merge_sort_f32.c ****  * www.apache.org/licenses/LICENSE-2.0
  21:Middlewares/Third_Party/ARM_CMSIS/CMSIS/DSP/Source/SupportFunctions/arm_merge_sort_f32.c ****  *
  22:Middlewares/Third_Party/ARM_CMSIS/CMSIS/DSP/Source/SupportFunctions/arm_merge_sort_f32.c ****  * Unless required by applicable law or agreed to in writing, software
  23:Middlewares/Third_Party/ARM_CMSIS/CMSIS/DSP/Source/SupportFunctions/arm_merge_sort_f32.c ****  * distributed under the License is distributed on an AS IS BASIS, WITHOUT
  24:Middlewares/Third_Party/ARM_CMSIS/CMSIS/DSP/Source/SupportFunctions/arm_merge_sort_f32.c ****  * WARRANTIES OR CONDITIONS OF ANY KIND, either express or implied.
  25:Middlewares/Third_Party/ARM_CMSIS/CMSIS/DSP/Source/SupportFunctions/arm_merge_sort_f32.c ****  * See the License for the specific language governing permissions and
  26:Middlewares/Third_Party/ARM_CMSIS/CMSIS/DSP/Source/SupportFunctions/arm_merge_sort_f32.c ****  * limitations under the License.
  27:Middlewares/Third_Party/ARM_CMSIS/CMSIS/DSP/Source/SupportFunctions/arm_merge_sort_f32.c ****  */
  28:Middlewares/Third_Party/ARM_CMSIS/CMSIS/DSP/Source/SupportFunctions/arm_merge_sort_f32.c **** 
  29:Middlewares/Third_Party/ARM_CMSIS/CMSIS/DSP/Source/SupportFunctions/arm_merge_sort_f32.c **** #include "dsp/support_functions.h"
  30:Middlewares/Third_Party/ARM_CMSIS/CMSIS/DSP/Source/SupportFunctions/arm_merge_sort_f32.c **** #include "arm_sorting.h"
  31:Middlewares/Third_Party/ARM_CMSIS/CMSIS/DSP/Source/SupportFunctions/arm_merge_sort_f32.c **** 
  32:Middlewares/Third_Party/ARM_CMSIS/CMSIS/DSP/Source/SupportFunctions/arm_merge_sort_f32.c **** 
ARM GAS  C:\Users\7636~1\AppData\Local\Temp\ccIWThgb.s 			page 11


  33:Middlewares/Third_Party/ARM_CMSIS/CMSIS/DSP/Source/SupportFunctions/arm_merge_sort_f32.c **** static void topDownMerge(float32_t * pA, uint32_t begin, uint32_t middle, uint32_t end, float32_t *
  34:Middlewares/Third_Party/ARM_CMSIS/CMSIS/DSP/Source/SupportFunctions/arm_merge_sort_f32.c **** {
 345              		.loc 3 34 1 is_stmt 1 view -0
 346              		.cfi_startproc
 347              		@ args = 8, pretend = 0, frame = 0
 348              		@ frame_needed = 0, uses_anonymous_args = 0
 349              		.loc 3 34 1 is_stmt 0 view .LVU115
 350 0000 F0B5     		push	{r4, r5, r6, r7, lr}
 351              	.LCFI2:
 352              		.cfi_def_cfa_offset 20
 353              		.cfi_offset 4, -20
 354              		.cfi_offset 5, -16
 355              		.cfi_offset 6, -12
 356              		.cfi_offset 7, -8
 357              		.cfi_offset 14, -4
 358 0002 059E     		ldr	r6, [sp, #20]
 359 0004 9DF81870 		ldrb	r7, [sp, #24]	@ zero_extendqisi2
  35:Middlewares/Third_Party/ARM_CMSIS/CMSIS/DSP/Source/SupportFunctions/arm_merge_sort_f32.c ****     /* Left  array is pA[begin:middle-1]
  36:Middlewares/Third_Party/ARM_CMSIS/CMSIS/DSP/Source/SupportFunctions/arm_merge_sort_f32.c ****      * Right Array is pA[middle:end-1] 
  37:Middlewares/Third_Party/ARM_CMSIS/CMSIS/DSP/Source/SupportFunctions/arm_merge_sort_f32.c ****      * They are merged in pB
  38:Middlewares/Third_Party/ARM_CMSIS/CMSIS/DSP/Source/SupportFunctions/arm_merge_sort_f32.c ****      */
  39:Middlewares/Third_Party/ARM_CMSIS/CMSIS/DSP/Source/SupportFunctions/arm_merge_sort_f32.c **** 
  40:Middlewares/Third_Party/ARM_CMSIS/CMSIS/DSP/Source/SupportFunctions/arm_merge_sort_f32.c ****     uint32_t i = begin;
 360              		.loc 3 40 5 is_stmt 1 view .LVU116
 361              	.LVL42:
  41:Middlewares/Third_Party/ARM_CMSIS/CMSIS/DSP/Source/SupportFunctions/arm_merge_sort_f32.c ****     uint32_t j = middle;
 362              		.loc 3 41 5 view .LVU117
  42:Middlewares/Third_Party/ARM_CMSIS/CMSIS/DSP/Source/SupportFunctions/arm_merge_sort_f32.c ****     uint32_t k;
 363              		.loc 3 42 5 view .LVU118
  43:Middlewares/Third_Party/ARM_CMSIS/CMSIS/DSP/Source/SupportFunctions/arm_merge_sort_f32.c ****  
  44:Middlewares/Third_Party/ARM_CMSIS/CMSIS/DSP/Source/SupportFunctions/arm_merge_sort_f32.c ****     // Read all the elements in the sublist
  45:Middlewares/Third_Party/ARM_CMSIS/CMSIS/DSP/Source/SupportFunctions/arm_merge_sort_f32.c ****     for (k = begin; k < end; k++)
 364              		.loc 3 45 5 view .LVU119
 365              		.loc 3 45 12 is_stmt 0 view .LVU120
 366 0008 8C46     		mov	ip, r1
  41:Middlewares/Third_Party/ARM_CMSIS/CMSIS/DSP/Source/SupportFunctions/arm_merge_sort_f32.c ****     uint32_t k;
 367              		.loc 3 41 14 view .LVU121
 368 000a 9646     		mov	lr, r2
 369              		.loc 3 45 5 view .LVU122
 370 000c 0BE0     		b	.L29
 371              	.LVL43:
 372              	.L30:
  46:Middlewares/Third_Party/ARM_CMSIS/CMSIS/DSP/Source/SupportFunctions/arm_merge_sort_f32.c ****     {
  47:Middlewares/Third_Party/ARM_CMSIS/CMSIS/DSP/Source/SupportFunctions/arm_merge_sort_f32.c **** 	// Merge 
  48:Middlewares/Third_Party/ARM_CMSIS/CMSIS/DSP/Source/SupportFunctions/arm_merge_sort_f32.c ****         if (i < middle && (j >= end || dir==(pA[i] <= pA[j])) )
  49:Middlewares/Third_Party/ARM_CMSIS/CMSIS/DSP/Source/SupportFunctions/arm_merge_sort_f32.c ****         {
  50:Middlewares/Third_Party/ARM_CMSIS/CMSIS/DSP/Source/SupportFunctions/arm_merge_sort_f32.c ****             pB[k] = pA[i];
  51:Middlewares/Third_Party/ARM_CMSIS/CMSIS/DSP/Source/SupportFunctions/arm_merge_sort_f32.c ****             i++;
  52:Middlewares/Third_Party/ARM_CMSIS/CMSIS/DSP/Source/SupportFunctions/arm_merge_sort_f32.c ****         }
  53:Middlewares/Third_Party/ARM_CMSIS/CMSIS/DSP/Source/SupportFunctions/arm_merge_sort_f32.c ****         else
  54:Middlewares/Third_Party/ARM_CMSIS/CMSIS/DSP/Source/SupportFunctions/arm_merge_sort_f32.c ****         {
  55:Middlewares/Third_Party/ARM_CMSIS/CMSIS/DSP/Source/SupportFunctions/arm_merge_sort_f32.c ****             pB[k] = pA[j];
 373              		.loc 3 55 13 is_stmt 1 view .LVU123
 374              		.loc 3 55 15 is_stmt 0 view .LVU124
 375 000e 06EB8C04 		add	r4, r6, ip, lsl #2
 376              		.loc 3 55 23 view .LVU125
 377 0012 00EB8E05 		add	r5, r0, lr, lsl #2
ARM GAS  C:\Users\7636~1\AppData\Local\Temp\ccIWThgb.s 			page 12


 378 0016 D5ED007A 		vldr.32	s15, [r5]
 379              		.loc 3 55 19 view .LVU126
 380 001a C4ED007A 		vstr.32	s15, [r4]
  56:Middlewares/Third_Party/ARM_CMSIS/CMSIS/DSP/Source/SupportFunctions/arm_merge_sort_f32.c ****             j++;
 381              		.loc 3 56 13 is_stmt 1 view .LVU127
 382              		.loc 3 56 14 is_stmt 0 view .LVU128
 383 001e 0EF1010E 		add	lr, lr, #1
 384              	.LVL44:
 385              	.L32:
  45:Middlewares/Third_Party/ARM_CMSIS/CMSIS/DSP/Source/SupportFunctions/arm_merge_sort_f32.c ****     {
 386              		.loc 3 45 30 is_stmt 1 discriminator 2 view .LVU129
  45:Middlewares/Third_Party/ARM_CMSIS/CMSIS/DSP/Source/SupportFunctions/arm_merge_sort_f32.c ****     {
 387              		.loc 3 45 31 is_stmt 0 discriminator 2 view .LVU130
 388 0022 0CF1010C 		add	ip, ip, #1
 389              	.LVL45:
 390              	.L29:
  45:Middlewares/Third_Party/ARM_CMSIS/CMSIS/DSP/Source/SupportFunctions/arm_merge_sort_f32.c ****     {
 391              		.loc 3 45 21 is_stmt 1 discriminator 1 view .LVU131
  45:Middlewares/Third_Party/ARM_CMSIS/CMSIS/DSP/Source/SupportFunctions/arm_merge_sort_f32.c ****     {
 392              		.loc 3 45 5 is_stmt 0 discriminator 1 view .LVU132
 393 0026 9C45     		cmp	ip, r3
 394 0028 1CD2     		bcs	.L35
  48:Middlewares/Third_Party/ARM_CMSIS/CMSIS/DSP/Source/SupportFunctions/arm_merge_sort_f32.c ****         {
 395              		.loc 3 48 9 is_stmt 1 view .LVU133
  48:Middlewares/Third_Party/ARM_CMSIS/CMSIS/DSP/Source/SupportFunctions/arm_merge_sort_f32.c ****         {
 396              		.loc 3 48 12 is_stmt 0 view .LVU134
 397 002a 9142     		cmp	r1, r2
 398 002c EFD2     		bcs	.L30
  48:Middlewares/Third_Party/ARM_CMSIS/CMSIS/DSP/Source/SupportFunctions/arm_merge_sort_f32.c ****         {
 399              		.loc 3 48 24 discriminator 1 view .LVU135
 400 002e 9E45     		cmp	lr, r3
 401 0030 10D2     		bcs	.L31
  48:Middlewares/Third_Party/ARM_CMSIS/CMSIS/DSP/Source/SupportFunctions/arm_merge_sort_f32.c ****         {
 402              		.loc 3 48 48 discriminator 2 view .LVU136
 403 0032 00EB8104 		add	r4, r0, r1, lsl #2
 404 0036 94ED007A 		vldr.32	s14, [r4]
  48:Middlewares/Third_Party/ARM_CMSIS/CMSIS/DSP/Source/SupportFunctions/arm_merge_sort_f32.c ****         {
 405              		.loc 3 48 57 discriminator 2 view .LVU137
 406 003a 00EB8E04 		add	r4, r0, lr, lsl #2
 407 003e D4ED007A 		vldr.32	s15, [r4]
  48:Middlewares/Third_Party/ARM_CMSIS/CMSIS/DSP/Source/SupportFunctions/arm_merge_sort_f32.c ****         {
 408              		.loc 3 48 52 discriminator 2 view .LVU138
 409 0042 B4EEE77A 		vcmpe.f32	s14, s15
 410 0046 F1EE10FA 		vmrs	APSR_nzcv, FPSCR
 411 004a 94BF     		ite	ls
 412 004c 0124     		movls	r4, #1
 413 004e 0024     		movhi	r4, #0
  48:Middlewares/Third_Party/ARM_CMSIS/CMSIS/DSP/Source/SupportFunctions/arm_merge_sort_f32.c ****         {
 414              		.loc 3 48 37 discriminator 2 view .LVU139
 415 0050 BC42     		cmp	r4, r7
 416 0052 DCD1     		bne	.L30
 417              	.L31:
  50:Middlewares/Third_Party/ARM_CMSIS/CMSIS/DSP/Source/SupportFunctions/arm_merge_sort_f32.c ****             i++;
 418              		.loc 3 50 13 is_stmt 1 view .LVU140
  50:Middlewares/Third_Party/ARM_CMSIS/CMSIS/DSP/Source/SupportFunctions/arm_merge_sort_f32.c ****             i++;
 419              		.loc 3 50 15 is_stmt 0 view .LVU141
 420 0054 06EB8C04 		add	r4, r6, ip, lsl #2
ARM GAS  C:\Users\7636~1\AppData\Local\Temp\ccIWThgb.s 			page 13


  50:Middlewares/Third_Party/ARM_CMSIS/CMSIS/DSP/Source/SupportFunctions/arm_merge_sort_f32.c ****             i++;
 421              		.loc 3 50 23 view .LVU142
 422 0058 00EB8105 		add	r5, r0, r1, lsl #2
 423 005c 2D68     		ldr	r5, [r5]	@ float
  50:Middlewares/Third_Party/ARM_CMSIS/CMSIS/DSP/Source/SupportFunctions/arm_merge_sort_f32.c ****             i++;
 424              		.loc 3 50 19 view .LVU143
 425 005e 2560     		str	r5, [r4]	@ float
  51:Middlewares/Third_Party/ARM_CMSIS/CMSIS/DSP/Source/SupportFunctions/arm_merge_sort_f32.c ****         }
 426              		.loc 3 51 13 is_stmt 1 view .LVU144
  51:Middlewares/Third_Party/ARM_CMSIS/CMSIS/DSP/Source/SupportFunctions/arm_merge_sort_f32.c ****         }
 427              		.loc 3 51 14 is_stmt 0 view .LVU145
 428 0060 0131     		adds	r1, r1, #1
 429              	.LVL46:
  51:Middlewares/Third_Party/ARM_CMSIS/CMSIS/DSP/Source/SupportFunctions/arm_merge_sort_f32.c ****         }
 430              		.loc 3 51 14 view .LVU146
 431 0062 DEE7     		b	.L32
 432              	.L35:
  57:Middlewares/Third_Party/ARM_CMSIS/CMSIS/DSP/Source/SupportFunctions/arm_merge_sort_f32.c ****         }
  58:Middlewares/Third_Party/ARM_CMSIS/CMSIS/DSP/Source/SupportFunctions/arm_merge_sort_f32.c ****     }
  59:Middlewares/Third_Party/ARM_CMSIS/CMSIS/DSP/Source/SupportFunctions/arm_merge_sort_f32.c **** }
 433              		.loc 3 59 1 view .LVU147
 434 0064 F0BD     		pop	{r4, r5, r6, r7, pc}
 435              		.loc 3 59 1 view .LVU148
 436              		.cfi_endproc
 437              	.LFE153:
 439              		.section	.text.arm_merge_sort_core_f32,"ax",%progbits
 440              		.align	1
 441              		.syntax unified
 442              		.thumb
 443              		.thumb_func
 445              	arm_merge_sort_core_f32:
 446              	.LVL47:
 447              	.LFB154:
  60:Middlewares/Third_Party/ARM_CMSIS/CMSIS/DSP/Source/SupportFunctions/arm_merge_sort_f32.c **** 
  61:Middlewares/Third_Party/ARM_CMSIS/CMSIS/DSP/Source/SupportFunctions/arm_merge_sort_f32.c **** static void arm_merge_sort_core_f32(float32_t * pB, uint32_t begin, uint32_t end, float32_t * pA, u
  62:Middlewares/Third_Party/ARM_CMSIS/CMSIS/DSP/Source/SupportFunctions/arm_merge_sort_f32.c **** {
 448              		.loc 3 62 1 is_stmt 1 view -0
 449              		.cfi_startproc
 450              		@ args = 4, pretend = 0, frame = 0
 451              		@ frame_needed = 0, uses_anonymous_args = 0
 452              		.loc 3 62 1 is_stmt 0 view .LVU150
 453 0000 2DE9F043 		push	{r4, r5, r6, r7, r8, r9, lr}
 454              	.LCFI3:
 455              		.cfi_def_cfa_offset 28
 456              		.cfi_offset 4, -28
 457              		.cfi_offset 5, -24
 458              		.cfi_offset 6, -20
 459              		.cfi_offset 7, -16
 460              		.cfi_offset 8, -12
 461              		.cfi_offset 9, -8
 462              		.cfi_offset 14, -4
 463 0004 83B0     		sub	sp, sp, #12
 464              	.LCFI4:
 465              		.cfi_def_cfa_offset 40
 466 0006 1F46     		mov	r7, r3
 467 0008 9DF82890 		ldrb	r9, [sp, #40]	@ zero_extendqisi2
  63:Middlewares/Third_Party/ARM_CMSIS/CMSIS/DSP/Source/SupportFunctions/arm_merge_sort_f32.c ****     if((int32_t)end - (int32_t)begin >= 2 )           // If run size != 1 divide
ARM GAS  C:\Users\7636~1\AppData\Local\Temp\ccIWThgb.s 			page 14


 468              		.loc 3 63 5 is_stmt 1 view .LVU151
 469              		.loc 3 63 21 is_stmt 0 view .LVU152
 470 000c 531A     		subs	r3, r2, r1
 471              	.LVL48:
 472              		.loc 3 63 7 view .LVU153
 473 000e 012B     		cmp	r3, #1
 474 0010 02DC     		bgt	.L39
 475              	.LVL49:
 476              	.L36:
  64:Middlewares/Third_Party/ARM_CMSIS/CMSIS/DSP/Source/SupportFunctions/arm_merge_sort_f32.c ****     {                                 
  65:Middlewares/Third_Party/ARM_CMSIS/CMSIS/DSP/Source/SupportFunctions/arm_merge_sort_f32.c ****         int32_t middle = (end + begin) / 2;           // Take the middle point
  66:Middlewares/Third_Party/ARM_CMSIS/CMSIS/DSP/Source/SupportFunctions/arm_merge_sort_f32.c **** 
  67:Middlewares/Third_Party/ARM_CMSIS/CMSIS/DSP/Source/SupportFunctions/arm_merge_sort_f32.c ****         arm_merge_sort_core_f32(pA, begin,  middle, pB, dir);  // Sort the left part
  68:Middlewares/Third_Party/ARM_CMSIS/CMSIS/DSP/Source/SupportFunctions/arm_merge_sort_f32.c ****         arm_merge_sort_core_f32(pA, middle,    end, pB, dir);  // Sort the right part
  69:Middlewares/Third_Party/ARM_CMSIS/CMSIS/DSP/Source/SupportFunctions/arm_merge_sort_f32.c **** 
  70:Middlewares/Third_Party/ARM_CMSIS/CMSIS/DSP/Source/SupportFunctions/arm_merge_sort_f32.c ****         topDownMerge(pB, begin, middle, end, pA, dir);
  71:Middlewares/Third_Party/ARM_CMSIS/CMSIS/DSP/Source/SupportFunctions/arm_merge_sort_f32.c ****     }
  72:Middlewares/Third_Party/ARM_CMSIS/CMSIS/DSP/Source/SupportFunctions/arm_merge_sort_f32.c **** }
 477              		.loc 3 72 1 view .LVU154
 478 0012 03B0     		add	sp, sp, #12
 479              	.LCFI5:
 480              		.cfi_remember_state
 481              		.cfi_def_cfa_offset 28
 482              		@ sp needed
 483 0014 BDE8F083 		pop	{r4, r5, r6, r7, r8, r9, pc}
 484              	.LVL50:
 485              	.L39:
 486              	.LCFI6:
 487              		.cfi_restore_state
 488              		.loc 3 72 1 view .LVU155
 489 0018 0646     		mov	r6, r0
 490 001a 0C46     		mov	r4, r1
 491 001c 1546     		mov	r5, r2
 492              	.LBB4:
  65:Middlewares/Third_Party/ARM_CMSIS/CMSIS/DSP/Source/SupportFunctions/arm_merge_sort_f32.c **** 
 493              		.loc 3 65 9 is_stmt 1 view .LVU156
  65:Middlewares/Third_Party/ARM_CMSIS/CMSIS/DSP/Source/SupportFunctions/arm_merge_sort_f32.c **** 
 494              		.loc 3 65 31 is_stmt 0 view .LVU157
 495 001e 02EB0108 		add	r8, r2, r1
  65:Middlewares/Third_Party/ARM_CMSIS/CMSIS/DSP/Source/SupportFunctions/arm_merge_sort_f32.c **** 
 496              		.loc 3 65 40 view .LVU158
 497 0022 4FEA5808 		lsr	r8, r8, #1
 498              	.LVL51:
  67:Middlewares/Third_Party/ARM_CMSIS/CMSIS/DSP/Source/SupportFunctions/arm_merge_sort_f32.c ****         arm_merge_sort_core_f32(pA, middle,    end, pB, dir);  // Sort the right part
 499              		.loc 3 67 9 is_stmt 1 view .LVU159
 500 0026 CDF80090 		str	r9, [sp]
 501 002a 0346     		mov	r3, r0
 502 002c 4246     		mov	r2, r8
 503              	.LVL52:
  67:Middlewares/Third_Party/ARM_CMSIS/CMSIS/DSP/Source/SupportFunctions/arm_merge_sort_f32.c ****         arm_merge_sort_core_f32(pA, middle,    end, pB, dir);  // Sort the right part
 504              		.loc 3 67 9 is_stmt 0 view .LVU160
 505 002e 3846     		mov	r0, r7
 506              	.LVL53:
  67:Middlewares/Third_Party/ARM_CMSIS/CMSIS/DSP/Source/SupportFunctions/arm_merge_sort_f32.c ****         arm_merge_sort_core_f32(pA, middle,    end, pB, dir);  // Sort the right part
 507              		.loc 3 67 9 view .LVU161
 508 0030 FFF7E6FF 		bl	arm_merge_sort_core_f32
 509              	.LVL54:
ARM GAS  C:\Users\7636~1\AppData\Local\Temp\ccIWThgb.s 			page 15


  68:Middlewares/Third_Party/ARM_CMSIS/CMSIS/DSP/Source/SupportFunctions/arm_merge_sort_f32.c **** 
 510              		.loc 3 68 9 is_stmt 1 view .LVU162
 511 0034 CDF80090 		str	r9, [sp]
 512 0038 3346     		mov	r3, r6
 513 003a 2A46     		mov	r2, r5
 514 003c 4146     		mov	r1, r8
 515 003e 3846     		mov	r0, r7
 516 0040 FFF7DEFF 		bl	arm_merge_sort_core_f32
 517              	.LVL55:
  70:Middlewares/Third_Party/ARM_CMSIS/CMSIS/DSP/Source/SupportFunctions/arm_merge_sort_f32.c ****     }
 518              		.loc 3 70 9 view .LVU163
 519 0044 CDF80490 		str	r9, [sp, #4]
 520 0048 0097     		str	r7, [sp]
 521 004a 2B46     		mov	r3, r5
 522 004c 4246     		mov	r2, r8
 523 004e 2146     		mov	r1, r4
 524 0050 3046     		mov	r0, r6
 525 0052 FFF7FEFF 		bl	topDownMerge
 526              	.LVL56:
 527              	.LBE4:
 528              		.loc 3 72 1 is_stmt 0 view .LVU164
 529 0056 DCE7     		b	.L36
 530              		.cfi_endproc
 531              	.LFE154:
 533              		.section	.text.arm_quick_sort_partition_f32,"ax",%progbits
 534              		.align	1
 535              		.syntax unified
 536              		.thumb
 537              		.thumb_func
 539              	arm_quick_sort_partition_f32:
 540              	.LVL57:
 541              	.LFB157:
 542              		.file 4 "Middlewares/Third_Party/ARM_CMSIS/CMSIS/DSP/Source/SupportFunctions/arm_quick_sort_f32.c"
   1:Middlewares/Third_Party/ARM_CMSIS/CMSIS/DSP/Source/SupportFunctions/arm_quick_sort_f32.c **** /* ----------------------------------------------------------------------
   2:Middlewares/Third_Party/ARM_CMSIS/CMSIS/DSP/Source/SupportFunctions/arm_quick_sort_f32.c ****  * Project:      CMSIS DSP Library
   3:Middlewares/Third_Party/ARM_CMSIS/CMSIS/DSP/Source/SupportFunctions/arm_quick_sort_f32.c ****  * Title:        arm_quick_sort_f32.c
   4:Middlewares/Third_Party/ARM_CMSIS/CMSIS/DSP/Source/SupportFunctions/arm_quick_sort_f32.c ****  * Description:  Floating point quick sort
   5:Middlewares/Third_Party/ARM_CMSIS/CMSIS/DSP/Source/SupportFunctions/arm_quick_sort_f32.c ****  *
   6:Middlewares/Third_Party/ARM_CMSIS/CMSIS/DSP/Source/SupportFunctions/arm_quick_sort_f32.c ****  * $Date:        23 April 2021
   7:Middlewares/Third_Party/ARM_CMSIS/CMSIS/DSP/Source/SupportFunctions/arm_quick_sort_f32.c ****  * $Revision:    V1.9.0
   8:Middlewares/Third_Party/ARM_CMSIS/CMSIS/DSP/Source/SupportFunctions/arm_quick_sort_f32.c ****  *
   9:Middlewares/Third_Party/ARM_CMSIS/CMSIS/DSP/Source/SupportFunctions/arm_quick_sort_f32.c ****  * Target Processor: Cortex-M and Cortex-A cores
  10:Middlewares/Third_Party/ARM_CMSIS/CMSIS/DSP/Source/SupportFunctions/arm_quick_sort_f32.c ****  * -------------------------------------------------------------------- */
  11:Middlewares/Third_Party/ARM_CMSIS/CMSIS/DSP/Source/SupportFunctions/arm_quick_sort_f32.c **** /*
  12:Middlewares/Third_Party/ARM_CMSIS/CMSIS/DSP/Source/SupportFunctions/arm_quick_sort_f32.c ****  * Copyright (C) 2010-2021 ARM Limited or its affiliates. All rights reserved.
  13:Middlewares/Third_Party/ARM_CMSIS/CMSIS/DSP/Source/SupportFunctions/arm_quick_sort_f32.c ****  *
  14:Middlewares/Third_Party/ARM_CMSIS/CMSIS/DSP/Source/SupportFunctions/arm_quick_sort_f32.c ****  * SPDX-License-Identifier: Apache-2.0
  15:Middlewares/Third_Party/ARM_CMSIS/CMSIS/DSP/Source/SupportFunctions/arm_quick_sort_f32.c ****  *
  16:Middlewares/Third_Party/ARM_CMSIS/CMSIS/DSP/Source/SupportFunctions/arm_quick_sort_f32.c ****  * Licensed under the Apache License, Version 2.0 (the License); you may
  17:Middlewares/Third_Party/ARM_CMSIS/CMSIS/DSP/Source/SupportFunctions/arm_quick_sort_f32.c ****  * not use this file except in compliance with the License.
  18:Middlewares/Third_Party/ARM_CMSIS/CMSIS/DSP/Source/SupportFunctions/arm_quick_sort_f32.c ****  * You may obtain a copy of the License at
  19:Middlewares/Third_Party/ARM_CMSIS/CMSIS/DSP/Source/SupportFunctions/arm_quick_sort_f32.c ****  *
  20:Middlewares/Third_Party/ARM_CMSIS/CMSIS/DSP/Source/SupportFunctions/arm_quick_sort_f32.c ****  * www.apache.org/licenses/LICENSE-2.0
  21:Middlewares/Third_Party/ARM_CMSIS/CMSIS/DSP/Source/SupportFunctions/arm_quick_sort_f32.c ****  *
  22:Middlewares/Third_Party/ARM_CMSIS/CMSIS/DSP/Source/SupportFunctions/arm_quick_sort_f32.c ****  * Unless required by applicable law or agreed to in writing, software
  23:Middlewares/Third_Party/ARM_CMSIS/CMSIS/DSP/Source/SupportFunctions/arm_quick_sort_f32.c ****  * distributed under the License is distributed on an AS IS BASIS, WITHOUT
  24:Middlewares/Third_Party/ARM_CMSIS/CMSIS/DSP/Source/SupportFunctions/arm_quick_sort_f32.c ****  * WARRANTIES OR CONDITIONS OF ANY KIND, either express or implied.
ARM GAS  C:\Users\7636~1\AppData\Local\Temp\ccIWThgb.s 			page 16


  25:Middlewares/Third_Party/ARM_CMSIS/CMSIS/DSP/Source/SupportFunctions/arm_quick_sort_f32.c ****  * See the License for the specific language governing permissions and
  26:Middlewares/Third_Party/ARM_CMSIS/CMSIS/DSP/Source/SupportFunctions/arm_quick_sort_f32.c ****  * limitations under the License.
  27:Middlewares/Third_Party/ARM_CMSIS/CMSIS/DSP/Source/SupportFunctions/arm_quick_sort_f32.c ****  */
  28:Middlewares/Third_Party/ARM_CMSIS/CMSIS/DSP/Source/SupportFunctions/arm_quick_sort_f32.c **** 
  29:Middlewares/Third_Party/ARM_CMSIS/CMSIS/DSP/Source/SupportFunctions/arm_quick_sort_f32.c **** #include "arm_sorting.h"
  30:Middlewares/Third_Party/ARM_CMSIS/CMSIS/DSP/Source/SupportFunctions/arm_quick_sort_f32.c **** 
  31:Middlewares/Third_Party/ARM_CMSIS/CMSIS/DSP/Source/SupportFunctions/arm_quick_sort_f32.c **** static uint32_t arm_quick_sort_partition_f32(float32_t *pSrc, int32_t first, int32_t last, uint8_t 
  32:Middlewares/Third_Party/ARM_CMSIS/CMSIS/DSP/Source/SupportFunctions/arm_quick_sort_f32.c **** {
 543              		.loc 4 32 1 is_stmt 1 view -0
 544              		.cfi_startproc
 545              		@ args = 0, pretend = 0, frame = 0
 546              		@ frame_needed = 0, uses_anonymous_args = 0
 547              		.loc 4 32 1 is_stmt 0 view .LVU166
 548 0000 10B5     		push	{r4, lr}
 549              	.LCFI7:
 550              		.cfi_def_cfa_offset 8
 551              		.cfi_offset 4, -8
 552              		.cfi_offset 14, -4
 553 0002 8446     		mov	ip, r0
 554 0004 1C46     		mov	r4, r3
  33:Middlewares/Third_Party/ARM_CMSIS/CMSIS/DSP/Source/SupportFunctions/arm_quick_sort_f32.c ****     /* This function will be called */
  34:Middlewares/Third_Party/ARM_CMSIS/CMSIS/DSP/Source/SupportFunctions/arm_quick_sort_f32.c ****     int32_t i, j, pivot_index;
 555              		.loc 4 34 5 is_stmt 1 view .LVU167
  35:Middlewares/Third_Party/ARM_CMSIS/CMSIS/DSP/Source/SupportFunctions/arm_quick_sort_f32.c ****     float32_t pivot;
 556              		.loc 4 35 5 view .LVU168
  36:Middlewares/Third_Party/ARM_CMSIS/CMSIS/DSP/Source/SupportFunctions/arm_quick_sort_f32.c ****     float32_t temp;
 557              		.loc 4 36 5 view .LVU169
  37:Middlewares/Third_Party/ARM_CMSIS/CMSIS/DSP/Source/SupportFunctions/arm_quick_sort_f32.c **** 
  38:Middlewares/Third_Party/ARM_CMSIS/CMSIS/DSP/Source/SupportFunctions/arm_quick_sort_f32.c ****     /* The first element is the pivot */
  39:Middlewares/Third_Party/ARM_CMSIS/CMSIS/DSP/Source/SupportFunctions/arm_quick_sort_f32.c ****     pivot_index = first; 
 558              		.loc 4 39 5 view .LVU170
 559              	.LVL58:
  40:Middlewares/Third_Party/ARM_CMSIS/CMSIS/DSP/Source/SupportFunctions/arm_quick_sort_f32.c ****     pivot = pSrc[pivot_index];
 560              		.loc 4 40 5 view .LVU171
 561              		.loc 4 40 17 is_stmt 0 view .LVU172
 562 0006 00EB8103 		add	r3, r0, r1, lsl #2
 563              	.LVL59:
 564              		.loc 4 40 11 view .LVU173
 565 000a D3ED007A 		vldr.32	s15, [r3]
 566              	.LVL60:
  41:Middlewares/Third_Party/ARM_CMSIS/CMSIS/DSP/Source/SupportFunctions/arm_quick_sort_f32.c **** 
  42:Middlewares/Third_Party/ARM_CMSIS/CMSIS/DSP/Source/SupportFunctions/arm_quick_sort_f32.c ****     /* Initialize indices for do-while loops */
  43:Middlewares/Third_Party/ARM_CMSIS/CMSIS/DSP/Source/SupportFunctions/arm_quick_sort_f32.c ****     i = first - 1;
 567              		.loc 4 43 5 is_stmt 1 view .LVU174
 568              		.loc 4 43 7 is_stmt 0 view .LVU175
 569 000e 0139     		subs	r1, r1, #1
 570              	.LVL61:
  44:Middlewares/Third_Party/ARM_CMSIS/CMSIS/DSP/Source/SupportFunctions/arm_quick_sort_f32.c ****     j = last + 1; 
 571              		.loc 4 44 5 is_stmt 1 view .LVU176
 572              		.loc 4 44 7 is_stmt 0 view .LVU177
 573 0010 501C     		adds	r0, r2, #1
 574              	.LVL62:
  45:Middlewares/Third_Party/ARM_CMSIS/CMSIS/DSP/Source/SupportFunctions/arm_quick_sort_f32.c **** 
  46:Middlewares/Third_Party/ARM_CMSIS/CMSIS/DSP/Source/SupportFunctions/arm_quick_sort_f32.c ****     while(i < j) 
 575              		.loc 4 46 5 is_stmt 1 view .LVU178
 576              		.loc 4 46 10 is_stmt 0 view .LVU179
 577 0012 17E0     		b	.L41
ARM GAS  C:\Users\7636~1\AppData\Local\Temp\ccIWThgb.s 			page 17


 578              	.LVL63:
 579              	.L46:
  47:Middlewares/Third_Party/ARM_CMSIS/CMSIS/DSP/Source/SupportFunctions/arm_quick_sort_f32.c ****     {
  48:Middlewares/Third_Party/ARM_CMSIS/CMSIS/DSP/Source/SupportFunctions/arm_quick_sort_f32.c ****         /* The loop will stop as soon as the indices i and j cross each other.
  49:Middlewares/Third_Party/ARM_CMSIS/CMSIS/DSP/Source/SupportFunctions/arm_quick_sort_f32.c ****          *
  50:Middlewares/Third_Party/ARM_CMSIS/CMSIS/DSP/Source/SupportFunctions/arm_quick_sort_f32.c ****          * This event will happen surely since the values of the indices are incremented and 
  51:Middlewares/Third_Party/ARM_CMSIS/CMSIS/DSP/Source/SupportFunctions/arm_quick_sort_f32.c ****          * decrement in the do-while loops that are executed at least once. 
  52:Middlewares/Third_Party/ARM_CMSIS/CMSIS/DSP/Source/SupportFunctions/arm_quick_sort_f32.c ****          * It is impossible to loop forever inside the do-while loops since the pivot is
  53:Middlewares/Third_Party/ARM_CMSIS/CMSIS/DSP/Source/SupportFunctions/arm_quick_sort_f32.c ****          * always an element of the array and the conditions cannot be always true (at least 
  54:Middlewares/Third_Party/ARM_CMSIS/CMSIS/DSP/Source/SupportFunctions/arm_quick_sort_f32.c ****          * the i-th or the j-th element will be equal to the pivot-th element).
  55:Middlewares/Third_Party/ARM_CMSIS/CMSIS/DSP/Source/SupportFunctions/arm_quick_sort_f32.c ****          * For example, in the extreme case of an ordered array the do-while loop related to i will
  56:Middlewares/Third_Party/ARM_CMSIS/CMSIS/DSP/Source/SupportFunctions/arm_quick_sort_f32.c ****          * at the first iteration (because pSrc[i]=pSrc[pivot] already), and the loop related to j
  57:Middlewares/Third_Party/ARM_CMSIS/CMSIS/DSP/Source/SupportFunctions/arm_quick_sort_f32.c ****          * will stop after (last-first) iterations (when j=pivot=i=first). j is returned and
  58:Middlewares/Third_Party/ARM_CMSIS/CMSIS/DSP/Source/SupportFunctions/arm_quick_sort_f32.c ****          * j+1 is going to be used as pivot by other calls of the function, until j=pivot=last. */ 
  59:Middlewares/Third_Party/ARM_CMSIS/CMSIS/DSP/Source/SupportFunctions/arm_quick_sort_f32.c **** 
  60:Middlewares/Third_Party/ARM_CMSIS/CMSIS/DSP/Source/SupportFunctions/arm_quick_sort_f32.c ****         /* Move indices to the right and to the left */
  61:Middlewares/Third_Party/ARM_CMSIS/CMSIS/DSP/Source/SupportFunctions/arm_quick_sort_f32.c ****         if(dir)
  62:Middlewares/Third_Party/ARM_CMSIS/CMSIS/DSP/Source/SupportFunctions/arm_quick_sort_f32.c ****         {    
  63:Middlewares/Third_Party/ARM_CMSIS/CMSIS/DSP/Source/SupportFunctions/arm_quick_sort_f32.c ****             /* Compare left elements with pivot */
  64:Middlewares/Third_Party/ARM_CMSIS/CMSIS/DSP/Source/SupportFunctions/arm_quick_sort_f32.c ****             do
  65:Middlewares/Third_Party/ARM_CMSIS/CMSIS/DSP/Source/SupportFunctions/arm_quick_sort_f32.c ****             {
  66:Middlewares/Third_Party/ARM_CMSIS/CMSIS/DSP/Source/SupportFunctions/arm_quick_sort_f32.c ****                 i++; 
  67:Middlewares/Third_Party/ARM_CMSIS/CMSIS/DSP/Source/SupportFunctions/arm_quick_sort_f32.c ****             } while (pSrc[i] < pivot && i<last);
  68:Middlewares/Third_Party/ARM_CMSIS/CMSIS/DSP/Source/SupportFunctions/arm_quick_sort_f32.c ****        
  69:Middlewares/Third_Party/ARM_CMSIS/CMSIS/DSP/Source/SupportFunctions/arm_quick_sort_f32.c ****             /* Compare right elements with pivot */
  70:Middlewares/Third_Party/ARM_CMSIS/CMSIS/DSP/Source/SupportFunctions/arm_quick_sort_f32.c ****             do
 580              		.loc 4 70 13 is_stmt 1 discriminator 1 view .LVU180
  71:Middlewares/Third_Party/ARM_CMSIS/CMSIS/DSP/Source/SupportFunctions/arm_quick_sort_f32.c ****             {
  72:Middlewares/Third_Party/ARM_CMSIS/CMSIS/DSP/Source/SupportFunctions/arm_quick_sort_f32.c ****                 j--; 
 581              		.loc 4 72 17 discriminator 1 view .LVU181
 582              		.loc 4 72 18 is_stmt 0 discriminator 1 view .LVU182
 583 0014 0138     		subs	r0, r0, #1
 584              	.LVL64:
  73:Middlewares/Third_Party/ARM_CMSIS/CMSIS/DSP/Source/SupportFunctions/arm_quick_sort_f32.c ****             } while (pSrc[j] > pivot);
 585              		.loc 4 73 21 is_stmt 1 discriminator 1 view .LVU183
 586              		.loc 4 73 26 is_stmt 0 discriminator 1 view .LVU184
 587 0016 0CEB800E 		add	lr, ip, r0, lsl #2
 588 001a 9EED007A 		vldr.32	s14, [lr]
 589              		.loc 4 73 13 discriminator 1 view .LVU185
 590 001e B4EEE77A 		vcmpe.f32	s14, s15
 591 0022 F1EE10FA 		vmrs	APSR_nzcv, FPSCR
 592 0026 F5DC     		bgt	.L46
 593              	.L47:
  74:Middlewares/Third_Party/ARM_CMSIS/CMSIS/DSP/Source/SupportFunctions/arm_quick_sort_f32.c ****         }
  75:Middlewares/Third_Party/ARM_CMSIS/CMSIS/DSP/Source/SupportFunctions/arm_quick_sort_f32.c ****         else
  76:Middlewares/Third_Party/ARM_CMSIS/CMSIS/DSP/Source/SupportFunctions/arm_quick_sort_f32.c ****         {
  77:Middlewares/Third_Party/ARM_CMSIS/CMSIS/DSP/Source/SupportFunctions/arm_quick_sort_f32.c ****             /* Compare left elements with pivot */
  78:Middlewares/Third_Party/ARM_CMSIS/CMSIS/DSP/Source/SupportFunctions/arm_quick_sort_f32.c ****             do
  79:Middlewares/Third_Party/ARM_CMSIS/CMSIS/DSP/Source/SupportFunctions/arm_quick_sort_f32.c ****             {
  80:Middlewares/Third_Party/ARM_CMSIS/CMSIS/DSP/Source/SupportFunctions/arm_quick_sort_f32.c ****                 i++; 
  81:Middlewares/Third_Party/ARM_CMSIS/CMSIS/DSP/Source/SupportFunctions/arm_quick_sort_f32.c ****             } while (pSrc[i] > pivot && i<last);
  82:Middlewares/Third_Party/ARM_CMSIS/CMSIS/DSP/Source/SupportFunctions/arm_quick_sort_f32.c ****         
  83:Middlewares/Third_Party/ARM_CMSIS/CMSIS/DSP/Source/SupportFunctions/arm_quick_sort_f32.c ****             /* Compare right elements with pivot */
  84:Middlewares/Third_Party/ARM_CMSIS/CMSIS/DSP/Source/SupportFunctions/arm_quick_sort_f32.c ****             do
  85:Middlewares/Third_Party/ARM_CMSIS/CMSIS/DSP/Source/SupportFunctions/arm_quick_sort_f32.c ****             {
  86:Middlewares/Third_Party/ARM_CMSIS/CMSIS/DSP/Source/SupportFunctions/arm_quick_sort_f32.c ****                 j--; 
  87:Middlewares/Third_Party/ARM_CMSIS/CMSIS/DSP/Source/SupportFunctions/arm_quick_sort_f32.c ****             } while (pSrc[j] < pivot);
ARM GAS  C:\Users\7636~1\AppData\Local\Temp\ccIWThgb.s 			page 18


  88:Middlewares/Third_Party/ARM_CMSIS/CMSIS/DSP/Source/SupportFunctions/arm_quick_sort_f32.c ****         }
  89:Middlewares/Third_Party/ARM_CMSIS/CMSIS/DSP/Source/SupportFunctions/arm_quick_sort_f32.c **** 
  90:Middlewares/Third_Party/ARM_CMSIS/CMSIS/DSP/Source/SupportFunctions/arm_quick_sort_f32.c ****         /* If the indices didn't cross each other */
  91:Middlewares/Third_Party/ARM_CMSIS/CMSIS/DSP/Source/SupportFunctions/arm_quick_sort_f32.c ****         if (i < j) 
 594              		.loc 4 91 9 is_stmt 1 view .LVU186
 595              		.loc 4 91 12 is_stmt 0 view .LVU187
 596 0028 8142     		cmp	r1, r0
 597 002a 0BDA     		bge	.L41
  92:Middlewares/Third_Party/ARM_CMSIS/CMSIS/DSP/Source/SupportFunctions/arm_quick_sort_f32.c ****         { 
  93:Middlewares/Third_Party/ARM_CMSIS/CMSIS/DSP/Source/SupportFunctions/arm_quick_sort_f32.c ****             /* i and j are in the wrong position -> Swap */
  94:Middlewares/Third_Party/ARM_CMSIS/CMSIS/DSP/Source/SupportFunctions/arm_quick_sort_f32.c ****             temp=pSrc[i];
 598              		.loc 4 94 13 is_stmt 1 view .LVU188
 599              		.loc 4 94 22 is_stmt 0 view .LVU189
 600 002c 0CEB8103 		add	r3, ip, r1, lsl #2
 601              		.loc 4 94 17 view .LVU190
 602 0030 93ED007A 		vldr.32	s14, [r3]
 603              	.LVL65:
  95:Middlewares/Third_Party/ARM_CMSIS/CMSIS/DSP/Source/SupportFunctions/arm_quick_sort_f32.c ****             pSrc[i]=pSrc[j];
 604              		.loc 4 95 13 is_stmt 1 view .LVU191
 605              		.loc 4 95 25 is_stmt 0 view .LVU192
 606 0034 0CEB800E 		add	lr, ip, r0, lsl #2
 607 0038 DEED006A 		vldr.32	s13, [lr]
 608              		.loc 4 95 20 view .LVU193
 609 003c C3ED006A 		vstr.32	s13, [r3]
  96:Middlewares/Third_Party/ARM_CMSIS/CMSIS/DSP/Source/SupportFunctions/arm_quick_sort_f32.c ****             pSrc[j]=temp;
 610              		.loc 4 96 13 is_stmt 1 view .LVU194
 611              		.loc 4 96 20 is_stmt 0 view .LVU195
 612 0040 8EED007A 		vstr.32	s14, [lr]
 613              	.LVL66:
 614              	.L41:
  46:Middlewares/Third_Party/ARM_CMSIS/CMSIS/DSP/Source/SupportFunctions/arm_quick_sort_f32.c ****     {
 615              		.loc 4 46 10 is_stmt 1 view .LVU196
 616 0044 8142     		cmp	r1, r0
 617 0046 24DA     		bge	.L56
  61:Middlewares/Third_Party/ARM_CMSIS/CMSIS/DSP/Source/SupportFunctions/arm_quick_sort_f32.c ****         {    
 618              		.loc 4 61 9 view .LVU197
  61:Middlewares/Third_Party/ARM_CMSIS/CMSIS/DSP/Source/SupportFunctions/arm_quick_sort_f32.c ****         {    
 619              		.loc 4 61 11 is_stmt 0 view .LVU198
 620 0048 64B1     		cbz	r4, .L42
 621              	.L45:
  64:Middlewares/Third_Party/ARM_CMSIS/CMSIS/DSP/Source/SupportFunctions/arm_quick_sort_f32.c ****             {
 622              		.loc 4 64 13 is_stmt 1 discriminator 2 view .LVU199
  66:Middlewares/Third_Party/ARM_CMSIS/CMSIS/DSP/Source/SupportFunctions/arm_quick_sort_f32.c ****             } while (pSrc[i] < pivot && i<last);
 623              		.loc 4 66 17 discriminator 2 view .LVU200
  66:Middlewares/Third_Party/ARM_CMSIS/CMSIS/DSP/Source/SupportFunctions/arm_quick_sort_f32.c ****             } while (pSrc[i] < pivot && i<last);
 624              		.loc 4 66 18 is_stmt 0 discriminator 2 view .LVU201
 625 004a 0131     		adds	r1, r1, #1
 626              	.LVL67:
  67:Middlewares/Third_Party/ARM_CMSIS/CMSIS/DSP/Source/SupportFunctions/arm_quick_sort_f32.c ****        
 627              		.loc 4 67 21 is_stmt 1 discriminator 2 view .LVU202
  67:Middlewares/Third_Party/ARM_CMSIS/CMSIS/DSP/Source/SupportFunctions/arm_quick_sort_f32.c ****        
 628              		.loc 4 67 26 is_stmt 0 discriminator 2 view .LVU203
 629 004c 0CEB810E 		add	lr, ip, r1, lsl #2
 630 0050 9EED007A 		vldr.32	s14, [lr]
  67:Middlewares/Third_Party/ARM_CMSIS/CMSIS/DSP/Source/SupportFunctions/arm_quick_sort_f32.c ****        
 631              		.loc 4 67 13 discriminator 2 view .LVU204
 632 0054 B4EEE77A 		vcmpe.f32	s14, s15
ARM GAS  C:\Users\7636~1\AppData\Local\Temp\ccIWThgb.s 			page 19


 633 0058 F1EE10FA 		vmrs	APSR_nzcv, FPSCR
 634 005c DAD5     		bpl	.L46
  67:Middlewares/Third_Party/ARM_CMSIS/CMSIS/DSP/Source/SupportFunctions/arm_quick_sort_f32.c ****        
 635              		.loc 4 67 38 discriminator 1 view .LVU205
 636 005e 8A42     		cmp	r2, r1
 637 0060 F3DC     		bgt	.L45
 638 0062 D7E7     		b	.L46
 639              	.L42:
  78:Middlewares/Third_Party/ARM_CMSIS/CMSIS/DSP/Source/SupportFunctions/arm_quick_sort_f32.c ****             {
 640              		.loc 4 78 13 is_stmt 1 discriminator 2 view .LVU206
  80:Middlewares/Third_Party/ARM_CMSIS/CMSIS/DSP/Source/SupportFunctions/arm_quick_sort_f32.c ****             } while (pSrc[i] > pivot && i<last);
 641              		.loc 4 80 17 discriminator 2 view .LVU207
  80:Middlewares/Third_Party/ARM_CMSIS/CMSIS/DSP/Source/SupportFunctions/arm_quick_sort_f32.c ****             } while (pSrc[i] > pivot && i<last);
 642              		.loc 4 80 18 is_stmt 0 discriminator 2 view .LVU208
 643 0064 0131     		adds	r1, r1, #1
 644              	.LVL68:
  81:Middlewares/Third_Party/ARM_CMSIS/CMSIS/DSP/Source/SupportFunctions/arm_quick_sort_f32.c ****         
 645              		.loc 4 81 21 is_stmt 1 discriminator 2 view .LVU209
  81:Middlewares/Third_Party/ARM_CMSIS/CMSIS/DSP/Source/SupportFunctions/arm_quick_sort_f32.c ****         
 646              		.loc 4 81 26 is_stmt 0 discriminator 2 view .LVU210
 647 0066 0CEB810E 		add	lr, ip, r1, lsl #2
 648 006a 9EED007A 		vldr.32	s14, [lr]
  81:Middlewares/Third_Party/ARM_CMSIS/CMSIS/DSP/Source/SupportFunctions/arm_quick_sort_f32.c ****         
 649              		.loc 4 81 13 discriminator 2 view .LVU211
 650 006e B4EEE77A 		vcmpe.f32	s14, s15
 651 0072 F1EE10FA 		vmrs	APSR_nzcv, FPSCR
 652 0076 01DD     		ble	.L50
  81:Middlewares/Third_Party/ARM_CMSIS/CMSIS/DSP/Source/SupportFunctions/arm_quick_sort_f32.c ****         
 653              		.loc 4 81 38 discriminator 1 view .LVU212
 654 0078 8A42     		cmp	r2, r1
 655 007a F3DC     		bgt	.L42
 656              	.L50:
  84:Middlewares/Third_Party/ARM_CMSIS/CMSIS/DSP/Source/SupportFunctions/arm_quick_sort_f32.c ****             {
 657              		.loc 4 84 13 is_stmt 1 discriminator 1 view .LVU213
  86:Middlewares/Third_Party/ARM_CMSIS/CMSIS/DSP/Source/SupportFunctions/arm_quick_sort_f32.c ****             } while (pSrc[j] < pivot);
 658              		.loc 4 86 17 discriminator 1 view .LVU214
  86:Middlewares/Third_Party/ARM_CMSIS/CMSIS/DSP/Source/SupportFunctions/arm_quick_sort_f32.c ****             } while (pSrc[j] < pivot);
 659              		.loc 4 86 18 is_stmt 0 discriminator 1 view .LVU215
 660 007c 0138     		subs	r0, r0, #1
 661              	.LVL69:
  87:Middlewares/Third_Party/ARM_CMSIS/CMSIS/DSP/Source/SupportFunctions/arm_quick_sort_f32.c ****         }
 662              		.loc 4 87 21 is_stmt 1 discriminator 1 view .LVU216
  87:Middlewares/Third_Party/ARM_CMSIS/CMSIS/DSP/Source/SupportFunctions/arm_quick_sort_f32.c ****         }
 663              		.loc 4 87 26 is_stmt 0 discriminator 1 view .LVU217
 664 007e 0CEB800E 		add	lr, ip, r0, lsl #2
 665 0082 9EED007A 		vldr.32	s14, [lr]
  87:Middlewares/Third_Party/ARM_CMSIS/CMSIS/DSP/Source/SupportFunctions/arm_quick_sort_f32.c ****         }
 666              		.loc 4 87 13 discriminator 1 view .LVU218
 667 0086 B4EEE77A 		vcmpe.f32	s14, s15
 668 008a F1EE10FA 		vmrs	APSR_nzcv, FPSCR
 669 008e F5D4     		bmi	.L50
 670 0090 CAE7     		b	.L47
 671              	.L56:
  97:Middlewares/Third_Party/ARM_CMSIS/CMSIS/DSP/Source/SupportFunctions/arm_quick_sort_f32.c ****         }
  98:Middlewares/Third_Party/ARM_CMSIS/CMSIS/DSP/Source/SupportFunctions/arm_quick_sort_f32.c ****     }
  99:Middlewares/Third_Party/ARM_CMSIS/CMSIS/DSP/Source/SupportFunctions/arm_quick_sort_f32.c **** 
 100:Middlewares/Third_Party/ARM_CMSIS/CMSIS/DSP/Source/SupportFunctions/arm_quick_sort_f32.c ****     return j; 
ARM GAS  C:\Users\7636~1\AppData\Local\Temp\ccIWThgb.s 			page 20


 672              		.loc 4 100 5 is_stmt 1 view .LVU219
 101:Middlewares/Third_Party/ARM_CMSIS/CMSIS/DSP/Source/SupportFunctions/arm_quick_sort_f32.c **** }
 673              		.loc 4 101 1 is_stmt 0 view .LVU220
 674 0092 10BD     		pop	{r4, pc}
 675              		.cfi_endproc
 676              	.LFE157:
 678              		.section	.text.arm_quick_sort_core_f32,"ax",%progbits
 679              		.align	1
 680              		.syntax unified
 681              		.thumb
 682              		.thumb_func
 684              	arm_quick_sort_core_f32:
 685              	.LVL70:
 686              	.LFB158:
 102:Middlewares/Third_Party/ARM_CMSIS/CMSIS/DSP/Source/SupportFunctions/arm_quick_sort_f32.c **** 
 103:Middlewares/Third_Party/ARM_CMSIS/CMSIS/DSP/Source/SupportFunctions/arm_quick_sort_f32.c **** static void arm_quick_sort_core_f32(float32_t *pSrc, int32_t first, int32_t last, uint8_t dir)
 104:Middlewares/Third_Party/ARM_CMSIS/CMSIS/DSP/Source/SupportFunctions/arm_quick_sort_f32.c **** {
 687              		.loc 4 104 1 is_stmt 1 view -0
 688              		.cfi_startproc
 689              		@ args = 0, pretend = 0, frame = 0
 690              		@ frame_needed = 0, uses_anonymous_args = 0
 105:Middlewares/Third_Party/ARM_CMSIS/CMSIS/DSP/Source/SupportFunctions/arm_quick_sort_f32.c ****     /* If the array [first ... last] has more than one element */
 106:Middlewares/Third_Party/ARM_CMSIS/CMSIS/DSP/Source/SupportFunctions/arm_quick_sort_f32.c ****     if(first<last)
 691              		.loc 4 106 5 view .LVU222
 692              		.loc 4 106 7 is_stmt 0 view .LVU223
 693 0000 9142     		cmp	r1, r2
 694 0002 00DB     		blt	.L63
 695 0004 7047     		bx	lr
 696              	.L63:
 104:Middlewares/Third_Party/ARM_CMSIS/CMSIS/DSP/Source/SupportFunctions/arm_quick_sort_f32.c ****     /* If the array [first ... last] has more than one element */
 697              		.loc 4 104 1 view .LVU224
 698 0006 2DE9F041 		push	{r4, r5, r6, r7, r8, lr}
 699              	.LCFI8:
 700              		.cfi_def_cfa_offset 24
 701              		.cfi_offset 4, -24
 702              		.cfi_offset 5, -20
 703              		.cfi_offset 6, -16
 704              		.cfi_offset 7, -12
 705              		.cfi_offset 8, -8
 706              		.cfi_offset 14, -4
 707 000a 0746     		mov	r7, r0
 708 000c 0D46     		mov	r5, r1
 709 000e 1446     		mov	r4, r2
 710 0010 1E46     		mov	r6, r3
 711              	.LBB5:
 107:Middlewares/Third_Party/ARM_CMSIS/CMSIS/DSP/Source/SupportFunctions/arm_quick_sort_f32.c ****     {
 108:Middlewares/Third_Party/ARM_CMSIS/CMSIS/DSP/Source/SupportFunctions/arm_quick_sort_f32.c ****         int32_t pivot;
 712              		.loc 4 108 9 is_stmt 1 view .LVU225
 109:Middlewares/Third_Party/ARM_CMSIS/CMSIS/DSP/Source/SupportFunctions/arm_quick_sort_f32.c **** 
 110:Middlewares/Third_Party/ARM_CMSIS/CMSIS/DSP/Source/SupportFunctions/arm_quick_sort_f32.c ****         /* Compute pivot */
 111:Middlewares/Third_Party/ARM_CMSIS/CMSIS/DSP/Source/SupportFunctions/arm_quick_sort_f32.c ****         pivot = arm_quick_sort_partition_f32(pSrc, first, last, dir);
 713              		.loc 4 111 9 view .LVU226
 714              		.loc 4 111 17 is_stmt 0 view .LVU227
 715 0012 FFF7FEFF 		bl	arm_quick_sort_partition_f32
 716              	.LVL71:
 717              		.loc 4 111 17 view .LVU228
 718 0016 8046     		mov	r8, r0
ARM GAS  C:\Users\7636~1\AppData\Local\Temp\ccIWThgb.s 			page 21


 719              	.LVL72:
 112:Middlewares/Third_Party/ARM_CMSIS/CMSIS/DSP/Source/SupportFunctions/arm_quick_sort_f32.c **** 
 113:Middlewares/Third_Party/ARM_CMSIS/CMSIS/DSP/Source/SupportFunctions/arm_quick_sort_f32.c ****         /* Iterate algorithm with two sub-arrays [first ... pivot] and [pivot+1 ... last] */
 114:Middlewares/Third_Party/ARM_CMSIS/CMSIS/DSP/Source/SupportFunctions/arm_quick_sort_f32.c ****         arm_quick_sort_core_f32(pSrc, first,   pivot, dir);
 720              		.loc 4 114 9 is_stmt 1 view .LVU229
 721 0018 3346     		mov	r3, r6
 722 001a 0246     		mov	r2, r0
 723 001c 2946     		mov	r1, r5
 724 001e 3846     		mov	r0, r7
 725              	.LVL73:
 726              		.loc 4 114 9 is_stmt 0 view .LVU230
 727 0020 FFF7EEFF 		bl	arm_quick_sort_core_f32
 728              	.LVL74:
 115:Middlewares/Third_Party/ARM_CMSIS/CMSIS/DSP/Source/SupportFunctions/arm_quick_sort_f32.c ****         arm_quick_sort_core_f32(pSrc, pivot+1, last,  dir);
 729              		.loc 4 115 9 is_stmt 1 view .LVU231
 730 0024 3346     		mov	r3, r6
 731 0026 2246     		mov	r2, r4
 732 0028 08F10101 		add	r1, r8, #1
 733 002c 3846     		mov	r0, r7
 734 002e FFF7E7FF 		bl	arm_quick_sort_core_f32
 735              	.LVL75:
 736              	.LBE5:
 116:Middlewares/Third_Party/ARM_CMSIS/CMSIS/DSP/Source/SupportFunctions/arm_quick_sort_f32.c ****     }
 117:Middlewares/Third_Party/ARM_CMSIS/CMSIS/DSP/Source/SupportFunctions/arm_quick_sort_f32.c **** }
 737              		.loc 4 117 1 is_stmt 0 view .LVU232
 738 0032 BDE8F081 		pop	{r4, r5, r6, r7, r8, pc}
 739              		.loc 4 117 1 view .LVU233
 740              		.cfi_endproc
 741              	.LFE158:
 743              		.section	.text.arm_barycenter_f32,"ax",%progbits
 744              		.align	1
 745              		.global	arm_barycenter_f32
 746              		.syntax unified
 747              		.thumb
 748              		.thumb_func
 750              	arm_barycenter_f32:
 751              	.LVL76:
 752              	.LFB119:
 753              		.file 5 "Middlewares/Third_Party/ARM_CMSIS/CMSIS/DSP/Source/SupportFunctions/arm_barycenter_f32.c"
   1:Middlewares/Third_Party/ARM_CMSIS/CMSIS/DSP/Source/SupportFunctions/arm_barycenter_f32.c **** /* ----------------------------------------------------------------------
   2:Middlewares/Third_Party/ARM_CMSIS/CMSIS/DSP/Source/SupportFunctions/arm_barycenter_f32.c ****  * Project:      CMSIS DSP Library
   3:Middlewares/Third_Party/ARM_CMSIS/CMSIS/DSP/Source/SupportFunctions/arm_barycenter_f32.c ****  * Title:        arm_barycenter_f32.c
   4:Middlewares/Third_Party/ARM_CMSIS/CMSIS/DSP/Source/SupportFunctions/arm_barycenter_f32.c ****  * Description:  Barycenter
   5:Middlewares/Third_Party/ARM_CMSIS/CMSIS/DSP/Source/SupportFunctions/arm_barycenter_f32.c ****  *
   6:Middlewares/Third_Party/ARM_CMSIS/CMSIS/DSP/Source/SupportFunctions/arm_barycenter_f32.c ****  * $Date:        23 April 2021
   7:Middlewares/Third_Party/ARM_CMSIS/CMSIS/DSP/Source/SupportFunctions/arm_barycenter_f32.c ****  * $Revision:    V1.9.0
   8:Middlewares/Third_Party/ARM_CMSIS/CMSIS/DSP/Source/SupportFunctions/arm_barycenter_f32.c ****  *
   9:Middlewares/Third_Party/ARM_CMSIS/CMSIS/DSP/Source/SupportFunctions/arm_barycenter_f32.c ****  * Target Processor: Cortex-M and Cortex-A cores
  10:Middlewares/Third_Party/ARM_CMSIS/CMSIS/DSP/Source/SupportFunctions/arm_barycenter_f32.c ****  * -------------------------------------------------------------------- */
  11:Middlewares/Third_Party/ARM_CMSIS/CMSIS/DSP/Source/SupportFunctions/arm_barycenter_f32.c **** /*
  12:Middlewares/Third_Party/ARM_CMSIS/CMSIS/DSP/Source/SupportFunctions/arm_barycenter_f32.c ****  * Copyright (C) 2010-2021 ARM Limited or its affiliates. All rights reserved.
  13:Middlewares/Third_Party/ARM_CMSIS/CMSIS/DSP/Source/SupportFunctions/arm_barycenter_f32.c ****  *
  14:Middlewares/Third_Party/ARM_CMSIS/CMSIS/DSP/Source/SupportFunctions/arm_barycenter_f32.c ****  * SPDX-License-Identifier: Apache-2.0
  15:Middlewares/Third_Party/ARM_CMSIS/CMSIS/DSP/Source/SupportFunctions/arm_barycenter_f32.c ****  *
  16:Middlewares/Third_Party/ARM_CMSIS/CMSIS/DSP/Source/SupportFunctions/arm_barycenter_f32.c ****  * Licensed under the Apache License, Version 2.0 (the License); you may
  17:Middlewares/Third_Party/ARM_CMSIS/CMSIS/DSP/Source/SupportFunctions/arm_barycenter_f32.c ****  * not use this file except in compliance with the License.
  18:Middlewares/Third_Party/ARM_CMSIS/CMSIS/DSP/Source/SupportFunctions/arm_barycenter_f32.c ****  * You may obtain a copy of the License at
ARM GAS  C:\Users\7636~1\AppData\Local\Temp\ccIWThgb.s 			page 22


  19:Middlewares/Third_Party/ARM_CMSIS/CMSIS/DSP/Source/SupportFunctions/arm_barycenter_f32.c ****  *
  20:Middlewares/Third_Party/ARM_CMSIS/CMSIS/DSP/Source/SupportFunctions/arm_barycenter_f32.c ****  * www.apache.org/licenses/LICENSE-2.0
  21:Middlewares/Third_Party/ARM_CMSIS/CMSIS/DSP/Source/SupportFunctions/arm_barycenter_f32.c ****  *
  22:Middlewares/Third_Party/ARM_CMSIS/CMSIS/DSP/Source/SupportFunctions/arm_barycenter_f32.c ****  * Unless required by applicable law or agreed to in writing, software
  23:Middlewares/Third_Party/ARM_CMSIS/CMSIS/DSP/Source/SupportFunctions/arm_barycenter_f32.c ****  * distributed under the License is distributed on an AS IS BASIS, WITHOUT
  24:Middlewares/Third_Party/ARM_CMSIS/CMSIS/DSP/Source/SupportFunctions/arm_barycenter_f32.c ****  * WARRANTIES OR CONDITIONS OF ANY KIND, either express or implied.
  25:Middlewares/Third_Party/ARM_CMSIS/CMSIS/DSP/Source/SupportFunctions/arm_barycenter_f32.c ****  * See the License for the specific language governing permissions and
  26:Middlewares/Third_Party/ARM_CMSIS/CMSIS/DSP/Source/SupportFunctions/arm_barycenter_f32.c ****  * limitations under the License.
  27:Middlewares/Third_Party/ARM_CMSIS/CMSIS/DSP/Source/SupportFunctions/arm_barycenter_f32.c ****  */
  28:Middlewares/Third_Party/ARM_CMSIS/CMSIS/DSP/Source/SupportFunctions/arm_barycenter_f32.c **** 
  29:Middlewares/Third_Party/ARM_CMSIS/CMSIS/DSP/Source/SupportFunctions/arm_barycenter_f32.c **** #include "dsp/support_functions.h"
  30:Middlewares/Third_Party/ARM_CMSIS/CMSIS/DSP/Source/SupportFunctions/arm_barycenter_f32.c **** #include <limits.h>
  31:Middlewares/Third_Party/ARM_CMSIS/CMSIS/DSP/Source/SupportFunctions/arm_barycenter_f32.c **** #include <math.h>
  32:Middlewares/Third_Party/ARM_CMSIS/CMSIS/DSP/Source/SupportFunctions/arm_barycenter_f32.c **** 
  33:Middlewares/Third_Party/ARM_CMSIS/CMSIS/DSP/Source/SupportFunctions/arm_barycenter_f32.c **** 
  34:Middlewares/Third_Party/ARM_CMSIS/CMSIS/DSP/Source/SupportFunctions/arm_barycenter_f32.c **** /**
  35:Middlewares/Third_Party/ARM_CMSIS/CMSIS/DSP/Source/SupportFunctions/arm_barycenter_f32.c ****   @ingroup barycenter
  36:Middlewares/Third_Party/ARM_CMSIS/CMSIS/DSP/Source/SupportFunctions/arm_barycenter_f32.c ****  */
  37:Middlewares/Third_Party/ARM_CMSIS/CMSIS/DSP/Source/SupportFunctions/arm_barycenter_f32.c **** 
  38:Middlewares/Third_Party/ARM_CMSIS/CMSIS/DSP/Source/SupportFunctions/arm_barycenter_f32.c **** 
  39:Middlewares/Third_Party/ARM_CMSIS/CMSIS/DSP/Source/SupportFunctions/arm_barycenter_f32.c **** /**
  40:Middlewares/Third_Party/ARM_CMSIS/CMSIS/DSP/Source/SupportFunctions/arm_barycenter_f32.c ****  * @brief Barycenter
  41:Middlewares/Third_Party/ARM_CMSIS/CMSIS/DSP/Source/SupportFunctions/arm_barycenter_f32.c ****  *
  42:Middlewares/Third_Party/ARM_CMSIS/CMSIS/DSP/Source/SupportFunctions/arm_barycenter_f32.c ****  *
  43:Middlewares/Third_Party/ARM_CMSIS/CMSIS/DSP/Source/SupportFunctions/arm_barycenter_f32.c ****  * @param[in]    *in         List of vectors
  44:Middlewares/Third_Party/ARM_CMSIS/CMSIS/DSP/Source/SupportFunctions/arm_barycenter_f32.c ****  * @param[in]    *weights    Weights of the vectors
  45:Middlewares/Third_Party/ARM_CMSIS/CMSIS/DSP/Source/SupportFunctions/arm_barycenter_f32.c ****  * @param[out]   *out        Barycenter
  46:Middlewares/Third_Party/ARM_CMSIS/CMSIS/DSP/Source/SupportFunctions/arm_barycenter_f32.c ****  * @param[in]    nbVectors   Number of vectors
  47:Middlewares/Third_Party/ARM_CMSIS/CMSIS/DSP/Source/SupportFunctions/arm_barycenter_f32.c ****  * @param[in]    vecDim      Dimension of space (vector dimension)
  48:Middlewares/Third_Party/ARM_CMSIS/CMSIS/DSP/Source/SupportFunctions/arm_barycenter_f32.c ****  * @return       None
  49:Middlewares/Third_Party/ARM_CMSIS/CMSIS/DSP/Source/SupportFunctions/arm_barycenter_f32.c ****  *
  50:Middlewares/Third_Party/ARM_CMSIS/CMSIS/DSP/Source/SupportFunctions/arm_barycenter_f32.c ****  */
  51:Middlewares/Third_Party/ARM_CMSIS/CMSIS/DSP/Source/SupportFunctions/arm_barycenter_f32.c **** 
  52:Middlewares/Third_Party/ARM_CMSIS/CMSIS/DSP/Source/SupportFunctions/arm_barycenter_f32.c **** #if defined(ARM_MATH_MVEF) && !defined(ARM_MATH_AUTOVECTORIZE)
  53:Middlewares/Third_Party/ARM_CMSIS/CMSIS/DSP/Source/SupportFunctions/arm_barycenter_f32.c **** void arm_barycenter_f32(const float32_t *in, 
  54:Middlewares/Third_Party/ARM_CMSIS/CMSIS/DSP/Source/SupportFunctions/arm_barycenter_f32.c ****   const float32_t *weights, 
  55:Middlewares/Third_Party/ARM_CMSIS/CMSIS/DSP/Source/SupportFunctions/arm_barycenter_f32.c ****   float32_t *out, 
  56:Middlewares/Third_Party/ARM_CMSIS/CMSIS/DSP/Source/SupportFunctions/arm_barycenter_f32.c ****   uint32_t nbVectors,
  57:Middlewares/Third_Party/ARM_CMSIS/CMSIS/DSP/Source/SupportFunctions/arm_barycenter_f32.c ****   uint32_t vecDim)
  58:Middlewares/Third_Party/ARM_CMSIS/CMSIS/DSP/Source/SupportFunctions/arm_barycenter_f32.c **** {
  59:Middlewares/Third_Party/ARM_CMSIS/CMSIS/DSP/Source/SupportFunctions/arm_barycenter_f32.c ****     const float32_t *pIn, *pW;
  60:Middlewares/Third_Party/ARM_CMSIS/CMSIS/DSP/Source/SupportFunctions/arm_barycenter_f32.c ****     const float32_t *pIn1, *pIn2, *pIn3, *pIn4;
  61:Middlewares/Third_Party/ARM_CMSIS/CMSIS/DSP/Source/SupportFunctions/arm_barycenter_f32.c ****     float32_t      *pOut;
  62:Middlewares/Third_Party/ARM_CMSIS/CMSIS/DSP/Source/SupportFunctions/arm_barycenter_f32.c ****     uint32_t        blkCntVector, blkCntSample;
  63:Middlewares/Third_Party/ARM_CMSIS/CMSIS/DSP/Source/SupportFunctions/arm_barycenter_f32.c ****     float32_t       accum, w;
  64:Middlewares/Third_Party/ARM_CMSIS/CMSIS/DSP/Source/SupportFunctions/arm_barycenter_f32.c **** 
  65:Middlewares/Third_Party/ARM_CMSIS/CMSIS/DSP/Source/SupportFunctions/arm_barycenter_f32.c ****     blkCntVector = nbVectors;
  66:Middlewares/Third_Party/ARM_CMSIS/CMSIS/DSP/Source/SupportFunctions/arm_barycenter_f32.c ****     blkCntSample = vecDim;
  67:Middlewares/Third_Party/ARM_CMSIS/CMSIS/DSP/Source/SupportFunctions/arm_barycenter_f32.c **** 
  68:Middlewares/Third_Party/ARM_CMSIS/CMSIS/DSP/Source/SupportFunctions/arm_barycenter_f32.c ****     accum = 0.0f;
  69:Middlewares/Third_Party/ARM_CMSIS/CMSIS/DSP/Source/SupportFunctions/arm_barycenter_f32.c **** 
  70:Middlewares/Third_Party/ARM_CMSIS/CMSIS/DSP/Source/SupportFunctions/arm_barycenter_f32.c ****     pW = weights;
  71:Middlewares/Third_Party/ARM_CMSIS/CMSIS/DSP/Source/SupportFunctions/arm_barycenter_f32.c ****     pIn = in;
  72:Middlewares/Third_Party/ARM_CMSIS/CMSIS/DSP/Source/SupportFunctions/arm_barycenter_f32.c **** 
  73:Middlewares/Third_Party/ARM_CMSIS/CMSIS/DSP/Source/SupportFunctions/arm_barycenter_f32.c **** 
  74:Middlewares/Third_Party/ARM_CMSIS/CMSIS/DSP/Source/SupportFunctions/arm_barycenter_f32.c ****     arm_fill_f32(0.0f, out, vecDim);
  75:Middlewares/Third_Party/ARM_CMSIS/CMSIS/DSP/Source/SupportFunctions/arm_barycenter_f32.c **** 
ARM GAS  C:\Users\7636~1\AppData\Local\Temp\ccIWThgb.s 			page 23


  76:Middlewares/Third_Party/ARM_CMSIS/CMSIS/DSP/Source/SupportFunctions/arm_barycenter_f32.c **** 
  77:Middlewares/Third_Party/ARM_CMSIS/CMSIS/DSP/Source/SupportFunctions/arm_barycenter_f32.c ****     /* Sum */
  78:Middlewares/Third_Party/ARM_CMSIS/CMSIS/DSP/Source/SupportFunctions/arm_barycenter_f32.c ****     pIn1 = pIn;
  79:Middlewares/Third_Party/ARM_CMSIS/CMSIS/DSP/Source/SupportFunctions/arm_barycenter_f32.c ****     pIn2 = pIn1 + vecDim;
  80:Middlewares/Third_Party/ARM_CMSIS/CMSIS/DSP/Source/SupportFunctions/arm_barycenter_f32.c ****     pIn3 = pIn2 + vecDim;
  81:Middlewares/Third_Party/ARM_CMSIS/CMSIS/DSP/Source/SupportFunctions/arm_barycenter_f32.c ****     pIn4 = pIn3 + vecDim;
  82:Middlewares/Third_Party/ARM_CMSIS/CMSIS/DSP/Source/SupportFunctions/arm_barycenter_f32.c **** 
  83:Middlewares/Third_Party/ARM_CMSIS/CMSIS/DSP/Source/SupportFunctions/arm_barycenter_f32.c ****     blkCntVector = nbVectors >> 2;
  84:Middlewares/Third_Party/ARM_CMSIS/CMSIS/DSP/Source/SupportFunctions/arm_barycenter_f32.c ****     while (blkCntVector > 0) 
  85:Middlewares/Third_Party/ARM_CMSIS/CMSIS/DSP/Source/SupportFunctions/arm_barycenter_f32.c ****     {
  86:Middlewares/Third_Party/ARM_CMSIS/CMSIS/DSP/Source/SupportFunctions/arm_barycenter_f32.c ****         f32x4_t         outV, inV1, inV2, inV3, inV4;
  87:Middlewares/Third_Party/ARM_CMSIS/CMSIS/DSP/Source/SupportFunctions/arm_barycenter_f32.c ****         float32_t       w1, w2, w3, w4;
  88:Middlewares/Third_Party/ARM_CMSIS/CMSIS/DSP/Source/SupportFunctions/arm_barycenter_f32.c **** 
  89:Middlewares/Third_Party/ARM_CMSIS/CMSIS/DSP/Source/SupportFunctions/arm_barycenter_f32.c ****         pOut = out;
  90:Middlewares/Third_Party/ARM_CMSIS/CMSIS/DSP/Source/SupportFunctions/arm_barycenter_f32.c ****         w1 = *pW++;
  91:Middlewares/Third_Party/ARM_CMSIS/CMSIS/DSP/Source/SupportFunctions/arm_barycenter_f32.c ****         w2 = *pW++;
  92:Middlewares/Third_Party/ARM_CMSIS/CMSIS/DSP/Source/SupportFunctions/arm_barycenter_f32.c ****         w3 = *pW++;
  93:Middlewares/Third_Party/ARM_CMSIS/CMSIS/DSP/Source/SupportFunctions/arm_barycenter_f32.c ****         w4 = *pW++;
  94:Middlewares/Third_Party/ARM_CMSIS/CMSIS/DSP/Source/SupportFunctions/arm_barycenter_f32.c ****         accum += w1 + w2 + w3 + w4;
  95:Middlewares/Third_Party/ARM_CMSIS/CMSIS/DSP/Source/SupportFunctions/arm_barycenter_f32.c **** 
  96:Middlewares/Third_Party/ARM_CMSIS/CMSIS/DSP/Source/SupportFunctions/arm_barycenter_f32.c ****         blkCntSample = vecDim >> 2;
  97:Middlewares/Third_Party/ARM_CMSIS/CMSIS/DSP/Source/SupportFunctions/arm_barycenter_f32.c ****         while (blkCntSample > 0) {
  98:Middlewares/Third_Party/ARM_CMSIS/CMSIS/DSP/Source/SupportFunctions/arm_barycenter_f32.c ****             outV = vld1q((const float32_t *) pOut);
  99:Middlewares/Third_Party/ARM_CMSIS/CMSIS/DSP/Source/SupportFunctions/arm_barycenter_f32.c ****             inV1 = vld1q(pIn1);
 100:Middlewares/Third_Party/ARM_CMSIS/CMSIS/DSP/Source/SupportFunctions/arm_barycenter_f32.c ****             inV2 = vld1q(pIn2);
 101:Middlewares/Third_Party/ARM_CMSIS/CMSIS/DSP/Source/SupportFunctions/arm_barycenter_f32.c ****             inV3 = vld1q(pIn3);
 102:Middlewares/Third_Party/ARM_CMSIS/CMSIS/DSP/Source/SupportFunctions/arm_barycenter_f32.c ****             inV4 = vld1q(pIn4);
 103:Middlewares/Third_Party/ARM_CMSIS/CMSIS/DSP/Source/SupportFunctions/arm_barycenter_f32.c ****             outV = vfmaq(outV, inV1, w1);
 104:Middlewares/Third_Party/ARM_CMSIS/CMSIS/DSP/Source/SupportFunctions/arm_barycenter_f32.c ****             outV = vfmaq(outV, inV2, w2);
 105:Middlewares/Third_Party/ARM_CMSIS/CMSIS/DSP/Source/SupportFunctions/arm_barycenter_f32.c ****             outV = vfmaq(outV, inV3, w3);
 106:Middlewares/Third_Party/ARM_CMSIS/CMSIS/DSP/Source/SupportFunctions/arm_barycenter_f32.c ****             outV = vfmaq(outV, inV4, w4);
 107:Middlewares/Third_Party/ARM_CMSIS/CMSIS/DSP/Source/SupportFunctions/arm_barycenter_f32.c ****             vst1q(pOut, outV);
 108:Middlewares/Third_Party/ARM_CMSIS/CMSIS/DSP/Source/SupportFunctions/arm_barycenter_f32.c **** 
 109:Middlewares/Third_Party/ARM_CMSIS/CMSIS/DSP/Source/SupportFunctions/arm_barycenter_f32.c ****             pOut += 4;
 110:Middlewares/Third_Party/ARM_CMSIS/CMSIS/DSP/Source/SupportFunctions/arm_barycenter_f32.c ****             pIn1 += 4;
 111:Middlewares/Third_Party/ARM_CMSIS/CMSIS/DSP/Source/SupportFunctions/arm_barycenter_f32.c ****             pIn2 += 4;
 112:Middlewares/Third_Party/ARM_CMSIS/CMSIS/DSP/Source/SupportFunctions/arm_barycenter_f32.c ****             pIn3 += 4;
 113:Middlewares/Third_Party/ARM_CMSIS/CMSIS/DSP/Source/SupportFunctions/arm_barycenter_f32.c ****             pIn4 += 4;
 114:Middlewares/Third_Party/ARM_CMSIS/CMSIS/DSP/Source/SupportFunctions/arm_barycenter_f32.c **** 
 115:Middlewares/Third_Party/ARM_CMSIS/CMSIS/DSP/Source/SupportFunctions/arm_barycenter_f32.c ****             blkCntSample--;
 116:Middlewares/Third_Party/ARM_CMSIS/CMSIS/DSP/Source/SupportFunctions/arm_barycenter_f32.c ****         }
 117:Middlewares/Third_Party/ARM_CMSIS/CMSIS/DSP/Source/SupportFunctions/arm_barycenter_f32.c **** 
 118:Middlewares/Third_Party/ARM_CMSIS/CMSIS/DSP/Source/SupportFunctions/arm_barycenter_f32.c ****         blkCntSample = vecDim & 3;
 119:Middlewares/Third_Party/ARM_CMSIS/CMSIS/DSP/Source/SupportFunctions/arm_barycenter_f32.c ****         while (blkCntSample > 0) {
 120:Middlewares/Third_Party/ARM_CMSIS/CMSIS/DSP/Source/SupportFunctions/arm_barycenter_f32.c ****             *pOut = *pOut + *pIn1++ * w1;
 121:Middlewares/Third_Party/ARM_CMSIS/CMSIS/DSP/Source/SupportFunctions/arm_barycenter_f32.c ****             *pOut = *pOut + *pIn2++ * w2;
 122:Middlewares/Third_Party/ARM_CMSIS/CMSIS/DSP/Source/SupportFunctions/arm_barycenter_f32.c ****             *pOut = *pOut + *pIn3++ * w3;
 123:Middlewares/Third_Party/ARM_CMSIS/CMSIS/DSP/Source/SupportFunctions/arm_barycenter_f32.c ****             *pOut = *pOut + *pIn4++ * w4;
 124:Middlewares/Third_Party/ARM_CMSIS/CMSIS/DSP/Source/SupportFunctions/arm_barycenter_f32.c ****             pOut++;
 125:Middlewares/Third_Party/ARM_CMSIS/CMSIS/DSP/Source/SupportFunctions/arm_barycenter_f32.c ****             blkCntSample--;
 126:Middlewares/Third_Party/ARM_CMSIS/CMSIS/DSP/Source/SupportFunctions/arm_barycenter_f32.c ****         }
 127:Middlewares/Third_Party/ARM_CMSIS/CMSIS/DSP/Source/SupportFunctions/arm_barycenter_f32.c **** 
 128:Middlewares/Third_Party/ARM_CMSIS/CMSIS/DSP/Source/SupportFunctions/arm_barycenter_f32.c ****         pIn1 += 3 * vecDim;
 129:Middlewares/Third_Party/ARM_CMSIS/CMSIS/DSP/Source/SupportFunctions/arm_barycenter_f32.c ****         pIn2 += 3 * vecDim;
 130:Middlewares/Third_Party/ARM_CMSIS/CMSIS/DSP/Source/SupportFunctions/arm_barycenter_f32.c ****         pIn3 += 3 * vecDim;
 131:Middlewares/Third_Party/ARM_CMSIS/CMSIS/DSP/Source/SupportFunctions/arm_barycenter_f32.c ****         pIn4 += 3 * vecDim;
 132:Middlewares/Third_Party/ARM_CMSIS/CMSIS/DSP/Source/SupportFunctions/arm_barycenter_f32.c **** 
ARM GAS  C:\Users\7636~1\AppData\Local\Temp\ccIWThgb.s 			page 24


 133:Middlewares/Third_Party/ARM_CMSIS/CMSIS/DSP/Source/SupportFunctions/arm_barycenter_f32.c ****         blkCntVector--;
 134:Middlewares/Third_Party/ARM_CMSIS/CMSIS/DSP/Source/SupportFunctions/arm_barycenter_f32.c ****     }
 135:Middlewares/Third_Party/ARM_CMSIS/CMSIS/DSP/Source/SupportFunctions/arm_barycenter_f32.c **** 
 136:Middlewares/Third_Party/ARM_CMSIS/CMSIS/DSP/Source/SupportFunctions/arm_barycenter_f32.c ****     pIn = pIn1;
 137:Middlewares/Third_Party/ARM_CMSIS/CMSIS/DSP/Source/SupportFunctions/arm_barycenter_f32.c **** 
 138:Middlewares/Third_Party/ARM_CMSIS/CMSIS/DSP/Source/SupportFunctions/arm_barycenter_f32.c ****     blkCntVector = nbVectors & 3;
 139:Middlewares/Third_Party/ARM_CMSIS/CMSIS/DSP/Source/SupportFunctions/arm_barycenter_f32.c ****     while (blkCntVector > 0) 
 140:Middlewares/Third_Party/ARM_CMSIS/CMSIS/DSP/Source/SupportFunctions/arm_barycenter_f32.c ****     {
 141:Middlewares/Third_Party/ARM_CMSIS/CMSIS/DSP/Source/SupportFunctions/arm_barycenter_f32.c ****         f32x4_t         inV, outV;
 142:Middlewares/Third_Party/ARM_CMSIS/CMSIS/DSP/Source/SupportFunctions/arm_barycenter_f32.c **** 
 143:Middlewares/Third_Party/ARM_CMSIS/CMSIS/DSP/Source/SupportFunctions/arm_barycenter_f32.c ****         pOut = out;
 144:Middlewares/Third_Party/ARM_CMSIS/CMSIS/DSP/Source/SupportFunctions/arm_barycenter_f32.c ****         w = *pW++;
 145:Middlewares/Third_Party/ARM_CMSIS/CMSIS/DSP/Source/SupportFunctions/arm_barycenter_f32.c ****         accum += w;
 146:Middlewares/Third_Party/ARM_CMSIS/CMSIS/DSP/Source/SupportFunctions/arm_barycenter_f32.c **** 
 147:Middlewares/Third_Party/ARM_CMSIS/CMSIS/DSP/Source/SupportFunctions/arm_barycenter_f32.c ****         blkCntSample = vecDim >> 2;
 148:Middlewares/Third_Party/ARM_CMSIS/CMSIS/DSP/Source/SupportFunctions/arm_barycenter_f32.c ****         while (blkCntSample > 0) 
 149:Middlewares/Third_Party/ARM_CMSIS/CMSIS/DSP/Source/SupportFunctions/arm_barycenter_f32.c ****         {
 150:Middlewares/Third_Party/ARM_CMSIS/CMSIS/DSP/Source/SupportFunctions/arm_barycenter_f32.c ****             outV = vld1q_f32(pOut);
 151:Middlewares/Third_Party/ARM_CMSIS/CMSIS/DSP/Source/SupportFunctions/arm_barycenter_f32.c ****             inV = vld1q_f32(pIn);
 152:Middlewares/Third_Party/ARM_CMSIS/CMSIS/DSP/Source/SupportFunctions/arm_barycenter_f32.c ****             outV = vfmaq(outV, inV, w);
 153:Middlewares/Third_Party/ARM_CMSIS/CMSIS/DSP/Source/SupportFunctions/arm_barycenter_f32.c ****             vst1q_f32(pOut, outV);
 154:Middlewares/Third_Party/ARM_CMSIS/CMSIS/DSP/Source/SupportFunctions/arm_barycenter_f32.c ****             pOut += 4;
 155:Middlewares/Third_Party/ARM_CMSIS/CMSIS/DSP/Source/SupportFunctions/arm_barycenter_f32.c ****             pIn += 4;
 156:Middlewares/Third_Party/ARM_CMSIS/CMSIS/DSP/Source/SupportFunctions/arm_barycenter_f32.c **** 
 157:Middlewares/Third_Party/ARM_CMSIS/CMSIS/DSP/Source/SupportFunctions/arm_barycenter_f32.c ****             blkCntSample--;
 158:Middlewares/Third_Party/ARM_CMSIS/CMSIS/DSP/Source/SupportFunctions/arm_barycenter_f32.c ****         }
 159:Middlewares/Third_Party/ARM_CMSIS/CMSIS/DSP/Source/SupportFunctions/arm_barycenter_f32.c **** 
 160:Middlewares/Third_Party/ARM_CMSIS/CMSIS/DSP/Source/SupportFunctions/arm_barycenter_f32.c ****         blkCntSample = vecDim & 3;
 161:Middlewares/Third_Party/ARM_CMSIS/CMSIS/DSP/Source/SupportFunctions/arm_barycenter_f32.c ****         while (blkCntSample > 0) 
 162:Middlewares/Third_Party/ARM_CMSIS/CMSIS/DSP/Source/SupportFunctions/arm_barycenter_f32.c ****         {
 163:Middlewares/Third_Party/ARM_CMSIS/CMSIS/DSP/Source/SupportFunctions/arm_barycenter_f32.c ****             *pOut = *pOut + *pIn++ * w;
 164:Middlewares/Third_Party/ARM_CMSIS/CMSIS/DSP/Source/SupportFunctions/arm_barycenter_f32.c ****             pOut++;
 165:Middlewares/Third_Party/ARM_CMSIS/CMSIS/DSP/Source/SupportFunctions/arm_barycenter_f32.c ****             blkCntSample--;
 166:Middlewares/Third_Party/ARM_CMSIS/CMSIS/DSP/Source/SupportFunctions/arm_barycenter_f32.c ****         }
 167:Middlewares/Third_Party/ARM_CMSIS/CMSIS/DSP/Source/SupportFunctions/arm_barycenter_f32.c **** 
 168:Middlewares/Third_Party/ARM_CMSIS/CMSIS/DSP/Source/SupportFunctions/arm_barycenter_f32.c ****         blkCntVector--;
 169:Middlewares/Third_Party/ARM_CMSIS/CMSIS/DSP/Source/SupportFunctions/arm_barycenter_f32.c ****     }
 170:Middlewares/Third_Party/ARM_CMSIS/CMSIS/DSP/Source/SupportFunctions/arm_barycenter_f32.c **** 
 171:Middlewares/Third_Party/ARM_CMSIS/CMSIS/DSP/Source/SupportFunctions/arm_barycenter_f32.c ****     /* Normalize */
 172:Middlewares/Third_Party/ARM_CMSIS/CMSIS/DSP/Source/SupportFunctions/arm_barycenter_f32.c ****     pOut = out;
 173:Middlewares/Third_Party/ARM_CMSIS/CMSIS/DSP/Source/SupportFunctions/arm_barycenter_f32.c ****     accum = 1.0f / accum;
 174:Middlewares/Third_Party/ARM_CMSIS/CMSIS/DSP/Source/SupportFunctions/arm_barycenter_f32.c **** 
 175:Middlewares/Third_Party/ARM_CMSIS/CMSIS/DSP/Source/SupportFunctions/arm_barycenter_f32.c ****     blkCntSample = vecDim >> 2;
 176:Middlewares/Third_Party/ARM_CMSIS/CMSIS/DSP/Source/SupportFunctions/arm_barycenter_f32.c ****     while (blkCntSample > 0) 
 177:Middlewares/Third_Party/ARM_CMSIS/CMSIS/DSP/Source/SupportFunctions/arm_barycenter_f32.c ****     {
 178:Middlewares/Third_Party/ARM_CMSIS/CMSIS/DSP/Source/SupportFunctions/arm_barycenter_f32.c ****         f32x4_t         tmp;
 179:Middlewares/Third_Party/ARM_CMSIS/CMSIS/DSP/Source/SupportFunctions/arm_barycenter_f32.c **** 
 180:Middlewares/Third_Party/ARM_CMSIS/CMSIS/DSP/Source/SupportFunctions/arm_barycenter_f32.c ****         tmp = vld1q((const float32_t *) pOut);
 181:Middlewares/Third_Party/ARM_CMSIS/CMSIS/DSP/Source/SupportFunctions/arm_barycenter_f32.c ****         tmp = vmulq(tmp, accum);
 182:Middlewares/Third_Party/ARM_CMSIS/CMSIS/DSP/Source/SupportFunctions/arm_barycenter_f32.c ****         vst1q(pOut, tmp);
 183:Middlewares/Third_Party/ARM_CMSIS/CMSIS/DSP/Source/SupportFunctions/arm_barycenter_f32.c ****         pOut += 4;
 184:Middlewares/Third_Party/ARM_CMSIS/CMSIS/DSP/Source/SupportFunctions/arm_barycenter_f32.c ****         blkCntSample--;
 185:Middlewares/Third_Party/ARM_CMSIS/CMSIS/DSP/Source/SupportFunctions/arm_barycenter_f32.c ****     }
 186:Middlewares/Third_Party/ARM_CMSIS/CMSIS/DSP/Source/SupportFunctions/arm_barycenter_f32.c **** 
 187:Middlewares/Third_Party/ARM_CMSIS/CMSIS/DSP/Source/SupportFunctions/arm_barycenter_f32.c ****     blkCntSample = vecDim & 3;
 188:Middlewares/Third_Party/ARM_CMSIS/CMSIS/DSP/Source/SupportFunctions/arm_barycenter_f32.c ****     while (blkCntSample > 0) 
 189:Middlewares/Third_Party/ARM_CMSIS/CMSIS/DSP/Source/SupportFunctions/arm_barycenter_f32.c ****     {
ARM GAS  C:\Users\7636~1\AppData\Local\Temp\ccIWThgb.s 			page 25


 190:Middlewares/Third_Party/ARM_CMSIS/CMSIS/DSP/Source/SupportFunctions/arm_barycenter_f32.c ****         *pOut = *pOut * accum;
 191:Middlewares/Third_Party/ARM_CMSIS/CMSIS/DSP/Source/SupportFunctions/arm_barycenter_f32.c ****         pOut++;
 192:Middlewares/Third_Party/ARM_CMSIS/CMSIS/DSP/Source/SupportFunctions/arm_barycenter_f32.c ****         blkCntSample--;
 193:Middlewares/Third_Party/ARM_CMSIS/CMSIS/DSP/Source/SupportFunctions/arm_barycenter_f32.c ****     }
 194:Middlewares/Third_Party/ARM_CMSIS/CMSIS/DSP/Source/SupportFunctions/arm_barycenter_f32.c **** }
 195:Middlewares/Third_Party/ARM_CMSIS/CMSIS/DSP/Source/SupportFunctions/arm_barycenter_f32.c **** #else
 196:Middlewares/Third_Party/ARM_CMSIS/CMSIS/DSP/Source/SupportFunctions/arm_barycenter_f32.c **** #if defined(ARM_MATH_NEON)
 197:Middlewares/Third_Party/ARM_CMSIS/CMSIS/DSP/Source/SupportFunctions/arm_barycenter_f32.c **** 
 198:Middlewares/Third_Party/ARM_CMSIS/CMSIS/DSP/Source/SupportFunctions/arm_barycenter_f32.c **** #include "NEMath.h"
 199:Middlewares/Third_Party/ARM_CMSIS/CMSIS/DSP/Source/SupportFunctions/arm_barycenter_f32.c **** void arm_barycenter_f32(const float32_t *in, const float32_t *weights, float32_t *out, uint32_t nbV
 200:Middlewares/Third_Party/ARM_CMSIS/CMSIS/DSP/Source/SupportFunctions/arm_barycenter_f32.c **** {
 201:Middlewares/Third_Party/ARM_CMSIS/CMSIS/DSP/Source/SupportFunctions/arm_barycenter_f32.c **** 
 202:Middlewares/Third_Party/ARM_CMSIS/CMSIS/DSP/Source/SupportFunctions/arm_barycenter_f32.c ****    const float32_t *pIn,*pW, *pIn1, *pIn2, *pIn3, *pIn4;
 203:Middlewares/Third_Party/ARM_CMSIS/CMSIS/DSP/Source/SupportFunctions/arm_barycenter_f32.c ****    float32_t *pOut;
 204:Middlewares/Third_Party/ARM_CMSIS/CMSIS/DSP/Source/SupportFunctions/arm_barycenter_f32.c ****    uint32_t blkCntVector,blkCntSample;
 205:Middlewares/Third_Party/ARM_CMSIS/CMSIS/DSP/Source/SupportFunctions/arm_barycenter_f32.c ****    float32_t accum, w,w1,w2,w3,w4;
 206:Middlewares/Third_Party/ARM_CMSIS/CMSIS/DSP/Source/SupportFunctions/arm_barycenter_f32.c **** 
 207:Middlewares/Third_Party/ARM_CMSIS/CMSIS/DSP/Source/SupportFunctions/arm_barycenter_f32.c ****    float32x4_t tmp, inV,outV, inV1, inV2, inV3, inV4;
 208:Middlewares/Third_Party/ARM_CMSIS/CMSIS/DSP/Source/SupportFunctions/arm_barycenter_f32.c **** 
 209:Middlewares/Third_Party/ARM_CMSIS/CMSIS/DSP/Source/SupportFunctions/arm_barycenter_f32.c ****    blkCntVector = nbVectors;
 210:Middlewares/Third_Party/ARM_CMSIS/CMSIS/DSP/Source/SupportFunctions/arm_barycenter_f32.c ****    blkCntSample = vecDim;
 211:Middlewares/Third_Party/ARM_CMSIS/CMSIS/DSP/Source/SupportFunctions/arm_barycenter_f32.c **** 
 212:Middlewares/Third_Party/ARM_CMSIS/CMSIS/DSP/Source/SupportFunctions/arm_barycenter_f32.c ****    accum = 0.0f;
 213:Middlewares/Third_Party/ARM_CMSIS/CMSIS/DSP/Source/SupportFunctions/arm_barycenter_f32.c **** 
 214:Middlewares/Third_Party/ARM_CMSIS/CMSIS/DSP/Source/SupportFunctions/arm_barycenter_f32.c ****    pW = weights;
 215:Middlewares/Third_Party/ARM_CMSIS/CMSIS/DSP/Source/SupportFunctions/arm_barycenter_f32.c ****    pIn = in;
 216:Middlewares/Third_Party/ARM_CMSIS/CMSIS/DSP/Source/SupportFunctions/arm_barycenter_f32.c **** 
 217:Middlewares/Third_Party/ARM_CMSIS/CMSIS/DSP/Source/SupportFunctions/arm_barycenter_f32.c ****    /* Set counters to 0 */
 218:Middlewares/Third_Party/ARM_CMSIS/CMSIS/DSP/Source/SupportFunctions/arm_barycenter_f32.c ****    tmp = vdupq_n_f32(0.0f);
 219:Middlewares/Third_Party/ARM_CMSIS/CMSIS/DSP/Source/SupportFunctions/arm_barycenter_f32.c ****    pOut = out;
 220:Middlewares/Third_Party/ARM_CMSIS/CMSIS/DSP/Source/SupportFunctions/arm_barycenter_f32.c **** 
 221:Middlewares/Third_Party/ARM_CMSIS/CMSIS/DSP/Source/SupportFunctions/arm_barycenter_f32.c ****    blkCntSample = vecDim >> 2;
 222:Middlewares/Third_Party/ARM_CMSIS/CMSIS/DSP/Source/SupportFunctions/arm_barycenter_f32.c ****    while(blkCntSample > 0)
 223:Middlewares/Third_Party/ARM_CMSIS/CMSIS/DSP/Source/SupportFunctions/arm_barycenter_f32.c ****    {
 224:Middlewares/Third_Party/ARM_CMSIS/CMSIS/DSP/Source/SupportFunctions/arm_barycenter_f32.c ****          vst1q_f32(pOut, tmp);
 225:Middlewares/Third_Party/ARM_CMSIS/CMSIS/DSP/Source/SupportFunctions/arm_barycenter_f32.c ****          pOut += 4;
 226:Middlewares/Third_Party/ARM_CMSIS/CMSIS/DSP/Source/SupportFunctions/arm_barycenter_f32.c ****          blkCntSample--;
 227:Middlewares/Third_Party/ARM_CMSIS/CMSIS/DSP/Source/SupportFunctions/arm_barycenter_f32.c ****    }
 228:Middlewares/Third_Party/ARM_CMSIS/CMSIS/DSP/Source/SupportFunctions/arm_barycenter_f32.c **** 
 229:Middlewares/Third_Party/ARM_CMSIS/CMSIS/DSP/Source/SupportFunctions/arm_barycenter_f32.c ****    blkCntSample = vecDim & 3;
 230:Middlewares/Third_Party/ARM_CMSIS/CMSIS/DSP/Source/SupportFunctions/arm_barycenter_f32.c ****    while(blkCntSample > 0)
 231:Middlewares/Third_Party/ARM_CMSIS/CMSIS/DSP/Source/SupportFunctions/arm_barycenter_f32.c ****    {
 232:Middlewares/Third_Party/ARM_CMSIS/CMSIS/DSP/Source/SupportFunctions/arm_barycenter_f32.c ****          *pOut = 0.0f;
 233:Middlewares/Third_Party/ARM_CMSIS/CMSIS/DSP/Source/SupportFunctions/arm_barycenter_f32.c ****          pOut++;
 234:Middlewares/Third_Party/ARM_CMSIS/CMSIS/DSP/Source/SupportFunctions/arm_barycenter_f32.c ****          blkCntSample--;
 235:Middlewares/Third_Party/ARM_CMSIS/CMSIS/DSP/Source/SupportFunctions/arm_barycenter_f32.c ****    }
 236:Middlewares/Third_Party/ARM_CMSIS/CMSIS/DSP/Source/SupportFunctions/arm_barycenter_f32.c **** 
 237:Middlewares/Third_Party/ARM_CMSIS/CMSIS/DSP/Source/SupportFunctions/arm_barycenter_f32.c ****    /* Sum */
 238:Middlewares/Third_Party/ARM_CMSIS/CMSIS/DSP/Source/SupportFunctions/arm_barycenter_f32.c ****   
 239:Middlewares/Third_Party/ARM_CMSIS/CMSIS/DSP/Source/SupportFunctions/arm_barycenter_f32.c ****    pIn1 = pIn;
 240:Middlewares/Third_Party/ARM_CMSIS/CMSIS/DSP/Source/SupportFunctions/arm_barycenter_f32.c ****    pIn2 = pIn1 + vecDim;
 241:Middlewares/Third_Party/ARM_CMSIS/CMSIS/DSP/Source/SupportFunctions/arm_barycenter_f32.c ****    pIn3 = pIn2 + vecDim;
 242:Middlewares/Third_Party/ARM_CMSIS/CMSIS/DSP/Source/SupportFunctions/arm_barycenter_f32.c ****    pIn4 = pIn3 + vecDim;
 243:Middlewares/Third_Party/ARM_CMSIS/CMSIS/DSP/Source/SupportFunctions/arm_barycenter_f32.c ****    
 244:Middlewares/Third_Party/ARM_CMSIS/CMSIS/DSP/Source/SupportFunctions/arm_barycenter_f32.c ****    blkCntVector = nbVectors >> 2;
 245:Middlewares/Third_Party/ARM_CMSIS/CMSIS/DSP/Source/SupportFunctions/arm_barycenter_f32.c ****    while(blkCntVector > 0)
 246:Middlewares/Third_Party/ARM_CMSIS/CMSIS/DSP/Source/SupportFunctions/arm_barycenter_f32.c ****    {
ARM GAS  C:\Users\7636~1\AppData\Local\Temp\ccIWThgb.s 			page 26


 247:Middlewares/Third_Party/ARM_CMSIS/CMSIS/DSP/Source/SupportFunctions/arm_barycenter_f32.c ****       pOut = out;
 248:Middlewares/Third_Party/ARM_CMSIS/CMSIS/DSP/Source/SupportFunctions/arm_barycenter_f32.c ****       w1 = *pW++;
 249:Middlewares/Third_Party/ARM_CMSIS/CMSIS/DSP/Source/SupportFunctions/arm_barycenter_f32.c ****       w2 = *pW++;
 250:Middlewares/Third_Party/ARM_CMSIS/CMSIS/DSP/Source/SupportFunctions/arm_barycenter_f32.c ****       w3 = *pW++;
 251:Middlewares/Third_Party/ARM_CMSIS/CMSIS/DSP/Source/SupportFunctions/arm_barycenter_f32.c ****       w4 = *pW++;
 252:Middlewares/Third_Party/ARM_CMSIS/CMSIS/DSP/Source/SupportFunctions/arm_barycenter_f32.c ****       accum += w1 + w2 + w3 + w4;
 253:Middlewares/Third_Party/ARM_CMSIS/CMSIS/DSP/Source/SupportFunctions/arm_barycenter_f32.c **** 
 254:Middlewares/Third_Party/ARM_CMSIS/CMSIS/DSP/Source/SupportFunctions/arm_barycenter_f32.c ****       blkCntSample = vecDim >> 2;
 255:Middlewares/Third_Party/ARM_CMSIS/CMSIS/DSP/Source/SupportFunctions/arm_barycenter_f32.c ****       while(blkCntSample > 0)
 256:Middlewares/Third_Party/ARM_CMSIS/CMSIS/DSP/Source/SupportFunctions/arm_barycenter_f32.c ****       {
 257:Middlewares/Third_Party/ARM_CMSIS/CMSIS/DSP/Source/SupportFunctions/arm_barycenter_f32.c ****           outV = vld1q_f32(pOut);
 258:Middlewares/Third_Party/ARM_CMSIS/CMSIS/DSP/Source/SupportFunctions/arm_barycenter_f32.c ****           inV1 = vld1q_f32(pIn1);
 259:Middlewares/Third_Party/ARM_CMSIS/CMSIS/DSP/Source/SupportFunctions/arm_barycenter_f32.c ****           inV2 = vld1q_f32(pIn2);
 260:Middlewares/Third_Party/ARM_CMSIS/CMSIS/DSP/Source/SupportFunctions/arm_barycenter_f32.c ****           inV3 = vld1q_f32(pIn3);
 261:Middlewares/Third_Party/ARM_CMSIS/CMSIS/DSP/Source/SupportFunctions/arm_barycenter_f32.c ****           inV4 = vld1q_f32(pIn4);
 262:Middlewares/Third_Party/ARM_CMSIS/CMSIS/DSP/Source/SupportFunctions/arm_barycenter_f32.c ****           outV = vmlaq_n_f32(outV,inV1,w1);
 263:Middlewares/Third_Party/ARM_CMSIS/CMSIS/DSP/Source/SupportFunctions/arm_barycenter_f32.c ****           outV = vmlaq_n_f32(outV,inV2,w2);
 264:Middlewares/Third_Party/ARM_CMSIS/CMSIS/DSP/Source/SupportFunctions/arm_barycenter_f32.c ****           outV = vmlaq_n_f32(outV,inV3,w3);
 265:Middlewares/Third_Party/ARM_CMSIS/CMSIS/DSP/Source/SupportFunctions/arm_barycenter_f32.c ****           outV = vmlaq_n_f32(outV,inV4,w4);
 266:Middlewares/Third_Party/ARM_CMSIS/CMSIS/DSP/Source/SupportFunctions/arm_barycenter_f32.c ****           vst1q_f32(pOut, outV);
 267:Middlewares/Third_Party/ARM_CMSIS/CMSIS/DSP/Source/SupportFunctions/arm_barycenter_f32.c ****           pOut += 4;
 268:Middlewares/Third_Party/ARM_CMSIS/CMSIS/DSP/Source/SupportFunctions/arm_barycenter_f32.c ****           pIn1 += 4;
 269:Middlewares/Third_Party/ARM_CMSIS/CMSIS/DSP/Source/SupportFunctions/arm_barycenter_f32.c ****           pIn2 += 4;
 270:Middlewares/Third_Party/ARM_CMSIS/CMSIS/DSP/Source/SupportFunctions/arm_barycenter_f32.c ****           pIn3 += 4;
 271:Middlewares/Third_Party/ARM_CMSIS/CMSIS/DSP/Source/SupportFunctions/arm_barycenter_f32.c ****           pIn4 += 4;
 272:Middlewares/Third_Party/ARM_CMSIS/CMSIS/DSP/Source/SupportFunctions/arm_barycenter_f32.c **** 
 273:Middlewares/Third_Party/ARM_CMSIS/CMSIS/DSP/Source/SupportFunctions/arm_barycenter_f32.c ****           blkCntSample--;
 274:Middlewares/Third_Party/ARM_CMSIS/CMSIS/DSP/Source/SupportFunctions/arm_barycenter_f32.c ****       }
 275:Middlewares/Third_Party/ARM_CMSIS/CMSIS/DSP/Source/SupportFunctions/arm_barycenter_f32.c **** 
 276:Middlewares/Third_Party/ARM_CMSIS/CMSIS/DSP/Source/SupportFunctions/arm_barycenter_f32.c ****       blkCntSample = vecDim & 3;
 277:Middlewares/Third_Party/ARM_CMSIS/CMSIS/DSP/Source/SupportFunctions/arm_barycenter_f32.c ****       while(blkCntSample > 0)
 278:Middlewares/Third_Party/ARM_CMSIS/CMSIS/DSP/Source/SupportFunctions/arm_barycenter_f32.c ****       {
 279:Middlewares/Third_Party/ARM_CMSIS/CMSIS/DSP/Source/SupportFunctions/arm_barycenter_f32.c ****           *pOut = *pOut + *pIn1++ * w1;
 280:Middlewares/Third_Party/ARM_CMSIS/CMSIS/DSP/Source/SupportFunctions/arm_barycenter_f32.c ****           *pOut = *pOut + *pIn2++ * w2;
 281:Middlewares/Third_Party/ARM_CMSIS/CMSIS/DSP/Source/SupportFunctions/arm_barycenter_f32.c ****           *pOut = *pOut + *pIn3++ * w3;
 282:Middlewares/Third_Party/ARM_CMSIS/CMSIS/DSP/Source/SupportFunctions/arm_barycenter_f32.c ****           *pOut = *pOut + *pIn4++ * w4;
 283:Middlewares/Third_Party/ARM_CMSIS/CMSIS/DSP/Source/SupportFunctions/arm_barycenter_f32.c ****           pOut++;
 284:Middlewares/Third_Party/ARM_CMSIS/CMSIS/DSP/Source/SupportFunctions/arm_barycenter_f32.c ****           blkCntSample--;
 285:Middlewares/Third_Party/ARM_CMSIS/CMSIS/DSP/Source/SupportFunctions/arm_barycenter_f32.c ****       }
 286:Middlewares/Third_Party/ARM_CMSIS/CMSIS/DSP/Source/SupportFunctions/arm_barycenter_f32.c **** 
 287:Middlewares/Third_Party/ARM_CMSIS/CMSIS/DSP/Source/SupportFunctions/arm_barycenter_f32.c ****       pIn1 += 3*vecDim;
 288:Middlewares/Third_Party/ARM_CMSIS/CMSIS/DSP/Source/SupportFunctions/arm_barycenter_f32.c ****       pIn2 += 3*vecDim;
 289:Middlewares/Third_Party/ARM_CMSIS/CMSIS/DSP/Source/SupportFunctions/arm_barycenter_f32.c ****       pIn3 += 3*vecDim;
 290:Middlewares/Third_Party/ARM_CMSIS/CMSIS/DSP/Source/SupportFunctions/arm_barycenter_f32.c ****       pIn4 += 3*vecDim;
 291:Middlewares/Third_Party/ARM_CMSIS/CMSIS/DSP/Source/SupportFunctions/arm_barycenter_f32.c **** 
 292:Middlewares/Third_Party/ARM_CMSIS/CMSIS/DSP/Source/SupportFunctions/arm_barycenter_f32.c ****       blkCntVector--;
 293:Middlewares/Third_Party/ARM_CMSIS/CMSIS/DSP/Source/SupportFunctions/arm_barycenter_f32.c ****    }
 294:Middlewares/Third_Party/ARM_CMSIS/CMSIS/DSP/Source/SupportFunctions/arm_barycenter_f32.c **** 
 295:Middlewares/Third_Party/ARM_CMSIS/CMSIS/DSP/Source/SupportFunctions/arm_barycenter_f32.c ****    pIn = pIn1;
 296:Middlewares/Third_Party/ARM_CMSIS/CMSIS/DSP/Source/SupportFunctions/arm_barycenter_f32.c **** 
 297:Middlewares/Third_Party/ARM_CMSIS/CMSIS/DSP/Source/SupportFunctions/arm_barycenter_f32.c ****    blkCntVector = nbVectors & 3;
 298:Middlewares/Third_Party/ARM_CMSIS/CMSIS/DSP/Source/SupportFunctions/arm_barycenter_f32.c ****    while(blkCntVector > 0)
 299:Middlewares/Third_Party/ARM_CMSIS/CMSIS/DSP/Source/SupportFunctions/arm_barycenter_f32.c ****    {
 300:Middlewares/Third_Party/ARM_CMSIS/CMSIS/DSP/Source/SupportFunctions/arm_barycenter_f32.c ****       pOut = out;
 301:Middlewares/Third_Party/ARM_CMSIS/CMSIS/DSP/Source/SupportFunctions/arm_barycenter_f32.c ****       w = *pW++;
 302:Middlewares/Third_Party/ARM_CMSIS/CMSIS/DSP/Source/SupportFunctions/arm_barycenter_f32.c ****       accum += w;
 303:Middlewares/Third_Party/ARM_CMSIS/CMSIS/DSP/Source/SupportFunctions/arm_barycenter_f32.c **** 
ARM GAS  C:\Users\7636~1\AppData\Local\Temp\ccIWThgb.s 			page 27


 304:Middlewares/Third_Party/ARM_CMSIS/CMSIS/DSP/Source/SupportFunctions/arm_barycenter_f32.c ****       blkCntSample = vecDim >> 2;
 305:Middlewares/Third_Party/ARM_CMSIS/CMSIS/DSP/Source/SupportFunctions/arm_barycenter_f32.c ****       while(blkCntSample > 0)
 306:Middlewares/Third_Party/ARM_CMSIS/CMSIS/DSP/Source/SupportFunctions/arm_barycenter_f32.c ****       {
 307:Middlewares/Third_Party/ARM_CMSIS/CMSIS/DSP/Source/SupportFunctions/arm_barycenter_f32.c ****           outV = vld1q_f32(pOut);
 308:Middlewares/Third_Party/ARM_CMSIS/CMSIS/DSP/Source/SupportFunctions/arm_barycenter_f32.c ****           inV = vld1q_f32(pIn);
 309:Middlewares/Third_Party/ARM_CMSIS/CMSIS/DSP/Source/SupportFunctions/arm_barycenter_f32.c ****           outV = vmlaq_n_f32(outV,inV,w);
 310:Middlewares/Third_Party/ARM_CMSIS/CMSIS/DSP/Source/SupportFunctions/arm_barycenter_f32.c ****           vst1q_f32(pOut, outV);
 311:Middlewares/Third_Party/ARM_CMSIS/CMSIS/DSP/Source/SupportFunctions/arm_barycenter_f32.c ****           pOut += 4;
 312:Middlewares/Third_Party/ARM_CMSIS/CMSIS/DSP/Source/SupportFunctions/arm_barycenter_f32.c ****           pIn += 4;
 313:Middlewares/Third_Party/ARM_CMSIS/CMSIS/DSP/Source/SupportFunctions/arm_barycenter_f32.c **** 
 314:Middlewares/Third_Party/ARM_CMSIS/CMSIS/DSP/Source/SupportFunctions/arm_barycenter_f32.c ****           blkCntSample--;
 315:Middlewares/Third_Party/ARM_CMSIS/CMSIS/DSP/Source/SupportFunctions/arm_barycenter_f32.c ****       }
 316:Middlewares/Third_Party/ARM_CMSIS/CMSIS/DSP/Source/SupportFunctions/arm_barycenter_f32.c ****       
 317:Middlewares/Third_Party/ARM_CMSIS/CMSIS/DSP/Source/SupportFunctions/arm_barycenter_f32.c ****       blkCntSample = vecDim & 3;
 318:Middlewares/Third_Party/ARM_CMSIS/CMSIS/DSP/Source/SupportFunctions/arm_barycenter_f32.c ****       while(blkCntSample > 0)
 319:Middlewares/Third_Party/ARM_CMSIS/CMSIS/DSP/Source/SupportFunctions/arm_barycenter_f32.c ****       {
 320:Middlewares/Third_Party/ARM_CMSIS/CMSIS/DSP/Source/SupportFunctions/arm_barycenter_f32.c ****           *pOut = *pOut + *pIn++ * w;
 321:Middlewares/Third_Party/ARM_CMSIS/CMSIS/DSP/Source/SupportFunctions/arm_barycenter_f32.c ****           pOut++;
 322:Middlewares/Third_Party/ARM_CMSIS/CMSIS/DSP/Source/SupportFunctions/arm_barycenter_f32.c ****           blkCntSample--;
 323:Middlewares/Third_Party/ARM_CMSIS/CMSIS/DSP/Source/SupportFunctions/arm_barycenter_f32.c ****       }
 324:Middlewares/Third_Party/ARM_CMSIS/CMSIS/DSP/Source/SupportFunctions/arm_barycenter_f32.c **** 
 325:Middlewares/Third_Party/ARM_CMSIS/CMSIS/DSP/Source/SupportFunctions/arm_barycenter_f32.c ****       blkCntVector--;
 326:Middlewares/Third_Party/ARM_CMSIS/CMSIS/DSP/Source/SupportFunctions/arm_barycenter_f32.c ****    }
 327:Middlewares/Third_Party/ARM_CMSIS/CMSIS/DSP/Source/SupportFunctions/arm_barycenter_f32.c **** 
 328:Middlewares/Third_Party/ARM_CMSIS/CMSIS/DSP/Source/SupportFunctions/arm_barycenter_f32.c ****    /* Normalize */
 329:Middlewares/Third_Party/ARM_CMSIS/CMSIS/DSP/Source/SupportFunctions/arm_barycenter_f32.c ****    pOut = out;
 330:Middlewares/Third_Party/ARM_CMSIS/CMSIS/DSP/Source/SupportFunctions/arm_barycenter_f32.c ****    accum = 1.0f / accum;
 331:Middlewares/Third_Party/ARM_CMSIS/CMSIS/DSP/Source/SupportFunctions/arm_barycenter_f32.c **** 
 332:Middlewares/Third_Party/ARM_CMSIS/CMSIS/DSP/Source/SupportFunctions/arm_barycenter_f32.c ****    blkCntSample = vecDim >> 2;
 333:Middlewares/Third_Party/ARM_CMSIS/CMSIS/DSP/Source/SupportFunctions/arm_barycenter_f32.c ****    while(blkCntSample > 0)
 334:Middlewares/Third_Party/ARM_CMSIS/CMSIS/DSP/Source/SupportFunctions/arm_barycenter_f32.c ****    {
 335:Middlewares/Third_Party/ARM_CMSIS/CMSIS/DSP/Source/SupportFunctions/arm_barycenter_f32.c ****          tmp = vld1q_f32(pOut);
 336:Middlewares/Third_Party/ARM_CMSIS/CMSIS/DSP/Source/SupportFunctions/arm_barycenter_f32.c ****          tmp = vmulq_n_f32(tmp,accum);
 337:Middlewares/Third_Party/ARM_CMSIS/CMSIS/DSP/Source/SupportFunctions/arm_barycenter_f32.c ****          vst1q_f32(pOut, tmp);
 338:Middlewares/Third_Party/ARM_CMSIS/CMSIS/DSP/Source/SupportFunctions/arm_barycenter_f32.c ****          pOut += 4;
 339:Middlewares/Third_Party/ARM_CMSIS/CMSIS/DSP/Source/SupportFunctions/arm_barycenter_f32.c ****          blkCntSample--;
 340:Middlewares/Third_Party/ARM_CMSIS/CMSIS/DSP/Source/SupportFunctions/arm_barycenter_f32.c ****    }
 341:Middlewares/Third_Party/ARM_CMSIS/CMSIS/DSP/Source/SupportFunctions/arm_barycenter_f32.c **** 
 342:Middlewares/Third_Party/ARM_CMSIS/CMSIS/DSP/Source/SupportFunctions/arm_barycenter_f32.c ****    blkCntSample = vecDim & 3;
 343:Middlewares/Third_Party/ARM_CMSIS/CMSIS/DSP/Source/SupportFunctions/arm_barycenter_f32.c ****    while(blkCntSample > 0)
 344:Middlewares/Third_Party/ARM_CMSIS/CMSIS/DSP/Source/SupportFunctions/arm_barycenter_f32.c ****    {
 345:Middlewares/Third_Party/ARM_CMSIS/CMSIS/DSP/Source/SupportFunctions/arm_barycenter_f32.c ****          *pOut = *pOut * accum;
 346:Middlewares/Third_Party/ARM_CMSIS/CMSIS/DSP/Source/SupportFunctions/arm_barycenter_f32.c ****          pOut++;
 347:Middlewares/Third_Party/ARM_CMSIS/CMSIS/DSP/Source/SupportFunctions/arm_barycenter_f32.c ****          blkCntSample--;
 348:Middlewares/Third_Party/ARM_CMSIS/CMSIS/DSP/Source/SupportFunctions/arm_barycenter_f32.c ****    }
 349:Middlewares/Third_Party/ARM_CMSIS/CMSIS/DSP/Source/SupportFunctions/arm_barycenter_f32.c **** 
 350:Middlewares/Third_Party/ARM_CMSIS/CMSIS/DSP/Source/SupportFunctions/arm_barycenter_f32.c **** }
 351:Middlewares/Third_Party/ARM_CMSIS/CMSIS/DSP/Source/SupportFunctions/arm_barycenter_f32.c **** #else
 352:Middlewares/Third_Party/ARM_CMSIS/CMSIS/DSP/Source/SupportFunctions/arm_barycenter_f32.c **** void arm_barycenter_f32(const float32_t *in, const float32_t *weights, float32_t *out, uint32_t nbV
 353:Middlewares/Third_Party/ARM_CMSIS/CMSIS/DSP/Source/SupportFunctions/arm_barycenter_f32.c **** {
 754              		.loc 5 353 1 is_stmt 1 view -0
 755              		.cfi_startproc
 756              		@ args = 4, pretend = 0, frame = 0
 757              		@ frame_needed = 0, uses_anonymous_args = 0
 758              		.loc 5 353 1 is_stmt 0 view .LVU235
 759 0000 10B5     		push	{r4, lr}
 760              	.LCFI9:
ARM GAS  C:\Users\7636~1\AppData\Local\Temp\ccIWThgb.s 			page 28


 761              		.cfi_def_cfa_offset 8
 762              		.cfi_offset 4, -8
 763              		.cfi_offset 14, -4
 764 0002 8E46     		mov	lr, r1
 765 0004 1C46     		mov	r4, r3
 766 0006 029B     		ldr	r3, [sp, #8]
 767              	.LVL77:
 354:Middlewares/Third_Party/ARM_CMSIS/CMSIS/DSP/Source/SupportFunctions/arm_barycenter_f32.c **** 
 355:Middlewares/Third_Party/ARM_CMSIS/CMSIS/DSP/Source/SupportFunctions/arm_barycenter_f32.c ****    const float32_t *pIn,*pW;
 768              		.loc 5 355 4 is_stmt 1 view .LVU236
 356:Middlewares/Third_Party/ARM_CMSIS/CMSIS/DSP/Source/SupportFunctions/arm_barycenter_f32.c ****    float32_t *pOut;
 769              		.loc 5 356 4 view .LVU237
 357:Middlewares/Third_Party/ARM_CMSIS/CMSIS/DSP/Source/SupportFunctions/arm_barycenter_f32.c ****    uint32_t blkCntVector,blkCntSample;
 770              		.loc 5 357 4 view .LVU238
 358:Middlewares/Third_Party/ARM_CMSIS/CMSIS/DSP/Source/SupportFunctions/arm_barycenter_f32.c ****    float32_t accum, w;
 771              		.loc 5 358 4 view .LVU239
 359:Middlewares/Third_Party/ARM_CMSIS/CMSIS/DSP/Source/SupportFunctions/arm_barycenter_f32.c **** 
 360:Middlewares/Third_Party/ARM_CMSIS/CMSIS/DSP/Source/SupportFunctions/arm_barycenter_f32.c ****    blkCntVector = nbVectors;
 772              		.loc 5 360 4 view .LVU240
 361:Middlewares/Third_Party/ARM_CMSIS/CMSIS/DSP/Source/SupportFunctions/arm_barycenter_f32.c ****    blkCntSample = vecDim;
 773              		.loc 5 361 4 view .LVU241
 362:Middlewares/Third_Party/ARM_CMSIS/CMSIS/DSP/Source/SupportFunctions/arm_barycenter_f32.c **** 
 363:Middlewares/Third_Party/ARM_CMSIS/CMSIS/DSP/Source/SupportFunctions/arm_barycenter_f32.c ****    accum = 0.0f;
 774              		.loc 5 363 4 view .LVU242
 364:Middlewares/Third_Party/ARM_CMSIS/CMSIS/DSP/Source/SupportFunctions/arm_barycenter_f32.c **** 
 365:Middlewares/Third_Party/ARM_CMSIS/CMSIS/DSP/Source/SupportFunctions/arm_barycenter_f32.c ****    pW = weights;
 775              		.loc 5 365 4 view .LVU243
 366:Middlewares/Third_Party/ARM_CMSIS/CMSIS/DSP/Source/SupportFunctions/arm_barycenter_f32.c ****    pIn = in;
 776              		.loc 5 366 4 view .LVU244
 367:Middlewares/Third_Party/ARM_CMSIS/CMSIS/DSP/Source/SupportFunctions/arm_barycenter_f32.c **** 
 368:Middlewares/Third_Party/ARM_CMSIS/CMSIS/DSP/Source/SupportFunctions/arm_barycenter_f32.c ****    /* Set counters to 0 */
 369:Middlewares/Third_Party/ARM_CMSIS/CMSIS/DSP/Source/SupportFunctions/arm_barycenter_f32.c ****    blkCntSample = vecDim;
 777              		.loc 5 369 4 view .LVU245
 370:Middlewares/Third_Party/ARM_CMSIS/CMSIS/DSP/Source/SupportFunctions/arm_barycenter_f32.c ****    pOut = out;
 778              		.loc 5 370 4 view .LVU246
 371:Middlewares/Third_Party/ARM_CMSIS/CMSIS/DSP/Source/SupportFunctions/arm_barycenter_f32.c **** 
 372:Middlewares/Third_Party/ARM_CMSIS/CMSIS/DSP/Source/SupportFunctions/arm_barycenter_f32.c ****    while(blkCntSample > 0)
 779              		.loc 5 372 4 view .LVU247
 369:Middlewares/Third_Party/ARM_CMSIS/CMSIS/DSP/Source/SupportFunctions/arm_barycenter_f32.c ****    pOut = out;
 780              		.loc 5 369 17 is_stmt 0 view .LVU248
 781 0008 1946     		mov	r1, r3
 782              	.LVL78:
 370:Middlewares/Third_Party/ARM_CMSIS/CMSIS/DSP/Source/SupportFunctions/arm_barycenter_f32.c ****    pOut = out;
 783              		.loc 5 370 9 view .LVU249
 784 000a 9446     		mov	ip, r2
 785              		.loc 5 372 9 view .LVU250
 786 000c 04E0     		b	.L65
 787              	.LVL79:
 788              	.L66:
 373:Middlewares/Third_Party/ARM_CMSIS/CMSIS/DSP/Source/SupportFunctions/arm_barycenter_f32.c ****    {
 374:Middlewares/Third_Party/ARM_CMSIS/CMSIS/DSP/Source/SupportFunctions/arm_barycenter_f32.c ****          *pOut = 0.0f;
 789              		.loc 5 374 10 is_stmt 1 view .LVU251
 790              		.loc 5 374 16 is_stmt 0 view .LVU252
 791 000e DFED157A 		vldr.32	s15, .L74
 792 0012 ECEC017A 		vstmia.32	ip!, {s15}
 793              	.LVL80:
 375:Middlewares/Third_Party/ARM_CMSIS/CMSIS/DSP/Source/SupportFunctions/arm_barycenter_f32.c ****          pOut++;
ARM GAS  C:\Users\7636~1\AppData\Local\Temp\ccIWThgb.s 			page 29


 794              		.loc 5 375 10 is_stmt 1 view .LVU253
 376:Middlewares/Third_Party/ARM_CMSIS/CMSIS/DSP/Source/SupportFunctions/arm_barycenter_f32.c ****          blkCntSample--;
 795              		.loc 5 376 10 view .LVU254
 796              		.loc 5 376 22 is_stmt 0 view .LVU255
 797 0016 0139     		subs	r1, r1, #1
 798              	.LVL81:
 799              	.L65:
 372:Middlewares/Third_Party/ARM_CMSIS/CMSIS/DSP/Source/SupportFunctions/arm_barycenter_f32.c ****    {
 800              		.loc 5 372 9 is_stmt 1 view .LVU256
 801 0018 0029     		cmp	r1, #0
 802 001a F8D1     		bne	.L66
 363:Middlewares/Third_Party/ARM_CMSIS/CMSIS/DSP/Source/SupportFunctions/arm_barycenter_f32.c **** 
 803              		.loc 5 363 10 is_stmt 0 view .LVU257
 804 001c 9FED116A 		vldr.32	s12, .L74
 805 0020 0DE0     		b	.L67
 806              	.LVL82:
 807              	.L69:
 377:Middlewares/Third_Party/ARM_CMSIS/CMSIS/DSP/Source/SupportFunctions/arm_barycenter_f32.c ****    }
 378:Middlewares/Third_Party/ARM_CMSIS/CMSIS/DSP/Source/SupportFunctions/arm_barycenter_f32.c **** 
 379:Middlewares/Third_Party/ARM_CMSIS/CMSIS/DSP/Source/SupportFunctions/arm_barycenter_f32.c ****    /* Sum */
 380:Middlewares/Third_Party/ARM_CMSIS/CMSIS/DSP/Source/SupportFunctions/arm_barycenter_f32.c ****    while(blkCntVector > 0)
 381:Middlewares/Third_Party/ARM_CMSIS/CMSIS/DSP/Source/SupportFunctions/arm_barycenter_f32.c ****    {
 382:Middlewares/Third_Party/ARM_CMSIS/CMSIS/DSP/Source/SupportFunctions/arm_barycenter_f32.c ****       pOut = out;
 383:Middlewares/Third_Party/ARM_CMSIS/CMSIS/DSP/Source/SupportFunctions/arm_barycenter_f32.c ****       w = *pW++;
 384:Middlewares/Third_Party/ARM_CMSIS/CMSIS/DSP/Source/SupportFunctions/arm_barycenter_f32.c ****       accum += w;
 385:Middlewares/Third_Party/ARM_CMSIS/CMSIS/DSP/Source/SupportFunctions/arm_barycenter_f32.c **** 
 386:Middlewares/Third_Party/ARM_CMSIS/CMSIS/DSP/Source/SupportFunctions/arm_barycenter_f32.c ****       blkCntSample = vecDim;
 387:Middlewares/Third_Party/ARM_CMSIS/CMSIS/DSP/Source/SupportFunctions/arm_barycenter_f32.c ****       while(blkCntSample > 0)
 388:Middlewares/Third_Party/ARM_CMSIS/CMSIS/DSP/Source/SupportFunctions/arm_barycenter_f32.c ****       {
 389:Middlewares/Third_Party/ARM_CMSIS/CMSIS/DSP/Source/SupportFunctions/arm_barycenter_f32.c ****           *pOut = *pOut + *pIn++ * w;
 808              		.loc 5 389 11 is_stmt 1 view .LVU258
 809              		.loc 5 389 19 is_stmt 0 view .LVU259
 810 0022 DCED007A 		vldr.32	s15, [ip]
 811              	.LVL83:
 812              		.loc 5 389 27 view .LVU260
 813 0026 B0EC017A 		vldmia.32	r0!, {s14}
 814              	.LVL84:
 815              		.loc 5 389 34 view .LVU261
 816 002a 27EE267A 		vmul.f32	s14, s14, s13
 817              		.loc 5 389 25 view .LVU262
 818 002e 77EE877A 		vadd.f32	s15, s15, s14
 819              		.loc 5 389 17 view .LVU263
 820 0032 ECEC017A 		vstmia.32	ip!, {s15}
 821              	.LVL85:
 390:Middlewares/Third_Party/ARM_CMSIS/CMSIS/DSP/Source/SupportFunctions/arm_barycenter_f32.c ****           pOut++;
 822              		.loc 5 390 11 is_stmt 1 view .LVU264
 391:Middlewares/Third_Party/ARM_CMSIS/CMSIS/DSP/Source/SupportFunctions/arm_barycenter_f32.c ****           blkCntSample--;
 823              		.loc 5 391 11 view .LVU265
 824              		.loc 5 391 23 is_stmt 0 view .LVU266
 825 0036 0139     		subs	r1, r1, #1
 826              	.LVL86:
 827              	.L68:
 387:Middlewares/Third_Party/ARM_CMSIS/CMSIS/DSP/Source/SupportFunctions/arm_barycenter_f32.c ****       {
 828              		.loc 5 387 12 is_stmt 1 view .LVU267
 829 0038 0029     		cmp	r1, #0
 830 003a F2D1     		bne	.L69
 392:Middlewares/Third_Party/ARM_CMSIS/CMSIS/DSP/Source/SupportFunctions/arm_barycenter_f32.c ****       }
ARM GAS  C:\Users\7636~1\AppData\Local\Temp\ccIWThgb.s 			page 30


 393:Middlewares/Third_Party/ARM_CMSIS/CMSIS/DSP/Source/SupportFunctions/arm_barycenter_f32.c **** 
 394:Middlewares/Third_Party/ARM_CMSIS/CMSIS/DSP/Source/SupportFunctions/arm_barycenter_f32.c ****       blkCntVector--;
 831              		.loc 5 394 7 view .LVU268
 832              		.loc 5 394 19 is_stmt 0 view .LVU269
 833 003c 013C     		subs	r4, r4, #1
 834              	.LVL87:
 835              	.L67:
 380:Middlewares/Third_Party/ARM_CMSIS/CMSIS/DSP/Source/SupportFunctions/arm_barycenter_f32.c ****    {
 836              		.loc 5 380 9 is_stmt 1 view .LVU270
 837 003e 6CB1     		cbz	r4, .L71
 382:Middlewares/Third_Party/ARM_CMSIS/CMSIS/DSP/Source/SupportFunctions/arm_barycenter_f32.c ****       w = *pW++;
 838              		.loc 5 382 7 view .LVU271
 839              	.LVL88:
 383:Middlewares/Third_Party/ARM_CMSIS/CMSIS/DSP/Source/SupportFunctions/arm_barycenter_f32.c ****       accum += w;
 840              		.loc 5 383 7 view .LVU272
 383:Middlewares/Third_Party/ARM_CMSIS/CMSIS/DSP/Source/SupportFunctions/arm_barycenter_f32.c ****       accum += w;
 841              		.loc 5 383 9 is_stmt 0 view .LVU273
 842 0040 FEEC016A 		vldmia.32	lr!, {s13}
 843              	.LVL89:
 384:Middlewares/Third_Party/ARM_CMSIS/CMSIS/DSP/Source/SupportFunctions/arm_barycenter_f32.c **** 
 844              		.loc 5 384 7 is_stmt 1 view .LVU274
 384:Middlewares/Third_Party/ARM_CMSIS/CMSIS/DSP/Source/SupportFunctions/arm_barycenter_f32.c **** 
 845              		.loc 5 384 13 is_stmt 0 view .LVU275
 846 0044 36EE266A 		vadd.f32	s12, s12, s13
 847              	.LVL90:
 386:Middlewares/Third_Party/ARM_CMSIS/CMSIS/DSP/Source/SupportFunctions/arm_barycenter_f32.c ****       while(blkCntSample > 0)
 848              		.loc 5 386 7 is_stmt 1 view .LVU276
 387:Middlewares/Third_Party/ARM_CMSIS/CMSIS/DSP/Source/SupportFunctions/arm_barycenter_f32.c ****       {
 849              		.loc 5 387 7 view .LVU277
 386:Middlewares/Third_Party/ARM_CMSIS/CMSIS/DSP/Source/SupportFunctions/arm_barycenter_f32.c ****       while(blkCntSample > 0)
 850              		.loc 5 386 20 is_stmt 0 view .LVU278
 851 0048 1946     		mov	r1, r3
 382:Middlewares/Third_Party/ARM_CMSIS/CMSIS/DSP/Source/SupportFunctions/arm_barycenter_f32.c ****       w = *pW++;
 852              		.loc 5 382 12 view .LVU279
 853 004a 9446     		mov	ip, r2
 387:Middlewares/Third_Party/ARM_CMSIS/CMSIS/DSP/Source/SupportFunctions/arm_barycenter_f32.c ****       {
 854              		.loc 5 387 12 view .LVU280
 855 004c F4E7     		b	.L68
 856              	.LVL91:
 857              	.L72:
 395:Middlewares/Third_Party/ARM_CMSIS/CMSIS/DSP/Source/SupportFunctions/arm_barycenter_f32.c ****    }
 396:Middlewares/Third_Party/ARM_CMSIS/CMSIS/DSP/Source/SupportFunctions/arm_barycenter_f32.c **** 
 397:Middlewares/Third_Party/ARM_CMSIS/CMSIS/DSP/Source/SupportFunctions/arm_barycenter_f32.c ****    /* Normalize */
 398:Middlewares/Third_Party/ARM_CMSIS/CMSIS/DSP/Source/SupportFunctions/arm_barycenter_f32.c ****    blkCntSample = vecDim;
 399:Middlewares/Third_Party/ARM_CMSIS/CMSIS/DSP/Source/SupportFunctions/arm_barycenter_f32.c ****    pOut = out;
 400:Middlewares/Third_Party/ARM_CMSIS/CMSIS/DSP/Source/SupportFunctions/arm_barycenter_f32.c **** 
 401:Middlewares/Third_Party/ARM_CMSIS/CMSIS/DSP/Source/SupportFunctions/arm_barycenter_f32.c ****    while(blkCntSample > 0)
 402:Middlewares/Third_Party/ARM_CMSIS/CMSIS/DSP/Source/SupportFunctions/arm_barycenter_f32.c ****    {
 403:Middlewares/Third_Party/ARM_CMSIS/CMSIS/DSP/Source/SupportFunctions/arm_barycenter_f32.c ****          *pOut = *pOut / accum;
 858              		.loc 5 403 10 is_stmt 1 view .LVU281
 859              		.loc 5 403 18 is_stmt 0 view .LVU282
 860 004e 92ED007A 		vldr.32	s14, [r2]
 861              		.loc 5 403 24 view .LVU283
 862 0052 C7EE067A 		vdiv.f32	s15, s14, s12
 863              		.loc 5 403 16 view .LVU284
 864 0056 E2EC017A 		vstmia.32	r2!, {s15}
 865              	.LVL92:
ARM GAS  C:\Users\7636~1\AppData\Local\Temp\ccIWThgb.s 			page 31


 404:Middlewares/Third_Party/ARM_CMSIS/CMSIS/DSP/Source/SupportFunctions/arm_barycenter_f32.c ****          pOut++;
 866              		.loc 5 404 10 is_stmt 1 view .LVU285
 405:Middlewares/Third_Party/ARM_CMSIS/CMSIS/DSP/Source/SupportFunctions/arm_barycenter_f32.c ****          blkCntSample--;
 867              		.loc 5 405 10 view .LVU286
 868              		.loc 5 405 22 is_stmt 0 view .LVU287
 869 005a 013B     		subs	r3, r3, #1
 870              	.LVL93:
 871              	.L71:
 401:Middlewares/Third_Party/ARM_CMSIS/CMSIS/DSP/Source/SupportFunctions/arm_barycenter_f32.c ****    {
 872              		.loc 5 401 9 is_stmt 1 view .LVU288
 873 005c 002B     		cmp	r3, #0
 874 005e F6D1     		bne	.L72
 406:Middlewares/Third_Party/ARM_CMSIS/CMSIS/DSP/Source/SupportFunctions/arm_barycenter_f32.c ****    }
 407:Middlewares/Third_Party/ARM_CMSIS/CMSIS/DSP/Source/SupportFunctions/arm_barycenter_f32.c **** 
 408:Middlewares/Third_Party/ARM_CMSIS/CMSIS/DSP/Source/SupportFunctions/arm_barycenter_f32.c **** }
 875              		.loc 5 408 1 is_stmt 0 view .LVU289
 876 0060 10BD     		pop	{r4, pc}
 877              	.LVL94:
 878              	.L75:
 879              		.loc 5 408 1 view .LVU290
 880 0062 00BF     		.align	2
 881              	.L74:
 882 0064 00000000 		.word	0
 883              		.cfi_endproc
 884              	.LFE119:
 886              		.section	.text.arm_bitonic_sort_f32,"ax",%progbits
 887              		.align	1
 888              		.global	arm_bitonic_sort_f32
 889              		.syntax unified
 890              		.thumb
 891              		.thumb_func
 893              	arm_bitonic_sort_f32:
 894              	.LVL95:
 895              	.LFB140:
  84:Middlewares/Third_Party/ARM_CMSIS/CMSIS/DSP/Source/SupportFunctions/arm_bitonic_sort_f32.c **** #endif
  85:Middlewares/Third_Party/ARM_CMSIS/CMSIS/DSP/Source/SupportFunctions/arm_bitonic_sort_f32.c **** 
  86:Middlewares/Third_Party/ARM_CMSIS/CMSIS/DSP/Source/SupportFunctions/arm_bitonic_sort_f32.c **** #if defined(ARM_MATH_NEON)
  87:Middlewares/Third_Party/ARM_CMSIS/CMSIS/DSP/Source/SupportFunctions/arm_bitonic_sort_f32.c **** 
  88:Middlewares/Third_Party/ARM_CMSIS/CMSIS/DSP/Source/SupportFunctions/arm_bitonic_sort_f32.c **** 
  89:Middlewares/Third_Party/ARM_CMSIS/CMSIS/DSP/Source/SupportFunctions/arm_bitonic_sort_f32.c **** static float32x4x2_t arm_bitonic_resort_8_f32(float32x4_t a, float32x4_t b, uint8_t dir)
  90:Middlewares/Third_Party/ARM_CMSIS/CMSIS/DSP/Source/SupportFunctions/arm_bitonic_sort_f32.c **** {
  91:Middlewares/Third_Party/ARM_CMSIS/CMSIS/DSP/Source/SupportFunctions/arm_bitonic_sort_f32.c ****     /* Start with two vectors:
  92:Middlewares/Third_Party/ARM_CMSIS/CMSIS/DSP/Source/SupportFunctions/arm_bitonic_sort_f32.c ****      * +---+---+---+---+
  93:Middlewares/Third_Party/ARM_CMSIS/CMSIS/DSP/Source/SupportFunctions/arm_bitonic_sort_f32.c ****      * | a | b | c | d |
  94:Middlewares/Third_Party/ARM_CMSIS/CMSIS/DSP/Source/SupportFunctions/arm_bitonic_sort_f32.c ****      * +---+---+---+---+
  95:Middlewares/Third_Party/ARM_CMSIS/CMSIS/DSP/Source/SupportFunctions/arm_bitonic_sort_f32.c ****      * +---+---+---+---+
  96:Middlewares/Third_Party/ARM_CMSIS/CMSIS/DSP/Source/SupportFunctions/arm_bitonic_sort_f32.c ****      * | e | f | g | h |
  97:Middlewares/Third_Party/ARM_CMSIS/CMSIS/DSP/Source/SupportFunctions/arm_bitonic_sort_f32.c ****      * +---+---+---+---+
  98:Middlewares/Third_Party/ARM_CMSIS/CMSIS/DSP/Source/SupportFunctions/arm_bitonic_sort_f32.c ****      * All the elements of the first are guaranteed to be less than or equal to
  99:Middlewares/Third_Party/ARM_CMSIS/CMSIS/DSP/Source/SupportFunctions/arm_bitonic_sort_f32.c ****      * all of the elements in the second, and both vectors are bitonic.
 100:Middlewares/Third_Party/ARM_CMSIS/CMSIS/DSP/Source/SupportFunctions/arm_bitonic_sort_f32.c ****      * We need to perform these operations to completely sort both lists:
 101:Middlewares/Third_Party/ARM_CMSIS/CMSIS/DSP/Source/SupportFunctions/arm_bitonic_sort_f32.c ****      * vminmax([abcd],[efgh]) 
 102:Middlewares/Third_Party/ARM_CMSIS/CMSIS/DSP/Source/SupportFunctions/arm_bitonic_sort_f32.c ****      * vminmax([acbd],[egfh]) 
 103:Middlewares/Third_Party/ARM_CMSIS/CMSIS/DSP/Source/SupportFunctions/arm_bitonic_sort_f32.c ****      */
 104:Middlewares/Third_Party/ARM_CMSIS/CMSIS/DSP/Source/SupportFunctions/arm_bitonic_sort_f32.c ****     vtrn128_64q(a, b);
 105:Middlewares/Third_Party/ARM_CMSIS/CMSIS/DSP/Source/SupportFunctions/arm_bitonic_sort_f32.c ****     /* +---+---+---+---+
 106:Middlewares/Third_Party/ARM_CMSIS/CMSIS/DSP/Source/SupportFunctions/arm_bitonic_sort_f32.c ****      * | a | b | e | f |
ARM GAS  C:\Users\7636~1\AppData\Local\Temp\ccIWThgb.s 			page 32


 107:Middlewares/Third_Party/ARM_CMSIS/CMSIS/DSP/Source/SupportFunctions/arm_bitonic_sort_f32.c ****      * +---+---+---+---+
 108:Middlewares/Third_Party/ARM_CMSIS/CMSIS/DSP/Source/SupportFunctions/arm_bitonic_sort_f32.c ****      * +---+---+---+---+
 109:Middlewares/Third_Party/ARM_CMSIS/CMSIS/DSP/Source/SupportFunctions/arm_bitonic_sort_f32.c ****      * | c | d | g | h |
 110:Middlewares/Third_Party/ARM_CMSIS/CMSIS/DSP/Source/SupportFunctions/arm_bitonic_sort_f32.c ****      * +---+---+---+---+
 111:Middlewares/Third_Party/ARM_CMSIS/CMSIS/DSP/Source/SupportFunctions/arm_bitonic_sort_f32.c ****      */
 112:Middlewares/Third_Party/ARM_CMSIS/CMSIS/DSP/Source/SupportFunctions/arm_bitonic_sort_f32.c ****     if(dir)
 113:Middlewares/Third_Party/ARM_CMSIS/CMSIS/DSP/Source/SupportFunctions/arm_bitonic_sort_f32.c ****         vminmaxq(a, b);
 114:Middlewares/Third_Party/ARM_CMSIS/CMSIS/DSP/Source/SupportFunctions/arm_bitonic_sort_f32.c ****     else
 115:Middlewares/Third_Party/ARM_CMSIS/CMSIS/DSP/Source/SupportFunctions/arm_bitonic_sort_f32.c ****         vminmaxq(b, a);
 116:Middlewares/Third_Party/ARM_CMSIS/CMSIS/DSP/Source/SupportFunctions/arm_bitonic_sort_f32.c ****     
 117:Middlewares/Third_Party/ARM_CMSIS/CMSIS/DSP/Source/SupportFunctions/arm_bitonic_sort_f32.c ****     vtrn128_32q(a, b);
 118:Middlewares/Third_Party/ARM_CMSIS/CMSIS/DSP/Source/SupportFunctions/arm_bitonic_sort_f32.c ****     /* +---+---+---+---+
 119:Middlewares/Third_Party/ARM_CMSIS/CMSIS/DSP/Source/SupportFunctions/arm_bitonic_sort_f32.c ****      * | a | c | e | g |
 120:Middlewares/Third_Party/ARM_CMSIS/CMSIS/DSP/Source/SupportFunctions/arm_bitonic_sort_f32.c ****      * +---+---+---+---+
 121:Middlewares/Third_Party/ARM_CMSIS/CMSIS/DSP/Source/SupportFunctions/arm_bitonic_sort_f32.c ****      * +---+---+---+---+
 122:Middlewares/Third_Party/ARM_CMSIS/CMSIS/DSP/Source/SupportFunctions/arm_bitonic_sort_f32.c ****      * | b | d | f | h |
 123:Middlewares/Third_Party/ARM_CMSIS/CMSIS/DSP/Source/SupportFunctions/arm_bitonic_sort_f32.c ****      * +---+---+---+---+
 124:Middlewares/Third_Party/ARM_CMSIS/CMSIS/DSP/Source/SupportFunctions/arm_bitonic_sort_f32.c ****      */
 125:Middlewares/Third_Party/ARM_CMSIS/CMSIS/DSP/Source/SupportFunctions/arm_bitonic_sort_f32.c ****     if(dir)
 126:Middlewares/Third_Party/ARM_CMSIS/CMSIS/DSP/Source/SupportFunctions/arm_bitonic_sort_f32.c ****         vminmaxq(a, b);
 127:Middlewares/Third_Party/ARM_CMSIS/CMSIS/DSP/Source/SupportFunctions/arm_bitonic_sort_f32.c ****     else
 128:Middlewares/Third_Party/ARM_CMSIS/CMSIS/DSP/Source/SupportFunctions/arm_bitonic_sort_f32.c ****         vminmaxq(b, a);
 129:Middlewares/Third_Party/ARM_CMSIS/CMSIS/DSP/Source/SupportFunctions/arm_bitonic_sort_f32.c ****     
 130:Middlewares/Third_Party/ARM_CMSIS/CMSIS/DSP/Source/SupportFunctions/arm_bitonic_sort_f32.c ****     return vzipq_f32(a, b);
 131:Middlewares/Third_Party/ARM_CMSIS/CMSIS/DSP/Source/SupportFunctions/arm_bitonic_sort_f32.c **** }
 132:Middlewares/Third_Party/ARM_CMSIS/CMSIS/DSP/Source/SupportFunctions/arm_bitonic_sort_f32.c **** 
 133:Middlewares/Third_Party/ARM_CMSIS/CMSIS/DSP/Source/SupportFunctions/arm_bitonic_sort_f32.c **** 
 134:Middlewares/Third_Party/ARM_CMSIS/CMSIS/DSP/Source/SupportFunctions/arm_bitonic_sort_f32.c **** static float32x4x2_t arm_bitonic_merge_8_f32(float32x4_t a, float32x4_t b, uint8_t dir)
 135:Middlewares/Third_Party/ARM_CMSIS/CMSIS/DSP/Source/SupportFunctions/arm_bitonic_sort_f32.c **** {
 136:Middlewares/Third_Party/ARM_CMSIS/CMSIS/DSP/Source/SupportFunctions/arm_bitonic_sort_f32.c ****     /* a and b are guaranteed to be bitonic */
 137:Middlewares/Third_Party/ARM_CMSIS/CMSIS/DSP/Source/SupportFunctions/arm_bitonic_sort_f32.c ****     // Reverse the element of the second vector
 138:Middlewares/Third_Party/ARM_CMSIS/CMSIS/DSP/Source/SupportFunctions/arm_bitonic_sort_f32.c ****     b = vrev128q_f32(b);
 139:Middlewares/Third_Party/ARM_CMSIS/CMSIS/DSP/Source/SupportFunctions/arm_bitonic_sort_f32.c **** 
 140:Middlewares/Third_Party/ARM_CMSIS/CMSIS/DSP/Source/SupportFunctions/arm_bitonic_sort_f32.c ****     // Compare the two vectors
 141:Middlewares/Third_Party/ARM_CMSIS/CMSIS/DSP/Source/SupportFunctions/arm_bitonic_sort_f32.c ****     if(dir)
 142:Middlewares/Third_Party/ARM_CMSIS/CMSIS/DSP/Source/SupportFunctions/arm_bitonic_sort_f32.c ****         vminmaxq(a, b);
 143:Middlewares/Third_Party/ARM_CMSIS/CMSIS/DSP/Source/SupportFunctions/arm_bitonic_sort_f32.c ****     else
 144:Middlewares/Third_Party/ARM_CMSIS/CMSIS/DSP/Source/SupportFunctions/arm_bitonic_sort_f32.c ****     vminmaxq(b, a);
 145:Middlewares/Third_Party/ARM_CMSIS/CMSIS/DSP/Source/SupportFunctions/arm_bitonic_sort_f32.c **** 
 146:Middlewares/Third_Party/ARM_CMSIS/CMSIS/DSP/Source/SupportFunctions/arm_bitonic_sort_f32.c ****     // Merge the two vectors
 147:Middlewares/Third_Party/ARM_CMSIS/CMSIS/DSP/Source/SupportFunctions/arm_bitonic_sort_f32.c ****     float32x4x2_t ab = arm_bitonic_resort_8_f32(a, b, dir);
 148:Middlewares/Third_Party/ARM_CMSIS/CMSIS/DSP/Source/SupportFunctions/arm_bitonic_sort_f32.c **** 
 149:Middlewares/Third_Party/ARM_CMSIS/CMSIS/DSP/Source/SupportFunctions/arm_bitonic_sort_f32.c ****     return ab;
 150:Middlewares/Third_Party/ARM_CMSIS/CMSIS/DSP/Source/SupportFunctions/arm_bitonic_sort_f32.c **** }
 151:Middlewares/Third_Party/ARM_CMSIS/CMSIS/DSP/Source/SupportFunctions/arm_bitonic_sort_f32.c **** 
 152:Middlewares/Third_Party/ARM_CMSIS/CMSIS/DSP/Source/SupportFunctions/arm_bitonic_sort_f32.c **** static void arm_bitonic_resort_16_f32(float32_t * pOut, float32x4x2_t a, float32x4x2_t b, uint8_t d
 153:Middlewares/Third_Party/ARM_CMSIS/CMSIS/DSP/Source/SupportFunctions/arm_bitonic_sort_f32.c **** {
 154:Middlewares/Third_Party/ARM_CMSIS/CMSIS/DSP/Source/SupportFunctions/arm_bitonic_sort_f32.c ****     /* Start with two vectors:
 155:Middlewares/Third_Party/ARM_CMSIS/CMSIS/DSP/Source/SupportFunctions/arm_bitonic_sort_f32.c ****      * +---+---+---+---+---+---+---+---+
 156:Middlewares/Third_Party/ARM_CMSIS/CMSIS/DSP/Source/SupportFunctions/arm_bitonic_sort_f32.c ****      * | a | b | c | d | e | f | g | h |
 157:Middlewares/Third_Party/ARM_CMSIS/CMSIS/DSP/Source/SupportFunctions/arm_bitonic_sort_f32.c ****      * +---+---+---+---+---+---+---+---+
 158:Middlewares/Third_Party/ARM_CMSIS/CMSIS/DSP/Source/SupportFunctions/arm_bitonic_sort_f32.c ****      * +---+---+---+---+---+---+---+---+
 159:Middlewares/Third_Party/ARM_CMSIS/CMSIS/DSP/Source/SupportFunctions/arm_bitonic_sort_f32.c ****      * | i | j | k | l | m | n | o | p |
 160:Middlewares/Third_Party/ARM_CMSIS/CMSIS/DSP/Source/SupportFunctions/arm_bitonic_sort_f32.c ****      * +---+---+---+---+---+---+---+---+
 161:Middlewares/Third_Party/ARM_CMSIS/CMSIS/DSP/Source/SupportFunctions/arm_bitonic_sort_f32.c ****      * All the elements of the first are guaranteed to be less than or equal to
 162:Middlewares/Third_Party/ARM_CMSIS/CMSIS/DSP/Source/SupportFunctions/arm_bitonic_sort_f32.c ****      * all of the elements in the second, and both vectors are bitonic.
 163:Middlewares/Third_Party/ARM_CMSIS/CMSIS/DSP/Source/SupportFunctions/arm_bitonic_sort_f32.c ****      * We need to perform these operations to completely sort both lists:
ARM GAS  C:\Users\7636~1\AppData\Local\Temp\ccIWThgb.s 			page 33


 164:Middlewares/Third_Party/ARM_CMSIS/CMSIS/DSP/Source/SupportFunctions/arm_bitonic_sort_f32.c ****      * vminmax([abcd],[efgh]) vminmax([ijkl],[mnop])
 165:Middlewares/Third_Party/ARM_CMSIS/CMSIS/DSP/Source/SupportFunctions/arm_bitonic_sort_f32.c ****      * vminmax([abef],[cdgh]) vminmax([ijmn],[klop])
 166:Middlewares/Third_Party/ARM_CMSIS/CMSIS/DSP/Source/SupportFunctions/arm_bitonic_sort_f32.c ****      * vminmax([acef],[bdfh]) vminmax([ikmo],[jlmp])
 167:Middlewares/Third_Party/ARM_CMSIS/CMSIS/DSP/Source/SupportFunctions/arm_bitonic_sort_f32.c ****      */
 168:Middlewares/Third_Party/ARM_CMSIS/CMSIS/DSP/Source/SupportFunctions/arm_bitonic_sort_f32.c **** 
 169:Middlewares/Third_Party/ARM_CMSIS/CMSIS/DSP/Source/SupportFunctions/arm_bitonic_sort_f32.c ****     vtrn256_128q(a, b);
 170:Middlewares/Third_Party/ARM_CMSIS/CMSIS/DSP/Source/SupportFunctions/arm_bitonic_sort_f32.c ****     /* +---+---+---+---+---+---+---+---+
 171:Middlewares/Third_Party/ARM_CMSIS/CMSIS/DSP/Source/SupportFunctions/arm_bitonic_sort_f32.c ****      * | a | b | c | d | i | j | k | l |
 172:Middlewares/Third_Party/ARM_CMSIS/CMSIS/DSP/Source/SupportFunctions/arm_bitonic_sort_f32.c ****      * +---+---+---+---+---+---+---+---+
 173:Middlewares/Third_Party/ARM_CMSIS/CMSIS/DSP/Source/SupportFunctions/arm_bitonic_sort_f32.c ****      * +---+---+---+---+---+---+---+---+
 174:Middlewares/Third_Party/ARM_CMSIS/CMSIS/DSP/Source/SupportFunctions/arm_bitonic_sort_f32.c ****      * | e | f | g | h | m | n | o | p |
 175:Middlewares/Third_Party/ARM_CMSIS/CMSIS/DSP/Source/SupportFunctions/arm_bitonic_sort_f32.c ****      * +---+---+---+---+---+---+---+---+
 176:Middlewares/Third_Party/ARM_CMSIS/CMSIS/DSP/Source/SupportFunctions/arm_bitonic_sort_f32.c ****      */
 177:Middlewares/Third_Party/ARM_CMSIS/CMSIS/DSP/Source/SupportFunctions/arm_bitonic_sort_f32.c ****     if(dir)
 178:Middlewares/Third_Party/ARM_CMSIS/CMSIS/DSP/Source/SupportFunctions/arm_bitonic_sort_f32.c ****         vminmax256q(a, b);
 179:Middlewares/Third_Party/ARM_CMSIS/CMSIS/DSP/Source/SupportFunctions/arm_bitonic_sort_f32.c ****     else
 180:Middlewares/Third_Party/ARM_CMSIS/CMSIS/DSP/Source/SupportFunctions/arm_bitonic_sort_f32.c ****         vminmax256q(b, a);
 181:Middlewares/Third_Party/ARM_CMSIS/CMSIS/DSP/Source/SupportFunctions/arm_bitonic_sort_f32.c ****     
 182:Middlewares/Third_Party/ARM_CMSIS/CMSIS/DSP/Source/SupportFunctions/arm_bitonic_sort_f32.c ****     vtrn256_64q(a, b);
 183:Middlewares/Third_Party/ARM_CMSIS/CMSIS/DSP/Source/SupportFunctions/arm_bitonic_sort_f32.c ****     
 184:Middlewares/Third_Party/ARM_CMSIS/CMSIS/DSP/Source/SupportFunctions/arm_bitonic_sort_f32.c ****     /* +---+---+---+---+---+---+---+---+
 185:Middlewares/Third_Party/ARM_CMSIS/CMSIS/DSP/Source/SupportFunctions/arm_bitonic_sort_f32.c ****      * | a | b | e | f | i | j | m | n |
 186:Middlewares/Third_Party/ARM_CMSIS/CMSIS/DSP/Source/SupportFunctions/arm_bitonic_sort_f32.c ****      * +---+---+---+---+---+---+---+---+
 187:Middlewares/Third_Party/ARM_CMSIS/CMSIS/DSP/Source/SupportFunctions/arm_bitonic_sort_f32.c ****      * +---+---+---+---+---+---+---+---+
 188:Middlewares/Third_Party/ARM_CMSIS/CMSIS/DSP/Source/SupportFunctions/arm_bitonic_sort_f32.c ****      * | c | d | g | h | k | l | o | p |
 189:Middlewares/Third_Party/ARM_CMSIS/CMSIS/DSP/Source/SupportFunctions/arm_bitonic_sort_f32.c ****      * +---+---+---+---+---+---+---+---+
 190:Middlewares/Third_Party/ARM_CMSIS/CMSIS/DSP/Source/SupportFunctions/arm_bitonic_sort_f32.c ****      */
 191:Middlewares/Third_Party/ARM_CMSIS/CMSIS/DSP/Source/SupportFunctions/arm_bitonic_sort_f32.c ****     if(dir)
 192:Middlewares/Third_Party/ARM_CMSIS/CMSIS/DSP/Source/SupportFunctions/arm_bitonic_sort_f32.c ****         vminmax256q(a, b);
 193:Middlewares/Third_Party/ARM_CMSIS/CMSIS/DSP/Source/SupportFunctions/arm_bitonic_sort_f32.c ****     else
 194:Middlewares/Third_Party/ARM_CMSIS/CMSIS/DSP/Source/SupportFunctions/arm_bitonic_sort_f32.c ****         vminmax256q(b, a);
 195:Middlewares/Third_Party/ARM_CMSIS/CMSIS/DSP/Source/SupportFunctions/arm_bitonic_sort_f32.c ****     
 196:Middlewares/Third_Party/ARM_CMSIS/CMSIS/DSP/Source/SupportFunctions/arm_bitonic_sort_f32.c ****     vtrn256_32q(a, b);
 197:Middlewares/Third_Party/ARM_CMSIS/CMSIS/DSP/Source/SupportFunctions/arm_bitonic_sort_f32.c ****     /* We now have:
 198:Middlewares/Third_Party/ARM_CMSIS/CMSIS/DSP/Source/SupportFunctions/arm_bitonic_sort_f32.c ****      * +---+---+---+---+---+---+---+---+
 199:Middlewares/Third_Party/ARM_CMSIS/CMSIS/DSP/Source/SupportFunctions/arm_bitonic_sort_f32.c ****      * | a | c | e | g | i | k | m | o |
 200:Middlewares/Third_Party/ARM_CMSIS/CMSIS/DSP/Source/SupportFunctions/arm_bitonic_sort_f32.c ****      * +---+---+---+---+---+---+---+---+
 201:Middlewares/Third_Party/ARM_CMSIS/CMSIS/DSP/Source/SupportFunctions/arm_bitonic_sort_f32.c ****      * +---+---+---+---+---+---+---+---+
 202:Middlewares/Third_Party/ARM_CMSIS/CMSIS/DSP/Source/SupportFunctions/arm_bitonic_sort_f32.c ****      * | b | d | f | h | j | l | n | p |
 203:Middlewares/Third_Party/ARM_CMSIS/CMSIS/DSP/Source/SupportFunctions/arm_bitonic_sort_f32.c ****      * +---+---+---+---+---+---+---+---+
 204:Middlewares/Third_Party/ARM_CMSIS/CMSIS/DSP/Source/SupportFunctions/arm_bitonic_sort_f32.c ****      */
 205:Middlewares/Third_Party/ARM_CMSIS/CMSIS/DSP/Source/SupportFunctions/arm_bitonic_sort_f32.c ****     if(dir)
 206:Middlewares/Third_Party/ARM_CMSIS/CMSIS/DSP/Source/SupportFunctions/arm_bitonic_sort_f32.c ****         vminmax256q(a, b);
 207:Middlewares/Third_Party/ARM_CMSIS/CMSIS/DSP/Source/SupportFunctions/arm_bitonic_sort_f32.c ****     else
 208:Middlewares/Third_Party/ARM_CMSIS/CMSIS/DSP/Source/SupportFunctions/arm_bitonic_sort_f32.c ****         vminmax256q(b, a);
 209:Middlewares/Third_Party/ARM_CMSIS/CMSIS/DSP/Source/SupportFunctions/arm_bitonic_sort_f32.c ****     
 210:Middlewares/Third_Party/ARM_CMSIS/CMSIS/DSP/Source/SupportFunctions/arm_bitonic_sort_f32.c ****     float32x4x2_t out1 = vzipq_f32(a.val[0], b.val[0]);
 211:Middlewares/Third_Party/ARM_CMSIS/CMSIS/DSP/Source/SupportFunctions/arm_bitonic_sort_f32.c ****     float32x4x2_t out2 = vzipq_f32(a.val[1], b.val[1]);
 212:Middlewares/Third_Party/ARM_CMSIS/CMSIS/DSP/Source/SupportFunctions/arm_bitonic_sort_f32.c ****     
 213:Middlewares/Third_Party/ARM_CMSIS/CMSIS/DSP/Source/SupportFunctions/arm_bitonic_sort_f32.c ****     vst1q_f32(pOut, out1.val[0]);
 214:Middlewares/Third_Party/ARM_CMSIS/CMSIS/DSP/Source/SupportFunctions/arm_bitonic_sort_f32.c ****     vst1q_f32(pOut+4, out1.val[1]);
 215:Middlewares/Third_Party/ARM_CMSIS/CMSIS/DSP/Source/SupportFunctions/arm_bitonic_sort_f32.c ****     vst1q_f32(pOut+8, out2.val[0]);
 216:Middlewares/Third_Party/ARM_CMSIS/CMSIS/DSP/Source/SupportFunctions/arm_bitonic_sort_f32.c ****     vst1q_f32(pOut+12, out2.val[1]);
 217:Middlewares/Third_Party/ARM_CMSIS/CMSIS/DSP/Source/SupportFunctions/arm_bitonic_sort_f32.c **** } 
 218:Middlewares/Third_Party/ARM_CMSIS/CMSIS/DSP/Source/SupportFunctions/arm_bitonic_sort_f32.c **** 
 219:Middlewares/Third_Party/ARM_CMSIS/CMSIS/DSP/Source/SupportFunctions/arm_bitonic_sort_f32.c **** static void arm_bitonic_merge_16_f32(float32_t * pOut, float32x4x2_t a, float32x4x2_t b, uint8_t di
 220:Middlewares/Third_Party/ARM_CMSIS/CMSIS/DSP/Source/SupportFunctions/arm_bitonic_sort_f32.c **** {
ARM GAS  C:\Users\7636~1\AppData\Local\Temp\ccIWThgb.s 			page 34


 221:Middlewares/Third_Party/ARM_CMSIS/CMSIS/DSP/Source/SupportFunctions/arm_bitonic_sort_f32.c ****     // Merge two preordered float32x4x2_t
 222:Middlewares/Third_Party/ARM_CMSIS/CMSIS/DSP/Source/SupportFunctions/arm_bitonic_sort_f32.c ****     vrev256q_f32(b);
 223:Middlewares/Third_Party/ARM_CMSIS/CMSIS/DSP/Source/SupportFunctions/arm_bitonic_sort_f32.c **** 
 224:Middlewares/Third_Party/ARM_CMSIS/CMSIS/DSP/Source/SupportFunctions/arm_bitonic_sort_f32.c ****     if(dir)
 225:Middlewares/Third_Party/ARM_CMSIS/CMSIS/DSP/Source/SupportFunctions/arm_bitonic_sort_f32.c ****         vminmax256q(a, b);
 226:Middlewares/Third_Party/ARM_CMSIS/CMSIS/DSP/Source/SupportFunctions/arm_bitonic_sort_f32.c ****     else
 227:Middlewares/Third_Party/ARM_CMSIS/CMSIS/DSP/Source/SupportFunctions/arm_bitonic_sort_f32.c ****         vminmax256q(b, a);
 228:Middlewares/Third_Party/ARM_CMSIS/CMSIS/DSP/Source/SupportFunctions/arm_bitonic_sort_f32.c **** 
 229:Middlewares/Third_Party/ARM_CMSIS/CMSIS/DSP/Source/SupportFunctions/arm_bitonic_sort_f32.c ****     arm_bitonic_resort_16_f32(pOut, a, b, dir);
 230:Middlewares/Third_Party/ARM_CMSIS/CMSIS/DSP/Source/SupportFunctions/arm_bitonic_sort_f32.c **** }
 231:Middlewares/Third_Party/ARM_CMSIS/CMSIS/DSP/Source/SupportFunctions/arm_bitonic_sort_f32.c **** 
 232:Middlewares/Third_Party/ARM_CMSIS/CMSIS/DSP/Source/SupportFunctions/arm_bitonic_sort_f32.c **** static void arm_bitonic_sort_16_f32(float32_t *pSrc, float32_t *pDst, uint8_t dir)
 233:Middlewares/Third_Party/ARM_CMSIS/CMSIS/DSP/Source/SupportFunctions/arm_bitonic_sort_f32.c **** {
 234:Middlewares/Third_Party/ARM_CMSIS/CMSIS/DSP/Source/SupportFunctions/arm_bitonic_sort_f32.c ****     float32x4_t a;
 235:Middlewares/Third_Party/ARM_CMSIS/CMSIS/DSP/Source/SupportFunctions/arm_bitonic_sort_f32.c ****     float32x4_t b;
 236:Middlewares/Third_Party/ARM_CMSIS/CMSIS/DSP/Source/SupportFunctions/arm_bitonic_sort_f32.c ****     float32x4_t c;
 237:Middlewares/Third_Party/ARM_CMSIS/CMSIS/DSP/Source/SupportFunctions/arm_bitonic_sort_f32.c ****     float32x4_t d;
 238:Middlewares/Third_Party/ARM_CMSIS/CMSIS/DSP/Source/SupportFunctions/arm_bitonic_sort_f32.c **** 
 239:Middlewares/Third_Party/ARM_CMSIS/CMSIS/DSP/Source/SupportFunctions/arm_bitonic_sort_f32.c ****     // Load 16 samples
 240:Middlewares/Third_Party/ARM_CMSIS/CMSIS/DSP/Source/SupportFunctions/arm_bitonic_sort_f32.c ****     a = vld1q_f32(pSrc);
 241:Middlewares/Third_Party/ARM_CMSIS/CMSIS/DSP/Source/SupportFunctions/arm_bitonic_sort_f32.c ****     b = vld1q_f32(pSrc+4);
 242:Middlewares/Third_Party/ARM_CMSIS/CMSIS/DSP/Source/SupportFunctions/arm_bitonic_sort_f32.c ****     c = vld1q_f32(pSrc+8); 
 243:Middlewares/Third_Party/ARM_CMSIS/CMSIS/DSP/Source/SupportFunctions/arm_bitonic_sort_f32.c ****     d = vld1q_f32(pSrc+12);
 244:Middlewares/Third_Party/ARM_CMSIS/CMSIS/DSP/Source/SupportFunctions/arm_bitonic_sort_f32.c ****     
 245:Middlewares/Third_Party/ARM_CMSIS/CMSIS/DSP/Source/SupportFunctions/arm_bitonic_sort_f32.c ****     // Bitonic sorting network for 4 samples x 4 times
 246:Middlewares/Third_Party/ARM_CMSIS/CMSIS/DSP/Source/SupportFunctions/arm_bitonic_sort_f32.c ****     if(dir)
 247:Middlewares/Third_Party/ARM_CMSIS/CMSIS/DSP/Source/SupportFunctions/arm_bitonic_sort_f32.c ****     {
 248:Middlewares/Third_Party/ARM_CMSIS/CMSIS/DSP/Source/SupportFunctions/arm_bitonic_sort_f32.c ****         vminmaxq(a, b);
 249:Middlewares/Third_Party/ARM_CMSIS/CMSIS/DSP/Source/SupportFunctions/arm_bitonic_sort_f32.c ****         vminmaxq(c, d);
 250:Middlewares/Third_Party/ARM_CMSIS/CMSIS/DSP/Source/SupportFunctions/arm_bitonic_sort_f32.c ****         
 251:Middlewares/Third_Party/ARM_CMSIS/CMSIS/DSP/Source/SupportFunctions/arm_bitonic_sort_f32.c ****         vminmaxq(a, d);
 252:Middlewares/Third_Party/ARM_CMSIS/CMSIS/DSP/Source/SupportFunctions/arm_bitonic_sort_f32.c ****         vminmaxq(b, c);
 253:Middlewares/Third_Party/ARM_CMSIS/CMSIS/DSP/Source/SupportFunctions/arm_bitonic_sort_f32.c ****         
 254:Middlewares/Third_Party/ARM_CMSIS/CMSIS/DSP/Source/SupportFunctions/arm_bitonic_sort_f32.c ****         vminmaxq(a, b);
 255:Middlewares/Third_Party/ARM_CMSIS/CMSIS/DSP/Source/SupportFunctions/arm_bitonic_sort_f32.c ****         vminmaxq(c, d);
 256:Middlewares/Third_Party/ARM_CMSIS/CMSIS/DSP/Source/SupportFunctions/arm_bitonic_sort_f32.c ****     }
 257:Middlewares/Third_Party/ARM_CMSIS/CMSIS/DSP/Source/SupportFunctions/arm_bitonic_sort_f32.c ****     else
 258:Middlewares/Third_Party/ARM_CMSIS/CMSIS/DSP/Source/SupportFunctions/arm_bitonic_sort_f32.c ****     {
 259:Middlewares/Third_Party/ARM_CMSIS/CMSIS/DSP/Source/SupportFunctions/arm_bitonic_sort_f32.c ****         vminmaxq(b, a);
 260:Middlewares/Third_Party/ARM_CMSIS/CMSIS/DSP/Source/SupportFunctions/arm_bitonic_sort_f32.c ****         vminmaxq(d, c);
 261:Middlewares/Third_Party/ARM_CMSIS/CMSIS/DSP/Source/SupportFunctions/arm_bitonic_sort_f32.c ****         
 262:Middlewares/Third_Party/ARM_CMSIS/CMSIS/DSP/Source/SupportFunctions/arm_bitonic_sort_f32.c ****         vminmaxq(d, a);
 263:Middlewares/Third_Party/ARM_CMSIS/CMSIS/DSP/Source/SupportFunctions/arm_bitonic_sort_f32.c ****         vminmaxq(c, b);
 264:Middlewares/Third_Party/ARM_CMSIS/CMSIS/DSP/Source/SupportFunctions/arm_bitonic_sort_f32.c ****         
 265:Middlewares/Third_Party/ARM_CMSIS/CMSIS/DSP/Source/SupportFunctions/arm_bitonic_sort_f32.c ****         vminmaxq(b, a);
 266:Middlewares/Third_Party/ARM_CMSIS/CMSIS/DSP/Source/SupportFunctions/arm_bitonic_sort_f32.c ****         vminmaxq(d, c);
 267:Middlewares/Third_Party/ARM_CMSIS/CMSIS/DSP/Source/SupportFunctions/arm_bitonic_sort_f32.c ****     }
 268:Middlewares/Third_Party/ARM_CMSIS/CMSIS/DSP/Source/SupportFunctions/arm_bitonic_sort_f32.c **** 
 269:Middlewares/Third_Party/ARM_CMSIS/CMSIS/DSP/Source/SupportFunctions/arm_bitonic_sort_f32.c ****     float32x4x2_t ab = vtrnq_f32 (a, b);
 270:Middlewares/Third_Party/ARM_CMSIS/CMSIS/DSP/Source/SupportFunctions/arm_bitonic_sort_f32.c ****     float32x4x2_t cd = vtrnq_f32 (c, d);
 271:Middlewares/Third_Party/ARM_CMSIS/CMSIS/DSP/Source/SupportFunctions/arm_bitonic_sort_f32.c ****     
 272:Middlewares/Third_Party/ARM_CMSIS/CMSIS/DSP/Source/SupportFunctions/arm_bitonic_sort_f32.c ****     // Transpose 4 ordered arrays of 4 samples
 273:Middlewares/Third_Party/ARM_CMSIS/CMSIS/DSP/Source/SupportFunctions/arm_bitonic_sort_f32.c ****     a = vcombine_f32(vget_low_f32(ab.val[0]), vget_low_f32(cd.val[0]));
 274:Middlewares/Third_Party/ARM_CMSIS/CMSIS/DSP/Source/SupportFunctions/arm_bitonic_sort_f32.c ****     b = vcombine_f32(vget_low_f32(ab.val[1]), vget_low_f32(cd.val[1]));
 275:Middlewares/Third_Party/ARM_CMSIS/CMSIS/DSP/Source/SupportFunctions/arm_bitonic_sort_f32.c ****     c = vcombine_f32(vget_high_f32(ab.val[0]), vget_high_f32(cd.val[0]));
 276:Middlewares/Third_Party/ARM_CMSIS/CMSIS/DSP/Source/SupportFunctions/arm_bitonic_sort_f32.c ****     d = vcombine_f32(vget_high_f32(ab.val[1]), vget_high_f32(cd.val[1]));
 277:Middlewares/Third_Party/ARM_CMSIS/CMSIS/DSP/Source/SupportFunctions/arm_bitonic_sort_f32.c **** 
ARM GAS  C:\Users\7636~1\AppData\Local\Temp\ccIWThgb.s 			page 35


 278:Middlewares/Third_Party/ARM_CMSIS/CMSIS/DSP/Source/SupportFunctions/arm_bitonic_sort_f32.c ****     // Merge pairs of arrays of 4 samples
 279:Middlewares/Third_Party/ARM_CMSIS/CMSIS/DSP/Source/SupportFunctions/arm_bitonic_sort_f32.c ****     ab = arm_bitonic_merge_8_f32(a, b, dir);
 280:Middlewares/Third_Party/ARM_CMSIS/CMSIS/DSP/Source/SupportFunctions/arm_bitonic_sort_f32.c ****     cd = arm_bitonic_merge_8_f32(c, d, dir);
 281:Middlewares/Third_Party/ARM_CMSIS/CMSIS/DSP/Source/SupportFunctions/arm_bitonic_sort_f32.c ****     
 282:Middlewares/Third_Party/ARM_CMSIS/CMSIS/DSP/Source/SupportFunctions/arm_bitonic_sort_f32.c ****     // Merge arrays of 8 samples
 283:Middlewares/Third_Party/ARM_CMSIS/CMSIS/DSP/Source/SupportFunctions/arm_bitonic_sort_f32.c ****     arm_bitonic_merge_16_f32(pDst, ab, cd, dir);
 284:Middlewares/Third_Party/ARM_CMSIS/CMSIS/DSP/Source/SupportFunctions/arm_bitonic_sort_f32.c **** }
 285:Middlewares/Third_Party/ARM_CMSIS/CMSIS/DSP/Source/SupportFunctions/arm_bitonic_sort_f32.c **** 
 286:Middlewares/Third_Party/ARM_CMSIS/CMSIS/DSP/Source/SupportFunctions/arm_bitonic_sort_f32.c **** 
 287:Middlewares/Third_Party/ARM_CMSIS/CMSIS/DSP/Source/SupportFunctions/arm_bitonic_sort_f32.c **** 
 288:Middlewares/Third_Party/ARM_CMSIS/CMSIS/DSP/Source/SupportFunctions/arm_bitonic_sort_f32.c **** 
 289:Middlewares/Third_Party/ARM_CMSIS/CMSIS/DSP/Source/SupportFunctions/arm_bitonic_sort_f32.c **** 
 290:Middlewares/Third_Party/ARM_CMSIS/CMSIS/DSP/Source/SupportFunctions/arm_bitonic_sort_f32.c **** static void arm_bitonic_merge_32_f32(float32_t * pSrc, float32x4x2_t ab1, float32x4x2_t ab2, float3
 291:Middlewares/Third_Party/ARM_CMSIS/CMSIS/DSP/Source/SupportFunctions/arm_bitonic_sort_f32.c **** {
 292:Middlewares/Third_Party/ARM_CMSIS/CMSIS/DSP/Source/SupportFunctions/arm_bitonic_sort_f32.c ****     //Compare
 293:Middlewares/Third_Party/ARM_CMSIS/CMSIS/DSP/Source/SupportFunctions/arm_bitonic_sort_f32.c ****     if(dir)
 294:Middlewares/Third_Party/ARM_CMSIS/CMSIS/DSP/Source/SupportFunctions/arm_bitonic_sort_f32.c ****     {
 295:Middlewares/Third_Party/ARM_CMSIS/CMSIS/DSP/Source/SupportFunctions/arm_bitonic_sort_f32.c ****         vminmax256q(ab1, cd1);
 296:Middlewares/Third_Party/ARM_CMSIS/CMSIS/DSP/Source/SupportFunctions/arm_bitonic_sort_f32.c ****         vminmax256q(ab2, cd2);
 297:Middlewares/Third_Party/ARM_CMSIS/CMSIS/DSP/Source/SupportFunctions/arm_bitonic_sort_f32.c ****     }
 298:Middlewares/Third_Party/ARM_CMSIS/CMSIS/DSP/Source/SupportFunctions/arm_bitonic_sort_f32.c ****     else
 299:Middlewares/Third_Party/ARM_CMSIS/CMSIS/DSP/Source/SupportFunctions/arm_bitonic_sort_f32.c ****     {
 300:Middlewares/Third_Party/ARM_CMSIS/CMSIS/DSP/Source/SupportFunctions/arm_bitonic_sort_f32.c ****         vminmax256q(cd1, ab1);
 301:Middlewares/Third_Party/ARM_CMSIS/CMSIS/DSP/Source/SupportFunctions/arm_bitonic_sort_f32.c ****         vminmax256q(cd2, ab2);
 302:Middlewares/Third_Party/ARM_CMSIS/CMSIS/DSP/Source/SupportFunctions/arm_bitonic_sort_f32.c ****     }
 303:Middlewares/Third_Party/ARM_CMSIS/CMSIS/DSP/Source/SupportFunctions/arm_bitonic_sort_f32.c ****     //Transpose 256
 304:Middlewares/Third_Party/ARM_CMSIS/CMSIS/DSP/Source/SupportFunctions/arm_bitonic_sort_f32.c ****     float32x4_t temp;
 305:Middlewares/Third_Party/ARM_CMSIS/CMSIS/DSP/Source/SupportFunctions/arm_bitonic_sort_f32.c **** 
 306:Middlewares/Third_Party/ARM_CMSIS/CMSIS/DSP/Source/SupportFunctions/arm_bitonic_sort_f32.c ****     temp = ab2.val[0];
 307:Middlewares/Third_Party/ARM_CMSIS/CMSIS/DSP/Source/SupportFunctions/arm_bitonic_sort_f32.c ****     ab2.val[0] = cd1.val[0];
 308:Middlewares/Third_Party/ARM_CMSIS/CMSIS/DSP/Source/SupportFunctions/arm_bitonic_sort_f32.c ****     cd1.val[0] = temp;
 309:Middlewares/Third_Party/ARM_CMSIS/CMSIS/DSP/Source/SupportFunctions/arm_bitonic_sort_f32.c ****     temp = ab2.val[1];
 310:Middlewares/Third_Party/ARM_CMSIS/CMSIS/DSP/Source/SupportFunctions/arm_bitonic_sort_f32.c ****     ab2.val[1] = cd1.val[1];
 311:Middlewares/Third_Party/ARM_CMSIS/CMSIS/DSP/Source/SupportFunctions/arm_bitonic_sort_f32.c ****     cd1.val[1] = temp;
 312:Middlewares/Third_Party/ARM_CMSIS/CMSIS/DSP/Source/SupportFunctions/arm_bitonic_sort_f32.c **** 
 313:Middlewares/Third_Party/ARM_CMSIS/CMSIS/DSP/Source/SupportFunctions/arm_bitonic_sort_f32.c ****     //Compare
 314:Middlewares/Third_Party/ARM_CMSIS/CMSIS/DSP/Source/SupportFunctions/arm_bitonic_sort_f32.c ****     if(dir)
 315:Middlewares/Third_Party/ARM_CMSIS/CMSIS/DSP/Source/SupportFunctions/arm_bitonic_sort_f32.c ****     {
 316:Middlewares/Third_Party/ARM_CMSIS/CMSIS/DSP/Source/SupportFunctions/arm_bitonic_sort_f32.c ****         vminmax256q(ab1, cd1);
 317:Middlewares/Third_Party/ARM_CMSIS/CMSIS/DSP/Source/SupportFunctions/arm_bitonic_sort_f32.c ****         vminmax256q(ab2, cd2);
 318:Middlewares/Third_Party/ARM_CMSIS/CMSIS/DSP/Source/SupportFunctions/arm_bitonic_sort_f32.c ****     }
 319:Middlewares/Third_Party/ARM_CMSIS/CMSIS/DSP/Source/SupportFunctions/arm_bitonic_sort_f32.c ****     else
 320:Middlewares/Third_Party/ARM_CMSIS/CMSIS/DSP/Source/SupportFunctions/arm_bitonic_sort_f32.c ****     {
 321:Middlewares/Third_Party/ARM_CMSIS/CMSIS/DSP/Source/SupportFunctions/arm_bitonic_sort_f32.c ****         vminmax256q(cd1, ab1);
 322:Middlewares/Third_Party/ARM_CMSIS/CMSIS/DSP/Source/SupportFunctions/arm_bitonic_sort_f32.c ****         vminmax256q(cd2, ab2);
 323:Middlewares/Third_Party/ARM_CMSIS/CMSIS/DSP/Source/SupportFunctions/arm_bitonic_sort_f32.c ****     }
 324:Middlewares/Third_Party/ARM_CMSIS/CMSIS/DSP/Source/SupportFunctions/arm_bitonic_sort_f32.c ****     
 325:Middlewares/Third_Party/ARM_CMSIS/CMSIS/DSP/Source/SupportFunctions/arm_bitonic_sort_f32.c ****     //Transpose 128
 326:Middlewares/Third_Party/ARM_CMSIS/CMSIS/DSP/Source/SupportFunctions/arm_bitonic_sort_f32.c ****     arm_bitonic_merge_16_f32(pSrc+0,  ab1, cd1, dir);
 327:Middlewares/Third_Party/ARM_CMSIS/CMSIS/DSP/Source/SupportFunctions/arm_bitonic_sort_f32.c ****     arm_bitonic_merge_16_f32(pSrc+16, ab2, cd2, dir);
 328:Middlewares/Third_Party/ARM_CMSIS/CMSIS/DSP/Source/SupportFunctions/arm_bitonic_sort_f32.c **** }
 329:Middlewares/Third_Party/ARM_CMSIS/CMSIS/DSP/Source/SupportFunctions/arm_bitonic_sort_f32.c **** 
 330:Middlewares/Third_Party/ARM_CMSIS/CMSIS/DSP/Source/SupportFunctions/arm_bitonic_sort_f32.c **** static void arm_bitonic_merge_64_f32(float32_t * pSrc, uint8_t dir)
 331:Middlewares/Third_Party/ARM_CMSIS/CMSIS/DSP/Source/SupportFunctions/arm_bitonic_sort_f32.c **** {
 332:Middlewares/Third_Party/ARM_CMSIS/CMSIS/DSP/Source/SupportFunctions/arm_bitonic_sort_f32.c ****     float32x4x2_t ab1, ab2, ab3, ab4;
 333:Middlewares/Third_Party/ARM_CMSIS/CMSIS/DSP/Source/SupportFunctions/arm_bitonic_sort_f32.c ****     float32x4x2_t cd1, cd2, cd3, cd4;
 334:Middlewares/Third_Party/ARM_CMSIS/CMSIS/DSP/Source/SupportFunctions/arm_bitonic_sort_f32.c **** 
ARM GAS  C:\Users\7636~1\AppData\Local\Temp\ccIWThgb.s 			page 36


 335:Middlewares/Third_Party/ARM_CMSIS/CMSIS/DSP/Source/SupportFunctions/arm_bitonic_sort_f32.c ****     //Load and reverse second array
 336:Middlewares/Third_Party/ARM_CMSIS/CMSIS/DSP/Source/SupportFunctions/arm_bitonic_sort_f32.c ****     ab1.val[0] = vld1q_f32(pSrc+0 );
 337:Middlewares/Third_Party/ARM_CMSIS/CMSIS/DSP/Source/SupportFunctions/arm_bitonic_sort_f32.c ****     ab1.val[1] = vld1q_f32(pSrc+4 );
 338:Middlewares/Third_Party/ARM_CMSIS/CMSIS/DSP/Source/SupportFunctions/arm_bitonic_sort_f32.c ****     ab2.val[0] = vld1q_f32(pSrc+8 ); 
 339:Middlewares/Third_Party/ARM_CMSIS/CMSIS/DSP/Source/SupportFunctions/arm_bitonic_sort_f32.c ****     ab2.val[1] = vld1q_f32(pSrc+12);
 340:Middlewares/Third_Party/ARM_CMSIS/CMSIS/DSP/Source/SupportFunctions/arm_bitonic_sort_f32.c ****     ab3.val[0] = vld1q_f32(pSrc+16);
 341:Middlewares/Third_Party/ARM_CMSIS/CMSIS/DSP/Source/SupportFunctions/arm_bitonic_sort_f32.c ****     ab3.val[1] = vld1q_f32(pSrc+20);
 342:Middlewares/Third_Party/ARM_CMSIS/CMSIS/DSP/Source/SupportFunctions/arm_bitonic_sort_f32.c ****     ab4.val[0] = vld1q_f32(pSrc+24); 
 343:Middlewares/Third_Party/ARM_CMSIS/CMSIS/DSP/Source/SupportFunctions/arm_bitonic_sort_f32.c ****     ab4.val[1] = vld1q_f32(pSrc+28);
 344:Middlewares/Third_Party/ARM_CMSIS/CMSIS/DSP/Source/SupportFunctions/arm_bitonic_sort_f32.c **** 
 345:Middlewares/Third_Party/ARM_CMSIS/CMSIS/DSP/Source/SupportFunctions/arm_bitonic_sort_f32.c ****     vldrev128q_f32(cd4.val[1], pSrc+32);
 346:Middlewares/Third_Party/ARM_CMSIS/CMSIS/DSP/Source/SupportFunctions/arm_bitonic_sort_f32.c ****     vldrev128q_f32(cd4.val[0], pSrc+36);
 347:Middlewares/Third_Party/ARM_CMSIS/CMSIS/DSP/Source/SupportFunctions/arm_bitonic_sort_f32.c ****     vldrev128q_f32(cd3.val[1], pSrc+40);
 348:Middlewares/Third_Party/ARM_CMSIS/CMSIS/DSP/Source/SupportFunctions/arm_bitonic_sort_f32.c ****     vldrev128q_f32(cd3.val[0], pSrc+44);
 349:Middlewares/Third_Party/ARM_CMSIS/CMSIS/DSP/Source/SupportFunctions/arm_bitonic_sort_f32.c ****     vldrev128q_f32(cd2.val[1], pSrc+48);
 350:Middlewares/Third_Party/ARM_CMSIS/CMSIS/DSP/Source/SupportFunctions/arm_bitonic_sort_f32.c ****     vldrev128q_f32(cd2.val[0], pSrc+52);
 351:Middlewares/Third_Party/ARM_CMSIS/CMSIS/DSP/Source/SupportFunctions/arm_bitonic_sort_f32.c ****     vldrev128q_f32(cd1.val[1], pSrc+56);
 352:Middlewares/Third_Party/ARM_CMSIS/CMSIS/DSP/Source/SupportFunctions/arm_bitonic_sort_f32.c ****     vldrev128q_f32(cd1.val[0], pSrc+60);
 353:Middlewares/Third_Party/ARM_CMSIS/CMSIS/DSP/Source/SupportFunctions/arm_bitonic_sort_f32.c ****     
 354:Middlewares/Third_Party/ARM_CMSIS/CMSIS/DSP/Source/SupportFunctions/arm_bitonic_sort_f32.c ****     //Compare
 355:Middlewares/Third_Party/ARM_CMSIS/CMSIS/DSP/Source/SupportFunctions/arm_bitonic_sort_f32.c ****     if(dir)
 356:Middlewares/Third_Party/ARM_CMSIS/CMSIS/DSP/Source/SupportFunctions/arm_bitonic_sort_f32.c ****     {
 357:Middlewares/Third_Party/ARM_CMSIS/CMSIS/DSP/Source/SupportFunctions/arm_bitonic_sort_f32.c ****         vminmax256q(ab1, cd1);
 358:Middlewares/Third_Party/ARM_CMSIS/CMSIS/DSP/Source/SupportFunctions/arm_bitonic_sort_f32.c ****         vminmax256q(ab2, cd2);
 359:Middlewares/Third_Party/ARM_CMSIS/CMSIS/DSP/Source/SupportFunctions/arm_bitonic_sort_f32.c ****         vminmax256q(ab3, cd3);
 360:Middlewares/Third_Party/ARM_CMSIS/CMSIS/DSP/Source/SupportFunctions/arm_bitonic_sort_f32.c ****         vminmax256q(ab4, cd4);
 361:Middlewares/Third_Party/ARM_CMSIS/CMSIS/DSP/Source/SupportFunctions/arm_bitonic_sort_f32.c ****     }
 362:Middlewares/Third_Party/ARM_CMSIS/CMSIS/DSP/Source/SupportFunctions/arm_bitonic_sort_f32.c ****     else
 363:Middlewares/Third_Party/ARM_CMSIS/CMSIS/DSP/Source/SupportFunctions/arm_bitonic_sort_f32.c ****     {
 364:Middlewares/Third_Party/ARM_CMSIS/CMSIS/DSP/Source/SupportFunctions/arm_bitonic_sort_f32.c ****         vminmax256q(cd1, ab1);
 365:Middlewares/Third_Party/ARM_CMSIS/CMSIS/DSP/Source/SupportFunctions/arm_bitonic_sort_f32.c ****         vminmax256q(cd2, ab2);
 366:Middlewares/Third_Party/ARM_CMSIS/CMSIS/DSP/Source/SupportFunctions/arm_bitonic_sort_f32.c ****         vminmax256q(cd3, ab3);
 367:Middlewares/Third_Party/ARM_CMSIS/CMSIS/DSP/Source/SupportFunctions/arm_bitonic_sort_f32.c ****         vminmax256q(cd4, ab4);
 368:Middlewares/Third_Party/ARM_CMSIS/CMSIS/DSP/Source/SupportFunctions/arm_bitonic_sort_f32.c ****     }
 369:Middlewares/Third_Party/ARM_CMSIS/CMSIS/DSP/Source/SupportFunctions/arm_bitonic_sort_f32.c **** 
 370:Middlewares/Third_Party/ARM_CMSIS/CMSIS/DSP/Source/SupportFunctions/arm_bitonic_sort_f32.c ****     //Transpose 512
 371:Middlewares/Third_Party/ARM_CMSIS/CMSIS/DSP/Source/SupportFunctions/arm_bitonic_sort_f32.c ****     float32x4_t temp;
 372:Middlewares/Third_Party/ARM_CMSIS/CMSIS/DSP/Source/SupportFunctions/arm_bitonic_sort_f32.c **** 
 373:Middlewares/Third_Party/ARM_CMSIS/CMSIS/DSP/Source/SupportFunctions/arm_bitonic_sort_f32.c ****     temp = ab3.val[0];
 374:Middlewares/Third_Party/ARM_CMSIS/CMSIS/DSP/Source/SupportFunctions/arm_bitonic_sort_f32.c ****     ab3.val[0] = cd1.val[0];
 375:Middlewares/Third_Party/ARM_CMSIS/CMSIS/DSP/Source/SupportFunctions/arm_bitonic_sort_f32.c ****     cd1.val[0] = temp;
 376:Middlewares/Third_Party/ARM_CMSIS/CMSIS/DSP/Source/SupportFunctions/arm_bitonic_sort_f32.c ****     temp = ab3.val[1];
 377:Middlewares/Third_Party/ARM_CMSIS/CMSIS/DSP/Source/SupportFunctions/arm_bitonic_sort_f32.c ****     ab3.val[1] = cd1.val[1];
 378:Middlewares/Third_Party/ARM_CMSIS/CMSIS/DSP/Source/SupportFunctions/arm_bitonic_sort_f32.c ****     cd1.val[1] = temp;
 379:Middlewares/Third_Party/ARM_CMSIS/CMSIS/DSP/Source/SupportFunctions/arm_bitonic_sort_f32.c ****     temp = ab4.val[0];
 380:Middlewares/Third_Party/ARM_CMSIS/CMSIS/DSP/Source/SupportFunctions/arm_bitonic_sort_f32.c ****     ab4.val[0] = cd2.val[0];
 381:Middlewares/Third_Party/ARM_CMSIS/CMSIS/DSP/Source/SupportFunctions/arm_bitonic_sort_f32.c ****     cd2.val[0] = temp;
 382:Middlewares/Third_Party/ARM_CMSIS/CMSIS/DSP/Source/SupportFunctions/arm_bitonic_sort_f32.c ****     temp = ab4.val[1];
 383:Middlewares/Third_Party/ARM_CMSIS/CMSIS/DSP/Source/SupportFunctions/arm_bitonic_sort_f32.c ****     ab4.val[1] = cd2.val[1];
 384:Middlewares/Third_Party/ARM_CMSIS/CMSIS/DSP/Source/SupportFunctions/arm_bitonic_sort_f32.c ****     cd2.val[1] = temp;
 385:Middlewares/Third_Party/ARM_CMSIS/CMSIS/DSP/Source/SupportFunctions/arm_bitonic_sort_f32.c **** 
 386:Middlewares/Third_Party/ARM_CMSIS/CMSIS/DSP/Source/SupportFunctions/arm_bitonic_sort_f32.c ****     //Compare
 387:Middlewares/Third_Party/ARM_CMSIS/CMSIS/DSP/Source/SupportFunctions/arm_bitonic_sort_f32.c ****     if(dir)
 388:Middlewares/Third_Party/ARM_CMSIS/CMSIS/DSP/Source/SupportFunctions/arm_bitonic_sort_f32.c ****     {
 389:Middlewares/Third_Party/ARM_CMSIS/CMSIS/DSP/Source/SupportFunctions/arm_bitonic_sort_f32.c ****         vminmax256q(ab1, cd1);
 390:Middlewares/Third_Party/ARM_CMSIS/CMSIS/DSP/Source/SupportFunctions/arm_bitonic_sort_f32.c ****         vminmax256q(ab2, cd2);
 391:Middlewares/Third_Party/ARM_CMSIS/CMSIS/DSP/Source/SupportFunctions/arm_bitonic_sort_f32.c ****         vminmax256q(ab3, cd3);
ARM GAS  C:\Users\7636~1\AppData\Local\Temp\ccIWThgb.s 			page 37


 392:Middlewares/Third_Party/ARM_CMSIS/CMSIS/DSP/Source/SupportFunctions/arm_bitonic_sort_f32.c ****         vminmax256q(ab4, cd4);
 393:Middlewares/Third_Party/ARM_CMSIS/CMSIS/DSP/Source/SupportFunctions/arm_bitonic_sort_f32.c ****     }
 394:Middlewares/Third_Party/ARM_CMSIS/CMSIS/DSP/Source/SupportFunctions/arm_bitonic_sort_f32.c ****     else
 395:Middlewares/Third_Party/ARM_CMSIS/CMSIS/DSP/Source/SupportFunctions/arm_bitonic_sort_f32.c ****     {
 396:Middlewares/Third_Party/ARM_CMSIS/CMSIS/DSP/Source/SupportFunctions/arm_bitonic_sort_f32.c ****         vminmax256q(cd1, ab1);
 397:Middlewares/Third_Party/ARM_CMSIS/CMSIS/DSP/Source/SupportFunctions/arm_bitonic_sort_f32.c ****         vminmax256q(cd2, ab2);
 398:Middlewares/Third_Party/ARM_CMSIS/CMSIS/DSP/Source/SupportFunctions/arm_bitonic_sort_f32.c ****         vminmax256q(cd3, ab3);
 399:Middlewares/Third_Party/ARM_CMSIS/CMSIS/DSP/Source/SupportFunctions/arm_bitonic_sort_f32.c ****         vminmax256q(cd4, ab4);
 400:Middlewares/Third_Party/ARM_CMSIS/CMSIS/DSP/Source/SupportFunctions/arm_bitonic_sort_f32.c ****     }
 401:Middlewares/Third_Party/ARM_CMSIS/CMSIS/DSP/Source/SupportFunctions/arm_bitonic_sort_f32.c ****     
 402:Middlewares/Third_Party/ARM_CMSIS/CMSIS/DSP/Source/SupportFunctions/arm_bitonic_sort_f32.c ****     //Transpose 256
 403:Middlewares/Third_Party/ARM_CMSIS/CMSIS/DSP/Source/SupportFunctions/arm_bitonic_sort_f32.c ****     arm_bitonic_merge_32_f32(pSrc+0,  ab1, ab2, cd1, cd2, dir);
 404:Middlewares/Third_Party/ARM_CMSIS/CMSIS/DSP/Source/SupportFunctions/arm_bitonic_sort_f32.c ****     arm_bitonic_merge_32_f32(pSrc+32, ab3, ab4, cd3, cd4, dir);
 405:Middlewares/Third_Party/ARM_CMSIS/CMSIS/DSP/Source/SupportFunctions/arm_bitonic_sort_f32.c **** }
 406:Middlewares/Third_Party/ARM_CMSIS/CMSIS/DSP/Source/SupportFunctions/arm_bitonic_sort_f32.c **** 
 407:Middlewares/Third_Party/ARM_CMSIS/CMSIS/DSP/Source/SupportFunctions/arm_bitonic_sort_f32.c **** static void arm_bitonic_merge_128_f32(float32_t * pSrc, uint8_t dir)
 408:Middlewares/Third_Party/ARM_CMSIS/CMSIS/DSP/Source/SupportFunctions/arm_bitonic_sort_f32.c **** {
 409:Middlewares/Third_Party/ARM_CMSIS/CMSIS/DSP/Source/SupportFunctions/arm_bitonic_sort_f32.c ****     float32x4x2_t ab1, ab2, ab3, ab4, ab5, ab6, ab7, ab8;
 410:Middlewares/Third_Party/ARM_CMSIS/CMSIS/DSP/Source/SupportFunctions/arm_bitonic_sort_f32.c ****     float32x4x2_t cd1, cd2, cd3, cd4, cd5, cd6, cd7, cd8;
 411:Middlewares/Third_Party/ARM_CMSIS/CMSIS/DSP/Source/SupportFunctions/arm_bitonic_sort_f32.c **** 
 412:Middlewares/Third_Party/ARM_CMSIS/CMSIS/DSP/Source/SupportFunctions/arm_bitonic_sort_f32.c ****     //Load and reverse second array
 413:Middlewares/Third_Party/ARM_CMSIS/CMSIS/DSP/Source/SupportFunctions/arm_bitonic_sort_f32.c ****     ab1.val[0] = vld1q_f32(pSrc+0 );
 414:Middlewares/Third_Party/ARM_CMSIS/CMSIS/DSP/Source/SupportFunctions/arm_bitonic_sort_f32.c ****     ab1.val[1] = vld1q_f32(pSrc+4 );
 415:Middlewares/Third_Party/ARM_CMSIS/CMSIS/DSP/Source/SupportFunctions/arm_bitonic_sort_f32.c ****     ab2.val[0] = vld1q_f32(pSrc+8 ); 
 416:Middlewares/Third_Party/ARM_CMSIS/CMSIS/DSP/Source/SupportFunctions/arm_bitonic_sort_f32.c ****     ab2.val[1] = vld1q_f32(pSrc+12);
 417:Middlewares/Third_Party/ARM_CMSIS/CMSIS/DSP/Source/SupportFunctions/arm_bitonic_sort_f32.c ****     ab3.val[0] = vld1q_f32(pSrc+16);
 418:Middlewares/Third_Party/ARM_CMSIS/CMSIS/DSP/Source/SupportFunctions/arm_bitonic_sort_f32.c ****     ab3.val[1] = vld1q_f32(pSrc+20);
 419:Middlewares/Third_Party/ARM_CMSIS/CMSIS/DSP/Source/SupportFunctions/arm_bitonic_sort_f32.c ****     ab4.val[0] = vld1q_f32(pSrc+24); 
 420:Middlewares/Third_Party/ARM_CMSIS/CMSIS/DSP/Source/SupportFunctions/arm_bitonic_sort_f32.c ****     ab4.val[1] = vld1q_f32(pSrc+28);
 421:Middlewares/Third_Party/ARM_CMSIS/CMSIS/DSP/Source/SupportFunctions/arm_bitonic_sort_f32.c ****     ab5.val[0] = vld1q_f32(pSrc+32);
 422:Middlewares/Third_Party/ARM_CMSIS/CMSIS/DSP/Source/SupportFunctions/arm_bitonic_sort_f32.c ****     ab5.val[1] = vld1q_f32(pSrc+36);
 423:Middlewares/Third_Party/ARM_CMSIS/CMSIS/DSP/Source/SupportFunctions/arm_bitonic_sort_f32.c ****     ab6.val[0] = vld1q_f32(pSrc+40); 
 424:Middlewares/Third_Party/ARM_CMSIS/CMSIS/DSP/Source/SupportFunctions/arm_bitonic_sort_f32.c ****     ab6.val[1] = vld1q_f32(pSrc+44);
 425:Middlewares/Third_Party/ARM_CMSIS/CMSIS/DSP/Source/SupportFunctions/arm_bitonic_sort_f32.c ****     ab7.val[0] = vld1q_f32(pSrc+48);
 426:Middlewares/Third_Party/ARM_CMSIS/CMSIS/DSP/Source/SupportFunctions/arm_bitonic_sort_f32.c ****     ab7.val[1] = vld1q_f32(pSrc+52);
 427:Middlewares/Third_Party/ARM_CMSIS/CMSIS/DSP/Source/SupportFunctions/arm_bitonic_sort_f32.c ****     ab8.val[0] = vld1q_f32(pSrc+56); 
 428:Middlewares/Third_Party/ARM_CMSIS/CMSIS/DSP/Source/SupportFunctions/arm_bitonic_sort_f32.c ****     ab8.val[1] = vld1q_f32(pSrc+60);
 429:Middlewares/Third_Party/ARM_CMSIS/CMSIS/DSP/Source/SupportFunctions/arm_bitonic_sort_f32.c **** 
 430:Middlewares/Third_Party/ARM_CMSIS/CMSIS/DSP/Source/SupportFunctions/arm_bitonic_sort_f32.c ****     vldrev128q_f32(cd8.val[1], pSrc+64);
 431:Middlewares/Third_Party/ARM_CMSIS/CMSIS/DSP/Source/SupportFunctions/arm_bitonic_sort_f32.c ****     vldrev128q_f32(cd8.val[0], pSrc+68);
 432:Middlewares/Third_Party/ARM_CMSIS/CMSIS/DSP/Source/SupportFunctions/arm_bitonic_sort_f32.c ****     vldrev128q_f32(cd7.val[1], pSrc+72);
 433:Middlewares/Third_Party/ARM_CMSIS/CMSIS/DSP/Source/SupportFunctions/arm_bitonic_sort_f32.c ****     vldrev128q_f32(cd7.val[0], pSrc+76);
 434:Middlewares/Third_Party/ARM_CMSIS/CMSIS/DSP/Source/SupportFunctions/arm_bitonic_sort_f32.c ****     vldrev128q_f32(cd6.val[1], pSrc+80);
 435:Middlewares/Third_Party/ARM_CMSIS/CMSIS/DSP/Source/SupportFunctions/arm_bitonic_sort_f32.c ****     vldrev128q_f32(cd6.val[0], pSrc+84);
 436:Middlewares/Third_Party/ARM_CMSIS/CMSIS/DSP/Source/SupportFunctions/arm_bitonic_sort_f32.c ****     vldrev128q_f32(cd5.val[1], pSrc+88);
 437:Middlewares/Third_Party/ARM_CMSIS/CMSIS/DSP/Source/SupportFunctions/arm_bitonic_sort_f32.c ****     vldrev128q_f32(cd5.val[0], pSrc+92);
 438:Middlewares/Third_Party/ARM_CMSIS/CMSIS/DSP/Source/SupportFunctions/arm_bitonic_sort_f32.c ****     vldrev128q_f32(cd4.val[1], pSrc+96);
 439:Middlewares/Third_Party/ARM_CMSIS/CMSIS/DSP/Source/SupportFunctions/arm_bitonic_sort_f32.c ****     vldrev128q_f32(cd4.val[0], pSrc+100);
 440:Middlewares/Third_Party/ARM_CMSIS/CMSIS/DSP/Source/SupportFunctions/arm_bitonic_sort_f32.c ****     vldrev128q_f32(cd3.val[1], pSrc+104);
 441:Middlewares/Third_Party/ARM_CMSIS/CMSIS/DSP/Source/SupportFunctions/arm_bitonic_sort_f32.c ****     vldrev128q_f32(cd3.val[0], pSrc+108);
 442:Middlewares/Third_Party/ARM_CMSIS/CMSIS/DSP/Source/SupportFunctions/arm_bitonic_sort_f32.c ****     vldrev128q_f32(cd2.val[1], pSrc+112);
 443:Middlewares/Third_Party/ARM_CMSIS/CMSIS/DSP/Source/SupportFunctions/arm_bitonic_sort_f32.c ****     vldrev128q_f32(cd2.val[0], pSrc+116);
 444:Middlewares/Third_Party/ARM_CMSIS/CMSIS/DSP/Source/SupportFunctions/arm_bitonic_sort_f32.c ****     vldrev128q_f32(cd1.val[1], pSrc+120);
 445:Middlewares/Third_Party/ARM_CMSIS/CMSIS/DSP/Source/SupportFunctions/arm_bitonic_sort_f32.c ****     vldrev128q_f32(cd1.val[0], pSrc+124);
 446:Middlewares/Third_Party/ARM_CMSIS/CMSIS/DSP/Source/SupportFunctions/arm_bitonic_sort_f32.c ****     
 447:Middlewares/Third_Party/ARM_CMSIS/CMSIS/DSP/Source/SupportFunctions/arm_bitonic_sort_f32.c ****     //Compare
 448:Middlewares/Third_Party/ARM_CMSIS/CMSIS/DSP/Source/SupportFunctions/arm_bitonic_sort_f32.c ****     if(dir)
ARM GAS  C:\Users\7636~1\AppData\Local\Temp\ccIWThgb.s 			page 38


 449:Middlewares/Third_Party/ARM_CMSIS/CMSIS/DSP/Source/SupportFunctions/arm_bitonic_sort_f32.c ****     {
 450:Middlewares/Third_Party/ARM_CMSIS/CMSIS/DSP/Source/SupportFunctions/arm_bitonic_sort_f32.c ****         vminmax256q(ab1, cd1);
 451:Middlewares/Third_Party/ARM_CMSIS/CMSIS/DSP/Source/SupportFunctions/arm_bitonic_sort_f32.c ****         vminmax256q(ab2, cd2);
 452:Middlewares/Third_Party/ARM_CMSIS/CMSIS/DSP/Source/SupportFunctions/arm_bitonic_sort_f32.c ****         vminmax256q(ab3, cd3);
 453:Middlewares/Third_Party/ARM_CMSIS/CMSIS/DSP/Source/SupportFunctions/arm_bitonic_sort_f32.c ****         vminmax256q(ab4, cd4);
 454:Middlewares/Third_Party/ARM_CMSIS/CMSIS/DSP/Source/SupportFunctions/arm_bitonic_sort_f32.c ****         vminmax256q(ab5, cd5);
 455:Middlewares/Third_Party/ARM_CMSIS/CMSIS/DSP/Source/SupportFunctions/arm_bitonic_sort_f32.c ****         vminmax256q(ab6, cd6);
 456:Middlewares/Third_Party/ARM_CMSIS/CMSIS/DSP/Source/SupportFunctions/arm_bitonic_sort_f32.c ****         vminmax256q(ab7, cd7);
 457:Middlewares/Third_Party/ARM_CMSIS/CMSIS/DSP/Source/SupportFunctions/arm_bitonic_sort_f32.c ****         vminmax256q(ab8, cd8);
 458:Middlewares/Third_Party/ARM_CMSIS/CMSIS/DSP/Source/SupportFunctions/arm_bitonic_sort_f32.c ****     }
 459:Middlewares/Third_Party/ARM_CMSIS/CMSIS/DSP/Source/SupportFunctions/arm_bitonic_sort_f32.c ****     else
 460:Middlewares/Third_Party/ARM_CMSIS/CMSIS/DSP/Source/SupportFunctions/arm_bitonic_sort_f32.c ****     {
 461:Middlewares/Third_Party/ARM_CMSIS/CMSIS/DSP/Source/SupportFunctions/arm_bitonic_sort_f32.c ****         vminmax256q(cd1, ab1);
 462:Middlewares/Third_Party/ARM_CMSIS/CMSIS/DSP/Source/SupportFunctions/arm_bitonic_sort_f32.c ****         vminmax256q(cd2, ab2);
 463:Middlewares/Third_Party/ARM_CMSIS/CMSIS/DSP/Source/SupportFunctions/arm_bitonic_sort_f32.c ****         vminmax256q(cd3, ab3);
 464:Middlewares/Third_Party/ARM_CMSIS/CMSIS/DSP/Source/SupportFunctions/arm_bitonic_sort_f32.c ****         vminmax256q(cd4, ab4);
 465:Middlewares/Third_Party/ARM_CMSIS/CMSIS/DSP/Source/SupportFunctions/arm_bitonic_sort_f32.c ****         vminmax256q(cd5, ab5);
 466:Middlewares/Third_Party/ARM_CMSIS/CMSIS/DSP/Source/SupportFunctions/arm_bitonic_sort_f32.c ****         vminmax256q(cd6, ab6);
 467:Middlewares/Third_Party/ARM_CMSIS/CMSIS/DSP/Source/SupportFunctions/arm_bitonic_sort_f32.c ****         vminmax256q(cd7, ab7);
 468:Middlewares/Third_Party/ARM_CMSIS/CMSIS/DSP/Source/SupportFunctions/arm_bitonic_sort_f32.c ****         vminmax256q(cd8, ab8);
 469:Middlewares/Third_Party/ARM_CMSIS/CMSIS/DSP/Source/SupportFunctions/arm_bitonic_sort_f32.c ****     }
 470:Middlewares/Third_Party/ARM_CMSIS/CMSIS/DSP/Source/SupportFunctions/arm_bitonic_sort_f32.c ****     
 471:Middlewares/Third_Party/ARM_CMSIS/CMSIS/DSP/Source/SupportFunctions/arm_bitonic_sort_f32.c ****     //Transpose
 472:Middlewares/Third_Party/ARM_CMSIS/CMSIS/DSP/Source/SupportFunctions/arm_bitonic_sort_f32.c ****     float32x4_t temp;
 473:Middlewares/Third_Party/ARM_CMSIS/CMSIS/DSP/Source/SupportFunctions/arm_bitonic_sort_f32.c **** 
 474:Middlewares/Third_Party/ARM_CMSIS/CMSIS/DSP/Source/SupportFunctions/arm_bitonic_sort_f32.c ****     temp = ab5.val[0];
 475:Middlewares/Third_Party/ARM_CMSIS/CMSIS/DSP/Source/SupportFunctions/arm_bitonic_sort_f32.c ****     ab5.val[0] = cd1.val[0];
 476:Middlewares/Third_Party/ARM_CMSIS/CMSIS/DSP/Source/SupportFunctions/arm_bitonic_sort_f32.c ****     cd1.val[0] = temp;
 477:Middlewares/Third_Party/ARM_CMSIS/CMSIS/DSP/Source/SupportFunctions/arm_bitonic_sort_f32.c ****     temp = ab5.val[1];
 478:Middlewares/Third_Party/ARM_CMSIS/CMSIS/DSP/Source/SupportFunctions/arm_bitonic_sort_f32.c ****     ab5.val[1] = cd1.val[1];
 479:Middlewares/Third_Party/ARM_CMSIS/CMSIS/DSP/Source/SupportFunctions/arm_bitonic_sort_f32.c ****     cd1.val[1] = temp;
 480:Middlewares/Third_Party/ARM_CMSIS/CMSIS/DSP/Source/SupportFunctions/arm_bitonic_sort_f32.c ****     temp = ab6.val[0];
 481:Middlewares/Third_Party/ARM_CMSIS/CMSIS/DSP/Source/SupportFunctions/arm_bitonic_sort_f32.c ****     ab6.val[0] = cd2.val[0];
 482:Middlewares/Third_Party/ARM_CMSIS/CMSIS/DSP/Source/SupportFunctions/arm_bitonic_sort_f32.c ****     cd2.val[0] = temp;
 483:Middlewares/Third_Party/ARM_CMSIS/CMSIS/DSP/Source/SupportFunctions/arm_bitonic_sort_f32.c ****     temp = ab6.val[1];
 484:Middlewares/Third_Party/ARM_CMSIS/CMSIS/DSP/Source/SupportFunctions/arm_bitonic_sort_f32.c ****     ab6.val[1] = cd2.val[1];
 485:Middlewares/Third_Party/ARM_CMSIS/CMSIS/DSP/Source/SupportFunctions/arm_bitonic_sort_f32.c ****     cd2.val[1] = temp;
 486:Middlewares/Third_Party/ARM_CMSIS/CMSIS/DSP/Source/SupportFunctions/arm_bitonic_sort_f32.c ****     temp = ab7.val[0];
 487:Middlewares/Third_Party/ARM_CMSIS/CMSIS/DSP/Source/SupportFunctions/arm_bitonic_sort_f32.c ****     ab7.val[0] = cd3.val[0];
 488:Middlewares/Third_Party/ARM_CMSIS/CMSIS/DSP/Source/SupportFunctions/arm_bitonic_sort_f32.c ****     cd3.val[0] = temp;
 489:Middlewares/Third_Party/ARM_CMSIS/CMSIS/DSP/Source/SupportFunctions/arm_bitonic_sort_f32.c ****     temp = ab7.val[1];
 490:Middlewares/Third_Party/ARM_CMSIS/CMSIS/DSP/Source/SupportFunctions/arm_bitonic_sort_f32.c ****     ab7.val[1] = cd3.val[1];
 491:Middlewares/Third_Party/ARM_CMSIS/CMSIS/DSP/Source/SupportFunctions/arm_bitonic_sort_f32.c ****     cd3.val[1] = temp;
 492:Middlewares/Third_Party/ARM_CMSIS/CMSIS/DSP/Source/SupportFunctions/arm_bitonic_sort_f32.c ****     temp = ab8.val[0];
 493:Middlewares/Third_Party/ARM_CMSIS/CMSIS/DSP/Source/SupportFunctions/arm_bitonic_sort_f32.c ****     ab8.val[0] = cd4.val[0];
 494:Middlewares/Third_Party/ARM_CMSIS/CMSIS/DSP/Source/SupportFunctions/arm_bitonic_sort_f32.c ****     cd4.val[0] = temp;
 495:Middlewares/Third_Party/ARM_CMSIS/CMSIS/DSP/Source/SupportFunctions/arm_bitonic_sort_f32.c ****     temp = ab8.val[1];
 496:Middlewares/Third_Party/ARM_CMSIS/CMSIS/DSP/Source/SupportFunctions/arm_bitonic_sort_f32.c ****     ab8.val[1] = cd4.val[1];
 497:Middlewares/Third_Party/ARM_CMSIS/CMSIS/DSP/Source/SupportFunctions/arm_bitonic_sort_f32.c ****     cd4.val[1] = temp;
 498:Middlewares/Third_Party/ARM_CMSIS/CMSIS/DSP/Source/SupportFunctions/arm_bitonic_sort_f32.c **** 
 499:Middlewares/Third_Party/ARM_CMSIS/CMSIS/DSP/Source/SupportFunctions/arm_bitonic_sort_f32.c ****     //Compare
 500:Middlewares/Third_Party/ARM_CMSIS/CMSIS/DSP/Source/SupportFunctions/arm_bitonic_sort_f32.c ****     if(dir)
 501:Middlewares/Third_Party/ARM_CMSIS/CMSIS/DSP/Source/SupportFunctions/arm_bitonic_sort_f32.c ****     {
 502:Middlewares/Third_Party/ARM_CMSIS/CMSIS/DSP/Source/SupportFunctions/arm_bitonic_sort_f32.c ****         vminmax256q(ab1, cd1);
 503:Middlewares/Third_Party/ARM_CMSIS/CMSIS/DSP/Source/SupportFunctions/arm_bitonic_sort_f32.c ****         vminmax256q(ab2, cd2);
 504:Middlewares/Third_Party/ARM_CMSIS/CMSIS/DSP/Source/SupportFunctions/arm_bitonic_sort_f32.c ****         vminmax256q(ab3, cd3);
 505:Middlewares/Third_Party/ARM_CMSIS/CMSIS/DSP/Source/SupportFunctions/arm_bitonic_sort_f32.c ****         vminmax256q(ab4, cd4);
ARM GAS  C:\Users\7636~1\AppData\Local\Temp\ccIWThgb.s 			page 39


 506:Middlewares/Third_Party/ARM_CMSIS/CMSIS/DSP/Source/SupportFunctions/arm_bitonic_sort_f32.c ****         vminmax256q(ab5, cd5);
 507:Middlewares/Third_Party/ARM_CMSIS/CMSIS/DSP/Source/SupportFunctions/arm_bitonic_sort_f32.c ****         vminmax256q(ab6, cd6);
 508:Middlewares/Third_Party/ARM_CMSIS/CMSIS/DSP/Source/SupportFunctions/arm_bitonic_sort_f32.c ****         vminmax256q(ab7, cd7);
 509:Middlewares/Third_Party/ARM_CMSIS/CMSIS/DSP/Source/SupportFunctions/arm_bitonic_sort_f32.c ****         vminmax256q(ab8, cd8);
 510:Middlewares/Third_Party/ARM_CMSIS/CMSIS/DSP/Source/SupportFunctions/arm_bitonic_sort_f32.c ****     }
 511:Middlewares/Third_Party/ARM_CMSIS/CMSIS/DSP/Source/SupportFunctions/arm_bitonic_sort_f32.c ****     else
 512:Middlewares/Third_Party/ARM_CMSIS/CMSIS/DSP/Source/SupportFunctions/arm_bitonic_sort_f32.c ****     {
 513:Middlewares/Third_Party/ARM_CMSIS/CMSIS/DSP/Source/SupportFunctions/arm_bitonic_sort_f32.c ****         vminmax256q(cd1, ab1);
 514:Middlewares/Third_Party/ARM_CMSIS/CMSIS/DSP/Source/SupportFunctions/arm_bitonic_sort_f32.c ****         vminmax256q(cd2, ab2);
 515:Middlewares/Third_Party/ARM_CMSIS/CMSIS/DSP/Source/SupportFunctions/arm_bitonic_sort_f32.c ****         vminmax256q(cd3, ab3);
 516:Middlewares/Third_Party/ARM_CMSIS/CMSIS/DSP/Source/SupportFunctions/arm_bitonic_sort_f32.c ****         vminmax256q(cd4, ab4);
 517:Middlewares/Third_Party/ARM_CMSIS/CMSIS/DSP/Source/SupportFunctions/arm_bitonic_sort_f32.c ****         vminmax256q(cd5, ab5);
 518:Middlewares/Third_Party/ARM_CMSIS/CMSIS/DSP/Source/SupportFunctions/arm_bitonic_sort_f32.c ****         vminmax256q(cd6, ab6);
 519:Middlewares/Third_Party/ARM_CMSIS/CMSIS/DSP/Source/SupportFunctions/arm_bitonic_sort_f32.c ****         vminmax256q(cd7, ab7);
 520:Middlewares/Third_Party/ARM_CMSIS/CMSIS/DSP/Source/SupportFunctions/arm_bitonic_sort_f32.c ****         vminmax256q(cd8, ab8);
 521:Middlewares/Third_Party/ARM_CMSIS/CMSIS/DSP/Source/SupportFunctions/arm_bitonic_sort_f32.c ****     }
 522:Middlewares/Third_Party/ARM_CMSIS/CMSIS/DSP/Source/SupportFunctions/arm_bitonic_sort_f32.c **** 
 523:Middlewares/Third_Party/ARM_CMSIS/CMSIS/DSP/Source/SupportFunctions/arm_bitonic_sort_f32.c ****     vst1q_f32(pSrc,     ab1.val[0]);
 524:Middlewares/Third_Party/ARM_CMSIS/CMSIS/DSP/Source/SupportFunctions/arm_bitonic_sort_f32.c ****     vst1q_f32(pSrc+4,   ab1.val[1]);
 525:Middlewares/Third_Party/ARM_CMSIS/CMSIS/DSP/Source/SupportFunctions/arm_bitonic_sort_f32.c ****     vst1q_f32(pSrc+8,   ab2.val[0]);
 526:Middlewares/Third_Party/ARM_CMSIS/CMSIS/DSP/Source/SupportFunctions/arm_bitonic_sort_f32.c ****     vst1q_f32(pSrc+12,  ab2.val[1]);
 527:Middlewares/Third_Party/ARM_CMSIS/CMSIS/DSP/Source/SupportFunctions/arm_bitonic_sort_f32.c ****     vst1q_f32(pSrc+16,  ab3.val[0]);
 528:Middlewares/Third_Party/ARM_CMSIS/CMSIS/DSP/Source/SupportFunctions/arm_bitonic_sort_f32.c ****     vst1q_f32(pSrc+20,  ab3.val[1]);
 529:Middlewares/Third_Party/ARM_CMSIS/CMSIS/DSP/Source/SupportFunctions/arm_bitonic_sort_f32.c ****     vst1q_f32(pSrc+24,  ab4.val[0]);
 530:Middlewares/Third_Party/ARM_CMSIS/CMSIS/DSP/Source/SupportFunctions/arm_bitonic_sort_f32.c ****     vst1q_f32(pSrc+28,  ab4.val[1]);
 531:Middlewares/Third_Party/ARM_CMSIS/CMSIS/DSP/Source/SupportFunctions/arm_bitonic_sort_f32.c ****     vst1q_f32(pSrc+32,  cd1.val[0]);
 532:Middlewares/Third_Party/ARM_CMSIS/CMSIS/DSP/Source/SupportFunctions/arm_bitonic_sort_f32.c ****     vst1q_f32(pSrc+36,  cd1.val[1]);
 533:Middlewares/Third_Party/ARM_CMSIS/CMSIS/DSP/Source/SupportFunctions/arm_bitonic_sort_f32.c ****     vst1q_f32(pSrc+40,  cd2.val[0]);
 534:Middlewares/Third_Party/ARM_CMSIS/CMSIS/DSP/Source/SupportFunctions/arm_bitonic_sort_f32.c ****     vst1q_f32(pSrc+44,  cd2.val[1]);
 535:Middlewares/Third_Party/ARM_CMSIS/CMSIS/DSP/Source/SupportFunctions/arm_bitonic_sort_f32.c ****     vst1q_f32(pSrc+48,  cd3.val[0]);
 536:Middlewares/Third_Party/ARM_CMSIS/CMSIS/DSP/Source/SupportFunctions/arm_bitonic_sort_f32.c ****     vst1q_f32(pSrc+52,  cd3.val[1]);
 537:Middlewares/Third_Party/ARM_CMSIS/CMSIS/DSP/Source/SupportFunctions/arm_bitonic_sort_f32.c ****     vst1q_f32(pSrc+56,  cd4.val[0]);
 538:Middlewares/Third_Party/ARM_CMSIS/CMSIS/DSP/Source/SupportFunctions/arm_bitonic_sort_f32.c ****     vst1q_f32(pSrc+60,  cd4.val[1]);
 539:Middlewares/Third_Party/ARM_CMSIS/CMSIS/DSP/Source/SupportFunctions/arm_bitonic_sort_f32.c ****     vst1q_f32(pSrc+64,  ab5.val[0]);
 540:Middlewares/Third_Party/ARM_CMSIS/CMSIS/DSP/Source/SupportFunctions/arm_bitonic_sort_f32.c ****     vst1q_f32(pSrc+68,  ab5.val[1]);
 541:Middlewares/Third_Party/ARM_CMSIS/CMSIS/DSP/Source/SupportFunctions/arm_bitonic_sort_f32.c ****     vst1q_f32(pSrc+72,  ab6.val[0]);
 542:Middlewares/Third_Party/ARM_CMSIS/CMSIS/DSP/Source/SupportFunctions/arm_bitonic_sort_f32.c ****     vst1q_f32(pSrc+76,  ab6.val[1]);
 543:Middlewares/Third_Party/ARM_CMSIS/CMSIS/DSP/Source/SupportFunctions/arm_bitonic_sort_f32.c ****     vst1q_f32(pSrc+80,  ab7.val[0]);
 544:Middlewares/Third_Party/ARM_CMSIS/CMSIS/DSP/Source/SupportFunctions/arm_bitonic_sort_f32.c ****     vst1q_f32(pSrc+84,  ab7.val[1]);
 545:Middlewares/Third_Party/ARM_CMSIS/CMSIS/DSP/Source/SupportFunctions/arm_bitonic_sort_f32.c ****     vst1q_f32(pSrc+88,  ab8.val[0]);
 546:Middlewares/Third_Party/ARM_CMSIS/CMSIS/DSP/Source/SupportFunctions/arm_bitonic_sort_f32.c ****     vst1q_f32(pSrc+92,  ab8.val[1]);
 547:Middlewares/Third_Party/ARM_CMSIS/CMSIS/DSP/Source/SupportFunctions/arm_bitonic_sort_f32.c ****     vst1q_f32(pSrc+96,  cd5.val[0]);
 548:Middlewares/Third_Party/ARM_CMSIS/CMSIS/DSP/Source/SupportFunctions/arm_bitonic_sort_f32.c ****     vst1q_f32(pSrc+100, cd5.val[1]);
 549:Middlewares/Third_Party/ARM_CMSIS/CMSIS/DSP/Source/SupportFunctions/arm_bitonic_sort_f32.c ****     vst1q_f32(pSrc+104, cd6.val[0]);
 550:Middlewares/Third_Party/ARM_CMSIS/CMSIS/DSP/Source/SupportFunctions/arm_bitonic_sort_f32.c ****     vst1q_f32(pSrc+108, cd6.val[1]);
 551:Middlewares/Third_Party/ARM_CMSIS/CMSIS/DSP/Source/SupportFunctions/arm_bitonic_sort_f32.c ****     vst1q_f32(pSrc+112, cd7.val[0]);
 552:Middlewares/Third_Party/ARM_CMSIS/CMSIS/DSP/Source/SupportFunctions/arm_bitonic_sort_f32.c ****     vst1q_f32(pSrc+116, cd7.val[1]);
 553:Middlewares/Third_Party/ARM_CMSIS/CMSIS/DSP/Source/SupportFunctions/arm_bitonic_sort_f32.c ****     vst1q_f32(pSrc+120, cd8.val[0]);
 554:Middlewares/Third_Party/ARM_CMSIS/CMSIS/DSP/Source/SupportFunctions/arm_bitonic_sort_f32.c ****     vst1q_f32(pSrc+124, cd8.val[1]);
 555:Middlewares/Third_Party/ARM_CMSIS/CMSIS/DSP/Source/SupportFunctions/arm_bitonic_sort_f32.c **** 
 556:Middlewares/Third_Party/ARM_CMSIS/CMSIS/DSP/Source/SupportFunctions/arm_bitonic_sort_f32.c ****     //Transpose
 557:Middlewares/Third_Party/ARM_CMSIS/CMSIS/DSP/Source/SupportFunctions/arm_bitonic_sort_f32.c ****     arm_bitonic_merge_64_f32(pSrc+0 , dir);
 558:Middlewares/Third_Party/ARM_CMSIS/CMSIS/DSP/Source/SupportFunctions/arm_bitonic_sort_f32.c ****     arm_bitonic_merge_64_f32(pSrc+64, dir);
 559:Middlewares/Third_Party/ARM_CMSIS/CMSIS/DSP/Source/SupportFunctions/arm_bitonic_sort_f32.c **** }
 560:Middlewares/Third_Party/ARM_CMSIS/CMSIS/DSP/Source/SupportFunctions/arm_bitonic_sort_f32.c **** 
 561:Middlewares/Third_Party/ARM_CMSIS/CMSIS/DSP/Source/SupportFunctions/arm_bitonic_sort_f32.c **** static void arm_bitonic_merge_256_f32(float32_t * pSrc, uint8_t dir)
 562:Middlewares/Third_Party/ARM_CMSIS/CMSIS/DSP/Source/SupportFunctions/arm_bitonic_sort_f32.c **** {
ARM GAS  C:\Users\7636~1\AppData\Local\Temp\ccIWThgb.s 			page 40


 563:Middlewares/Third_Party/ARM_CMSIS/CMSIS/DSP/Source/SupportFunctions/arm_bitonic_sort_f32.c ****     float32x4x2_t ab1, ab2, ab3, ab4, ab5, ab6, ab7, ab8;
 564:Middlewares/Third_Party/ARM_CMSIS/CMSIS/DSP/Source/SupportFunctions/arm_bitonic_sort_f32.c ****     float32x4x2_t ab9, ab10, ab11, ab12, ab13, ab14, ab15, ab16;
 565:Middlewares/Third_Party/ARM_CMSIS/CMSIS/DSP/Source/SupportFunctions/arm_bitonic_sort_f32.c ****     float32x4x2_t cd1, cd2, cd3, cd4, cd5, cd6, cd7, cd8;
 566:Middlewares/Third_Party/ARM_CMSIS/CMSIS/DSP/Source/SupportFunctions/arm_bitonic_sort_f32.c ****     float32x4x2_t cd9, cd10, cd11, cd12, cd13, cd14, cd15, cd16;
 567:Middlewares/Third_Party/ARM_CMSIS/CMSIS/DSP/Source/SupportFunctions/arm_bitonic_sort_f32.c **** 
 568:Middlewares/Third_Party/ARM_CMSIS/CMSIS/DSP/Source/SupportFunctions/arm_bitonic_sort_f32.c ****     //Load and reverse second array
 569:Middlewares/Third_Party/ARM_CMSIS/CMSIS/DSP/Source/SupportFunctions/arm_bitonic_sort_f32.c ****     ab1.val[0]  = vld1q_f32(pSrc+0  );
 570:Middlewares/Third_Party/ARM_CMSIS/CMSIS/DSP/Source/SupportFunctions/arm_bitonic_sort_f32.c ****     ab1.val[1]  = vld1q_f32(pSrc+4  );
 571:Middlewares/Third_Party/ARM_CMSIS/CMSIS/DSP/Source/SupportFunctions/arm_bitonic_sort_f32.c ****     ab2.val[0]  = vld1q_f32(pSrc+8  ); 
 572:Middlewares/Third_Party/ARM_CMSIS/CMSIS/DSP/Source/SupportFunctions/arm_bitonic_sort_f32.c ****     ab2.val[1]  = vld1q_f32(pSrc+12 );
 573:Middlewares/Third_Party/ARM_CMSIS/CMSIS/DSP/Source/SupportFunctions/arm_bitonic_sort_f32.c ****     ab3.val[0]  = vld1q_f32(pSrc+16 );
 574:Middlewares/Third_Party/ARM_CMSIS/CMSIS/DSP/Source/SupportFunctions/arm_bitonic_sort_f32.c ****     ab3.val[1]  = vld1q_f32(pSrc+20 );
 575:Middlewares/Third_Party/ARM_CMSIS/CMSIS/DSP/Source/SupportFunctions/arm_bitonic_sort_f32.c ****     ab4.val[0]  = vld1q_f32(pSrc+24 ); 
 576:Middlewares/Third_Party/ARM_CMSIS/CMSIS/DSP/Source/SupportFunctions/arm_bitonic_sort_f32.c ****     ab4.val[1]  = vld1q_f32(pSrc+28 );
 577:Middlewares/Third_Party/ARM_CMSIS/CMSIS/DSP/Source/SupportFunctions/arm_bitonic_sort_f32.c ****     ab5.val[0]  = vld1q_f32(pSrc+32 );
 578:Middlewares/Third_Party/ARM_CMSIS/CMSIS/DSP/Source/SupportFunctions/arm_bitonic_sort_f32.c ****     ab5.val[1]  = vld1q_f32(pSrc+36 );
 579:Middlewares/Third_Party/ARM_CMSIS/CMSIS/DSP/Source/SupportFunctions/arm_bitonic_sort_f32.c ****     ab6.val[0]  = vld1q_f32(pSrc+40 ); 
 580:Middlewares/Third_Party/ARM_CMSIS/CMSIS/DSP/Source/SupportFunctions/arm_bitonic_sort_f32.c ****     ab6.val[1]  = vld1q_f32(pSrc+44 );
 581:Middlewares/Third_Party/ARM_CMSIS/CMSIS/DSP/Source/SupportFunctions/arm_bitonic_sort_f32.c ****     ab7.val[0]  = vld1q_f32(pSrc+48 );
 582:Middlewares/Third_Party/ARM_CMSIS/CMSIS/DSP/Source/SupportFunctions/arm_bitonic_sort_f32.c ****     ab7.val[1]  = vld1q_f32(pSrc+52 );
 583:Middlewares/Third_Party/ARM_CMSIS/CMSIS/DSP/Source/SupportFunctions/arm_bitonic_sort_f32.c ****     ab8.val[0]  = vld1q_f32(pSrc+56 ); 
 584:Middlewares/Third_Party/ARM_CMSIS/CMSIS/DSP/Source/SupportFunctions/arm_bitonic_sort_f32.c ****     ab8.val[1]  = vld1q_f32(pSrc+60 );
 585:Middlewares/Third_Party/ARM_CMSIS/CMSIS/DSP/Source/SupportFunctions/arm_bitonic_sort_f32.c ****     ab9.val[0]  = vld1q_f32(pSrc+64 );
 586:Middlewares/Third_Party/ARM_CMSIS/CMSIS/DSP/Source/SupportFunctions/arm_bitonic_sort_f32.c ****     ab9.val[1]  = vld1q_f32(pSrc+68 );
 587:Middlewares/Third_Party/ARM_CMSIS/CMSIS/DSP/Source/SupportFunctions/arm_bitonic_sort_f32.c ****     ab10.val[0] = vld1q_f32(pSrc+72 ); 
 588:Middlewares/Third_Party/ARM_CMSIS/CMSIS/DSP/Source/SupportFunctions/arm_bitonic_sort_f32.c ****     ab10.val[1] = vld1q_f32(pSrc+76 );
 589:Middlewares/Third_Party/ARM_CMSIS/CMSIS/DSP/Source/SupportFunctions/arm_bitonic_sort_f32.c ****     ab11.val[0] = vld1q_f32(pSrc+80 );
 590:Middlewares/Third_Party/ARM_CMSIS/CMSIS/DSP/Source/SupportFunctions/arm_bitonic_sort_f32.c ****     ab11.val[1] = vld1q_f32(pSrc+84 );
 591:Middlewares/Third_Party/ARM_CMSIS/CMSIS/DSP/Source/SupportFunctions/arm_bitonic_sort_f32.c ****     ab12.val[0] = vld1q_f32(pSrc+88 ); 
 592:Middlewares/Third_Party/ARM_CMSIS/CMSIS/DSP/Source/SupportFunctions/arm_bitonic_sort_f32.c ****     ab12.val[1] = vld1q_f32(pSrc+92 );
 593:Middlewares/Third_Party/ARM_CMSIS/CMSIS/DSP/Source/SupportFunctions/arm_bitonic_sort_f32.c ****     ab13.val[0] = vld1q_f32(pSrc+96 );
 594:Middlewares/Third_Party/ARM_CMSIS/CMSIS/DSP/Source/SupportFunctions/arm_bitonic_sort_f32.c ****     ab13.val[1] = vld1q_f32(pSrc+100);
 595:Middlewares/Third_Party/ARM_CMSIS/CMSIS/DSP/Source/SupportFunctions/arm_bitonic_sort_f32.c ****     ab14.val[0] = vld1q_f32(pSrc+104); 
 596:Middlewares/Third_Party/ARM_CMSIS/CMSIS/DSP/Source/SupportFunctions/arm_bitonic_sort_f32.c ****     ab14.val[1] = vld1q_f32(pSrc+108);
 597:Middlewares/Third_Party/ARM_CMSIS/CMSIS/DSP/Source/SupportFunctions/arm_bitonic_sort_f32.c ****     ab15.val[0] = vld1q_f32(pSrc+112);
 598:Middlewares/Third_Party/ARM_CMSIS/CMSIS/DSP/Source/SupportFunctions/arm_bitonic_sort_f32.c ****     ab15.val[1] = vld1q_f32(pSrc+116);
 599:Middlewares/Third_Party/ARM_CMSIS/CMSIS/DSP/Source/SupportFunctions/arm_bitonic_sort_f32.c ****     ab16.val[0] = vld1q_f32(pSrc+120); 
 600:Middlewares/Third_Party/ARM_CMSIS/CMSIS/DSP/Source/SupportFunctions/arm_bitonic_sort_f32.c ****     ab16.val[1] = vld1q_f32(pSrc+124);
 601:Middlewares/Third_Party/ARM_CMSIS/CMSIS/DSP/Source/SupportFunctions/arm_bitonic_sort_f32.c **** 
 602:Middlewares/Third_Party/ARM_CMSIS/CMSIS/DSP/Source/SupportFunctions/arm_bitonic_sort_f32.c ****     vldrev128q_f32(cd16.val[1], pSrc+128);
 603:Middlewares/Third_Party/ARM_CMSIS/CMSIS/DSP/Source/SupportFunctions/arm_bitonic_sort_f32.c ****     vldrev128q_f32(cd16.val[0], pSrc+132);
 604:Middlewares/Third_Party/ARM_CMSIS/CMSIS/DSP/Source/SupportFunctions/arm_bitonic_sort_f32.c ****     vldrev128q_f32(cd15.val[1], pSrc+136);
 605:Middlewares/Third_Party/ARM_CMSIS/CMSIS/DSP/Source/SupportFunctions/arm_bitonic_sort_f32.c ****     vldrev128q_f32(cd15.val[0], pSrc+140);
 606:Middlewares/Third_Party/ARM_CMSIS/CMSIS/DSP/Source/SupportFunctions/arm_bitonic_sort_f32.c ****     vldrev128q_f32(cd14.val[1], pSrc+144);
 607:Middlewares/Third_Party/ARM_CMSIS/CMSIS/DSP/Source/SupportFunctions/arm_bitonic_sort_f32.c ****     vldrev128q_f32(cd14.val[0], pSrc+148);
 608:Middlewares/Third_Party/ARM_CMSIS/CMSIS/DSP/Source/SupportFunctions/arm_bitonic_sort_f32.c ****     vldrev128q_f32(cd13.val[1], pSrc+152);
 609:Middlewares/Third_Party/ARM_CMSIS/CMSIS/DSP/Source/SupportFunctions/arm_bitonic_sort_f32.c ****     vldrev128q_f32(cd13.val[0], pSrc+156);
 610:Middlewares/Third_Party/ARM_CMSIS/CMSIS/DSP/Source/SupportFunctions/arm_bitonic_sort_f32.c ****     vldrev128q_f32(cd12.val[1], pSrc+160);
 611:Middlewares/Third_Party/ARM_CMSIS/CMSIS/DSP/Source/SupportFunctions/arm_bitonic_sort_f32.c ****     vldrev128q_f32(cd12.val[0], pSrc+164);
 612:Middlewares/Third_Party/ARM_CMSIS/CMSIS/DSP/Source/SupportFunctions/arm_bitonic_sort_f32.c ****     vldrev128q_f32(cd11.val[1], pSrc+168);
 613:Middlewares/Third_Party/ARM_CMSIS/CMSIS/DSP/Source/SupportFunctions/arm_bitonic_sort_f32.c ****     vldrev128q_f32(cd11.val[0], pSrc+172);
 614:Middlewares/Third_Party/ARM_CMSIS/CMSIS/DSP/Source/SupportFunctions/arm_bitonic_sort_f32.c ****     vldrev128q_f32(cd10.val[1], pSrc+176);
 615:Middlewares/Third_Party/ARM_CMSIS/CMSIS/DSP/Source/SupportFunctions/arm_bitonic_sort_f32.c ****     vldrev128q_f32(cd10.val[0], pSrc+180);
 616:Middlewares/Third_Party/ARM_CMSIS/CMSIS/DSP/Source/SupportFunctions/arm_bitonic_sort_f32.c ****     vldrev128q_f32(cd9.val[1] , pSrc+184);
 617:Middlewares/Third_Party/ARM_CMSIS/CMSIS/DSP/Source/SupportFunctions/arm_bitonic_sort_f32.c ****     vldrev128q_f32(cd9.val[0] , pSrc+188);
 618:Middlewares/Third_Party/ARM_CMSIS/CMSIS/DSP/Source/SupportFunctions/arm_bitonic_sort_f32.c ****     vldrev128q_f32(cd8.val[1] , pSrc+192);
 619:Middlewares/Third_Party/ARM_CMSIS/CMSIS/DSP/Source/SupportFunctions/arm_bitonic_sort_f32.c ****     vldrev128q_f32(cd8.val[0] , pSrc+196);
ARM GAS  C:\Users\7636~1\AppData\Local\Temp\ccIWThgb.s 			page 41


 620:Middlewares/Third_Party/ARM_CMSIS/CMSIS/DSP/Source/SupportFunctions/arm_bitonic_sort_f32.c ****     vldrev128q_f32(cd7.val[1] , pSrc+200);
 621:Middlewares/Third_Party/ARM_CMSIS/CMSIS/DSP/Source/SupportFunctions/arm_bitonic_sort_f32.c ****     vldrev128q_f32(cd7.val[0] , pSrc+204);
 622:Middlewares/Third_Party/ARM_CMSIS/CMSIS/DSP/Source/SupportFunctions/arm_bitonic_sort_f32.c ****     vldrev128q_f32(cd6.val[1] , pSrc+208);
 623:Middlewares/Third_Party/ARM_CMSIS/CMSIS/DSP/Source/SupportFunctions/arm_bitonic_sort_f32.c ****     vldrev128q_f32(cd6.val[0] , pSrc+212);
 624:Middlewares/Third_Party/ARM_CMSIS/CMSIS/DSP/Source/SupportFunctions/arm_bitonic_sort_f32.c ****     vldrev128q_f32(cd5.val[1] , pSrc+216);
 625:Middlewares/Third_Party/ARM_CMSIS/CMSIS/DSP/Source/SupportFunctions/arm_bitonic_sort_f32.c ****     vldrev128q_f32(cd5.val[0] , pSrc+220);
 626:Middlewares/Third_Party/ARM_CMSIS/CMSIS/DSP/Source/SupportFunctions/arm_bitonic_sort_f32.c ****     vldrev128q_f32(cd4.val[1] , pSrc+224);
 627:Middlewares/Third_Party/ARM_CMSIS/CMSIS/DSP/Source/SupportFunctions/arm_bitonic_sort_f32.c ****     vldrev128q_f32(cd4.val[0] , pSrc+228);
 628:Middlewares/Third_Party/ARM_CMSIS/CMSIS/DSP/Source/SupportFunctions/arm_bitonic_sort_f32.c ****     vldrev128q_f32(cd3.val[1] , pSrc+232);
 629:Middlewares/Third_Party/ARM_CMSIS/CMSIS/DSP/Source/SupportFunctions/arm_bitonic_sort_f32.c ****     vldrev128q_f32(cd3.val[0] , pSrc+236);
 630:Middlewares/Third_Party/ARM_CMSIS/CMSIS/DSP/Source/SupportFunctions/arm_bitonic_sort_f32.c ****     vldrev128q_f32(cd2.val[1] , pSrc+240);
 631:Middlewares/Third_Party/ARM_CMSIS/CMSIS/DSP/Source/SupportFunctions/arm_bitonic_sort_f32.c ****     vldrev128q_f32(cd2.val[0] , pSrc+244);
 632:Middlewares/Third_Party/ARM_CMSIS/CMSIS/DSP/Source/SupportFunctions/arm_bitonic_sort_f32.c ****     vldrev128q_f32(cd1.val[1] , pSrc+248);
 633:Middlewares/Third_Party/ARM_CMSIS/CMSIS/DSP/Source/SupportFunctions/arm_bitonic_sort_f32.c ****     vldrev128q_f32(cd1.val[0] , pSrc+252);
 634:Middlewares/Third_Party/ARM_CMSIS/CMSIS/DSP/Source/SupportFunctions/arm_bitonic_sort_f32.c ****     
 635:Middlewares/Third_Party/ARM_CMSIS/CMSIS/DSP/Source/SupportFunctions/arm_bitonic_sort_f32.c ****     //Compare
 636:Middlewares/Third_Party/ARM_CMSIS/CMSIS/DSP/Source/SupportFunctions/arm_bitonic_sort_f32.c ****     if(dir)
 637:Middlewares/Third_Party/ARM_CMSIS/CMSIS/DSP/Source/SupportFunctions/arm_bitonic_sort_f32.c ****     {
 638:Middlewares/Third_Party/ARM_CMSIS/CMSIS/DSP/Source/SupportFunctions/arm_bitonic_sort_f32.c ****         vminmax256q(ab1 , cd1 );
 639:Middlewares/Third_Party/ARM_CMSIS/CMSIS/DSP/Source/SupportFunctions/arm_bitonic_sort_f32.c ****         vminmax256q(ab2 , cd2 );
 640:Middlewares/Third_Party/ARM_CMSIS/CMSIS/DSP/Source/SupportFunctions/arm_bitonic_sort_f32.c ****         vminmax256q(ab3 , cd3 );
 641:Middlewares/Third_Party/ARM_CMSIS/CMSIS/DSP/Source/SupportFunctions/arm_bitonic_sort_f32.c ****         vminmax256q(ab4 , cd4 );
 642:Middlewares/Third_Party/ARM_CMSIS/CMSIS/DSP/Source/SupportFunctions/arm_bitonic_sort_f32.c ****         vminmax256q(ab5 , cd5 );
 643:Middlewares/Third_Party/ARM_CMSIS/CMSIS/DSP/Source/SupportFunctions/arm_bitonic_sort_f32.c ****         vminmax256q(ab6 , cd6 );
 644:Middlewares/Third_Party/ARM_CMSIS/CMSIS/DSP/Source/SupportFunctions/arm_bitonic_sort_f32.c ****         vminmax256q(ab7 , cd7 );
 645:Middlewares/Third_Party/ARM_CMSIS/CMSIS/DSP/Source/SupportFunctions/arm_bitonic_sort_f32.c ****         vminmax256q(ab8 , cd8 );
 646:Middlewares/Third_Party/ARM_CMSIS/CMSIS/DSP/Source/SupportFunctions/arm_bitonic_sort_f32.c ****         vminmax256q(ab9 , cd9 );
 647:Middlewares/Third_Party/ARM_CMSIS/CMSIS/DSP/Source/SupportFunctions/arm_bitonic_sort_f32.c ****         vminmax256q(ab10, cd10);
 648:Middlewares/Third_Party/ARM_CMSIS/CMSIS/DSP/Source/SupportFunctions/arm_bitonic_sort_f32.c ****         vminmax256q(ab11, cd11);
 649:Middlewares/Third_Party/ARM_CMSIS/CMSIS/DSP/Source/SupportFunctions/arm_bitonic_sort_f32.c ****         vminmax256q(ab12, cd12);
 650:Middlewares/Third_Party/ARM_CMSIS/CMSIS/DSP/Source/SupportFunctions/arm_bitonic_sort_f32.c ****         vminmax256q(ab13, cd13);
 651:Middlewares/Third_Party/ARM_CMSIS/CMSIS/DSP/Source/SupportFunctions/arm_bitonic_sort_f32.c ****         vminmax256q(ab14, cd14);
 652:Middlewares/Third_Party/ARM_CMSIS/CMSIS/DSP/Source/SupportFunctions/arm_bitonic_sort_f32.c ****         vminmax256q(ab15, cd15);
 653:Middlewares/Third_Party/ARM_CMSIS/CMSIS/DSP/Source/SupportFunctions/arm_bitonic_sort_f32.c ****         vminmax256q(ab16, cd16);
 654:Middlewares/Third_Party/ARM_CMSIS/CMSIS/DSP/Source/SupportFunctions/arm_bitonic_sort_f32.c ****     }
 655:Middlewares/Third_Party/ARM_CMSIS/CMSIS/DSP/Source/SupportFunctions/arm_bitonic_sort_f32.c ****     else
 656:Middlewares/Third_Party/ARM_CMSIS/CMSIS/DSP/Source/SupportFunctions/arm_bitonic_sort_f32.c ****     {
 657:Middlewares/Third_Party/ARM_CMSIS/CMSIS/DSP/Source/SupportFunctions/arm_bitonic_sort_f32.c ****         vminmax256q(cd1 , ab1 );
 658:Middlewares/Third_Party/ARM_CMSIS/CMSIS/DSP/Source/SupportFunctions/arm_bitonic_sort_f32.c ****         vminmax256q(cd2 , ab2 );
 659:Middlewares/Third_Party/ARM_CMSIS/CMSIS/DSP/Source/SupportFunctions/arm_bitonic_sort_f32.c ****         vminmax256q(cd3 , ab3 );
 660:Middlewares/Third_Party/ARM_CMSIS/CMSIS/DSP/Source/SupportFunctions/arm_bitonic_sort_f32.c ****         vminmax256q(cd4 , ab4 );
 661:Middlewares/Third_Party/ARM_CMSIS/CMSIS/DSP/Source/SupportFunctions/arm_bitonic_sort_f32.c ****         vminmax256q(cd5 , ab5 );
 662:Middlewares/Third_Party/ARM_CMSIS/CMSIS/DSP/Source/SupportFunctions/arm_bitonic_sort_f32.c ****         vminmax256q(cd6 , ab6 );
 663:Middlewares/Third_Party/ARM_CMSIS/CMSIS/DSP/Source/SupportFunctions/arm_bitonic_sort_f32.c ****         vminmax256q(cd7 , ab7 );
 664:Middlewares/Third_Party/ARM_CMSIS/CMSIS/DSP/Source/SupportFunctions/arm_bitonic_sort_f32.c ****         vminmax256q(cd8 , ab8 );
 665:Middlewares/Third_Party/ARM_CMSIS/CMSIS/DSP/Source/SupportFunctions/arm_bitonic_sort_f32.c ****         vminmax256q(cd9 , ab9 );
 666:Middlewares/Third_Party/ARM_CMSIS/CMSIS/DSP/Source/SupportFunctions/arm_bitonic_sort_f32.c ****         vminmax256q(cd10, ab10);
 667:Middlewares/Third_Party/ARM_CMSIS/CMSIS/DSP/Source/SupportFunctions/arm_bitonic_sort_f32.c ****         vminmax256q(cd11, ab11);
 668:Middlewares/Third_Party/ARM_CMSIS/CMSIS/DSP/Source/SupportFunctions/arm_bitonic_sort_f32.c ****         vminmax256q(cd12, ab12);
 669:Middlewares/Third_Party/ARM_CMSIS/CMSIS/DSP/Source/SupportFunctions/arm_bitonic_sort_f32.c ****         vminmax256q(cd13, ab13);
 670:Middlewares/Third_Party/ARM_CMSIS/CMSIS/DSP/Source/SupportFunctions/arm_bitonic_sort_f32.c ****         vminmax256q(cd14, ab14);
 671:Middlewares/Third_Party/ARM_CMSIS/CMSIS/DSP/Source/SupportFunctions/arm_bitonic_sort_f32.c ****         vminmax256q(cd15, ab15);
 672:Middlewares/Third_Party/ARM_CMSIS/CMSIS/DSP/Source/SupportFunctions/arm_bitonic_sort_f32.c ****         vminmax256q(cd16, ab16);
 673:Middlewares/Third_Party/ARM_CMSIS/CMSIS/DSP/Source/SupportFunctions/arm_bitonic_sort_f32.c ****     }
 674:Middlewares/Third_Party/ARM_CMSIS/CMSIS/DSP/Source/SupportFunctions/arm_bitonic_sort_f32.c **** 
 675:Middlewares/Third_Party/ARM_CMSIS/CMSIS/DSP/Source/SupportFunctions/arm_bitonic_sort_f32.c ****     //Transpose
 676:Middlewares/Third_Party/ARM_CMSIS/CMSIS/DSP/Source/SupportFunctions/arm_bitonic_sort_f32.c ****     float32x4_t temp;
ARM GAS  C:\Users\7636~1\AppData\Local\Temp\ccIWThgb.s 			page 42


 677:Middlewares/Third_Party/ARM_CMSIS/CMSIS/DSP/Source/SupportFunctions/arm_bitonic_sort_f32.c **** 
 678:Middlewares/Third_Party/ARM_CMSIS/CMSIS/DSP/Source/SupportFunctions/arm_bitonic_sort_f32.c ****     temp = ab9.val[0];
 679:Middlewares/Third_Party/ARM_CMSIS/CMSIS/DSP/Source/SupportFunctions/arm_bitonic_sort_f32.c ****     ab9.val[0] = cd1.val[0];
 680:Middlewares/Third_Party/ARM_CMSIS/CMSIS/DSP/Source/SupportFunctions/arm_bitonic_sort_f32.c ****     cd1.val[0] = temp;
 681:Middlewares/Third_Party/ARM_CMSIS/CMSIS/DSP/Source/SupportFunctions/arm_bitonic_sort_f32.c ****     temp = ab9.val[1];
 682:Middlewares/Third_Party/ARM_CMSIS/CMSIS/DSP/Source/SupportFunctions/arm_bitonic_sort_f32.c ****     ab9.val[1] = cd1.val[1];
 683:Middlewares/Third_Party/ARM_CMSIS/CMSIS/DSP/Source/SupportFunctions/arm_bitonic_sort_f32.c ****     cd1.val[1] = temp;
 684:Middlewares/Third_Party/ARM_CMSIS/CMSIS/DSP/Source/SupportFunctions/arm_bitonic_sort_f32.c ****     temp = ab10.val[0];
 685:Middlewares/Third_Party/ARM_CMSIS/CMSIS/DSP/Source/SupportFunctions/arm_bitonic_sort_f32.c ****     ab10.val[0] = cd2.val[0];
 686:Middlewares/Third_Party/ARM_CMSIS/CMSIS/DSP/Source/SupportFunctions/arm_bitonic_sort_f32.c ****     cd2.val[0] = temp;
 687:Middlewares/Third_Party/ARM_CMSIS/CMSIS/DSP/Source/SupportFunctions/arm_bitonic_sort_f32.c ****     temp = ab10.val[1];
 688:Middlewares/Third_Party/ARM_CMSIS/CMSIS/DSP/Source/SupportFunctions/arm_bitonic_sort_f32.c ****     ab10.val[1] = cd2.val[1];
 689:Middlewares/Third_Party/ARM_CMSIS/CMSIS/DSP/Source/SupportFunctions/arm_bitonic_sort_f32.c ****     cd2.val[1] = temp;
 690:Middlewares/Third_Party/ARM_CMSIS/CMSIS/DSP/Source/SupportFunctions/arm_bitonic_sort_f32.c ****     temp = ab11.val[0];
 691:Middlewares/Third_Party/ARM_CMSIS/CMSIS/DSP/Source/SupportFunctions/arm_bitonic_sort_f32.c ****     ab11.val[0] = cd3.val[0];
 692:Middlewares/Third_Party/ARM_CMSIS/CMSIS/DSP/Source/SupportFunctions/arm_bitonic_sort_f32.c ****     cd3.val[0] = temp;
 693:Middlewares/Third_Party/ARM_CMSIS/CMSIS/DSP/Source/SupportFunctions/arm_bitonic_sort_f32.c ****     temp = ab11.val[1];
 694:Middlewares/Third_Party/ARM_CMSIS/CMSIS/DSP/Source/SupportFunctions/arm_bitonic_sort_f32.c ****     ab11.val[1] = cd3.val[1];
 695:Middlewares/Third_Party/ARM_CMSIS/CMSIS/DSP/Source/SupportFunctions/arm_bitonic_sort_f32.c ****     cd3.val[1] = temp;
 696:Middlewares/Third_Party/ARM_CMSIS/CMSIS/DSP/Source/SupportFunctions/arm_bitonic_sort_f32.c ****     temp = ab12.val[0];
 697:Middlewares/Third_Party/ARM_CMSIS/CMSIS/DSP/Source/SupportFunctions/arm_bitonic_sort_f32.c ****     ab12.val[0] = cd4.val[0];
 698:Middlewares/Third_Party/ARM_CMSIS/CMSIS/DSP/Source/SupportFunctions/arm_bitonic_sort_f32.c ****     cd4.val[0] = temp;
 699:Middlewares/Third_Party/ARM_CMSIS/CMSIS/DSP/Source/SupportFunctions/arm_bitonic_sort_f32.c ****     temp = ab12.val[1];
 700:Middlewares/Third_Party/ARM_CMSIS/CMSIS/DSP/Source/SupportFunctions/arm_bitonic_sort_f32.c ****     ab12.val[1] = cd4.val[1];
 701:Middlewares/Third_Party/ARM_CMSIS/CMSIS/DSP/Source/SupportFunctions/arm_bitonic_sort_f32.c ****     cd4.val[1] = temp;
 702:Middlewares/Third_Party/ARM_CMSIS/CMSIS/DSP/Source/SupportFunctions/arm_bitonic_sort_f32.c ****     temp = ab13.val[0];
 703:Middlewares/Third_Party/ARM_CMSIS/CMSIS/DSP/Source/SupportFunctions/arm_bitonic_sort_f32.c ****     ab13.val[0] = cd5.val[0];
 704:Middlewares/Third_Party/ARM_CMSIS/CMSIS/DSP/Source/SupportFunctions/arm_bitonic_sort_f32.c ****     cd5.val[0] = temp;
 705:Middlewares/Third_Party/ARM_CMSIS/CMSIS/DSP/Source/SupportFunctions/arm_bitonic_sort_f32.c ****     temp = ab13.val[1];
 706:Middlewares/Third_Party/ARM_CMSIS/CMSIS/DSP/Source/SupportFunctions/arm_bitonic_sort_f32.c ****     ab13.val[1] = cd5.val[1];
 707:Middlewares/Third_Party/ARM_CMSIS/CMSIS/DSP/Source/SupportFunctions/arm_bitonic_sort_f32.c ****     cd5.val[1] = temp;
 708:Middlewares/Third_Party/ARM_CMSIS/CMSIS/DSP/Source/SupportFunctions/arm_bitonic_sort_f32.c ****     temp = ab14.val[0];
 709:Middlewares/Third_Party/ARM_CMSIS/CMSIS/DSP/Source/SupportFunctions/arm_bitonic_sort_f32.c ****     ab14.val[0] = cd6.val[0];
 710:Middlewares/Third_Party/ARM_CMSIS/CMSIS/DSP/Source/SupportFunctions/arm_bitonic_sort_f32.c ****     cd6.val[0] = temp;
 711:Middlewares/Third_Party/ARM_CMSIS/CMSIS/DSP/Source/SupportFunctions/arm_bitonic_sort_f32.c ****     temp = ab14.val[1];
 712:Middlewares/Third_Party/ARM_CMSIS/CMSIS/DSP/Source/SupportFunctions/arm_bitonic_sort_f32.c ****     ab14.val[1] = cd6.val[1];
 713:Middlewares/Third_Party/ARM_CMSIS/CMSIS/DSP/Source/SupportFunctions/arm_bitonic_sort_f32.c ****     cd6.val[1] = temp;
 714:Middlewares/Third_Party/ARM_CMSIS/CMSIS/DSP/Source/SupportFunctions/arm_bitonic_sort_f32.c ****     temp = ab15.val[0];
 715:Middlewares/Third_Party/ARM_CMSIS/CMSIS/DSP/Source/SupportFunctions/arm_bitonic_sort_f32.c ****     ab15.val[0] = cd7.val[0];
 716:Middlewares/Third_Party/ARM_CMSIS/CMSIS/DSP/Source/SupportFunctions/arm_bitonic_sort_f32.c ****     cd7.val[0] = temp;
 717:Middlewares/Third_Party/ARM_CMSIS/CMSIS/DSP/Source/SupportFunctions/arm_bitonic_sort_f32.c ****     temp = ab15.val[1];
 718:Middlewares/Third_Party/ARM_CMSIS/CMSIS/DSP/Source/SupportFunctions/arm_bitonic_sort_f32.c ****     ab15.val[1] = cd7.val[1];
 719:Middlewares/Third_Party/ARM_CMSIS/CMSIS/DSP/Source/SupportFunctions/arm_bitonic_sort_f32.c ****     cd7.val[1] = temp;
 720:Middlewares/Third_Party/ARM_CMSIS/CMSIS/DSP/Source/SupportFunctions/arm_bitonic_sort_f32.c ****     temp = ab16.val[0];
 721:Middlewares/Third_Party/ARM_CMSIS/CMSIS/DSP/Source/SupportFunctions/arm_bitonic_sort_f32.c ****     ab16.val[0] = cd8.val[0];
 722:Middlewares/Third_Party/ARM_CMSIS/CMSIS/DSP/Source/SupportFunctions/arm_bitonic_sort_f32.c ****     cd8.val[0] = temp;
 723:Middlewares/Third_Party/ARM_CMSIS/CMSIS/DSP/Source/SupportFunctions/arm_bitonic_sort_f32.c ****     temp = ab16.val[1];
 724:Middlewares/Third_Party/ARM_CMSIS/CMSIS/DSP/Source/SupportFunctions/arm_bitonic_sort_f32.c ****     ab16.val[1] = cd8.val[1];
 725:Middlewares/Third_Party/ARM_CMSIS/CMSIS/DSP/Source/SupportFunctions/arm_bitonic_sort_f32.c ****     cd8.val[1] = temp;
 726:Middlewares/Third_Party/ARM_CMSIS/CMSIS/DSP/Source/SupportFunctions/arm_bitonic_sort_f32.c **** 
 727:Middlewares/Third_Party/ARM_CMSIS/CMSIS/DSP/Source/SupportFunctions/arm_bitonic_sort_f32.c ****     //Compare
 728:Middlewares/Third_Party/ARM_CMSIS/CMSIS/DSP/Source/SupportFunctions/arm_bitonic_sort_f32.c ****     if(dir)
 729:Middlewares/Third_Party/ARM_CMSIS/CMSIS/DSP/Source/SupportFunctions/arm_bitonic_sort_f32.c ****     {
 730:Middlewares/Third_Party/ARM_CMSIS/CMSIS/DSP/Source/SupportFunctions/arm_bitonic_sort_f32.c ****         vminmax256q(ab1 , cd1 );
 731:Middlewares/Third_Party/ARM_CMSIS/CMSIS/DSP/Source/SupportFunctions/arm_bitonic_sort_f32.c ****         vminmax256q(ab2 , cd2 );
 732:Middlewares/Third_Party/ARM_CMSIS/CMSIS/DSP/Source/SupportFunctions/arm_bitonic_sort_f32.c ****         vminmax256q(ab3 , cd3 );
 733:Middlewares/Third_Party/ARM_CMSIS/CMSIS/DSP/Source/SupportFunctions/arm_bitonic_sort_f32.c ****         vminmax256q(ab4 , cd4 );
ARM GAS  C:\Users\7636~1\AppData\Local\Temp\ccIWThgb.s 			page 43


 734:Middlewares/Third_Party/ARM_CMSIS/CMSIS/DSP/Source/SupportFunctions/arm_bitonic_sort_f32.c ****         vminmax256q(ab5 , cd5 );
 735:Middlewares/Third_Party/ARM_CMSIS/CMSIS/DSP/Source/SupportFunctions/arm_bitonic_sort_f32.c ****         vminmax256q(ab6 , cd6 );
 736:Middlewares/Third_Party/ARM_CMSIS/CMSIS/DSP/Source/SupportFunctions/arm_bitonic_sort_f32.c ****         vminmax256q(ab7 , cd7 );
 737:Middlewares/Third_Party/ARM_CMSIS/CMSIS/DSP/Source/SupportFunctions/arm_bitonic_sort_f32.c ****         vminmax256q(ab8 , cd8 );
 738:Middlewares/Third_Party/ARM_CMSIS/CMSIS/DSP/Source/SupportFunctions/arm_bitonic_sort_f32.c ****         vminmax256q(ab9 , cd9 );
 739:Middlewares/Third_Party/ARM_CMSIS/CMSIS/DSP/Source/SupportFunctions/arm_bitonic_sort_f32.c ****         vminmax256q(ab10, cd10);
 740:Middlewares/Third_Party/ARM_CMSIS/CMSIS/DSP/Source/SupportFunctions/arm_bitonic_sort_f32.c ****         vminmax256q(ab11, cd11);
 741:Middlewares/Third_Party/ARM_CMSIS/CMSIS/DSP/Source/SupportFunctions/arm_bitonic_sort_f32.c ****         vminmax256q(ab12, cd12);
 742:Middlewares/Third_Party/ARM_CMSIS/CMSIS/DSP/Source/SupportFunctions/arm_bitonic_sort_f32.c ****         vminmax256q(ab13, cd13);
 743:Middlewares/Third_Party/ARM_CMSIS/CMSIS/DSP/Source/SupportFunctions/arm_bitonic_sort_f32.c ****         vminmax256q(ab14, cd14);
 744:Middlewares/Third_Party/ARM_CMSIS/CMSIS/DSP/Source/SupportFunctions/arm_bitonic_sort_f32.c ****         vminmax256q(ab15, cd15);
 745:Middlewares/Third_Party/ARM_CMSIS/CMSIS/DSP/Source/SupportFunctions/arm_bitonic_sort_f32.c ****         vminmax256q(ab16, cd16);
 746:Middlewares/Third_Party/ARM_CMSIS/CMSIS/DSP/Source/SupportFunctions/arm_bitonic_sort_f32.c ****     }
 747:Middlewares/Third_Party/ARM_CMSIS/CMSIS/DSP/Source/SupportFunctions/arm_bitonic_sort_f32.c ****     else
 748:Middlewares/Third_Party/ARM_CMSIS/CMSIS/DSP/Source/SupportFunctions/arm_bitonic_sort_f32.c ****     {
 749:Middlewares/Third_Party/ARM_CMSIS/CMSIS/DSP/Source/SupportFunctions/arm_bitonic_sort_f32.c ****         vminmax256q(cd1 , ab1 );
 750:Middlewares/Third_Party/ARM_CMSIS/CMSIS/DSP/Source/SupportFunctions/arm_bitonic_sort_f32.c ****         vminmax256q(cd2 , ab2 );
 751:Middlewares/Third_Party/ARM_CMSIS/CMSIS/DSP/Source/SupportFunctions/arm_bitonic_sort_f32.c ****         vminmax256q(cd3 , ab3 );
 752:Middlewares/Third_Party/ARM_CMSIS/CMSIS/DSP/Source/SupportFunctions/arm_bitonic_sort_f32.c ****         vminmax256q(cd4 , ab4 );
 753:Middlewares/Third_Party/ARM_CMSIS/CMSIS/DSP/Source/SupportFunctions/arm_bitonic_sort_f32.c ****         vminmax256q(cd5 , ab5 );
 754:Middlewares/Third_Party/ARM_CMSIS/CMSIS/DSP/Source/SupportFunctions/arm_bitonic_sort_f32.c ****         vminmax256q(cd6 , ab6 );
 755:Middlewares/Third_Party/ARM_CMSIS/CMSIS/DSP/Source/SupportFunctions/arm_bitonic_sort_f32.c ****         vminmax256q(cd7 , ab7 );
 756:Middlewares/Third_Party/ARM_CMSIS/CMSIS/DSP/Source/SupportFunctions/arm_bitonic_sort_f32.c ****         vminmax256q(cd8 , ab8 );
 757:Middlewares/Third_Party/ARM_CMSIS/CMSIS/DSP/Source/SupportFunctions/arm_bitonic_sort_f32.c ****         vminmax256q(cd9 , ab9 );
 758:Middlewares/Third_Party/ARM_CMSIS/CMSIS/DSP/Source/SupportFunctions/arm_bitonic_sort_f32.c ****         vminmax256q(cd10, ab10);
 759:Middlewares/Third_Party/ARM_CMSIS/CMSIS/DSP/Source/SupportFunctions/arm_bitonic_sort_f32.c ****         vminmax256q(cd11, ab11);
 760:Middlewares/Third_Party/ARM_CMSIS/CMSIS/DSP/Source/SupportFunctions/arm_bitonic_sort_f32.c ****         vminmax256q(cd12, ab12);
 761:Middlewares/Third_Party/ARM_CMSIS/CMSIS/DSP/Source/SupportFunctions/arm_bitonic_sort_f32.c ****         vminmax256q(cd13, ab13);
 762:Middlewares/Third_Party/ARM_CMSIS/CMSIS/DSP/Source/SupportFunctions/arm_bitonic_sort_f32.c ****         vminmax256q(cd14, ab14);
 763:Middlewares/Third_Party/ARM_CMSIS/CMSIS/DSP/Source/SupportFunctions/arm_bitonic_sort_f32.c ****         vminmax256q(cd15, ab15);
 764:Middlewares/Third_Party/ARM_CMSIS/CMSIS/DSP/Source/SupportFunctions/arm_bitonic_sort_f32.c ****         vminmax256q(cd16, ab16);
 765:Middlewares/Third_Party/ARM_CMSIS/CMSIS/DSP/Source/SupportFunctions/arm_bitonic_sort_f32.c ****     }
 766:Middlewares/Third_Party/ARM_CMSIS/CMSIS/DSP/Source/SupportFunctions/arm_bitonic_sort_f32.c **** 
 767:Middlewares/Third_Party/ARM_CMSIS/CMSIS/DSP/Source/SupportFunctions/arm_bitonic_sort_f32.c ****     vst1q_f32(pSrc,     ab1.val[0] );
 768:Middlewares/Third_Party/ARM_CMSIS/CMSIS/DSP/Source/SupportFunctions/arm_bitonic_sort_f32.c ****     vst1q_f32(pSrc+4,   ab1.val[1] );
 769:Middlewares/Third_Party/ARM_CMSIS/CMSIS/DSP/Source/SupportFunctions/arm_bitonic_sort_f32.c ****     vst1q_f32(pSrc+8,   ab2.val[0] );
 770:Middlewares/Third_Party/ARM_CMSIS/CMSIS/DSP/Source/SupportFunctions/arm_bitonic_sort_f32.c ****     vst1q_f32(pSrc+12,  ab2.val[1] );
 771:Middlewares/Third_Party/ARM_CMSIS/CMSIS/DSP/Source/SupportFunctions/arm_bitonic_sort_f32.c ****     vst1q_f32(pSrc+16,  ab3.val[0] );
 772:Middlewares/Third_Party/ARM_CMSIS/CMSIS/DSP/Source/SupportFunctions/arm_bitonic_sort_f32.c ****     vst1q_f32(pSrc+20,  ab3.val[1] );
 773:Middlewares/Third_Party/ARM_CMSIS/CMSIS/DSP/Source/SupportFunctions/arm_bitonic_sort_f32.c ****     vst1q_f32(pSrc+24,  ab4.val[0] );
 774:Middlewares/Third_Party/ARM_CMSIS/CMSIS/DSP/Source/SupportFunctions/arm_bitonic_sort_f32.c ****     vst1q_f32(pSrc+28,  ab4.val[1] );
 775:Middlewares/Third_Party/ARM_CMSIS/CMSIS/DSP/Source/SupportFunctions/arm_bitonic_sort_f32.c ****     vst1q_f32(pSrc+32,  ab5.val[0] );
 776:Middlewares/Third_Party/ARM_CMSIS/CMSIS/DSP/Source/SupportFunctions/arm_bitonic_sort_f32.c ****     vst1q_f32(pSrc+36,  ab5.val[1] );
 777:Middlewares/Third_Party/ARM_CMSIS/CMSIS/DSP/Source/SupportFunctions/arm_bitonic_sort_f32.c ****     vst1q_f32(pSrc+40,  ab6.val[0] );
 778:Middlewares/Third_Party/ARM_CMSIS/CMSIS/DSP/Source/SupportFunctions/arm_bitonic_sort_f32.c ****     vst1q_f32(pSrc+44,  ab6.val[1] );
 779:Middlewares/Third_Party/ARM_CMSIS/CMSIS/DSP/Source/SupportFunctions/arm_bitonic_sort_f32.c ****     vst1q_f32(pSrc+48,  ab7.val[0] );
 780:Middlewares/Third_Party/ARM_CMSIS/CMSIS/DSP/Source/SupportFunctions/arm_bitonic_sort_f32.c ****     vst1q_f32(pSrc+52,  ab7.val[1] );
 781:Middlewares/Third_Party/ARM_CMSIS/CMSIS/DSP/Source/SupportFunctions/arm_bitonic_sort_f32.c ****     vst1q_f32(pSrc+56,  ab8.val[0] );
 782:Middlewares/Third_Party/ARM_CMSIS/CMSIS/DSP/Source/SupportFunctions/arm_bitonic_sort_f32.c ****     vst1q_f32(pSrc+60,  ab8.val[1] );
 783:Middlewares/Third_Party/ARM_CMSIS/CMSIS/DSP/Source/SupportFunctions/arm_bitonic_sort_f32.c ****     vst1q_f32(pSrc+64,  cd1.val[0] );
 784:Middlewares/Third_Party/ARM_CMSIS/CMSIS/DSP/Source/SupportFunctions/arm_bitonic_sort_f32.c ****     vst1q_f32(pSrc+68,  cd1.val[1] );
 785:Middlewares/Third_Party/ARM_CMSIS/CMSIS/DSP/Source/SupportFunctions/arm_bitonic_sort_f32.c ****     vst1q_f32(pSrc+72,  cd2.val[0] );
 786:Middlewares/Third_Party/ARM_CMSIS/CMSIS/DSP/Source/SupportFunctions/arm_bitonic_sort_f32.c ****     vst1q_f32(pSrc+76,  cd2.val[1] );
 787:Middlewares/Third_Party/ARM_CMSIS/CMSIS/DSP/Source/SupportFunctions/arm_bitonic_sort_f32.c ****     vst1q_f32(pSrc+80,  cd3.val[0] );
 788:Middlewares/Third_Party/ARM_CMSIS/CMSIS/DSP/Source/SupportFunctions/arm_bitonic_sort_f32.c ****     vst1q_f32(pSrc+84,  cd3.val[1] );
 789:Middlewares/Third_Party/ARM_CMSIS/CMSIS/DSP/Source/SupportFunctions/arm_bitonic_sort_f32.c ****     vst1q_f32(pSrc+88,  cd4.val[0] );
 790:Middlewares/Third_Party/ARM_CMSIS/CMSIS/DSP/Source/SupportFunctions/arm_bitonic_sort_f32.c ****     vst1q_f32(pSrc+92,  cd4.val[1] );
ARM GAS  C:\Users\7636~1\AppData\Local\Temp\ccIWThgb.s 			page 44


 791:Middlewares/Third_Party/ARM_CMSIS/CMSIS/DSP/Source/SupportFunctions/arm_bitonic_sort_f32.c ****     vst1q_f32(pSrc+96,  cd5.val[0] );
 792:Middlewares/Third_Party/ARM_CMSIS/CMSIS/DSP/Source/SupportFunctions/arm_bitonic_sort_f32.c ****     vst1q_f32(pSrc+100, cd5.val[1] );
 793:Middlewares/Third_Party/ARM_CMSIS/CMSIS/DSP/Source/SupportFunctions/arm_bitonic_sort_f32.c ****     vst1q_f32(pSrc+104, cd6.val[0] );
 794:Middlewares/Third_Party/ARM_CMSIS/CMSIS/DSP/Source/SupportFunctions/arm_bitonic_sort_f32.c ****     vst1q_f32(pSrc+108, cd6.val[1] );
 795:Middlewares/Third_Party/ARM_CMSIS/CMSIS/DSP/Source/SupportFunctions/arm_bitonic_sort_f32.c ****     vst1q_f32(pSrc+112, cd7.val[0] );
 796:Middlewares/Third_Party/ARM_CMSIS/CMSIS/DSP/Source/SupportFunctions/arm_bitonic_sort_f32.c ****     vst1q_f32(pSrc+116, cd7.val[1] );
 797:Middlewares/Third_Party/ARM_CMSIS/CMSIS/DSP/Source/SupportFunctions/arm_bitonic_sort_f32.c ****     vst1q_f32(pSrc+120, cd8.val[0] );
 798:Middlewares/Third_Party/ARM_CMSIS/CMSIS/DSP/Source/SupportFunctions/arm_bitonic_sort_f32.c ****     vst1q_f32(pSrc+124, cd8.val[1] );
 799:Middlewares/Third_Party/ARM_CMSIS/CMSIS/DSP/Source/SupportFunctions/arm_bitonic_sort_f32.c ****     vst1q_f32(pSrc+128, ab9.val[0] );
 800:Middlewares/Third_Party/ARM_CMSIS/CMSIS/DSP/Source/SupportFunctions/arm_bitonic_sort_f32.c ****     vst1q_f32(pSrc+132, ab9.val[1] );
 801:Middlewares/Third_Party/ARM_CMSIS/CMSIS/DSP/Source/SupportFunctions/arm_bitonic_sort_f32.c ****     vst1q_f32(pSrc+136, ab10.val[0]);
 802:Middlewares/Third_Party/ARM_CMSIS/CMSIS/DSP/Source/SupportFunctions/arm_bitonic_sort_f32.c ****     vst1q_f32(pSrc+140, ab10.val[1]);
 803:Middlewares/Third_Party/ARM_CMSIS/CMSIS/DSP/Source/SupportFunctions/arm_bitonic_sort_f32.c ****     vst1q_f32(pSrc+144, ab11.val[0]);
 804:Middlewares/Third_Party/ARM_CMSIS/CMSIS/DSP/Source/SupportFunctions/arm_bitonic_sort_f32.c ****     vst1q_f32(pSrc+148, ab11.val[1]);
 805:Middlewares/Third_Party/ARM_CMSIS/CMSIS/DSP/Source/SupportFunctions/arm_bitonic_sort_f32.c ****     vst1q_f32(pSrc+152, ab12.val[0]);
 806:Middlewares/Third_Party/ARM_CMSIS/CMSIS/DSP/Source/SupportFunctions/arm_bitonic_sort_f32.c ****     vst1q_f32(pSrc+156, ab12.val[1]);
 807:Middlewares/Third_Party/ARM_CMSIS/CMSIS/DSP/Source/SupportFunctions/arm_bitonic_sort_f32.c ****     vst1q_f32(pSrc+160, ab13.val[0]);
 808:Middlewares/Third_Party/ARM_CMSIS/CMSIS/DSP/Source/SupportFunctions/arm_bitonic_sort_f32.c ****     vst1q_f32(pSrc+164, ab13.val[1]);
 809:Middlewares/Third_Party/ARM_CMSIS/CMSIS/DSP/Source/SupportFunctions/arm_bitonic_sort_f32.c ****     vst1q_f32(pSrc+168, ab14.val[0]);
 810:Middlewares/Third_Party/ARM_CMSIS/CMSIS/DSP/Source/SupportFunctions/arm_bitonic_sort_f32.c ****     vst1q_f32(pSrc+172, ab14.val[1]);
 811:Middlewares/Third_Party/ARM_CMSIS/CMSIS/DSP/Source/SupportFunctions/arm_bitonic_sort_f32.c ****     vst1q_f32(pSrc+176, ab15.val[0]);
 812:Middlewares/Third_Party/ARM_CMSIS/CMSIS/DSP/Source/SupportFunctions/arm_bitonic_sort_f32.c ****     vst1q_f32(pSrc+180, ab15.val[1]);
 813:Middlewares/Third_Party/ARM_CMSIS/CMSIS/DSP/Source/SupportFunctions/arm_bitonic_sort_f32.c ****     vst1q_f32(pSrc+184, ab16.val[0]);
 814:Middlewares/Third_Party/ARM_CMSIS/CMSIS/DSP/Source/SupportFunctions/arm_bitonic_sort_f32.c ****     vst1q_f32(pSrc+188, ab16.val[1]);
 815:Middlewares/Third_Party/ARM_CMSIS/CMSIS/DSP/Source/SupportFunctions/arm_bitonic_sort_f32.c ****     vst1q_f32(pSrc+192, cd9.val[0] );
 816:Middlewares/Third_Party/ARM_CMSIS/CMSIS/DSP/Source/SupportFunctions/arm_bitonic_sort_f32.c ****     vst1q_f32(pSrc+196, cd9.val[1] );
 817:Middlewares/Third_Party/ARM_CMSIS/CMSIS/DSP/Source/SupportFunctions/arm_bitonic_sort_f32.c ****     vst1q_f32(pSrc+200, cd10.val[0]);
 818:Middlewares/Third_Party/ARM_CMSIS/CMSIS/DSP/Source/SupportFunctions/arm_bitonic_sort_f32.c ****     vst1q_f32(pSrc+204, cd10.val[1]);
 819:Middlewares/Third_Party/ARM_CMSIS/CMSIS/DSP/Source/SupportFunctions/arm_bitonic_sort_f32.c ****     vst1q_f32(pSrc+208, cd11.val[0]);
 820:Middlewares/Third_Party/ARM_CMSIS/CMSIS/DSP/Source/SupportFunctions/arm_bitonic_sort_f32.c ****     vst1q_f32(pSrc+212, cd11.val[1]);
 821:Middlewares/Third_Party/ARM_CMSIS/CMSIS/DSP/Source/SupportFunctions/arm_bitonic_sort_f32.c ****     vst1q_f32(pSrc+216, cd12.val[0]);
 822:Middlewares/Third_Party/ARM_CMSIS/CMSIS/DSP/Source/SupportFunctions/arm_bitonic_sort_f32.c ****     vst1q_f32(pSrc+220, cd12.val[1]);
 823:Middlewares/Third_Party/ARM_CMSIS/CMSIS/DSP/Source/SupportFunctions/arm_bitonic_sort_f32.c ****     vst1q_f32(pSrc+224, cd13.val[0]);
 824:Middlewares/Third_Party/ARM_CMSIS/CMSIS/DSP/Source/SupportFunctions/arm_bitonic_sort_f32.c ****     vst1q_f32(pSrc+228, cd13.val[1]);
 825:Middlewares/Third_Party/ARM_CMSIS/CMSIS/DSP/Source/SupportFunctions/arm_bitonic_sort_f32.c ****     vst1q_f32(pSrc+232, cd14.val[0]);
 826:Middlewares/Third_Party/ARM_CMSIS/CMSIS/DSP/Source/SupportFunctions/arm_bitonic_sort_f32.c ****     vst1q_f32(pSrc+236, cd14.val[1]);
 827:Middlewares/Third_Party/ARM_CMSIS/CMSIS/DSP/Source/SupportFunctions/arm_bitonic_sort_f32.c ****     vst1q_f32(pSrc+240, cd15.val[0]);
 828:Middlewares/Third_Party/ARM_CMSIS/CMSIS/DSP/Source/SupportFunctions/arm_bitonic_sort_f32.c ****     vst1q_f32(pSrc+244, cd15.val[1]);
 829:Middlewares/Third_Party/ARM_CMSIS/CMSIS/DSP/Source/SupportFunctions/arm_bitonic_sort_f32.c ****     vst1q_f32(pSrc+248, cd16.val[0]);
 830:Middlewares/Third_Party/ARM_CMSIS/CMSIS/DSP/Source/SupportFunctions/arm_bitonic_sort_f32.c ****     vst1q_f32(pSrc+252, cd16.val[1]);
 831:Middlewares/Third_Party/ARM_CMSIS/CMSIS/DSP/Source/SupportFunctions/arm_bitonic_sort_f32.c **** 
 832:Middlewares/Third_Party/ARM_CMSIS/CMSIS/DSP/Source/SupportFunctions/arm_bitonic_sort_f32.c ****     //Transpose
 833:Middlewares/Third_Party/ARM_CMSIS/CMSIS/DSP/Source/SupportFunctions/arm_bitonic_sort_f32.c ****     arm_bitonic_merge_128_f32(pSrc+0  , dir);
 834:Middlewares/Third_Party/ARM_CMSIS/CMSIS/DSP/Source/SupportFunctions/arm_bitonic_sort_f32.c ****     arm_bitonic_merge_128_f32(pSrc+128, dir);
 835:Middlewares/Third_Party/ARM_CMSIS/CMSIS/DSP/Source/SupportFunctions/arm_bitonic_sort_f32.c **** }
 836:Middlewares/Third_Party/ARM_CMSIS/CMSIS/DSP/Source/SupportFunctions/arm_bitonic_sort_f32.c **** 
 837:Middlewares/Third_Party/ARM_CMSIS/CMSIS/DSP/Source/SupportFunctions/arm_bitonic_sort_f32.c **** #define SWAP(a,i,j)                            \
 838:Middlewares/Third_Party/ARM_CMSIS/CMSIS/DSP/Source/SupportFunctions/arm_bitonic_sort_f32.c ****     temp = vgetq_lane_f32(a, j);                   \
 839:Middlewares/Third_Party/ARM_CMSIS/CMSIS/DSP/Source/SupportFunctions/arm_bitonic_sort_f32.c ****     a = vsetq_lane_f32(vgetq_lane_f32(a, i), a, j);\
 840:Middlewares/Third_Party/ARM_CMSIS/CMSIS/DSP/Source/SupportFunctions/arm_bitonic_sort_f32.c ****     a = vsetq_lane_f32(temp, a, i);
 841:Middlewares/Third_Party/ARM_CMSIS/CMSIS/DSP/Source/SupportFunctions/arm_bitonic_sort_f32.c **** 
 842:Middlewares/Third_Party/ARM_CMSIS/CMSIS/DSP/Source/SupportFunctions/arm_bitonic_sort_f32.c **** static float32x4_t arm_bitonic_sort_4_f32(float32x4_t a, uint8_t dir)
 843:Middlewares/Third_Party/ARM_CMSIS/CMSIS/DSP/Source/SupportFunctions/arm_bitonic_sort_f32.c **** {
 844:Middlewares/Third_Party/ARM_CMSIS/CMSIS/DSP/Source/SupportFunctions/arm_bitonic_sort_f32.c ****     float32_t temp;
 845:Middlewares/Third_Party/ARM_CMSIS/CMSIS/DSP/Source/SupportFunctions/arm_bitonic_sort_f32.c **** 
 846:Middlewares/Third_Party/ARM_CMSIS/CMSIS/DSP/Source/SupportFunctions/arm_bitonic_sort_f32.c **** 
 847:Middlewares/Third_Party/ARM_CMSIS/CMSIS/DSP/Source/SupportFunctions/arm_bitonic_sort_f32.c ****     if( dir==(vgetq_lane_f32(a, 0) > vgetq_lane_f32(a, 1)) )
ARM GAS  C:\Users\7636~1\AppData\Local\Temp\ccIWThgb.s 			page 45


 848:Middlewares/Third_Party/ARM_CMSIS/CMSIS/DSP/Source/SupportFunctions/arm_bitonic_sort_f32.c ****     {
 849:Middlewares/Third_Party/ARM_CMSIS/CMSIS/DSP/Source/SupportFunctions/arm_bitonic_sort_f32.c ****         SWAP(a,0,1);
 850:Middlewares/Third_Party/ARM_CMSIS/CMSIS/DSP/Source/SupportFunctions/arm_bitonic_sort_f32.c ****     }
 851:Middlewares/Third_Party/ARM_CMSIS/CMSIS/DSP/Source/SupportFunctions/arm_bitonic_sort_f32.c ****     if( dir==(vgetq_lane_f32(a, 2) > vgetq_lane_f32(a, 3)) )
 852:Middlewares/Third_Party/ARM_CMSIS/CMSIS/DSP/Source/SupportFunctions/arm_bitonic_sort_f32.c ****     {
 853:Middlewares/Third_Party/ARM_CMSIS/CMSIS/DSP/Source/SupportFunctions/arm_bitonic_sort_f32.c ****        SWAP(a,2,3);
 854:Middlewares/Third_Party/ARM_CMSIS/CMSIS/DSP/Source/SupportFunctions/arm_bitonic_sort_f32.c ****     }
 855:Middlewares/Third_Party/ARM_CMSIS/CMSIS/DSP/Source/SupportFunctions/arm_bitonic_sort_f32.c **** 
 856:Middlewares/Third_Party/ARM_CMSIS/CMSIS/DSP/Source/SupportFunctions/arm_bitonic_sort_f32.c ****     if( dir==(vgetq_lane_f32(a, 0) > vgetq_lane_f32(a, 3)) )
 857:Middlewares/Third_Party/ARM_CMSIS/CMSIS/DSP/Source/SupportFunctions/arm_bitonic_sort_f32.c ****     {
 858:Middlewares/Third_Party/ARM_CMSIS/CMSIS/DSP/Source/SupportFunctions/arm_bitonic_sort_f32.c ****       SWAP(a,0,3);
 859:Middlewares/Third_Party/ARM_CMSIS/CMSIS/DSP/Source/SupportFunctions/arm_bitonic_sort_f32.c ****     }
 860:Middlewares/Third_Party/ARM_CMSIS/CMSIS/DSP/Source/SupportFunctions/arm_bitonic_sort_f32.c ****     if( dir==(vgetq_lane_f32(a, 1) > vgetq_lane_f32(a, 2)) )
 861:Middlewares/Third_Party/ARM_CMSIS/CMSIS/DSP/Source/SupportFunctions/arm_bitonic_sort_f32.c ****     {
 862:Middlewares/Third_Party/ARM_CMSIS/CMSIS/DSP/Source/SupportFunctions/arm_bitonic_sort_f32.c ****       SWAP(a,1,2);
 863:Middlewares/Third_Party/ARM_CMSIS/CMSIS/DSP/Source/SupportFunctions/arm_bitonic_sort_f32.c ****     }
 864:Middlewares/Third_Party/ARM_CMSIS/CMSIS/DSP/Source/SupportFunctions/arm_bitonic_sort_f32.c **** 
 865:Middlewares/Third_Party/ARM_CMSIS/CMSIS/DSP/Source/SupportFunctions/arm_bitonic_sort_f32.c ****     if( dir==(vgetq_lane_f32(a, 0) > vgetq_lane_f32(a, 1)) )
 866:Middlewares/Third_Party/ARM_CMSIS/CMSIS/DSP/Source/SupportFunctions/arm_bitonic_sort_f32.c ****     {
 867:Middlewares/Third_Party/ARM_CMSIS/CMSIS/DSP/Source/SupportFunctions/arm_bitonic_sort_f32.c ****       SWAP(a,0,1);
 868:Middlewares/Third_Party/ARM_CMSIS/CMSIS/DSP/Source/SupportFunctions/arm_bitonic_sort_f32.c ****     }
 869:Middlewares/Third_Party/ARM_CMSIS/CMSIS/DSP/Source/SupportFunctions/arm_bitonic_sort_f32.c ****     if( dir==(vgetq_lane_f32(a, 2)>vgetq_lane_f32(a, 3)) )
 870:Middlewares/Third_Party/ARM_CMSIS/CMSIS/DSP/Source/SupportFunctions/arm_bitonic_sort_f32.c ****     {
 871:Middlewares/Third_Party/ARM_CMSIS/CMSIS/DSP/Source/SupportFunctions/arm_bitonic_sort_f32.c ****       SWAP(a,2,3);
 872:Middlewares/Third_Party/ARM_CMSIS/CMSIS/DSP/Source/SupportFunctions/arm_bitonic_sort_f32.c ****     }
 873:Middlewares/Third_Party/ARM_CMSIS/CMSIS/DSP/Source/SupportFunctions/arm_bitonic_sort_f32.c **** 
 874:Middlewares/Third_Party/ARM_CMSIS/CMSIS/DSP/Source/SupportFunctions/arm_bitonic_sort_f32.c ****     return a;
 875:Middlewares/Third_Party/ARM_CMSIS/CMSIS/DSP/Source/SupportFunctions/arm_bitonic_sort_f32.c **** }
 876:Middlewares/Third_Party/ARM_CMSIS/CMSIS/DSP/Source/SupportFunctions/arm_bitonic_sort_f32.c **** 
 877:Middlewares/Third_Party/ARM_CMSIS/CMSIS/DSP/Source/SupportFunctions/arm_bitonic_sort_f32.c **** static float32x4x2_t arm_bitonic_sort_8_f32(float32x4_t a, float32x4_t b, uint8_t dir)
 878:Middlewares/Third_Party/ARM_CMSIS/CMSIS/DSP/Source/SupportFunctions/arm_bitonic_sort_f32.c **** {
 879:Middlewares/Third_Party/ARM_CMSIS/CMSIS/DSP/Source/SupportFunctions/arm_bitonic_sort_f32.c ****     a = arm_bitonic_sort_4_f32(a, dir);
 880:Middlewares/Third_Party/ARM_CMSIS/CMSIS/DSP/Source/SupportFunctions/arm_bitonic_sort_f32.c ****     b = arm_bitonic_sort_4_f32(b, dir);
 881:Middlewares/Third_Party/ARM_CMSIS/CMSIS/DSP/Source/SupportFunctions/arm_bitonic_sort_f32.c ****     return arm_bitonic_merge_8_f32(a, b, dir);
 882:Middlewares/Third_Party/ARM_CMSIS/CMSIS/DSP/Source/SupportFunctions/arm_bitonic_sort_f32.c **** }
 883:Middlewares/Third_Party/ARM_CMSIS/CMSIS/DSP/Source/SupportFunctions/arm_bitonic_sort_f32.c **** 
 884:Middlewares/Third_Party/ARM_CMSIS/CMSIS/DSP/Source/SupportFunctions/arm_bitonic_sort_f32.c **** 
 885:Middlewares/Third_Party/ARM_CMSIS/CMSIS/DSP/Source/SupportFunctions/arm_bitonic_sort_f32.c **** 
 886:Middlewares/Third_Party/ARM_CMSIS/CMSIS/DSP/Source/SupportFunctions/arm_bitonic_sort_f32.c **** #endif
 887:Middlewares/Third_Party/ARM_CMSIS/CMSIS/DSP/Source/SupportFunctions/arm_bitonic_sort_f32.c **** 
