ARM GAS  C:\Users\7636~1\AppData\Local\Temp\cc7HvPcb.s 			page 1


   1              		.cpu cortex-m4
   2              		.arch armv7e-m
   3              		.fpu fpv4-sp-d16
   4              		.eabi_attribute 27, 1
   5              		.eabi_attribute 28, 1
   6              		.eabi_attribute 20, 1
   7              		.eabi_attribute 21, 1
   8              		.eabi_attribute 23, 3
   9              		.eabi_attribute 24, 1
  10              		.eabi_attribute 25, 1
  11              		.eabi_attribute 26, 1
  12              		.eabi_attribute 30, 1
  13              		.eabi_attribute 34, 1
  14              		.eabi_attribute 18, 4
  15              		.file	"SVMFunctions.c"
  16              		.text
  17              	.Ltext0:
  18              		.cfi_sections	.debug_frame
  19              		.section	.text.arm_svm_linear_init_f32,"ax",%progbits
  20              		.align	1
  21              		.global	arm_svm_linear_init_f32
  22              		.syntax unified
  23              		.thumb
  24              		.thumb_func
  26              	arm_svm_linear_init_f32:
  27              	.LVL0:
  28              	.LFB120:
  29              		.file 1 "Middlewares/Third_Party/ARM_CMSIS/CMSIS/DSP/Source/SVMFunctions/arm_svm_linear_init_f32.c
   1:Middlewares/Third_Party/ARM_CMSIS/CMSIS/DSP/Source/SVMFunctions/arm_svm_linear_init_f32.c **** /* ----------------------------------------------------------------------
   2:Middlewares/Third_Party/ARM_CMSIS/CMSIS/DSP/Source/SVMFunctions/arm_svm_linear_init_f32.c ****  * Project:      CMSIS DSP Library
   3:Middlewares/Third_Party/ARM_CMSIS/CMSIS/DSP/Source/SVMFunctions/arm_svm_linear_init_f32.c ****  * Title:        arm_svm_linear_init_f32.c
   4:Middlewares/Third_Party/ARM_CMSIS/CMSIS/DSP/Source/SVMFunctions/arm_svm_linear_init_f32.c ****  * Description:  SVM Linear Instance Initialization
   5:Middlewares/Third_Party/ARM_CMSIS/CMSIS/DSP/Source/SVMFunctions/arm_svm_linear_init_f32.c ****  *
   6:Middlewares/Third_Party/ARM_CMSIS/CMSIS/DSP/Source/SVMFunctions/arm_svm_linear_init_f32.c ****  * $Date:        23 April 2021
   7:Middlewares/Third_Party/ARM_CMSIS/CMSIS/DSP/Source/SVMFunctions/arm_svm_linear_init_f32.c ****  * $Revision:    V1.9.0
   8:Middlewares/Third_Party/ARM_CMSIS/CMSIS/DSP/Source/SVMFunctions/arm_svm_linear_init_f32.c ****  *
   9:Middlewares/Third_Party/ARM_CMSIS/CMSIS/DSP/Source/SVMFunctions/arm_svm_linear_init_f32.c ****  * Target Processor: Cortex-M and Cortex-A cores
  10:Middlewares/Third_Party/ARM_CMSIS/CMSIS/DSP/Source/SVMFunctions/arm_svm_linear_init_f32.c ****  * -------------------------------------------------------------------- */
  11:Middlewares/Third_Party/ARM_CMSIS/CMSIS/DSP/Source/SVMFunctions/arm_svm_linear_init_f32.c **** /*
  12:Middlewares/Third_Party/ARM_CMSIS/CMSIS/DSP/Source/SVMFunctions/arm_svm_linear_init_f32.c ****  * Copyright (C) 2010-2021 ARM Limited or its affiliates. All rights reserved.
  13:Middlewares/Third_Party/ARM_CMSIS/CMSIS/DSP/Source/SVMFunctions/arm_svm_linear_init_f32.c ****  *
  14:Middlewares/Third_Party/ARM_CMSIS/CMSIS/DSP/Source/SVMFunctions/arm_svm_linear_init_f32.c ****  * SPDX-License-Identifier: Apache-2.0
  15:Middlewares/Third_Party/ARM_CMSIS/CMSIS/DSP/Source/SVMFunctions/arm_svm_linear_init_f32.c ****  *
  16:Middlewares/Third_Party/ARM_CMSIS/CMSIS/DSP/Source/SVMFunctions/arm_svm_linear_init_f32.c ****  * Licensed under the Apache License, Version 2.0 (the License); you may
  17:Middlewares/Third_Party/ARM_CMSIS/CMSIS/DSP/Source/SVMFunctions/arm_svm_linear_init_f32.c ****  * not use this file except in compliance with the License.
  18:Middlewares/Third_Party/ARM_CMSIS/CMSIS/DSP/Source/SVMFunctions/arm_svm_linear_init_f32.c ****  * You may obtain a copy of the License at
  19:Middlewares/Third_Party/ARM_CMSIS/CMSIS/DSP/Source/SVMFunctions/arm_svm_linear_init_f32.c ****  *
  20:Middlewares/Third_Party/ARM_CMSIS/CMSIS/DSP/Source/SVMFunctions/arm_svm_linear_init_f32.c ****  * www.apache.org/licenses/LICENSE-2.0
  21:Middlewares/Third_Party/ARM_CMSIS/CMSIS/DSP/Source/SVMFunctions/arm_svm_linear_init_f32.c ****  *
  22:Middlewares/Third_Party/ARM_CMSIS/CMSIS/DSP/Source/SVMFunctions/arm_svm_linear_init_f32.c ****  * Unless required by applicable law or agreed to in writing, software
  23:Middlewares/Third_Party/ARM_CMSIS/CMSIS/DSP/Source/SVMFunctions/arm_svm_linear_init_f32.c ****  * distributed under the License is distributed on an AS IS BASIS, WITHOUT
  24:Middlewares/Third_Party/ARM_CMSIS/CMSIS/DSP/Source/SVMFunctions/arm_svm_linear_init_f32.c ****  * WARRANTIES OR CONDITIONS OF ANY KIND, either express or implied.
  25:Middlewares/Third_Party/ARM_CMSIS/CMSIS/DSP/Source/SVMFunctions/arm_svm_linear_init_f32.c ****  * See the License for the specific language governing permissions and
  26:Middlewares/Third_Party/ARM_CMSIS/CMSIS/DSP/Source/SVMFunctions/arm_svm_linear_init_f32.c ****  * limitations under the License.
  27:Middlewares/Third_Party/ARM_CMSIS/CMSIS/DSP/Source/SVMFunctions/arm_svm_linear_init_f32.c ****  */
  28:Middlewares/Third_Party/ARM_CMSIS/CMSIS/DSP/Source/SVMFunctions/arm_svm_linear_init_f32.c **** 
  29:Middlewares/Third_Party/ARM_CMSIS/CMSIS/DSP/Source/SVMFunctions/arm_svm_linear_init_f32.c **** #include "dsp/svm_functions.h"
ARM GAS  C:\Users\7636~1\AppData\Local\Temp\cc7HvPcb.s 			page 2


  30:Middlewares/Third_Party/ARM_CMSIS/CMSIS/DSP/Source/SVMFunctions/arm_svm_linear_init_f32.c **** #include <limits.h>
  31:Middlewares/Third_Party/ARM_CMSIS/CMSIS/DSP/Source/SVMFunctions/arm_svm_linear_init_f32.c **** #include <math.h>
  32:Middlewares/Third_Party/ARM_CMSIS/CMSIS/DSP/Source/SVMFunctions/arm_svm_linear_init_f32.c **** 
  33:Middlewares/Third_Party/ARM_CMSIS/CMSIS/DSP/Source/SVMFunctions/arm_svm_linear_init_f32.c **** /**
  34:Middlewares/Third_Party/ARM_CMSIS/CMSIS/DSP/Source/SVMFunctions/arm_svm_linear_init_f32.c ****  * @defgroup groupSVM SVM Functions
  35:Middlewares/Third_Party/ARM_CMSIS/CMSIS/DSP/Source/SVMFunctions/arm_svm_linear_init_f32.c ****  *
  36:Middlewares/Third_Party/ARM_CMSIS/CMSIS/DSP/Source/SVMFunctions/arm_svm_linear_init_f32.c ****  */
  37:Middlewares/Third_Party/ARM_CMSIS/CMSIS/DSP/Source/SVMFunctions/arm_svm_linear_init_f32.c **** 
  38:Middlewares/Third_Party/ARM_CMSIS/CMSIS/DSP/Source/SVMFunctions/arm_svm_linear_init_f32.c **** /**
  39:Middlewares/Third_Party/ARM_CMSIS/CMSIS/DSP/Source/SVMFunctions/arm_svm_linear_init_f32.c ****   @ingroup groupSVM
  40:Middlewares/Third_Party/ARM_CMSIS/CMSIS/DSP/Source/SVMFunctions/arm_svm_linear_init_f32.c ****  */
  41:Middlewares/Third_Party/ARM_CMSIS/CMSIS/DSP/Source/SVMFunctions/arm_svm_linear_init_f32.c **** 
  42:Middlewares/Third_Party/ARM_CMSIS/CMSIS/DSP/Source/SVMFunctions/arm_svm_linear_init_f32.c **** /**
  43:Middlewares/Third_Party/ARM_CMSIS/CMSIS/DSP/Source/SVMFunctions/arm_svm_linear_init_f32.c ****   @defgroup linearsvm Linear SVM
  44:Middlewares/Third_Party/ARM_CMSIS/CMSIS/DSP/Source/SVMFunctions/arm_svm_linear_init_f32.c **** 
  45:Middlewares/Third_Party/ARM_CMSIS/CMSIS/DSP/Source/SVMFunctions/arm_svm_linear_init_f32.c ****   Linear SVM classifier
  46:Middlewares/Third_Party/ARM_CMSIS/CMSIS/DSP/Source/SVMFunctions/arm_svm_linear_init_f32.c ****  */
  47:Middlewares/Third_Party/ARM_CMSIS/CMSIS/DSP/Source/SVMFunctions/arm_svm_linear_init_f32.c **** 
  48:Middlewares/Third_Party/ARM_CMSIS/CMSIS/DSP/Source/SVMFunctions/arm_svm_linear_init_f32.c **** /**
  49:Middlewares/Third_Party/ARM_CMSIS/CMSIS/DSP/Source/SVMFunctions/arm_svm_linear_init_f32.c ****  * @addtogroup linearsvm
  50:Middlewares/Third_Party/ARM_CMSIS/CMSIS/DSP/Source/SVMFunctions/arm_svm_linear_init_f32.c ****  * @{
  51:Middlewares/Third_Party/ARM_CMSIS/CMSIS/DSP/Source/SVMFunctions/arm_svm_linear_init_f32.c ****  */
  52:Middlewares/Third_Party/ARM_CMSIS/CMSIS/DSP/Source/SVMFunctions/arm_svm_linear_init_f32.c **** 
  53:Middlewares/Third_Party/ARM_CMSIS/CMSIS/DSP/Source/SVMFunctions/arm_svm_linear_init_f32.c **** 
  54:Middlewares/Third_Party/ARM_CMSIS/CMSIS/DSP/Source/SVMFunctions/arm_svm_linear_init_f32.c **** /**
  55:Middlewares/Third_Party/ARM_CMSIS/CMSIS/DSP/Source/SVMFunctions/arm_svm_linear_init_f32.c ****  * @brief        SVM linear instance init function
  56:Middlewares/Third_Party/ARM_CMSIS/CMSIS/DSP/Source/SVMFunctions/arm_svm_linear_init_f32.c ****  *
  57:Middlewares/Third_Party/ARM_CMSIS/CMSIS/DSP/Source/SVMFunctions/arm_svm_linear_init_f32.c ****  * Classes are integer used as output of the function (instead of having -1,1
  58:Middlewares/Third_Party/ARM_CMSIS/CMSIS/DSP/Source/SVMFunctions/arm_svm_linear_init_f32.c ****  * as class values).
  59:Middlewares/Third_Party/ARM_CMSIS/CMSIS/DSP/Source/SVMFunctions/arm_svm_linear_init_f32.c ****  *
  60:Middlewares/Third_Party/ARM_CMSIS/CMSIS/DSP/Source/SVMFunctions/arm_svm_linear_init_f32.c ****  * @param[in]    S                      Parameters for the SVM function
  61:Middlewares/Third_Party/ARM_CMSIS/CMSIS/DSP/Source/SVMFunctions/arm_svm_linear_init_f32.c ****  * @param[in]    nbOfSupportVectors     Number of support vectors
  62:Middlewares/Third_Party/ARM_CMSIS/CMSIS/DSP/Source/SVMFunctions/arm_svm_linear_init_f32.c ****  * @param[in]    vectorDimension        Dimension of vector space
  63:Middlewares/Third_Party/ARM_CMSIS/CMSIS/DSP/Source/SVMFunctions/arm_svm_linear_init_f32.c ****  * @param[in]    intercept              Intercept
  64:Middlewares/Third_Party/ARM_CMSIS/CMSIS/DSP/Source/SVMFunctions/arm_svm_linear_init_f32.c ****  * @param[in]    dualCoefficients       Array of dual coefficients
  65:Middlewares/Third_Party/ARM_CMSIS/CMSIS/DSP/Source/SVMFunctions/arm_svm_linear_init_f32.c ****  * @param[in]    supportVectors         Array of support vectors
  66:Middlewares/Third_Party/ARM_CMSIS/CMSIS/DSP/Source/SVMFunctions/arm_svm_linear_init_f32.c ****  * @param[in]    classes                Array of 2 classes ID
  67:Middlewares/Third_Party/ARM_CMSIS/CMSIS/DSP/Source/SVMFunctions/arm_svm_linear_init_f32.c ****  * @return none.
  68:Middlewares/Third_Party/ARM_CMSIS/CMSIS/DSP/Source/SVMFunctions/arm_svm_linear_init_f32.c ****  *
  69:Middlewares/Third_Party/ARM_CMSIS/CMSIS/DSP/Source/SVMFunctions/arm_svm_linear_init_f32.c ****  */
  70:Middlewares/Third_Party/ARM_CMSIS/CMSIS/DSP/Source/SVMFunctions/arm_svm_linear_init_f32.c **** 
  71:Middlewares/Third_Party/ARM_CMSIS/CMSIS/DSP/Source/SVMFunctions/arm_svm_linear_init_f32.c **** 
  72:Middlewares/Third_Party/ARM_CMSIS/CMSIS/DSP/Source/SVMFunctions/arm_svm_linear_init_f32.c **** void arm_svm_linear_init_f32(arm_svm_linear_instance_f32 *S, 
  73:Middlewares/Third_Party/ARM_CMSIS/CMSIS/DSP/Source/SVMFunctions/arm_svm_linear_init_f32.c ****   uint32_t nbOfSupportVectors,
  74:Middlewares/Third_Party/ARM_CMSIS/CMSIS/DSP/Source/SVMFunctions/arm_svm_linear_init_f32.c ****   uint32_t vectorDimension,
  75:Middlewares/Third_Party/ARM_CMSIS/CMSIS/DSP/Source/SVMFunctions/arm_svm_linear_init_f32.c ****   float32_t intercept,
  76:Middlewares/Third_Party/ARM_CMSIS/CMSIS/DSP/Source/SVMFunctions/arm_svm_linear_init_f32.c ****   const float32_t *dualCoefficients,
  77:Middlewares/Third_Party/ARM_CMSIS/CMSIS/DSP/Source/SVMFunctions/arm_svm_linear_init_f32.c ****   const float32_t *supportVectors,
  78:Middlewares/Third_Party/ARM_CMSIS/CMSIS/DSP/Source/SVMFunctions/arm_svm_linear_init_f32.c ****   const int32_t *classes)
  79:Middlewares/Third_Party/ARM_CMSIS/CMSIS/DSP/Source/SVMFunctions/arm_svm_linear_init_f32.c **** {
  30              		.loc 1 79 1 view -0
  31              		.cfi_startproc
  32              		@ args = 8, pretend = 0, frame = 0
  33              		@ frame_needed = 0, uses_anonymous_args = 0
  34              		@ link register save eliminated.
  80:Middlewares/Third_Party/ARM_CMSIS/CMSIS/DSP/Source/SVMFunctions/arm_svm_linear_init_f32.c ****    S->nbOfSupportVectors = nbOfSupportVectors;
  35              		.loc 1 80 4 view .LVU1
ARM GAS  C:\Users\7636~1\AppData\Local\Temp\cc7HvPcb.s 			page 3


  36              		.loc 1 80 26 is_stmt 0 view .LVU2
  37 0000 0160     		str	r1, [r0]
  81:Middlewares/Third_Party/ARM_CMSIS/CMSIS/DSP/Source/SVMFunctions/arm_svm_linear_init_f32.c ****    S->vectorDimension = vectorDimension;
  38              		.loc 1 81 4 is_stmt 1 view .LVU3
  39              		.loc 1 81 23 is_stmt 0 view .LVU4
  40 0002 4260     		str	r2, [r0, #4]
  82:Middlewares/Third_Party/ARM_CMSIS/CMSIS/DSP/Source/SVMFunctions/arm_svm_linear_init_f32.c ****    S->intercept = intercept;
  41              		.loc 1 82 4 is_stmt 1 view .LVU5
  42              		.loc 1 82 17 is_stmt 0 view .LVU6
  43 0004 80ED020A 		vstr.32	s0, [r0, #8]
  83:Middlewares/Third_Party/ARM_CMSIS/CMSIS/DSP/Source/SVMFunctions/arm_svm_linear_init_f32.c ****    S->dualCoefficients = dualCoefficients;
  44              		.loc 1 83 4 is_stmt 1 view .LVU7
  45              		.loc 1 83 24 is_stmt 0 view .LVU8
  46 0008 C360     		str	r3, [r0, #12]
  84:Middlewares/Third_Party/ARM_CMSIS/CMSIS/DSP/Source/SVMFunctions/arm_svm_linear_init_f32.c ****    S->supportVectors = supportVectors;
  47              		.loc 1 84 4 is_stmt 1 view .LVU9
  48              		.loc 1 84 22 is_stmt 0 view .LVU10
  49 000a 009B     		ldr	r3, [sp]
  50              	.LVL1:
  51              		.loc 1 84 22 view .LVU11
  52 000c 0361     		str	r3, [r0, #16]
  85:Middlewares/Third_Party/ARM_CMSIS/CMSIS/DSP/Source/SVMFunctions/arm_svm_linear_init_f32.c ****    S->classes = classes;
  53              		.loc 1 85 4 is_stmt 1 view .LVU12
  54              		.loc 1 85 15 is_stmt 0 view .LVU13
  55 000e 019B     		ldr	r3, [sp, #4]
  56 0010 4361     		str	r3, [r0, #20]
  86:Middlewares/Third_Party/ARM_CMSIS/CMSIS/DSP/Source/SVMFunctions/arm_svm_linear_init_f32.c **** }
  57              		.loc 1 86 1 view .LVU14
  58 0012 7047     		bx	lr
  59              		.cfi_endproc
  60              	.LFE120:
  62              		.section	.text.arm_svm_linear_predict_f32,"ax",%progbits
  63              		.align	1
  64              		.global	arm_svm_linear_predict_f32
  65              		.syntax unified
  66              		.thumb
  67              		.thumb_func
  69              	arm_svm_linear_predict_f32:
  70              	.LVL2:
  71              	.LFB121:
  72              		.file 2 "Middlewares/Third_Party/ARM_CMSIS/CMSIS/DSP/Source/SVMFunctions/arm_svm_linear_predict_f3
   1:Middlewares/Third_Party/ARM_CMSIS/CMSIS/DSP/Source/SVMFunctions/arm_svm_linear_predict_f32.c **** /* ----------------------------------------------------------------------
   2:Middlewares/Third_Party/ARM_CMSIS/CMSIS/DSP/Source/SVMFunctions/arm_svm_linear_predict_f32.c ****  * Project:      CMSIS DSP Library
   3:Middlewares/Third_Party/ARM_CMSIS/CMSIS/DSP/Source/SVMFunctions/arm_svm_linear_predict_f32.c ****  * Title:        arm_svm_linear_predict_f32.c
   4:Middlewares/Third_Party/ARM_CMSIS/CMSIS/DSP/Source/SVMFunctions/arm_svm_linear_predict_f32.c ****  * Description:  SVM Linear Classifier
   5:Middlewares/Third_Party/ARM_CMSIS/CMSIS/DSP/Source/SVMFunctions/arm_svm_linear_predict_f32.c ****  *
   6:Middlewares/Third_Party/ARM_CMSIS/CMSIS/DSP/Source/SVMFunctions/arm_svm_linear_predict_f32.c ****  * $Date:        23 April 2021
   7:Middlewares/Third_Party/ARM_CMSIS/CMSIS/DSP/Source/SVMFunctions/arm_svm_linear_predict_f32.c ****  * $Revision:    V1.9.0
   8:Middlewares/Third_Party/ARM_CMSIS/CMSIS/DSP/Source/SVMFunctions/arm_svm_linear_predict_f32.c ****  *
   9:Middlewares/Third_Party/ARM_CMSIS/CMSIS/DSP/Source/SVMFunctions/arm_svm_linear_predict_f32.c ****  * Target Processor: Cortex-M and Cortex-A cores
  10:Middlewares/Third_Party/ARM_CMSIS/CMSIS/DSP/Source/SVMFunctions/arm_svm_linear_predict_f32.c ****  * -------------------------------------------------------------------- */
  11:Middlewares/Third_Party/ARM_CMSIS/CMSIS/DSP/Source/SVMFunctions/arm_svm_linear_predict_f32.c **** /*
  12:Middlewares/Third_Party/ARM_CMSIS/CMSIS/DSP/Source/SVMFunctions/arm_svm_linear_predict_f32.c ****  * Copyright (C) 2010-2021 ARM Limited or its affiliates. All rights reserved.
  13:Middlewares/Third_Party/ARM_CMSIS/CMSIS/DSP/Source/SVMFunctions/arm_svm_linear_predict_f32.c ****  *
  14:Middlewares/Third_Party/ARM_CMSIS/CMSIS/DSP/Source/SVMFunctions/arm_svm_linear_predict_f32.c ****  * SPDX-License-Identifier: Apache-2.0
  15:Middlewares/Third_Party/ARM_CMSIS/CMSIS/DSP/Source/SVMFunctions/arm_svm_linear_predict_f32.c ****  *
  16:Middlewares/Third_Party/ARM_CMSIS/CMSIS/DSP/Source/SVMFunctions/arm_svm_linear_predict_f32.c ****  * Licensed under the Apache License, Version 2.0 (the License); you may
ARM GAS  C:\Users\7636~1\AppData\Local\Temp\cc7HvPcb.s 			page 4


  17:Middlewares/Third_Party/ARM_CMSIS/CMSIS/DSP/Source/SVMFunctions/arm_svm_linear_predict_f32.c ****  * not use this file except in compliance with the License.
  18:Middlewares/Third_Party/ARM_CMSIS/CMSIS/DSP/Source/SVMFunctions/arm_svm_linear_predict_f32.c ****  * You may obtain a copy of the License at
  19:Middlewares/Third_Party/ARM_CMSIS/CMSIS/DSP/Source/SVMFunctions/arm_svm_linear_predict_f32.c ****  *
  20:Middlewares/Third_Party/ARM_CMSIS/CMSIS/DSP/Source/SVMFunctions/arm_svm_linear_predict_f32.c ****  * www.apache.org/licenses/LICENSE-2.0
  21:Middlewares/Third_Party/ARM_CMSIS/CMSIS/DSP/Source/SVMFunctions/arm_svm_linear_predict_f32.c ****  *
  22:Middlewares/Third_Party/ARM_CMSIS/CMSIS/DSP/Source/SVMFunctions/arm_svm_linear_predict_f32.c ****  * Unless required by applicable law or agreed to in writing, software
  23:Middlewares/Third_Party/ARM_CMSIS/CMSIS/DSP/Source/SVMFunctions/arm_svm_linear_predict_f32.c ****  * distributed under the License is distributed on an AS IS BASIS, WITHOUT
  24:Middlewares/Third_Party/ARM_CMSIS/CMSIS/DSP/Source/SVMFunctions/arm_svm_linear_predict_f32.c ****  * WARRANTIES OR CONDITIONS OF ANY KIND, either express or implied.
  25:Middlewares/Third_Party/ARM_CMSIS/CMSIS/DSP/Source/SVMFunctions/arm_svm_linear_predict_f32.c ****  * See the License for the specific language governing permissions and
  26:Middlewares/Third_Party/ARM_CMSIS/CMSIS/DSP/Source/SVMFunctions/arm_svm_linear_predict_f32.c ****  * limitations under the License.
  27:Middlewares/Third_Party/ARM_CMSIS/CMSIS/DSP/Source/SVMFunctions/arm_svm_linear_predict_f32.c ****  */
  28:Middlewares/Third_Party/ARM_CMSIS/CMSIS/DSP/Source/SVMFunctions/arm_svm_linear_predict_f32.c **** 
  29:Middlewares/Third_Party/ARM_CMSIS/CMSIS/DSP/Source/SVMFunctions/arm_svm_linear_predict_f32.c **** #include "dsp/svm_functions.h"
  30:Middlewares/Third_Party/ARM_CMSIS/CMSIS/DSP/Source/SVMFunctions/arm_svm_linear_predict_f32.c **** #include <limits.h>
  31:Middlewares/Third_Party/ARM_CMSIS/CMSIS/DSP/Source/SVMFunctions/arm_svm_linear_predict_f32.c **** #include <math.h>
  32:Middlewares/Third_Party/ARM_CMSIS/CMSIS/DSP/Source/SVMFunctions/arm_svm_linear_predict_f32.c **** 
  33:Middlewares/Third_Party/ARM_CMSIS/CMSIS/DSP/Source/SVMFunctions/arm_svm_linear_predict_f32.c **** 
  34:Middlewares/Third_Party/ARM_CMSIS/CMSIS/DSP/Source/SVMFunctions/arm_svm_linear_predict_f32.c **** /**
  35:Middlewares/Third_Party/ARM_CMSIS/CMSIS/DSP/Source/SVMFunctions/arm_svm_linear_predict_f32.c ****  * @addtogroup linearsvm
  36:Middlewares/Third_Party/ARM_CMSIS/CMSIS/DSP/Source/SVMFunctions/arm_svm_linear_predict_f32.c ****  * @{
  37:Middlewares/Third_Party/ARM_CMSIS/CMSIS/DSP/Source/SVMFunctions/arm_svm_linear_predict_f32.c ****  */
  38:Middlewares/Third_Party/ARM_CMSIS/CMSIS/DSP/Source/SVMFunctions/arm_svm_linear_predict_f32.c **** 
  39:Middlewares/Third_Party/ARM_CMSIS/CMSIS/DSP/Source/SVMFunctions/arm_svm_linear_predict_f32.c **** 
  40:Middlewares/Third_Party/ARM_CMSIS/CMSIS/DSP/Source/SVMFunctions/arm_svm_linear_predict_f32.c **** /**
  41:Middlewares/Third_Party/ARM_CMSIS/CMSIS/DSP/Source/SVMFunctions/arm_svm_linear_predict_f32.c ****  * @brief SVM linear prediction
  42:Middlewares/Third_Party/ARM_CMSIS/CMSIS/DSP/Source/SVMFunctions/arm_svm_linear_predict_f32.c ****  * @param[in]    S          Pointer to an instance of the linear SVM structure.
  43:Middlewares/Third_Party/ARM_CMSIS/CMSIS/DSP/Source/SVMFunctions/arm_svm_linear_predict_f32.c ****  * @param[in]    in         Pointer to input vector
  44:Middlewares/Third_Party/ARM_CMSIS/CMSIS/DSP/Source/SVMFunctions/arm_svm_linear_predict_f32.c ****  * @param[out]   pResult    Decision value
  45:Middlewares/Third_Party/ARM_CMSIS/CMSIS/DSP/Source/SVMFunctions/arm_svm_linear_predict_f32.c ****  * @return none.
  46:Middlewares/Third_Party/ARM_CMSIS/CMSIS/DSP/Source/SVMFunctions/arm_svm_linear_predict_f32.c ****  *
  47:Middlewares/Third_Party/ARM_CMSIS/CMSIS/DSP/Source/SVMFunctions/arm_svm_linear_predict_f32.c ****  */
  48:Middlewares/Third_Party/ARM_CMSIS/CMSIS/DSP/Source/SVMFunctions/arm_svm_linear_predict_f32.c **** #if defined(ARM_MATH_MVEF) && !defined(ARM_MATH_AUTOVECTORIZE)
  49:Middlewares/Third_Party/ARM_CMSIS/CMSIS/DSP/Source/SVMFunctions/arm_svm_linear_predict_f32.c **** 
  50:Middlewares/Third_Party/ARM_CMSIS/CMSIS/DSP/Source/SVMFunctions/arm_svm_linear_predict_f32.c **** #include "arm_helium_utils.h"
  51:Middlewares/Third_Party/ARM_CMSIS/CMSIS/DSP/Source/SVMFunctions/arm_svm_linear_predict_f32.c **** 
  52:Middlewares/Third_Party/ARM_CMSIS/CMSIS/DSP/Source/SVMFunctions/arm_svm_linear_predict_f32.c **** void arm_svm_linear_predict_f32(
  53:Middlewares/Third_Party/ARM_CMSIS/CMSIS/DSP/Source/SVMFunctions/arm_svm_linear_predict_f32.c ****     const arm_svm_linear_instance_f32 *S,
  54:Middlewares/Third_Party/ARM_CMSIS/CMSIS/DSP/Source/SVMFunctions/arm_svm_linear_predict_f32.c ****     const float32_t * in,
  55:Middlewares/Third_Party/ARM_CMSIS/CMSIS/DSP/Source/SVMFunctions/arm_svm_linear_predict_f32.c ****     int32_t * pResult)
  56:Middlewares/Third_Party/ARM_CMSIS/CMSIS/DSP/Source/SVMFunctions/arm_svm_linear_predict_f32.c **** {
  57:Middlewares/Third_Party/ARM_CMSIS/CMSIS/DSP/Source/SVMFunctions/arm_svm_linear_predict_f32.c ****         /* inlined Matrix x Vector function interleaved with dot prod */
  58:Middlewares/Third_Party/ARM_CMSIS/CMSIS/DSP/Source/SVMFunctions/arm_svm_linear_predict_f32.c ****     uint32_t        numRows = S->nbOfSupportVectors;
  59:Middlewares/Third_Party/ARM_CMSIS/CMSIS/DSP/Source/SVMFunctions/arm_svm_linear_predict_f32.c ****     uint32_t        numCols = S->vectorDimension;
  60:Middlewares/Third_Party/ARM_CMSIS/CMSIS/DSP/Source/SVMFunctions/arm_svm_linear_predict_f32.c ****     const float32_t *pSupport = S->supportVectors;
  61:Middlewares/Third_Party/ARM_CMSIS/CMSIS/DSP/Source/SVMFunctions/arm_svm_linear_predict_f32.c ****     const float32_t *pSrcA = pSupport;
  62:Middlewares/Third_Party/ARM_CMSIS/CMSIS/DSP/Source/SVMFunctions/arm_svm_linear_predict_f32.c ****     const float32_t *pInA0;
  63:Middlewares/Third_Party/ARM_CMSIS/CMSIS/DSP/Source/SVMFunctions/arm_svm_linear_predict_f32.c ****     const float32_t *pInA1;
  64:Middlewares/Third_Party/ARM_CMSIS/CMSIS/DSP/Source/SVMFunctions/arm_svm_linear_predict_f32.c ****     uint32_t         row;
  65:Middlewares/Third_Party/ARM_CMSIS/CMSIS/DSP/Source/SVMFunctions/arm_svm_linear_predict_f32.c ****     uint32_t         blkCnt;     /* loop counters */
  66:Middlewares/Third_Party/ARM_CMSIS/CMSIS/DSP/Source/SVMFunctions/arm_svm_linear_predict_f32.c ****     const float32_t *pDualCoef = S->dualCoefficients;
  67:Middlewares/Third_Party/ARM_CMSIS/CMSIS/DSP/Source/SVMFunctions/arm_svm_linear_predict_f32.c ****     float32_t       sum = S->intercept;
  68:Middlewares/Third_Party/ARM_CMSIS/CMSIS/DSP/Source/SVMFunctions/arm_svm_linear_predict_f32.c ****     row = numRows;
  69:Middlewares/Third_Party/ARM_CMSIS/CMSIS/DSP/Source/SVMFunctions/arm_svm_linear_predict_f32.c **** 
  70:Middlewares/Third_Party/ARM_CMSIS/CMSIS/DSP/Source/SVMFunctions/arm_svm_linear_predict_f32.c ****     /*
  71:Middlewares/Third_Party/ARM_CMSIS/CMSIS/DSP/Source/SVMFunctions/arm_svm_linear_predict_f32.c ****      * compute 4 rows in parrallel
  72:Middlewares/Third_Party/ARM_CMSIS/CMSIS/DSP/Source/SVMFunctions/arm_svm_linear_predict_f32.c ****      */
  73:Middlewares/Third_Party/ARM_CMSIS/CMSIS/DSP/Source/SVMFunctions/arm_svm_linear_predict_f32.c ****     while (row >= 4) 
ARM GAS  C:\Users\7636~1\AppData\Local\Temp\cc7HvPcb.s 			page 5


  74:Middlewares/Third_Party/ARM_CMSIS/CMSIS/DSP/Source/SVMFunctions/arm_svm_linear_predict_f32.c ****     {
  75:Middlewares/Third_Party/ARM_CMSIS/CMSIS/DSP/Source/SVMFunctions/arm_svm_linear_predict_f32.c ****         const float32_t *pInA2, *pInA3;
  76:Middlewares/Third_Party/ARM_CMSIS/CMSIS/DSP/Source/SVMFunctions/arm_svm_linear_predict_f32.c ****         float32_t const *pSrcA0Vec, *pSrcA1Vec, *pSrcA2Vec, *pSrcA3Vec, *pInVec;
  77:Middlewares/Third_Party/ARM_CMSIS/CMSIS/DSP/Source/SVMFunctions/arm_svm_linear_predict_f32.c ****         f32x4_t         vecIn, acc0, acc1, acc2, acc3;
  78:Middlewares/Third_Party/ARM_CMSIS/CMSIS/DSP/Source/SVMFunctions/arm_svm_linear_predict_f32.c ****         float32_t const *pSrcVecPtr = in;
  79:Middlewares/Third_Party/ARM_CMSIS/CMSIS/DSP/Source/SVMFunctions/arm_svm_linear_predict_f32.c **** 
  80:Middlewares/Third_Party/ARM_CMSIS/CMSIS/DSP/Source/SVMFunctions/arm_svm_linear_predict_f32.c ****         /*
  81:Middlewares/Third_Party/ARM_CMSIS/CMSIS/DSP/Source/SVMFunctions/arm_svm_linear_predict_f32.c ****          * Initialize the pointers to 4 consecutive MatrixA rows
  82:Middlewares/Third_Party/ARM_CMSIS/CMSIS/DSP/Source/SVMFunctions/arm_svm_linear_predict_f32.c ****          */
  83:Middlewares/Third_Party/ARM_CMSIS/CMSIS/DSP/Source/SVMFunctions/arm_svm_linear_predict_f32.c ****         pInA0 = pSrcA;
  84:Middlewares/Third_Party/ARM_CMSIS/CMSIS/DSP/Source/SVMFunctions/arm_svm_linear_predict_f32.c ****         pInA1 = pInA0 + numCols;
  85:Middlewares/Third_Party/ARM_CMSIS/CMSIS/DSP/Source/SVMFunctions/arm_svm_linear_predict_f32.c ****         pInA2 = pInA1 + numCols;
  86:Middlewares/Third_Party/ARM_CMSIS/CMSIS/DSP/Source/SVMFunctions/arm_svm_linear_predict_f32.c ****         pInA3 = pInA2 + numCols;
  87:Middlewares/Third_Party/ARM_CMSIS/CMSIS/DSP/Source/SVMFunctions/arm_svm_linear_predict_f32.c ****         /*
  88:Middlewares/Third_Party/ARM_CMSIS/CMSIS/DSP/Source/SVMFunctions/arm_svm_linear_predict_f32.c ****          * Initialize the vector pointer
  89:Middlewares/Third_Party/ARM_CMSIS/CMSIS/DSP/Source/SVMFunctions/arm_svm_linear_predict_f32.c ****          */
  90:Middlewares/Third_Party/ARM_CMSIS/CMSIS/DSP/Source/SVMFunctions/arm_svm_linear_predict_f32.c ****         pInVec = pSrcVecPtr;
  91:Middlewares/Third_Party/ARM_CMSIS/CMSIS/DSP/Source/SVMFunctions/arm_svm_linear_predict_f32.c ****         /*
  92:Middlewares/Third_Party/ARM_CMSIS/CMSIS/DSP/Source/SVMFunctions/arm_svm_linear_predict_f32.c ****          * reset accumulators
  93:Middlewares/Third_Party/ARM_CMSIS/CMSIS/DSP/Source/SVMFunctions/arm_svm_linear_predict_f32.c ****          */
  94:Middlewares/Third_Party/ARM_CMSIS/CMSIS/DSP/Source/SVMFunctions/arm_svm_linear_predict_f32.c ****         acc0 = vdupq_n_f32(0.0f);
  95:Middlewares/Third_Party/ARM_CMSIS/CMSIS/DSP/Source/SVMFunctions/arm_svm_linear_predict_f32.c ****         acc1 = vdupq_n_f32(0.0f);
  96:Middlewares/Third_Party/ARM_CMSIS/CMSIS/DSP/Source/SVMFunctions/arm_svm_linear_predict_f32.c ****         acc2 = vdupq_n_f32(0.0f);
  97:Middlewares/Third_Party/ARM_CMSIS/CMSIS/DSP/Source/SVMFunctions/arm_svm_linear_predict_f32.c ****         acc3 = vdupq_n_f32(0.0f);
  98:Middlewares/Third_Party/ARM_CMSIS/CMSIS/DSP/Source/SVMFunctions/arm_svm_linear_predict_f32.c **** 
  99:Middlewares/Third_Party/ARM_CMSIS/CMSIS/DSP/Source/SVMFunctions/arm_svm_linear_predict_f32.c ****         pSrcA0Vec = pInA0;
 100:Middlewares/Third_Party/ARM_CMSIS/CMSIS/DSP/Source/SVMFunctions/arm_svm_linear_predict_f32.c ****         pSrcA1Vec = pInA1;
 101:Middlewares/Third_Party/ARM_CMSIS/CMSIS/DSP/Source/SVMFunctions/arm_svm_linear_predict_f32.c ****         pSrcA2Vec = pInA2;
 102:Middlewares/Third_Party/ARM_CMSIS/CMSIS/DSP/Source/SVMFunctions/arm_svm_linear_predict_f32.c ****         pSrcA3Vec = pInA3;
 103:Middlewares/Third_Party/ARM_CMSIS/CMSIS/DSP/Source/SVMFunctions/arm_svm_linear_predict_f32.c **** 
 104:Middlewares/Third_Party/ARM_CMSIS/CMSIS/DSP/Source/SVMFunctions/arm_svm_linear_predict_f32.c ****         blkCnt = numCols >> 2;
 105:Middlewares/Third_Party/ARM_CMSIS/CMSIS/DSP/Source/SVMFunctions/arm_svm_linear_predict_f32.c ****         while (blkCnt > 0U) {
 106:Middlewares/Third_Party/ARM_CMSIS/CMSIS/DSP/Source/SVMFunctions/arm_svm_linear_predict_f32.c ****             f32x4_t         vecA;
 107:Middlewares/Third_Party/ARM_CMSIS/CMSIS/DSP/Source/SVMFunctions/arm_svm_linear_predict_f32.c **** 
 108:Middlewares/Third_Party/ARM_CMSIS/CMSIS/DSP/Source/SVMFunctions/arm_svm_linear_predict_f32.c ****             vecIn = vld1q(pInVec);
 109:Middlewares/Third_Party/ARM_CMSIS/CMSIS/DSP/Source/SVMFunctions/arm_svm_linear_predict_f32.c ****             pInVec += 4;
 110:Middlewares/Third_Party/ARM_CMSIS/CMSIS/DSP/Source/SVMFunctions/arm_svm_linear_predict_f32.c ****             vecA = vld1q(pSrcA0Vec);
 111:Middlewares/Third_Party/ARM_CMSIS/CMSIS/DSP/Source/SVMFunctions/arm_svm_linear_predict_f32.c ****             pSrcA0Vec += 4;
 112:Middlewares/Third_Party/ARM_CMSIS/CMSIS/DSP/Source/SVMFunctions/arm_svm_linear_predict_f32.c ****             acc0 = vfmaq(acc0, vecIn, vecA);
 113:Middlewares/Third_Party/ARM_CMSIS/CMSIS/DSP/Source/SVMFunctions/arm_svm_linear_predict_f32.c ****             vecA = vld1q(pSrcA1Vec);
 114:Middlewares/Third_Party/ARM_CMSIS/CMSIS/DSP/Source/SVMFunctions/arm_svm_linear_predict_f32.c ****             pSrcA1Vec += 4;
 115:Middlewares/Third_Party/ARM_CMSIS/CMSIS/DSP/Source/SVMFunctions/arm_svm_linear_predict_f32.c ****             acc1 = vfmaq(acc1, vecIn, vecA);
 116:Middlewares/Third_Party/ARM_CMSIS/CMSIS/DSP/Source/SVMFunctions/arm_svm_linear_predict_f32.c ****             vecA = vld1q(pSrcA2Vec);
 117:Middlewares/Third_Party/ARM_CMSIS/CMSIS/DSP/Source/SVMFunctions/arm_svm_linear_predict_f32.c ****             pSrcA2Vec += 4;
 118:Middlewares/Third_Party/ARM_CMSIS/CMSIS/DSP/Source/SVMFunctions/arm_svm_linear_predict_f32.c ****             acc2 = vfmaq(acc2, vecIn, vecA);
 119:Middlewares/Third_Party/ARM_CMSIS/CMSIS/DSP/Source/SVMFunctions/arm_svm_linear_predict_f32.c ****             vecA = vld1q(pSrcA3Vec);
 120:Middlewares/Third_Party/ARM_CMSIS/CMSIS/DSP/Source/SVMFunctions/arm_svm_linear_predict_f32.c ****             pSrcA3Vec += 4;
 121:Middlewares/Third_Party/ARM_CMSIS/CMSIS/DSP/Source/SVMFunctions/arm_svm_linear_predict_f32.c ****             acc3 = vfmaq(acc3, vecIn, vecA);
 122:Middlewares/Third_Party/ARM_CMSIS/CMSIS/DSP/Source/SVMFunctions/arm_svm_linear_predict_f32.c **** 
 123:Middlewares/Third_Party/ARM_CMSIS/CMSIS/DSP/Source/SVMFunctions/arm_svm_linear_predict_f32.c ****             blkCnt--;
 124:Middlewares/Third_Party/ARM_CMSIS/CMSIS/DSP/Source/SVMFunctions/arm_svm_linear_predict_f32.c ****         }
 125:Middlewares/Third_Party/ARM_CMSIS/CMSIS/DSP/Source/SVMFunctions/arm_svm_linear_predict_f32.c ****         /*
 126:Middlewares/Third_Party/ARM_CMSIS/CMSIS/DSP/Source/SVMFunctions/arm_svm_linear_predict_f32.c ****          * tail
 127:Middlewares/Third_Party/ARM_CMSIS/CMSIS/DSP/Source/SVMFunctions/arm_svm_linear_predict_f32.c ****          * (will be merged thru tail predication)
 128:Middlewares/Third_Party/ARM_CMSIS/CMSIS/DSP/Source/SVMFunctions/arm_svm_linear_predict_f32.c ****          */
 129:Middlewares/Third_Party/ARM_CMSIS/CMSIS/DSP/Source/SVMFunctions/arm_svm_linear_predict_f32.c ****         blkCnt = numCols & 3;
 130:Middlewares/Third_Party/ARM_CMSIS/CMSIS/DSP/Source/SVMFunctions/arm_svm_linear_predict_f32.c ****         if (blkCnt > 0U) {
ARM GAS  C:\Users\7636~1\AppData\Local\Temp\cc7HvPcb.s 			page 6


 131:Middlewares/Third_Party/ARM_CMSIS/CMSIS/DSP/Source/SVMFunctions/arm_svm_linear_predict_f32.c ****             mve_pred16_t    p0 = vctp32q(blkCnt);
 132:Middlewares/Third_Party/ARM_CMSIS/CMSIS/DSP/Source/SVMFunctions/arm_svm_linear_predict_f32.c ****             f32x4_t         vecA;
 133:Middlewares/Third_Party/ARM_CMSIS/CMSIS/DSP/Source/SVMFunctions/arm_svm_linear_predict_f32.c **** 
 134:Middlewares/Third_Party/ARM_CMSIS/CMSIS/DSP/Source/SVMFunctions/arm_svm_linear_predict_f32.c ****             vecIn = vldrwq_z_f32(pInVec, p0);
 135:Middlewares/Third_Party/ARM_CMSIS/CMSIS/DSP/Source/SVMFunctions/arm_svm_linear_predict_f32.c ****             vecA = vldrwq_z_f32(pSrcA0Vec, p0);
 136:Middlewares/Third_Party/ARM_CMSIS/CMSIS/DSP/Source/SVMFunctions/arm_svm_linear_predict_f32.c ****             acc0 = vfmaq(acc0, vecIn, vecA);
 137:Middlewares/Third_Party/ARM_CMSIS/CMSIS/DSP/Source/SVMFunctions/arm_svm_linear_predict_f32.c ****             vecA = vldrwq_z_f32(pSrcA1Vec, p0);
 138:Middlewares/Third_Party/ARM_CMSIS/CMSIS/DSP/Source/SVMFunctions/arm_svm_linear_predict_f32.c ****             acc1 = vfmaq(acc1, vecIn, vecA);
 139:Middlewares/Third_Party/ARM_CMSIS/CMSIS/DSP/Source/SVMFunctions/arm_svm_linear_predict_f32.c ****             vecA = vldrwq_z_f32(pSrcA2Vec, p0);
 140:Middlewares/Third_Party/ARM_CMSIS/CMSIS/DSP/Source/SVMFunctions/arm_svm_linear_predict_f32.c ****             acc2 = vfmaq(acc2, vecIn, vecA);
 141:Middlewares/Third_Party/ARM_CMSIS/CMSIS/DSP/Source/SVMFunctions/arm_svm_linear_predict_f32.c ****             vecA = vldrwq_z_f32(pSrcA3Vec, p0);
 142:Middlewares/Third_Party/ARM_CMSIS/CMSIS/DSP/Source/SVMFunctions/arm_svm_linear_predict_f32.c ****             acc3 = vfmaq(acc3, vecIn, vecA);
 143:Middlewares/Third_Party/ARM_CMSIS/CMSIS/DSP/Source/SVMFunctions/arm_svm_linear_predict_f32.c ****         }
 144:Middlewares/Third_Party/ARM_CMSIS/CMSIS/DSP/Source/SVMFunctions/arm_svm_linear_predict_f32.c ****         /*
 145:Middlewares/Third_Party/ARM_CMSIS/CMSIS/DSP/Source/SVMFunctions/arm_svm_linear_predict_f32.c ****          * Sum the partial parts
 146:Middlewares/Third_Party/ARM_CMSIS/CMSIS/DSP/Source/SVMFunctions/arm_svm_linear_predict_f32.c ****          */
 147:Middlewares/Third_Party/ARM_CMSIS/CMSIS/DSP/Source/SVMFunctions/arm_svm_linear_predict_f32.c **** 
 148:Middlewares/Third_Party/ARM_CMSIS/CMSIS/DSP/Source/SVMFunctions/arm_svm_linear_predict_f32.c ****         acc0 = vmulq_n_f32(acc0,*pDualCoef++);
 149:Middlewares/Third_Party/ARM_CMSIS/CMSIS/DSP/Source/SVMFunctions/arm_svm_linear_predict_f32.c ****         acc0 = vfmaq_n_f32(acc0,acc1,*pDualCoef++);
 150:Middlewares/Third_Party/ARM_CMSIS/CMSIS/DSP/Source/SVMFunctions/arm_svm_linear_predict_f32.c ****         acc0 = vfmaq_n_f32(acc0,acc2,*pDualCoef++);
 151:Middlewares/Third_Party/ARM_CMSIS/CMSIS/DSP/Source/SVMFunctions/arm_svm_linear_predict_f32.c ****         acc0 = vfmaq_n_f32(acc0,acc3,*pDualCoef++);
 152:Middlewares/Third_Party/ARM_CMSIS/CMSIS/DSP/Source/SVMFunctions/arm_svm_linear_predict_f32.c **** 
 153:Middlewares/Third_Party/ARM_CMSIS/CMSIS/DSP/Source/SVMFunctions/arm_svm_linear_predict_f32.c ****         sum += vecAddAcrossF32Mve(acc0);
 154:Middlewares/Third_Party/ARM_CMSIS/CMSIS/DSP/Source/SVMFunctions/arm_svm_linear_predict_f32.c **** 
 155:Middlewares/Third_Party/ARM_CMSIS/CMSIS/DSP/Source/SVMFunctions/arm_svm_linear_predict_f32.c ****         pSrcA += numCols * 4;
 156:Middlewares/Third_Party/ARM_CMSIS/CMSIS/DSP/Source/SVMFunctions/arm_svm_linear_predict_f32.c ****         /*
 157:Middlewares/Third_Party/ARM_CMSIS/CMSIS/DSP/Source/SVMFunctions/arm_svm_linear_predict_f32.c ****          * Decrement the row loop counter
 158:Middlewares/Third_Party/ARM_CMSIS/CMSIS/DSP/Source/SVMFunctions/arm_svm_linear_predict_f32.c ****          */
 159:Middlewares/Third_Party/ARM_CMSIS/CMSIS/DSP/Source/SVMFunctions/arm_svm_linear_predict_f32.c ****         row -= 4;
 160:Middlewares/Third_Party/ARM_CMSIS/CMSIS/DSP/Source/SVMFunctions/arm_svm_linear_predict_f32.c ****     }
 161:Middlewares/Third_Party/ARM_CMSIS/CMSIS/DSP/Source/SVMFunctions/arm_svm_linear_predict_f32.c **** 
 162:Middlewares/Third_Party/ARM_CMSIS/CMSIS/DSP/Source/SVMFunctions/arm_svm_linear_predict_f32.c ****     /*
 163:Middlewares/Third_Party/ARM_CMSIS/CMSIS/DSP/Source/SVMFunctions/arm_svm_linear_predict_f32.c ****      * compute 2 rows in parallel
 164:Middlewares/Third_Party/ARM_CMSIS/CMSIS/DSP/Source/SVMFunctions/arm_svm_linear_predict_f32.c ****      */
 165:Middlewares/Third_Party/ARM_CMSIS/CMSIS/DSP/Source/SVMFunctions/arm_svm_linear_predict_f32.c ****     if (row >= 2) {
 166:Middlewares/Third_Party/ARM_CMSIS/CMSIS/DSP/Source/SVMFunctions/arm_svm_linear_predict_f32.c ****         float32_t const *pSrcA0Vec, *pSrcA1Vec, *pInVec;
 167:Middlewares/Third_Party/ARM_CMSIS/CMSIS/DSP/Source/SVMFunctions/arm_svm_linear_predict_f32.c ****         f32x4_t         vecIn, acc0, acc1;
 168:Middlewares/Third_Party/ARM_CMSIS/CMSIS/DSP/Source/SVMFunctions/arm_svm_linear_predict_f32.c ****         float32_t const *pSrcVecPtr = in;
 169:Middlewares/Third_Party/ARM_CMSIS/CMSIS/DSP/Source/SVMFunctions/arm_svm_linear_predict_f32.c **** 
 170:Middlewares/Third_Party/ARM_CMSIS/CMSIS/DSP/Source/SVMFunctions/arm_svm_linear_predict_f32.c ****         /*
 171:Middlewares/Third_Party/ARM_CMSIS/CMSIS/DSP/Source/SVMFunctions/arm_svm_linear_predict_f32.c ****          * Initialize the pointers to 2 consecutive MatrixA rows
 172:Middlewares/Third_Party/ARM_CMSIS/CMSIS/DSP/Source/SVMFunctions/arm_svm_linear_predict_f32.c ****          */
 173:Middlewares/Third_Party/ARM_CMSIS/CMSIS/DSP/Source/SVMFunctions/arm_svm_linear_predict_f32.c ****         pInA0 = pSrcA;
 174:Middlewares/Third_Party/ARM_CMSIS/CMSIS/DSP/Source/SVMFunctions/arm_svm_linear_predict_f32.c ****         pInA1 = pInA0 + numCols;
 175:Middlewares/Third_Party/ARM_CMSIS/CMSIS/DSP/Source/SVMFunctions/arm_svm_linear_predict_f32.c ****         /*
 176:Middlewares/Third_Party/ARM_CMSIS/CMSIS/DSP/Source/SVMFunctions/arm_svm_linear_predict_f32.c ****          * Initialize the vector pointer
 177:Middlewares/Third_Party/ARM_CMSIS/CMSIS/DSP/Source/SVMFunctions/arm_svm_linear_predict_f32.c ****          */
 178:Middlewares/Third_Party/ARM_CMSIS/CMSIS/DSP/Source/SVMFunctions/arm_svm_linear_predict_f32.c ****         pInVec = pSrcVecPtr;
 179:Middlewares/Third_Party/ARM_CMSIS/CMSIS/DSP/Source/SVMFunctions/arm_svm_linear_predict_f32.c ****         /*
 180:Middlewares/Third_Party/ARM_CMSIS/CMSIS/DSP/Source/SVMFunctions/arm_svm_linear_predict_f32.c ****          * reset accumulators
 181:Middlewares/Third_Party/ARM_CMSIS/CMSIS/DSP/Source/SVMFunctions/arm_svm_linear_predict_f32.c ****          */
 182:Middlewares/Third_Party/ARM_CMSIS/CMSIS/DSP/Source/SVMFunctions/arm_svm_linear_predict_f32.c ****         acc0 = vdupq_n_f32(0.0f);
 183:Middlewares/Third_Party/ARM_CMSIS/CMSIS/DSP/Source/SVMFunctions/arm_svm_linear_predict_f32.c ****         acc1 = vdupq_n_f32(0.0f);
 184:Middlewares/Third_Party/ARM_CMSIS/CMSIS/DSP/Source/SVMFunctions/arm_svm_linear_predict_f32.c ****         pSrcA0Vec = pInA0;
 185:Middlewares/Third_Party/ARM_CMSIS/CMSIS/DSP/Source/SVMFunctions/arm_svm_linear_predict_f32.c ****         pSrcA1Vec = pInA1;
 186:Middlewares/Third_Party/ARM_CMSIS/CMSIS/DSP/Source/SVMFunctions/arm_svm_linear_predict_f32.c **** 
 187:Middlewares/Third_Party/ARM_CMSIS/CMSIS/DSP/Source/SVMFunctions/arm_svm_linear_predict_f32.c ****         blkCnt = numCols >> 2;
ARM GAS  C:\Users\7636~1\AppData\Local\Temp\cc7HvPcb.s 			page 7


 188:Middlewares/Third_Party/ARM_CMSIS/CMSIS/DSP/Source/SVMFunctions/arm_svm_linear_predict_f32.c ****         while (blkCnt > 0U) {
 189:Middlewares/Third_Party/ARM_CMSIS/CMSIS/DSP/Source/SVMFunctions/arm_svm_linear_predict_f32.c ****             f32x4_t         vecA;
 190:Middlewares/Third_Party/ARM_CMSIS/CMSIS/DSP/Source/SVMFunctions/arm_svm_linear_predict_f32.c **** 
 191:Middlewares/Third_Party/ARM_CMSIS/CMSIS/DSP/Source/SVMFunctions/arm_svm_linear_predict_f32.c ****             vecIn = vld1q(pInVec);
 192:Middlewares/Third_Party/ARM_CMSIS/CMSIS/DSP/Source/SVMFunctions/arm_svm_linear_predict_f32.c ****             pInVec += 4;
 193:Middlewares/Third_Party/ARM_CMSIS/CMSIS/DSP/Source/SVMFunctions/arm_svm_linear_predict_f32.c ****             vecA = vld1q(pSrcA0Vec);
 194:Middlewares/Third_Party/ARM_CMSIS/CMSIS/DSP/Source/SVMFunctions/arm_svm_linear_predict_f32.c ****             pSrcA0Vec += 4;
 195:Middlewares/Third_Party/ARM_CMSIS/CMSIS/DSP/Source/SVMFunctions/arm_svm_linear_predict_f32.c ****             acc0 = vfmaq(acc0, vecIn, vecA);
 196:Middlewares/Third_Party/ARM_CMSIS/CMSIS/DSP/Source/SVMFunctions/arm_svm_linear_predict_f32.c ****             vecA = vld1q(pSrcA1Vec);
 197:Middlewares/Third_Party/ARM_CMSIS/CMSIS/DSP/Source/SVMFunctions/arm_svm_linear_predict_f32.c ****             pSrcA1Vec += 4;
 198:Middlewares/Third_Party/ARM_CMSIS/CMSIS/DSP/Source/SVMFunctions/arm_svm_linear_predict_f32.c ****             acc1 = vfmaq(acc1, vecIn, vecA);
 199:Middlewares/Third_Party/ARM_CMSIS/CMSIS/DSP/Source/SVMFunctions/arm_svm_linear_predict_f32.c **** 
 200:Middlewares/Third_Party/ARM_CMSIS/CMSIS/DSP/Source/SVMFunctions/arm_svm_linear_predict_f32.c ****             blkCnt--;
 201:Middlewares/Third_Party/ARM_CMSIS/CMSIS/DSP/Source/SVMFunctions/arm_svm_linear_predict_f32.c ****         }
 202:Middlewares/Third_Party/ARM_CMSIS/CMSIS/DSP/Source/SVMFunctions/arm_svm_linear_predict_f32.c ****         /*
 203:Middlewares/Third_Party/ARM_CMSIS/CMSIS/DSP/Source/SVMFunctions/arm_svm_linear_predict_f32.c ****          * tail
 204:Middlewares/Third_Party/ARM_CMSIS/CMSIS/DSP/Source/SVMFunctions/arm_svm_linear_predict_f32.c ****          * (will be merged thru tail predication)
 205:Middlewares/Third_Party/ARM_CMSIS/CMSIS/DSP/Source/SVMFunctions/arm_svm_linear_predict_f32.c ****          */
 206:Middlewares/Third_Party/ARM_CMSIS/CMSIS/DSP/Source/SVMFunctions/arm_svm_linear_predict_f32.c ****         blkCnt = numCols & 3;
 207:Middlewares/Third_Party/ARM_CMSIS/CMSIS/DSP/Source/SVMFunctions/arm_svm_linear_predict_f32.c ****         if (blkCnt > 0U) {
 208:Middlewares/Third_Party/ARM_CMSIS/CMSIS/DSP/Source/SVMFunctions/arm_svm_linear_predict_f32.c ****             mve_pred16_t    p0 = vctp32q(blkCnt);
 209:Middlewares/Third_Party/ARM_CMSIS/CMSIS/DSP/Source/SVMFunctions/arm_svm_linear_predict_f32.c ****             f32x4_t         vecA;
 210:Middlewares/Third_Party/ARM_CMSIS/CMSIS/DSP/Source/SVMFunctions/arm_svm_linear_predict_f32.c **** 
 211:Middlewares/Third_Party/ARM_CMSIS/CMSIS/DSP/Source/SVMFunctions/arm_svm_linear_predict_f32.c ****             vecIn = vldrwq_z_f32(pInVec, p0);
 212:Middlewares/Third_Party/ARM_CMSIS/CMSIS/DSP/Source/SVMFunctions/arm_svm_linear_predict_f32.c ****             vecA = vldrwq_z_f32(pSrcA0Vec, p0);
 213:Middlewares/Third_Party/ARM_CMSIS/CMSIS/DSP/Source/SVMFunctions/arm_svm_linear_predict_f32.c ****             acc0 = vfmaq(acc0, vecIn, vecA);
 214:Middlewares/Third_Party/ARM_CMSIS/CMSIS/DSP/Source/SVMFunctions/arm_svm_linear_predict_f32.c ****             vecA = vldrwq_z_f32(pSrcA1Vec, p0);
 215:Middlewares/Third_Party/ARM_CMSIS/CMSIS/DSP/Source/SVMFunctions/arm_svm_linear_predict_f32.c ****             acc1 = vfmaq(acc1, vecIn, vecA);
 216:Middlewares/Third_Party/ARM_CMSIS/CMSIS/DSP/Source/SVMFunctions/arm_svm_linear_predict_f32.c ****         }
 217:Middlewares/Third_Party/ARM_CMSIS/CMSIS/DSP/Source/SVMFunctions/arm_svm_linear_predict_f32.c ****         /*
 218:Middlewares/Third_Party/ARM_CMSIS/CMSIS/DSP/Source/SVMFunctions/arm_svm_linear_predict_f32.c ****          * Sum the partial parts
 219:Middlewares/Third_Party/ARM_CMSIS/CMSIS/DSP/Source/SVMFunctions/arm_svm_linear_predict_f32.c ****          */
 220:Middlewares/Third_Party/ARM_CMSIS/CMSIS/DSP/Source/SVMFunctions/arm_svm_linear_predict_f32.c ****         acc0 = vmulq_n_f32(acc0,*pDualCoef++);
 221:Middlewares/Third_Party/ARM_CMSIS/CMSIS/DSP/Source/SVMFunctions/arm_svm_linear_predict_f32.c ****         acc0 = vfmaq_n_f32(acc0,acc1,*pDualCoef++);
 222:Middlewares/Third_Party/ARM_CMSIS/CMSIS/DSP/Source/SVMFunctions/arm_svm_linear_predict_f32.c **** 
 223:Middlewares/Third_Party/ARM_CMSIS/CMSIS/DSP/Source/SVMFunctions/arm_svm_linear_predict_f32.c ****         sum += vecAddAcrossF32Mve(acc0);
 224:Middlewares/Third_Party/ARM_CMSIS/CMSIS/DSP/Source/SVMFunctions/arm_svm_linear_predict_f32.c **** 
 225:Middlewares/Third_Party/ARM_CMSIS/CMSIS/DSP/Source/SVMFunctions/arm_svm_linear_predict_f32.c **** 
 226:Middlewares/Third_Party/ARM_CMSIS/CMSIS/DSP/Source/SVMFunctions/arm_svm_linear_predict_f32.c ****         pSrcA += numCols * 2;
 227:Middlewares/Third_Party/ARM_CMSIS/CMSIS/DSP/Source/SVMFunctions/arm_svm_linear_predict_f32.c ****         row -= 2;
 228:Middlewares/Third_Party/ARM_CMSIS/CMSIS/DSP/Source/SVMFunctions/arm_svm_linear_predict_f32.c ****     }
 229:Middlewares/Third_Party/ARM_CMSIS/CMSIS/DSP/Source/SVMFunctions/arm_svm_linear_predict_f32.c **** 
 230:Middlewares/Third_Party/ARM_CMSIS/CMSIS/DSP/Source/SVMFunctions/arm_svm_linear_predict_f32.c ****     if (row >= 1) {
 231:Middlewares/Third_Party/ARM_CMSIS/CMSIS/DSP/Source/SVMFunctions/arm_svm_linear_predict_f32.c ****         f32x4_t         vecIn, acc0;
 232:Middlewares/Third_Party/ARM_CMSIS/CMSIS/DSP/Source/SVMFunctions/arm_svm_linear_predict_f32.c ****         float32_t const *pSrcA0Vec, *pInVec;
 233:Middlewares/Third_Party/ARM_CMSIS/CMSIS/DSP/Source/SVMFunctions/arm_svm_linear_predict_f32.c ****         float32_t const *pSrcVecPtr = in;
 234:Middlewares/Third_Party/ARM_CMSIS/CMSIS/DSP/Source/SVMFunctions/arm_svm_linear_predict_f32.c ****         /*
 235:Middlewares/Third_Party/ARM_CMSIS/CMSIS/DSP/Source/SVMFunctions/arm_svm_linear_predict_f32.c ****          * Initialize the pointers to last MatrixA row
 236:Middlewares/Third_Party/ARM_CMSIS/CMSIS/DSP/Source/SVMFunctions/arm_svm_linear_predict_f32.c ****          */
 237:Middlewares/Third_Party/ARM_CMSIS/CMSIS/DSP/Source/SVMFunctions/arm_svm_linear_predict_f32.c ****         pInA0 = pSrcA;
 238:Middlewares/Third_Party/ARM_CMSIS/CMSIS/DSP/Source/SVMFunctions/arm_svm_linear_predict_f32.c ****         /*
 239:Middlewares/Third_Party/ARM_CMSIS/CMSIS/DSP/Source/SVMFunctions/arm_svm_linear_predict_f32.c ****          * Initialize the vector pointer
 240:Middlewares/Third_Party/ARM_CMSIS/CMSIS/DSP/Source/SVMFunctions/arm_svm_linear_predict_f32.c ****          */
 241:Middlewares/Third_Party/ARM_CMSIS/CMSIS/DSP/Source/SVMFunctions/arm_svm_linear_predict_f32.c ****         pInVec = pSrcVecPtr;
 242:Middlewares/Third_Party/ARM_CMSIS/CMSIS/DSP/Source/SVMFunctions/arm_svm_linear_predict_f32.c ****         /*
 243:Middlewares/Third_Party/ARM_CMSIS/CMSIS/DSP/Source/SVMFunctions/arm_svm_linear_predict_f32.c ****          * reset accumulators
 244:Middlewares/Third_Party/ARM_CMSIS/CMSIS/DSP/Source/SVMFunctions/arm_svm_linear_predict_f32.c ****          */
ARM GAS  C:\Users\7636~1\AppData\Local\Temp\cc7HvPcb.s 			page 8


 245:Middlewares/Third_Party/ARM_CMSIS/CMSIS/DSP/Source/SVMFunctions/arm_svm_linear_predict_f32.c ****         acc0 = vdupq_n_f32(0.0f);
 246:Middlewares/Third_Party/ARM_CMSIS/CMSIS/DSP/Source/SVMFunctions/arm_svm_linear_predict_f32.c **** 
 247:Middlewares/Third_Party/ARM_CMSIS/CMSIS/DSP/Source/SVMFunctions/arm_svm_linear_predict_f32.c ****         pSrcA0Vec = pInA0;
 248:Middlewares/Third_Party/ARM_CMSIS/CMSIS/DSP/Source/SVMFunctions/arm_svm_linear_predict_f32.c **** 
 249:Middlewares/Third_Party/ARM_CMSIS/CMSIS/DSP/Source/SVMFunctions/arm_svm_linear_predict_f32.c ****         blkCnt = numCols >> 2;
 250:Middlewares/Third_Party/ARM_CMSIS/CMSIS/DSP/Source/SVMFunctions/arm_svm_linear_predict_f32.c ****         while (blkCnt > 0U) {
 251:Middlewares/Third_Party/ARM_CMSIS/CMSIS/DSP/Source/SVMFunctions/arm_svm_linear_predict_f32.c ****             f32x4_t         vecA;
 252:Middlewares/Third_Party/ARM_CMSIS/CMSIS/DSP/Source/SVMFunctions/arm_svm_linear_predict_f32.c **** 
 253:Middlewares/Third_Party/ARM_CMSIS/CMSIS/DSP/Source/SVMFunctions/arm_svm_linear_predict_f32.c ****             vecIn = vld1q(pInVec);
 254:Middlewares/Third_Party/ARM_CMSIS/CMSIS/DSP/Source/SVMFunctions/arm_svm_linear_predict_f32.c ****             pInVec += 4;
 255:Middlewares/Third_Party/ARM_CMSIS/CMSIS/DSP/Source/SVMFunctions/arm_svm_linear_predict_f32.c ****             vecA = vld1q(pSrcA0Vec);
 256:Middlewares/Third_Party/ARM_CMSIS/CMSIS/DSP/Source/SVMFunctions/arm_svm_linear_predict_f32.c ****             pSrcA0Vec += 4;
 257:Middlewares/Third_Party/ARM_CMSIS/CMSIS/DSP/Source/SVMFunctions/arm_svm_linear_predict_f32.c ****             acc0 = vfmaq(acc0, vecIn, vecA);
 258:Middlewares/Third_Party/ARM_CMSIS/CMSIS/DSP/Source/SVMFunctions/arm_svm_linear_predict_f32.c **** 
 259:Middlewares/Third_Party/ARM_CMSIS/CMSIS/DSP/Source/SVMFunctions/arm_svm_linear_predict_f32.c ****             blkCnt--;
 260:Middlewares/Third_Party/ARM_CMSIS/CMSIS/DSP/Source/SVMFunctions/arm_svm_linear_predict_f32.c ****         }
 261:Middlewares/Third_Party/ARM_CMSIS/CMSIS/DSP/Source/SVMFunctions/arm_svm_linear_predict_f32.c ****         /*
 262:Middlewares/Third_Party/ARM_CMSIS/CMSIS/DSP/Source/SVMFunctions/arm_svm_linear_predict_f32.c ****          * tail
 263:Middlewares/Third_Party/ARM_CMSIS/CMSIS/DSP/Source/SVMFunctions/arm_svm_linear_predict_f32.c ****          * (will be merged thru tail predication)
 264:Middlewares/Third_Party/ARM_CMSIS/CMSIS/DSP/Source/SVMFunctions/arm_svm_linear_predict_f32.c ****          */
 265:Middlewares/Third_Party/ARM_CMSIS/CMSIS/DSP/Source/SVMFunctions/arm_svm_linear_predict_f32.c ****         blkCnt = numCols & 3;
 266:Middlewares/Third_Party/ARM_CMSIS/CMSIS/DSP/Source/SVMFunctions/arm_svm_linear_predict_f32.c ****         if (blkCnt > 0U) {
 267:Middlewares/Third_Party/ARM_CMSIS/CMSIS/DSP/Source/SVMFunctions/arm_svm_linear_predict_f32.c ****             mve_pred16_t    p0 = vctp32q(blkCnt);
 268:Middlewares/Third_Party/ARM_CMSIS/CMSIS/DSP/Source/SVMFunctions/arm_svm_linear_predict_f32.c ****             f32x4_t         vecA;
 269:Middlewares/Third_Party/ARM_CMSIS/CMSIS/DSP/Source/SVMFunctions/arm_svm_linear_predict_f32.c **** 
 270:Middlewares/Third_Party/ARM_CMSIS/CMSIS/DSP/Source/SVMFunctions/arm_svm_linear_predict_f32.c ****             vecIn = vldrwq_z_f32(pInVec, p0);
 271:Middlewares/Third_Party/ARM_CMSIS/CMSIS/DSP/Source/SVMFunctions/arm_svm_linear_predict_f32.c ****             vecA = vldrwq_z_f32(pSrcA0Vec, p0);
 272:Middlewares/Third_Party/ARM_CMSIS/CMSIS/DSP/Source/SVMFunctions/arm_svm_linear_predict_f32.c ****             acc0 = vfmaq(acc0, vecIn, vecA);
 273:Middlewares/Third_Party/ARM_CMSIS/CMSIS/DSP/Source/SVMFunctions/arm_svm_linear_predict_f32.c ****         }
 274:Middlewares/Third_Party/ARM_CMSIS/CMSIS/DSP/Source/SVMFunctions/arm_svm_linear_predict_f32.c ****         /*
 275:Middlewares/Third_Party/ARM_CMSIS/CMSIS/DSP/Source/SVMFunctions/arm_svm_linear_predict_f32.c ****          * Sum the partial parts
 276:Middlewares/Third_Party/ARM_CMSIS/CMSIS/DSP/Source/SVMFunctions/arm_svm_linear_predict_f32.c ****          */
 277:Middlewares/Third_Party/ARM_CMSIS/CMSIS/DSP/Source/SVMFunctions/arm_svm_linear_predict_f32.c ****         sum += *pDualCoef++ * vecAddAcrossF32Mve(acc0);
 278:Middlewares/Third_Party/ARM_CMSIS/CMSIS/DSP/Source/SVMFunctions/arm_svm_linear_predict_f32.c **** 
 279:Middlewares/Third_Party/ARM_CMSIS/CMSIS/DSP/Source/SVMFunctions/arm_svm_linear_predict_f32.c ****     }
 280:Middlewares/Third_Party/ARM_CMSIS/CMSIS/DSP/Source/SVMFunctions/arm_svm_linear_predict_f32.c **** 
 281:Middlewares/Third_Party/ARM_CMSIS/CMSIS/DSP/Source/SVMFunctions/arm_svm_linear_predict_f32.c ****     *pResult = S->classes[STEP(sum)];
 282:Middlewares/Third_Party/ARM_CMSIS/CMSIS/DSP/Source/SVMFunctions/arm_svm_linear_predict_f32.c **** }
 283:Middlewares/Third_Party/ARM_CMSIS/CMSIS/DSP/Source/SVMFunctions/arm_svm_linear_predict_f32.c **** 
 284:Middlewares/Third_Party/ARM_CMSIS/CMSIS/DSP/Source/SVMFunctions/arm_svm_linear_predict_f32.c **** #else
 285:Middlewares/Third_Party/ARM_CMSIS/CMSIS/DSP/Source/SVMFunctions/arm_svm_linear_predict_f32.c **** #if defined(ARM_MATH_NEON)
 286:Middlewares/Third_Party/ARM_CMSIS/CMSIS/DSP/Source/SVMFunctions/arm_svm_linear_predict_f32.c **** void arm_svm_linear_predict_f32(
 287:Middlewares/Third_Party/ARM_CMSIS/CMSIS/DSP/Source/SVMFunctions/arm_svm_linear_predict_f32.c ****     const arm_svm_linear_instance_f32 *S,
 288:Middlewares/Third_Party/ARM_CMSIS/CMSIS/DSP/Source/SVMFunctions/arm_svm_linear_predict_f32.c ****     const float32_t * in,
 289:Middlewares/Third_Party/ARM_CMSIS/CMSIS/DSP/Source/SVMFunctions/arm_svm_linear_predict_f32.c ****     int32_t * pResult)
 290:Middlewares/Third_Party/ARM_CMSIS/CMSIS/DSP/Source/SVMFunctions/arm_svm_linear_predict_f32.c **** {
 291:Middlewares/Third_Party/ARM_CMSIS/CMSIS/DSP/Source/SVMFunctions/arm_svm_linear_predict_f32.c ****     float32_t sum = S->intercept;
 292:Middlewares/Third_Party/ARM_CMSIS/CMSIS/DSP/Source/SVMFunctions/arm_svm_linear_predict_f32.c ****    
 293:Middlewares/Third_Party/ARM_CMSIS/CMSIS/DSP/Source/SVMFunctions/arm_svm_linear_predict_f32.c ****     float32_t dot;
 294:Middlewares/Third_Party/ARM_CMSIS/CMSIS/DSP/Source/SVMFunctions/arm_svm_linear_predict_f32.c ****     float32x4_t dotV; 
 295:Middlewares/Third_Party/ARM_CMSIS/CMSIS/DSP/Source/SVMFunctions/arm_svm_linear_predict_f32.c **** 
 296:Middlewares/Third_Party/ARM_CMSIS/CMSIS/DSP/Source/SVMFunctions/arm_svm_linear_predict_f32.c ****     float32x4_t accuma,accumb,accumc,accumd,accum;
 297:Middlewares/Third_Party/ARM_CMSIS/CMSIS/DSP/Source/SVMFunctions/arm_svm_linear_predict_f32.c ****     float32x2_t accum2;
 298:Middlewares/Third_Party/ARM_CMSIS/CMSIS/DSP/Source/SVMFunctions/arm_svm_linear_predict_f32.c ****     float32x4_t vec1;
 299:Middlewares/Third_Party/ARM_CMSIS/CMSIS/DSP/Source/SVMFunctions/arm_svm_linear_predict_f32.c **** 
 300:Middlewares/Third_Party/ARM_CMSIS/CMSIS/DSP/Source/SVMFunctions/arm_svm_linear_predict_f32.c ****     float32x4_t vec2,vec2a,vec2b,vec2c,vec2d;
 301:Middlewares/Third_Party/ARM_CMSIS/CMSIS/DSP/Source/SVMFunctions/arm_svm_linear_predict_f32.c **** 
ARM GAS  C:\Users\7636~1\AppData\Local\Temp\cc7HvPcb.s 			page 9


 302:Middlewares/Third_Party/ARM_CMSIS/CMSIS/DSP/Source/SVMFunctions/arm_svm_linear_predict_f32.c ****     uint32_t blkCnt;   
 303:Middlewares/Third_Party/ARM_CMSIS/CMSIS/DSP/Source/SVMFunctions/arm_svm_linear_predict_f32.c ****     uint32_t vectorBlkCnt;   
 304:Middlewares/Third_Party/ARM_CMSIS/CMSIS/DSP/Source/SVMFunctions/arm_svm_linear_predict_f32.c **** 
 305:Middlewares/Third_Party/ARM_CMSIS/CMSIS/DSP/Source/SVMFunctions/arm_svm_linear_predict_f32.c ****     const float32_t *pIn = in;
 306:Middlewares/Third_Party/ARM_CMSIS/CMSIS/DSP/Source/SVMFunctions/arm_svm_linear_predict_f32.c **** 
 307:Middlewares/Third_Party/ARM_CMSIS/CMSIS/DSP/Source/SVMFunctions/arm_svm_linear_predict_f32.c ****     const float32_t *pSupport = S->supportVectors;
 308:Middlewares/Third_Party/ARM_CMSIS/CMSIS/DSP/Source/SVMFunctions/arm_svm_linear_predict_f32.c **** 
 309:Middlewares/Third_Party/ARM_CMSIS/CMSIS/DSP/Source/SVMFunctions/arm_svm_linear_predict_f32.c ****     const float32_t *pSupporta = S->supportVectors;
 310:Middlewares/Third_Party/ARM_CMSIS/CMSIS/DSP/Source/SVMFunctions/arm_svm_linear_predict_f32.c ****     const float32_t *pSupportb;
 311:Middlewares/Third_Party/ARM_CMSIS/CMSIS/DSP/Source/SVMFunctions/arm_svm_linear_predict_f32.c ****     const float32_t *pSupportc;
 312:Middlewares/Third_Party/ARM_CMSIS/CMSIS/DSP/Source/SVMFunctions/arm_svm_linear_predict_f32.c ****     const float32_t *pSupportd;
 313:Middlewares/Third_Party/ARM_CMSIS/CMSIS/DSP/Source/SVMFunctions/arm_svm_linear_predict_f32.c **** 
 314:Middlewares/Third_Party/ARM_CMSIS/CMSIS/DSP/Source/SVMFunctions/arm_svm_linear_predict_f32.c ****     pSupportb = pSupporta + S->vectorDimension;
 315:Middlewares/Third_Party/ARM_CMSIS/CMSIS/DSP/Source/SVMFunctions/arm_svm_linear_predict_f32.c ****     pSupportc = pSupportb + S->vectorDimension;
 316:Middlewares/Third_Party/ARM_CMSIS/CMSIS/DSP/Source/SVMFunctions/arm_svm_linear_predict_f32.c ****     pSupportd = pSupportc + S->vectorDimension;
 317:Middlewares/Third_Party/ARM_CMSIS/CMSIS/DSP/Source/SVMFunctions/arm_svm_linear_predict_f32.c **** 
 318:Middlewares/Third_Party/ARM_CMSIS/CMSIS/DSP/Source/SVMFunctions/arm_svm_linear_predict_f32.c ****     const float32_t *pDualCoefs = S->dualCoefficients;
 319:Middlewares/Third_Party/ARM_CMSIS/CMSIS/DSP/Source/SVMFunctions/arm_svm_linear_predict_f32.c **** 
 320:Middlewares/Third_Party/ARM_CMSIS/CMSIS/DSP/Source/SVMFunctions/arm_svm_linear_predict_f32.c ****     vectorBlkCnt = S->nbOfSupportVectors >> 2;
 321:Middlewares/Third_Party/ARM_CMSIS/CMSIS/DSP/Source/SVMFunctions/arm_svm_linear_predict_f32.c **** 
 322:Middlewares/Third_Party/ARM_CMSIS/CMSIS/DSP/Source/SVMFunctions/arm_svm_linear_predict_f32.c ****     while (vectorBlkCnt > 0U)
 323:Middlewares/Third_Party/ARM_CMSIS/CMSIS/DSP/Source/SVMFunctions/arm_svm_linear_predict_f32.c ****     {
 324:Middlewares/Third_Party/ARM_CMSIS/CMSIS/DSP/Source/SVMFunctions/arm_svm_linear_predict_f32.c ****         accuma = vdupq_n_f32(0);
 325:Middlewares/Third_Party/ARM_CMSIS/CMSIS/DSP/Source/SVMFunctions/arm_svm_linear_predict_f32.c ****         accumb = vdupq_n_f32(0);
 326:Middlewares/Third_Party/ARM_CMSIS/CMSIS/DSP/Source/SVMFunctions/arm_svm_linear_predict_f32.c ****         accumc = vdupq_n_f32(0);
 327:Middlewares/Third_Party/ARM_CMSIS/CMSIS/DSP/Source/SVMFunctions/arm_svm_linear_predict_f32.c ****         accumd = vdupq_n_f32(0);
 328:Middlewares/Third_Party/ARM_CMSIS/CMSIS/DSP/Source/SVMFunctions/arm_svm_linear_predict_f32.c **** 
 329:Middlewares/Third_Party/ARM_CMSIS/CMSIS/DSP/Source/SVMFunctions/arm_svm_linear_predict_f32.c ****         pIn = in;
 330:Middlewares/Third_Party/ARM_CMSIS/CMSIS/DSP/Source/SVMFunctions/arm_svm_linear_predict_f32.c **** 
 331:Middlewares/Third_Party/ARM_CMSIS/CMSIS/DSP/Source/SVMFunctions/arm_svm_linear_predict_f32.c ****         blkCnt = S->vectorDimension >> 2;
 332:Middlewares/Third_Party/ARM_CMSIS/CMSIS/DSP/Source/SVMFunctions/arm_svm_linear_predict_f32.c ****         while (blkCnt > 0U)
 333:Middlewares/Third_Party/ARM_CMSIS/CMSIS/DSP/Source/SVMFunctions/arm_svm_linear_predict_f32.c ****         {
 334:Middlewares/Third_Party/ARM_CMSIS/CMSIS/DSP/Source/SVMFunctions/arm_svm_linear_predict_f32.c ****         
 335:Middlewares/Third_Party/ARM_CMSIS/CMSIS/DSP/Source/SVMFunctions/arm_svm_linear_predict_f32.c ****             vec1 = vld1q_f32(pIn);
 336:Middlewares/Third_Party/ARM_CMSIS/CMSIS/DSP/Source/SVMFunctions/arm_svm_linear_predict_f32.c ****             vec2a = vld1q_f32(pSupporta);
 337:Middlewares/Third_Party/ARM_CMSIS/CMSIS/DSP/Source/SVMFunctions/arm_svm_linear_predict_f32.c ****             vec2b = vld1q_f32(pSupportb);
 338:Middlewares/Third_Party/ARM_CMSIS/CMSIS/DSP/Source/SVMFunctions/arm_svm_linear_predict_f32.c ****             vec2c = vld1q_f32(pSupportc);
 339:Middlewares/Third_Party/ARM_CMSIS/CMSIS/DSP/Source/SVMFunctions/arm_svm_linear_predict_f32.c ****             vec2d = vld1q_f32(pSupportd);
 340:Middlewares/Third_Party/ARM_CMSIS/CMSIS/DSP/Source/SVMFunctions/arm_svm_linear_predict_f32.c **** 
 341:Middlewares/Third_Party/ARM_CMSIS/CMSIS/DSP/Source/SVMFunctions/arm_svm_linear_predict_f32.c ****             pIn += 4;
 342:Middlewares/Third_Party/ARM_CMSIS/CMSIS/DSP/Source/SVMFunctions/arm_svm_linear_predict_f32.c ****             pSupporta += 4;
 343:Middlewares/Third_Party/ARM_CMSIS/CMSIS/DSP/Source/SVMFunctions/arm_svm_linear_predict_f32.c ****             pSupportb += 4;
 344:Middlewares/Third_Party/ARM_CMSIS/CMSIS/DSP/Source/SVMFunctions/arm_svm_linear_predict_f32.c ****             pSupportc += 4;
 345:Middlewares/Third_Party/ARM_CMSIS/CMSIS/DSP/Source/SVMFunctions/arm_svm_linear_predict_f32.c ****             pSupportd += 4;
 346:Middlewares/Third_Party/ARM_CMSIS/CMSIS/DSP/Source/SVMFunctions/arm_svm_linear_predict_f32.c **** 
 347:Middlewares/Third_Party/ARM_CMSIS/CMSIS/DSP/Source/SVMFunctions/arm_svm_linear_predict_f32.c ****             accuma = vmlaq_f32(accuma, vec1,vec2a);
 348:Middlewares/Third_Party/ARM_CMSIS/CMSIS/DSP/Source/SVMFunctions/arm_svm_linear_predict_f32.c ****             accumb = vmlaq_f32(accumb, vec1,vec2b);
 349:Middlewares/Third_Party/ARM_CMSIS/CMSIS/DSP/Source/SVMFunctions/arm_svm_linear_predict_f32.c ****             accumc = vmlaq_f32(accumc, vec1,vec2c);
 350:Middlewares/Third_Party/ARM_CMSIS/CMSIS/DSP/Source/SVMFunctions/arm_svm_linear_predict_f32.c ****             accumd = vmlaq_f32(accumd, vec1,vec2d);
 351:Middlewares/Third_Party/ARM_CMSIS/CMSIS/DSP/Source/SVMFunctions/arm_svm_linear_predict_f32.c **** 
 352:Middlewares/Third_Party/ARM_CMSIS/CMSIS/DSP/Source/SVMFunctions/arm_svm_linear_predict_f32.c ****             blkCnt -- ;
 353:Middlewares/Third_Party/ARM_CMSIS/CMSIS/DSP/Source/SVMFunctions/arm_svm_linear_predict_f32.c ****         }
 354:Middlewares/Third_Party/ARM_CMSIS/CMSIS/DSP/Source/SVMFunctions/arm_svm_linear_predict_f32.c ****         accum2 = vpadd_f32(vget_low_f32(accuma),vget_high_f32(accuma));
 355:Middlewares/Third_Party/ARM_CMSIS/CMSIS/DSP/Source/SVMFunctions/arm_svm_linear_predict_f32.c ****         dotV = vsetq_lane_f32(vget_lane_f32(accum2, 0) + vget_lane_f32(accum2, 1),dotV,0);
 356:Middlewares/Third_Party/ARM_CMSIS/CMSIS/DSP/Source/SVMFunctions/arm_svm_linear_predict_f32.c **** 
 357:Middlewares/Third_Party/ARM_CMSIS/CMSIS/DSP/Source/SVMFunctions/arm_svm_linear_predict_f32.c ****         accum2 = vpadd_f32(vget_low_f32(accumb),vget_high_f32(accumb));
 358:Middlewares/Third_Party/ARM_CMSIS/CMSIS/DSP/Source/SVMFunctions/arm_svm_linear_predict_f32.c ****         dotV = vsetq_lane_f32(vget_lane_f32(accum2, 0) + vget_lane_f32(accum2, 1),dotV,1);
ARM GAS  C:\Users\7636~1\AppData\Local\Temp\cc7HvPcb.s 			page 10


 359:Middlewares/Third_Party/ARM_CMSIS/CMSIS/DSP/Source/SVMFunctions/arm_svm_linear_predict_f32.c **** 
 360:Middlewares/Third_Party/ARM_CMSIS/CMSIS/DSP/Source/SVMFunctions/arm_svm_linear_predict_f32.c ****         accum2 = vpadd_f32(vget_low_f32(accumc),vget_high_f32(accumc));
 361:Middlewares/Third_Party/ARM_CMSIS/CMSIS/DSP/Source/SVMFunctions/arm_svm_linear_predict_f32.c ****         dotV = vsetq_lane_f32(vget_lane_f32(accum2, 0) + vget_lane_f32(accum2, 1),dotV,2);
 362:Middlewares/Third_Party/ARM_CMSIS/CMSIS/DSP/Source/SVMFunctions/arm_svm_linear_predict_f32.c **** 
 363:Middlewares/Third_Party/ARM_CMSIS/CMSIS/DSP/Source/SVMFunctions/arm_svm_linear_predict_f32.c ****         accum2 = vpadd_f32(vget_low_f32(accumd),vget_high_f32(accumd));
 364:Middlewares/Third_Party/ARM_CMSIS/CMSIS/DSP/Source/SVMFunctions/arm_svm_linear_predict_f32.c ****         dotV = vsetq_lane_f32(vget_lane_f32(accum2, 0) + vget_lane_f32(accum2, 1),dotV,3);
 365:Middlewares/Third_Party/ARM_CMSIS/CMSIS/DSP/Source/SVMFunctions/arm_svm_linear_predict_f32.c **** 
 366:Middlewares/Third_Party/ARM_CMSIS/CMSIS/DSP/Source/SVMFunctions/arm_svm_linear_predict_f32.c **** 
 367:Middlewares/Third_Party/ARM_CMSIS/CMSIS/DSP/Source/SVMFunctions/arm_svm_linear_predict_f32.c ****         blkCnt = S->vectorDimension & 3;
 368:Middlewares/Third_Party/ARM_CMSIS/CMSIS/DSP/Source/SVMFunctions/arm_svm_linear_predict_f32.c ****         while (blkCnt > 0U)
 369:Middlewares/Third_Party/ARM_CMSIS/CMSIS/DSP/Source/SVMFunctions/arm_svm_linear_predict_f32.c ****         {
 370:Middlewares/Third_Party/ARM_CMSIS/CMSIS/DSP/Source/SVMFunctions/arm_svm_linear_predict_f32.c ****             dotV = vsetq_lane_f32(vgetq_lane_f32(dotV,0) + *pIn * *pSupporta++, dotV,0);
 371:Middlewares/Third_Party/ARM_CMSIS/CMSIS/DSP/Source/SVMFunctions/arm_svm_linear_predict_f32.c ****             dotV = vsetq_lane_f32(vgetq_lane_f32(dotV,1) + *pIn * *pSupportb++, dotV,1);
 372:Middlewares/Third_Party/ARM_CMSIS/CMSIS/DSP/Source/SVMFunctions/arm_svm_linear_predict_f32.c ****             dotV = vsetq_lane_f32(vgetq_lane_f32(dotV,2) + *pIn * *pSupportc++, dotV,2);
 373:Middlewares/Third_Party/ARM_CMSIS/CMSIS/DSP/Source/SVMFunctions/arm_svm_linear_predict_f32.c ****             dotV = vsetq_lane_f32(vgetq_lane_f32(dotV,3) + *pIn * *pSupportd++, dotV,3);
 374:Middlewares/Third_Party/ARM_CMSIS/CMSIS/DSP/Source/SVMFunctions/arm_svm_linear_predict_f32.c **** 
 375:Middlewares/Third_Party/ARM_CMSIS/CMSIS/DSP/Source/SVMFunctions/arm_svm_linear_predict_f32.c ****             pIn++;
 376:Middlewares/Third_Party/ARM_CMSIS/CMSIS/DSP/Source/SVMFunctions/arm_svm_linear_predict_f32.c **** 
 377:Middlewares/Third_Party/ARM_CMSIS/CMSIS/DSP/Source/SVMFunctions/arm_svm_linear_predict_f32.c ****             blkCnt -- ;
 378:Middlewares/Third_Party/ARM_CMSIS/CMSIS/DSP/Source/SVMFunctions/arm_svm_linear_predict_f32.c ****         }
 379:Middlewares/Third_Party/ARM_CMSIS/CMSIS/DSP/Source/SVMFunctions/arm_svm_linear_predict_f32.c **** 
 380:Middlewares/Third_Party/ARM_CMSIS/CMSIS/DSP/Source/SVMFunctions/arm_svm_linear_predict_f32.c ****         vec1 = vld1q_f32(pDualCoefs);
 381:Middlewares/Third_Party/ARM_CMSIS/CMSIS/DSP/Source/SVMFunctions/arm_svm_linear_predict_f32.c ****         pDualCoefs += 4; 
 382:Middlewares/Third_Party/ARM_CMSIS/CMSIS/DSP/Source/SVMFunctions/arm_svm_linear_predict_f32.c **** 
 383:Middlewares/Third_Party/ARM_CMSIS/CMSIS/DSP/Source/SVMFunctions/arm_svm_linear_predict_f32.c ****         accum = vmulq_f32(vec1,dotV);
 384:Middlewares/Third_Party/ARM_CMSIS/CMSIS/DSP/Source/SVMFunctions/arm_svm_linear_predict_f32.c ****         accum2 = vpadd_f32(vget_low_f32(accum),vget_high_f32(accum));
 385:Middlewares/Third_Party/ARM_CMSIS/CMSIS/DSP/Source/SVMFunctions/arm_svm_linear_predict_f32.c ****         sum += vget_lane_f32(accum2, 0) + vget_lane_f32(accum2, 1);
 386:Middlewares/Third_Party/ARM_CMSIS/CMSIS/DSP/Source/SVMFunctions/arm_svm_linear_predict_f32.c **** 
 387:Middlewares/Third_Party/ARM_CMSIS/CMSIS/DSP/Source/SVMFunctions/arm_svm_linear_predict_f32.c ****         pSupporta += 3*S->vectorDimension;
 388:Middlewares/Third_Party/ARM_CMSIS/CMSIS/DSP/Source/SVMFunctions/arm_svm_linear_predict_f32.c ****         pSupportb += 3*S->vectorDimension;
 389:Middlewares/Third_Party/ARM_CMSIS/CMSIS/DSP/Source/SVMFunctions/arm_svm_linear_predict_f32.c ****         pSupportc += 3*S->vectorDimension;
 390:Middlewares/Third_Party/ARM_CMSIS/CMSIS/DSP/Source/SVMFunctions/arm_svm_linear_predict_f32.c ****         pSupportd += 3*S->vectorDimension;
 391:Middlewares/Third_Party/ARM_CMSIS/CMSIS/DSP/Source/SVMFunctions/arm_svm_linear_predict_f32.c **** 
 392:Middlewares/Third_Party/ARM_CMSIS/CMSIS/DSP/Source/SVMFunctions/arm_svm_linear_predict_f32.c ****         vectorBlkCnt -- ;
 393:Middlewares/Third_Party/ARM_CMSIS/CMSIS/DSP/Source/SVMFunctions/arm_svm_linear_predict_f32.c ****     }
 394:Middlewares/Third_Party/ARM_CMSIS/CMSIS/DSP/Source/SVMFunctions/arm_svm_linear_predict_f32.c **** 
 395:Middlewares/Third_Party/ARM_CMSIS/CMSIS/DSP/Source/SVMFunctions/arm_svm_linear_predict_f32.c ****     pSupport = pSupporta;
 396:Middlewares/Third_Party/ARM_CMSIS/CMSIS/DSP/Source/SVMFunctions/arm_svm_linear_predict_f32.c ****     vectorBlkCnt = S->nbOfSupportVectors & 3;
 397:Middlewares/Third_Party/ARM_CMSIS/CMSIS/DSP/Source/SVMFunctions/arm_svm_linear_predict_f32.c ****     while (vectorBlkCnt > 0U)
 398:Middlewares/Third_Party/ARM_CMSIS/CMSIS/DSP/Source/SVMFunctions/arm_svm_linear_predict_f32.c ****     {
 399:Middlewares/Third_Party/ARM_CMSIS/CMSIS/DSP/Source/SVMFunctions/arm_svm_linear_predict_f32.c ****         accum = vdupq_n_f32(0);
 400:Middlewares/Third_Party/ARM_CMSIS/CMSIS/DSP/Source/SVMFunctions/arm_svm_linear_predict_f32.c ****         dot = 0.0f;
 401:Middlewares/Third_Party/ARM_CMSIS/CMSIS/DSP/Source/SVMFunctions/arm_svm_linear_predict_f32.c ****         pIn = in;
 402:Middlewares/Third_Party/ARM_CMSIS/CMSIS/DSP/Source/SVMFunctions/arm_svm_linear_predict_f32.c **** 
 403:Middlewares/Third_Party/ARM_CMSIS/CMSIS/DSP/Source/SVMFunctions/arm_svm_linear_predict_f32.c ****         blkCnt = S->vectorDimension >> 2;
 404:Middlewares/Third_Party/ARM_CMSIS/CMSIS/DSP/Source/SVMFunctions/arm_svm_linear_predict_f32.c ****         while (blkCnt > 0U)
 405:Middlewares/Third_Party/ARM_CMSIS/CMSIS/DSP/Source/SVMFunctions/arm_svm_linear_predict_f32.c ****         {
 406:Middlewares/Third_Party/ARM_CMSIS/CMSIS/DSP/Source/SVMFunctions/arm_svm_linear_predict_f32.c ****         
 407:Middlewares/Third_Party/ARM_CMSIS/CMSIS/DSP/Source/SVMFunctions/arm_svm_linear_predict_f32.c ****             vec1 = vld1q_f32(pIn);
 408:Middlewares/Third_Party/ARM_CMSIS/CMSIS/DSP/Source/SVMFunctions/arm_svm_linear_predict_f32.c ****             vec2 = vld1q_f32(pSupport);
 409:Middlewares/Third_Party/ARM_CMSIS/CMSIS/DSP/Source/SVMFunctions/arm_svm_linear_predict_f32.c ****             pIn += 4;
 410:Middlewares/Third_Party/ARM_CMSIS/CMSIS/DSP/Source/SVMFunctions/arm_svm_linear_predict_f32.c ****             pSupport += 4;
 411:Middlewares/Third_Party/ARM_CMSIS/CMSIS/DSP/Source/SVMFunctions/arm_svm_linear_predict_f32.c **** 
 412:Middlewares/Third_Party/ARM_CMSIS/CMSIS/DSP/Source/SVMFunctions/arm_svm_linear_predict_f32.c ****             accum = vmlaq_f32(accum, vec1,vec2);
 413:Middlewares/Third_Party/ARM_CMSIS/CMSIS/DSP/Source/SVMFunctions/arm_svm_linear_predict_f32.c **** 
 414:Middlewares/Third_Party/ARM_CMSIS/CMSIS/DSP/Source/SVMFunctions/arm_svm_linear_predict_f32.c ****             blkCnt -- ;
 415:Middlewares/Third_Party/ARM_CMSIS/CMSIS/DSP/Source/SVMFunctions/arm_svm_linear_predict_f32.c ****         }
ARM GAS  C:\Users\7636~1\AppData\Local\Temp\cc7HvPcb.s 			page 11


 416:Middlewares/Third_Party/ARM_CMSIS/CMSIS/DSP/Source/SVMFunctions/arm_svm_linear_predict_f32.c ****         accum2 = vpadd_f32(vget_low_f32(accum),vget_high_f32(accum));
 417:Middlewares/Third_Party/ARM_CMSIS/CMSIS/DSP/Source/SVMFunctions/arm_svm_linear_predict_f32.c ****         dot = vget_lane_f32(accum2, 0) + vget_lane_f32(accum2, 1);
 418:Middlewares/Third_Party/ARM_CMSIS/CMSIS/DSP/Source/SVMFunctions/arm_svm_linear_predict_f32.c **** 
 419:Middlewares/Third_Party/ARM_CMSIS/CMSIS/DSP/Source/SVMFunctions/arm_svm_linear_predict_f32.c **** 
 420:Middlewares/Third_Party/ARM_CMSIS/CMSIS/DSP/Source/SVMFunctions/arm_svm_linear_predict_f32.c ****         blkCnt = S->vectorDimension & 3;
 421:Middlewares/Third_Party/ARM_CMSIS/CMSIS/DSP/Source/SVMFunctions/arm_svm_linear_predict_f32.c ****         while (blkCnt > 0U)
 422:Middlewares/Third_Party/ARM_CMSIS/CMSIS/DSP/Source/SVMFunctions/arm_svm_linear_predict_f32.c ****         {
 423:Middlewares/Third_Party/ARM_CMSIS/CMSIS/DSP/Source/SVMFunctions/arm_svm_linear_predict_f32.c ****             dot = dot + *pIn++ * *pSupport++;
 424:Middlewares/Third_Party/ARM_CMSIS/CMSIS/DSP/Source/SVMFunctions/arm_svm_linear_predict_f32.c **** 
 425:Middlewares/Third_Party/ARM_CMSIS/CMSIS/DSP/Source/SVMFunctions/arm_svm_linear_predict_f32.c ****             blkCnt -- ;
 426:Middlewares/Third_Party/ARM_CMSIS/CMSIS/DSP/Source/SVMFunctions/arm_svm_linear_predict_f32.c ****         }
 427:Middlewares/Third_Party/ARM_CMSIS/CMSIS/DSP/Source/SVMFunctions/arm_svm_linear_predict_f32.c **** 
 428:Middlewares/Third_Party/ARM_CMSIS/CMSIS/DSP/Source/SVMFunctions/arm_svm_linear_predict_f32.c ****         sum += *pDualCoefs++ * dot;
 429:Middlewares/Third_Party/ARM_CMSIS/CMSIS/DSP/Source/SVMFunctions/arm_svm_linear_predict_f32.c ****         vectorBlkCnt -- ;
 430:Middlewares/Third_Party/ARM_CMSIS/CMSIS/DSP/Source/SVMFunctions/arm_svm_linear_predict_f32.c ****     }
 431:Middlewares/Third_Party/ARM_CMSIS/CMSIS/DSP/Source/SVMFunctions/arm_svm_linear_predict_f32.c **** 
 432:Middlewares/Third_Party/ARM_CMSIS/CMSIS/DSP/Source/SVMFunctions/arm_svm_linear_predict_f32.c ****     *pResult=S->classes[STEP(sum)];
 433:Middlewares/Third_Party/ARM_CMSIS/CMSIS/DSP/Source/SVMFunctions/arm_svm_linear_predict_f32.c **** }
 434:Middlewares/Third_Party/ARM_CMSIS/CMSIS/DSP/Source/SVMFunctions/arm_svm_linear_predict_f32.c **** #else
 435:Middlewares/Third_Party/ARM_CMSIS/CMSIS/DSP/Source/SVMFunctions/arm_svm_linear_predict_f32.c **** void arm_svm_linear_predict_f32(
 436:Middlewares/Third_Party/ARM_CMSIS/CMSIS/DSP/Source/SVMFunctions/arm_svm_linear_predict_f32.c ****     const arm_svm_linear_instance_f32 *S,
 437:Middlewares/Third_Party/ARM_CMSIS/CMSIS/DSP/Source/SVMFunctions/arm_svm_linear_predict_f32.c ****     const float32_t * in,
 438:Middlewares/Third_Party/ARM_CMSIS/CMSIS/DSP/Source/SVMFunctions/arm_svm_linear_predict_f32.c ****     int32_t * pResult)
 439:Middlewares/Third_Party/ARM_CMSIS/CMSIS/DSP/Source/SVMFunctions/arm_svm_linear_predict_f32.c **** {
  73              		.loc 2 439 1 is_stmt 1 view -0
  74              		.cfi_startproc
  75              		@ args = 0, pretend = 0, frame = 0
  76              		@ frame_needed = 0, uses_anonymous_args = 0
  77              		.loc 2 439 1 is_stmt 0 view .LVU16
  78 0000 30B5     		push	{r4, r5, lr}
  79              	.LCFI0:
  80              		.cfi_def_cfa_offset 12
  81              		.cfi_offset 4, -12
  82              		.cfi_offset 5, -8
  83              		.cfi_offset 14, -4
  84 0002 1446     		mov	r4, r2
 440:Middlewares/Third_Party/ARM_CMSIS/CMSIS/DSP/Source/SVMFunctions/arm_svm_linear_predict_f32.c ****     float32_t sum=S->intercept;
  85              		.loc 2 440 5 is_stmt 1 view .LVU17
  86              		.loc 2 440 15 is_stmt 0 view .LVU18
  87 0004 90ED026A 		vldr.32	s12, [r0, #8]
  88              	.LVL3:
 441:Middlewares/Third_Party/ARM_CMSIS/CMSIS/DSP/Source/SVMFunctions/arm_svm_linear_predict_f32.c ****     float32_t dot=0;
  89              		.loc 2 441 5 is_stmt 1 view .LVU19
 442:Middlewares/Third_Party/ARM_CMSIS/CMSIS/DSP/Source/SVMFunctions/arm_svm_linear_predict_f32.c ****     uint32_t i,j;
  90              		.loc 2 442 5 view .LVU20
 443:Middlewares/Third_Party/ARM_CMSIS/CMSIS/DSP/Source/SVMFunctions/arm_svm_linear_predict_f32.c ****     const float32_t *pSupport = S->supportVectors;
  91              		.loc 2 443 5 view .LVU21
  92              		.loc 2 443 22 is_stmt 0 view .LVU22
  93 0008 0369     		ldr	r3, [r0, #16]
  94              	.LVL4:
 444:Middlewares/Third_Party/ARM_CMSIS/CMSIS/DSP/Source/SVMFunctions/arm_svm_linear_predict_f32.c **** 
 445:Middlewares/Third_Party/ARM_CMSIS/CMSIS/DSP/Source/SVMFunctions/arm_svm_linear_predict_f32.c ****     for(i=0; i < S->nbOfSupportVectors; i++)
  95              		.loc 2 445 5 is_stmt 1 view .LVU23
  96              		.loc 2 445 10 is_stmt 0 view .LVU24
  97 000a 0022     		movs	r2, #0
  98              	.LVL5:
  99              		.loc 2 445 5 view .LVU25
ARM GAS  C:\Users\7636~1\AppData\Local\Temp\cc7HvPcb.s 			page 12


 100 000c 18E0     		b	.L3
 101              	.LVL6:
 102              	.L4:
 446:Middlewares/Third_Party/ARM_CMSIS/CMSIS/DSP/Source/SVMFunctions/arm_svm_linear_predict_f32.c ****     {
 447:Middlewares/Third_Party/ARM_CMSIS/CMSIS/DSP/Source/SVMFunctions/arm_svm_linear_predict_f32.c ****         dot=0;
 448:Middlewares/Third_Party/ARM_CMSIS/CMSIS/DSP/Source/SVMFunctions/arm_svm_linear_predict_f32.c ****         for(j=0; j < S->vectorDimension; j++)
 449:Middlewares/Third_Party/ARM_CMSIS/CMSIS/DSP/Source/SVMFunctions/arm_svm_linear_predict_f32.c ****         {
 450:Middlewares/Third_Party/ARM_CMSIS/CMSIS/DSP/Source/SVMFunctions/arm_svm_linear_predict_f32.c ****             dot = dot + in[j]* *pSupport++;
 103              		.loc 2 450 13 is_stmt 1 discriminator 3 view .LVU26
 104              		.loc 2 450 27 is_stmt 0 discriminator 3 view .LVU27
 105 000e 01EB8C0E 		add	lr, r1, ip, lsl #2
 106 0012 DEED007A 		vldr.32	s15, [lr]
 107              	.LVL7:
 108              		.loc 2 450 32 discriminator 3 view .LVU28
 109 0016 F3EC016A 		vldmia.32	r3!, {s13}
 110              	.LVL8:
 111              		.loc 2 450 30 discriminator 3 view .LVU29
 112 001a 67EEA67A 		vmul.f32	s15, s15, s13
 113              		.loc 2 450 17 discriminator 3 view .LVU30
 114 001e 37EE277A 		vadd.f32	s14, s14, s15
 115              	.LVL9:
 448:Middlewares/Third_Party/ARM_CMSIS/CMSIS/DSP/Source/SVMFunctions/arm_svm_linear_predict_f32.c ****         {
 116              		.loc 2 448 42 is_stmt 1 discriminator 3 view .LVU31
 448:Middlewares/Third_Party/ARM_CMSIS/CMSIS/DSP/Source/SVMFunctions/arm_svm_linear_predict_f32.c ****         {
 117              		.loc 2 448 43 is_stmt 0 discriminator 3 view .LVU32
 118 0022 0CF1010C 		add	ip, ip, #1
 119              	.LVL10:
 120              	.L5:
 448:Middlewares/Third_Party/ARM_CMSIS/CMSIS/DSP/Source/SVMFunctions/arm_svm_linear_predict_f32.c ****         {
 121              		.loc 2 448 18 is_stmt 1 discriminator 1 view .LVU33
 448:Middlewares/Third_Party/ARM_CMSIS/CMSIS/DSP/Source/SVMFunctions/arm_svm_linear_predict_f32.c ****         {
 122              		.loc 2 448 9 is_stmt 0 discriminator 1 view .LVU34
 123 0026 4568     		ldr	r5, [r0, #4]
 124 0028 6545     		cmp	r5, ip
 125 002a F0D8     		bhi	.L4
 451:Middlewares/Third_Party/ARM_CMSIS/CMSIS/DSP/Source/SVMFunctions/arm_svm_linear_predict_f32.c ****         }
 452:Middlewares/Third_Party/ARM_CMSIS/CMSIS/DSP/Source/SVMFunctions/arm_svm_linear_predict_f32.c ****         sum += S->dualCoefficients[i] * dot;
 126              		.loc 2 452 9 is_stmt 1 discriminator 2 view .LVU35
 127              		.loc 2 452 35 is_stmt 0 discriminator 2 view .LVU36
 128 002c C568     		ldr	r5, [r0, #12]
 129 002e 05EB820C 		add	ip, r5, r2, lsl #2
 130              	.LVL11:
 131              		.loc 2 452 35 discriminator 2 view .LVU37
 132 0032 DCED007A 		vldr.32	s15, [ip]
 133              		.loc 2 452 39 discriminator 2 view .LVU38
 134 0036 27EE877A 		vmul.f32	s14, s15, s14
 135              	.LVL12:
 136              		.loc 2 452 13 discriminator 2 view .LVU39
 137 003a 36EE076A 		vadd.f32	s12, s12, s14
 138              	.LVL13:
 445:Middlewares/Third_Party/ARM_CMSIS/CMSIS/DSP/Source/SVMFunctions/arm_svm_linear_predict_f32.c ****     {
 139              		.loc 2 445 41 is_stmt 1 discriminator 2 view .LVU40
 445:Middlewares/Third_Party/ARM_CMSIS/CMSIS/DSP/Source/SVMFunctions/arm_svm_linear_predict_f32.c ****     {
 140              		.loc 2 445 42 is_stmt 0 discriminator 2 view .LVU41
 141 003e 0132     		adds	r2, r2, #1
 142              	.LVL14:
 143              	.L3:
ARM GAS  C:\Users\7636~1\AppData\Local\Temp\cc7HvPcb.s 			page 13


 445:Middlewares/Third_Party/ARM_CMSIS/CMSIS/DSP/Source/SVMFunctions/arm_svm_linear_predict_f32.c ****     {
 144              		.loc 2 445 14 is_stmt 1 discriminator 1 view .LVU42
 445:Middlewares/Third_Party/ARM_CMSIS/CMSIS/DSP/Source/SVMFunctions/arm_svm_linear_predict_f32.c ****     {
 145              		.loc 2 445 5 is_stmt 0 discriminator 1 view .LVU43
 146 0040 0568     		ldr	r5, [r0]
 147 0042 9542     		cmp	r5, r2
 148 0044 04D9     		bls	.L8
 448:Middlewares/Third_Party/ARM_CMSIS/CMSIS/DSP/Source/SVMFunctions/arm_svm_linear_predict_f32.c ****         {
 149              		.loc 2 448 14 view .LVU44
 150 0046 4FF0000C 		mov	ip, #0
 447:Middlewares/Third_Party/ARM_CMSIS/CMSIS/DSP/Source/SVMFunctions/arm_svm_linear_predict_f32.c ****         for(j=0; j < S->vectorDimension; j++)
 151              		.loc 2 447 12 view .LVU45
 152 004a 9FED077A 		vldr.32	s14, .L9
 153 004e EAE7     		b	.L5
 154              	.L8:
 453:Middlewares/Third_Party/ARM_CMSIS/CMSIS/DSP/Source/SVMFunctions/arm_svm_linear_predict_f32.c ****     }
 454:Middlewares/Third_Party/ARM_CMSIS/CMSIS/DSP/Source/SVMFunctions/arm_svm_linear_predict_f32.c ****     *pResult=S->classes[STEP(sum)];
 155              		.loc 2 454 5 is_stmt 1 view .LVU46
 156              		.loc 2 454 15 is_stmt 0 view .LVU47
 157 0050 4369     		ldr	r3, [r0, #20]
 158              	.LVL15:
 159              		.loc 2 454 25 view .LVU48
 160 0052 B5EEC06A 		vcmpe.f32	s12, #0
 161 0056 F1EE10FA 		vmrs	APSR_nzcv, FPSCR
 162 005a 8CBF     		ite	hi
 163 005c 0122     		movhi	r2, #1
 164              	.LVL16:
 165              		.loc 2 454 25 view .LVU49
 166 005e 0022     		movls	r2, #0
 167              		.loc 2 454 24 view .LVU50
 168 0060 53F82230 		ldr	r3, [r3, r2, lsl #2]
 169              		.loc 2 454 13 view .LVU51
 170 0064 2360     		str	r3, [r4]
 455:Middlewares/Third_Party/ARM_CMSIS/CMSIS/DSP/Source/SVMFunctions/arm_svm_linear_predict_f32.c **** }
 171              		.loc 2 455 1 view .LVU52
 172 0066 30BD     		pop	{r4, r5, pc}
 173              	.LVL17:
 174              	.L10:
 175              		.loc 2 455 1 view .LVU53
 176              		.align	2
 177              	.L9:
 178 0068 00000000 		.word	0
 179              		.cfi_endproc
 180              	.LFE121:
 182              		.section	.text.arm_svm_polynomial_init_f32,"ax",%progbits
 183              		.align	1
 184              		.global	arm_svm_polynomial_init_f32
 185              		.syntax unified
 186              		.thumb
 187              		.thumb_func
 189              	arm_svm_polynomial_init_f32:
 190              	.LVL18:
 191              	.LFB122:
 192              		.file 3 "Middlewares/Third_Party/ARM_CMSIS/CMSIS/DSP/Source/SVMFunctions/arm_svm_polynomial_init_f
   1:Middlewares/Third_Party/ARM_CMSIS/CMSIS/DSP/Source/SVMFunctions/arm_svm_polynomial_init_f32.c **** /* ----------------------------------------------------------------------
   2:Middlewares/Third_Party/ARM_CMSIS/CMSIS/DSP/Source/SVMFunctions/arm_svm_polynomial_init_f32.c ****  * Project:      CMSIS DSP Library
   3:Middlewares/Third_Party/ARM_CMSIS/CMSIS/DSP/Source/SVMFunctions/arm_svm_polynomial_init_f32.c ****  * Title:        arm_svm_polynomial_init_f32.c
ARM GAS  C:\Users\7636~1\AppData\Local\Temp\cc7HvPcb.s 			page 14


   4:Middlewares/Third_Party/ARM_CMSIS/CMSIS/DSP/Source/SVMFunctions/arm_svm_polynomial_init_f32.c ****  * Description:  SVM Polynomial Instance Initialization
   5:Middlewares/Third_Party/ARM_CMSIS/CMSIS/DSP/Source/SVMFunctions/arm_svm_polynomial_init_f32.c ****  *
   6:Middlewares/Third_Party/ARM_CMSIS/CMSIS/DSP/Source/SVMFunctions/arm_svm_polynomial_init_f32.c ****  * $Date:        23 April 2021
   7:Middlewares/Third_Party/ARM_CMSIS/CMSIS/DSP/Source/SVMFunctions/arm_svm_polynomial_init_f32.c ****  * $Revision:    V1.9.0
   8:Middlewares/Third_Party/ARM_CMSIS/CMSIS/DSP/Source/SVMFunctions/arm_svm_polynomial_init_f32.c ****  *
   9:Middlewares/Third_Party/ARM_CMSIS/CMSIS/DSP/Source/SVMFunctions/arm_svm_polynomial_init_f32.c ****  * Target Processor: Cortex-M and Cortex-A cores
  10:Middlewares/Third_Party/ARM_CMSIS/CMSIS/DSP/Source/SVMFunctions/arm_svm_polynomial_init_f32.c ****  * -------------------------------------------------------------------- */
  11:Middlewares/Third_Party/ARM_CMSIS/CMSIS/DSP/Source/SVMFunctions/arm_svm_polynomial_init_f32.c **** /*
  12:Middlewares/Third_Party/ARM_CMSIS/CMSIS/DSP/Source/SVMFunctions/arm_svm_polynomial_init_f32.c ****  * Copyright (C) 2010-2021 ARM Limited or its affiliates. All rights reserved.
  13:Middlewares/Third_Party/ARM_CMSIS/CMSIS/DSP/Source/SVMFunctions/arm_svm_polynomial_init_f32.c ****  *
  14:Middlewares/Third_Party/ARM_CMSIS/CMSIS/DSP/Source/SVMFunctions/arm_svm_polynomial_init_f32.c ****  * SPDX-License-Identifier: Apache-2.0
  15:Middlewares/Third_Party/ARM_CMSIS/CMSIS/DSP/Source/SVMFunctions/arm_svm_polynomial_init_f32.c ****  *
  16:Middlewares/Third_Party/ARM_CMSIS/CMSIS/DSP/Source/SVMFunctions/arm_svm_polynomial_init_f32.c ****  * Licensed under the Apache License, Version 2.0 (the License); you may
  17:Middlewares/Third_Party/ARM_CMSIS/CMSIS/DSP/Source/SVMFunctions/arm_svm_polynomial_init_f32.c ****  * not use this file except in compliance with the License.
  18:Middlewares/Third_Party/ARM_CMSIS/CMSIS/DSP/Source/SVMFunctions/arm_svm_polynomial_init_f32.c ****  * You may obtain a copy of the License at
  19:Middlewares/Third_Party/ARM_CMSIS/CMSIS/DSP/Source/SVMFunctions/arm_svm_polynomial_init_f32.c ****  *
  20:Middlewares/Third_Party/ARM_CMSIS/CMSIS/DSP/Source/SVMFunctions/arm_svm_polynomial_init_f32.c ****  * www.apache.org/licenses/LICENSE-2.0
  21:Middlewares/Third_Party/ARM_CMSIS/CMSIS/DSP/Source/SVMFunctions/arm_svm_polynomial_init_f32.c ****  *
  22:Middlewares/Third_Party/ARM_CMSIS/CMSIS/DSP/Source/SVMFunctions/arm_svm_polynomial_init_f32.c ****  * Unless required by applicable law or agreed to in writing, software
  23:Middlewares/Third_Party/ARM_CMSIS/CMSIS/DSP/Source/SVMFunctions/arm_svm_polynomial_init_f32.c ****  * distributed under the License is distributed on an AS IS BASIS, WITHOUT
  24:Middlewares/Third_Party/ARM_CMSIS/CMSIS/DSP/Source/SVMFunctions/arm_svm_polynomial_init_f32.c ****  * WARRANTIES OR CONDITIONS OF ANY KIND, either express or implied.
  25:Middlewares/Third_Party/ARM_CMSIS/CMSIS/DSP/Source/SVMFunctions/arm_svm_polynomial_init_f32.c ****  * See the License for the specific language governing permissions and
  26:Middlewares/Third_Party/ARM_CMSIS/CMSIS/DSP/Source/SVMFunctions/arm_svm_polynomial_init_f32.c ****  * limitations under the License.
  27:Middlewares/Third_Party/ARM_CMSIS/CMSIS/DSP/Source/SVMFunctions/arm_svm_polynomial_init_f32.c ****  */
  28:Middlewares/Third_Party/ARM_CMSIS/CMSIS/DSP/Source/SVMFunctions/arm_svm_polynomial_init_f32.c **** 
  29:Middlewares/Third_Party/ARM_CMSIS/CMSIS/DSP/Source/SVMFunctions/arm_svm_polynomial_init_f32.c **** #include "dsp/svm_functions.h"
  30:Middlewares/Third_Party/ARM_CMSIS/CMSIS/DSP/Source/SVMFunctions/arm_svm_polynomial_init_f32.c **** #include <limits.h>
  31:Middlewares/Third_Party/ARM_CMSIS/CMSIS/DSP/Source/SVMFunctions/arm_svm_polynomial_init_f32.c **** #include <math.h>
  32:Middlewares/Third_Party/ARM_CMSIS/CMSIS/DSP/Source/SVMFunctions/arm_svm_polynomial_init_f32.c **** 
  33:Middlewares/Third_Party/ARM_CMSIS/CMSIS/DSP/Source/SVMFunctions/arm_svm_polynomial_init_f32.c **** /**
  34:Middlewares/Third_Party/ARM_CMSIS/CMSIS/DSP/Source/SVMFunctions/arm_svm_polynomial_init_f32.c ****   @ingroup groupSVM
  35:Middlewares/Third_Party/ARM_CMSIS/CMSIS/DSP/Source/SVMFunctions/arm_svm_polynomial_init_f32.c ****  */
  36:Middlewares/Third_Party/ARM_CMSIS/CMSIS/DSP/Source/SVMFunctions/arm_svm_polynomial_init_f32.c **** 
  37:Middlewares/Third_Party/ARM_CMSIS/CMSIS/DSP/Source/SVMFunctions/arm_svm_polynomial_init_f32.c **** /**
  38:Middlewares/Third_Party/ARM_CMSIS/CMSIS/DSP/Source/SVMFunctions/arm_svm_polynomial_init_f32.c ****   @defgroup polysvm Polynomial SVM
  39:Middlewares/Third_Party/ARM_CMSIS/CMSIS/DSP/Source/SVMFunctions/arm_svm_polynomial_init_f32.c **** 
  40:Middlewares/Third_Party/ARM_CMSIS/CMSIS/DSP/Source/SVMFunctions/arm_svm_polynomial_init_f32.c ****   Polynomial SVM classifier
  41:Middlewares/Third_Party/ARM_CMSIS/CMSIS/DSP/Source/SVMFunctions/arm_svm_polynomial_init_f32.c ****  */
  42:Middlewares/Third_Party/ARM_CMSIS/CMSIS/DSP/Source/SVMFunctions/arm_svm_polynomial_init_f32.c **** 
  43:Middlewares/Third_Party/ARM_CMSIS/CMSIS/DSP/Source/SVMFunctions/arm_svm_polynomial_init_f32.c **** /**
  44:Middlewares/Third_Party/ARM_CMSIS/CMSIS/DSP/Source/SVMFunctions/arm_svm_polynomial_init_f32.c ****  * @addtogroup polysvm
  45:Middlewares/Third_Party/ARM_CMSIS/CMSIS/DSP/Source/SVMFunctions/arm_svm_polynomial_init_f32.c ****  * @{
  46:Middlewares/Third_Party/ARM_CMSIS/CMSIS/DSP/Source/SVMFunctions/arm_svm_polynomial_init_f32.c ****  */
  47:Middlewares/Third_Party/ARM_CMSIS/CMSIS/DSP/Source/SVMFunctions/arm_svm_polynomial_init_f32.c **** 
  48:Middlewares/Third_Party/ARM_CMSIS/CMSIS/DSP/Source/SVMFunctions/arm_svm_polynomial_init_f32.c **** 
  49:Middlewares/Third_Party/ARM_CMSIS/CMSIS/DSP/Source/SVMFunctions/arm_svm_polynomial_init_f32.c **** /**
  50:Middlewares/Third_Party/ARM_CMSIS/CMSIS/DSP/Source/SVMFunctions/arm_svm_polynomial_init_f32.c ****  * @brief        SVM polynomial instance init function
  51:Middlewares/Third_Party/ARM_CMSIS/CMSIS/DSP/Source/SVMFunctions/arm_svm_polynomial_init_f32.c ****  *
  52:Middlewares/Third_Party/ARM_CMSIS/CMSIS/DSP/Source/SVMFunctions/arm_svm_polynomial_init_f32.c ****  * Classes are integer used as output of the function (instead of having -1,1
  53:Middlewares/Third_Party/ARM_CMSIS/CMSIS/DSP/Source/SVMFunctions/arm_svm_polynomial_init_f32.c ****  * as class values).
  54:Middlewares/Third_Party/ARM_CMSIS/CMSIS/DSP/Source/SVMFunctions/arm_svm_polynomial_init_f32.c ****  *
  55:Middlewares/Third_Party/ARM_CMSIS/CMSIS/DSP/Source/SVMFunctions/arm_svm_polynomial_init_f32.c ****  * @param[in]    S                      points to an instance of the polynomial SVM structure.
  56:Middlewares/Third_Party/ARM_CMSIS/CMSIS/DSP/Source/SVMFunctions/arm_svm_polynomial_init_f32.c ****  * @param[in]    nbOfSupportVectors     Number of support vectors
  57:Middlewares/Third_Party/ARM_CMSIS/CMSIS/DSP/Source/SVMFunctions/arm_svm_polynomial_init_f32.c ****  * @param[in]    vectorDimension        Dimension of vector space
  58:Middlewares/Third_Party/ARM_CMSIS/CMSIS/DSP/Source/SVMFunctions/arm_svm_polynomial_init_f32.c ****  * @param[in]    intercept              Intercept
  59:Middlewares/Third_Party/ARM_CMSIS/CMSIS/DSP/Source/SVMFunctions/arm_svm_polynomial_init_f32.c ****  * @param[in]    dualCoefficients       Array of dual coefficients
  60:Middlewares/Third_Party/ARM_CMSIS/CMSIS/DSP/Source/SVMFunctions/arm_svm_polynomial_init_f32.c ****  * @param[in]    supportVectors         Array of support vectors
ARM GAS  C:\Users\7636~1\AppData\Local\Temp\cc7HvPcb.s 			page 15


  61:Middlewares/Third_Party/ARM_CMSIS/CMSIS/DSP/Source/SVMFunctions/arm_svm_polynomial_init_f32.c ****  * @param[in]    classes                Array of 2 classes ID
  62:Middlewares/Third_Party/ARM_CMSIS/CMSIS/DSP/Source/SVMFunctions/arm_svm_polynomial_init_f32.c ****  * @param[in]    degree                 Polynomial degree
  63:Middlewares/Third_Party/ARM_CMSIS/CMSIS/DSP/Source/SVMFunctions/arm_svm_polynomial_init_f32.c ****  * @param[in]    coef0                  coeff0 (scikit-learn terminology)
  64:Middlewares/Third_Party/ARM_CMSIS/CMSIS/DSP/Source/SVMFunctions/arm_svm_polynomial_init_f32.c ****  * @param[in]    gamma                  gamma (scikit-learn terminology)
  65:Middlewares/Third_Party/ARM_CMSIS/CMSIS/DSP/Source/SVMFunctions/arm_svm_polynomial_init_f32.c ****  * @return none.
  66:Middlewares/Third_Party/ARM_CMSIS/CMSIS/DSP/Source/SVMFunctions/arm_svm_polynomial_init_f32.c ****  *
  67:Middlewares/Third_Party/ARM_CMSIS/CMSIS/DSP/Source/SVMFunctions/arm_svm_polynomial_init_f32.c ****  */
  68:Middlewares/Third_Party/ARM_CMSIS/CMSIS/DSP/Source/SVMFunctions/arm_svm_polynomial_init_f32.c **** 
  69:Middlewares/Third_Party/ARM_CMSIS/CMSIS/DSP/Source/SVMFunctions/arm_svm_polynomial_init_f32.c **** 
  70:Middlewares/Third_Party/ARM_CMSIS/CMSIS/DSP/Source/SVMFunctions/arm_svm_polynomial_init_f32.c **** void arm_svm_polynomial_init_f32(arm_svm_polynomial_instance_f32 *S, 
  71:Middlewares/Third_Party/ARM_CMSIS/CMSIS/DSP/Source/SVMFunctions/arm_svm_polynomial_init_f32.c ****   uint32_t nbOfSupportVectors,
  72:Middlewares/Third_Party/ARM_CMSIS/CMSIS/DSP/Source/SVMFunctions/arm_svm_polynomial_init_f32.c ****   uint32_t vectorDimension,
  73:Middlewares/Third_Party/ARM_CMSIS/CMSIS/DSP/Source/SVMFunctions/arm_svm_polynomial_init_f32.c ****   float32_t intercept,
  74:Middlewares/Third_Party/ARM_CMSIS/CMSIS/DSP/Source/SVMFunctions/arm_svm_polynomial_init_f32.c ****   const float32_t *dualCoefficients,
  75:Middlewares/Third_Party/ARM_CMSIS/CMSIS/DSP/Source/SVMFunctions/arm_svm_polynomial_init_f32.c ****   const float32_t *supportVectors,
  76:Middlewares/Third_Party/ARM_CMSIS/CMSIS/DSP/Source/SVMFunctions/arm_svm_polynomial_init_f32.c ****   const int32_t *classes,
  77:Middlewares/Third_Party/ARM_CMSIS/CMSIS/DSP/Source/SVMFunctions/arm_svm_polynomial_init_f32.c ****   int32_t      degree,
  78:Middlewares/Third_Party/ARM_CMSIS/CMSIS/DSP/Source/SVMFunctions/arm_svm_polynomial_init_f32.c ****   float32_t coef0,
  79:Middlewares/Third_Party/ARM_CMSIS/CMSIS/DSP/Source/SVMFunctions/arm_svm_polynomial_init_f32.c ****   float32_t gamma
  80:Middlewares/Third_Party/ARM_CMSIS/CMSIS/DSP/Source/SVMFunctions/arm_svm_polynomial_init_f32.c ****   )
  81:Middlewares/Third_Party/ARM_CMSIS/CMSIS/DSP/Source/SVMFunctions/arm_svm_polynomial_init_f32.c **** {
 193              		.loc 3 81 1 is_stmt 1 view -0
 194              		.cfi_startproc
 195              		@ args = 12, pretend = 0, frame = 0
 196              		@ frame_needed = 0, uses_anonymous_args = 0
 197              		@ link register save eliminated.
  82:Middlewares/Third_Party/ARM_CMSIS/CMSIS/DSP/Source/SVMFunctions/arm_svm_polynomial_init_f32.c ****    S->nbOfSupportVectors = nbOfSupportVectors;
 198              		.loc 3 82 4 view .LVU55
 199              		.loc 3 82 26 is_stmt 0 view .LVU56
 200 0000 0160     		str	r1, [r0]
  83:Middlewares/Third_Party/ARM_CMSIS/CMSIS/DSP/Source/SVMFunctions/arm_svm_polynomial_init_f32.c ****    S->vectorDimension = vectorDimension;
 201              		.loc 3 83 4 is_stmt 1 view .LVU57
 202              		.loc 3 83 23 is_stmt 0 view .LVU58
 203 0002 4260     		str	r2, [r0, #4]
  84:Middlewares/Third_Party/ARM_CMSIS/CMSIS/DSP/Source/SVMFunctions/arm_svm_polynomial_init_f32.c ****    S->intercept = intercept;
 204              		.loc 3 84 4 is_stmt 1 view .LVU59
 205              		.loc 3 84 17 is_stmt 0 view .LVU60
 206 0004 80ED020A 		vstr.32	s0, [r0, #8]
  85:Middlewares/Third_Party/ARM_CMSIS/CMSIS/DSP/Source/SVMFunctions/arm_svm_polynomial_init_f32.c ****    S->dualCoefficients = dualCoefficients;
 207              		.loc 3 85 4 is_stmt 1 view .LVU61
 208              		.loc 3 85 24 is_stmt 0 view .LVU62
 209 0008 C360     		str	r3, [r0, #12]
  86:Middlewares/Third_Party/ARM_CMSIS/CMSIS/DSP/Source/SVMFunctions/arm_svm_polynomial_init_f32.c ****    S->supportVectors = supportVectors;
 210              		.loc 3 86 4 is_stmt 1 view .LVU63
 211              		.loc 3 86 22 is_stmt 0 view .LVU64
 212 000a 009B     		ldr	r3, [sp]
 213              	.LVL19:
 214              		.loc 3 86 22 view .LVU65
 215 000c 0361     		str	r3, [r0, #16]
  87:Middlewares/Third_Party/ARM_CMSIS/CMSIS/DSP/Source/SVMFunctions/arm_svm_polynomial_init_f32.c ****    S->classes = classes;
 216              		.loc 3 87 4 is_stmt 1 view .LVU66
 217              		.loc 3 87 15 is_stmt 0 view .LVU67
 218 000e 019B     		ldr	r3, [sp, #4]
 219 0010 4361     		str	r3, [r0, #20]
  88:Middlewares/Third_Party/ARM_CMSIS/CMSIS/DSP/Source/SVMFunctions/arm_svm_polynomial_init_f32.c ****    S->degree = degree;
 220              		.loc 3 88 4 is_stmt 1 view .LVU68
 221              		.loc 3 88 14 is_stmt 0 view .LVU69
ARM GAS  C:\Users\7636~1\AppData\Local\Temp\cc7HvPcb.s 			page 16


 222 0012 029B     		ldr	r3, [sp, #8]
 223 0014 8361     		str	r3, [r0, #24]
  89:Middlewares/Third_Party/ARM_CMSIS/CMSIS/DSP/Source/SVMFunctions/arm_svm_polynomial_init_f32.c ****    S->coef0 = coef0;
 224              		.loc 3 89 4 is_stmt 1 view .LVU70
 225              		.loc 3 89 13 is_stmt 0 view .LVU71
 226 0016 C0ED070A 		vstr.32	s1, [r0, #28]
  90:Middlewares/Third_Party/ARM_CMSIS/CMSIS/DSP/Source/SVMFunctions/arm_svm_polynomial_init_f32.c ****    S->gamma = gamma;
 227              		.loc 3 90 4 is_stmt 1 view .LVU72
 228              		.loc 3 90 13 is_stmt 0 view .LVU73
 229 001a 80ED081A 		vstr.32	s2, [r0, #32]
  91:Middlewares/Third_Party/ARM_CMSIS/CMSIS/DSP/Source/SVMFunctions/arm_svm_polynomial_init_f32.c **** }
 230              		.loc 3 91 1 view .LVU74
 231 001e 7047     		bx	lr
 232              		.cfi_endproc
 233              	.LFE122:
 235              		.section	.text.arm_svm_polynomial_predict_f32,"ax",%progbits
 236              		.align	1
 237              		.global	arm_svm_polynomial_predict_f32
 238              		.syntax unified
 239              		.thumb
 240              		.thumb_func
 242              	arm_svm_polynomial_predict_f32:
 243              	.LVL20:
 244              	.LFB123:
 245              		.file 4 "Middlewares/Third_Party/ARM_CMSIS/CMSIS/DSP/Source/SVMFunctions/arm_svm_polynomial_predic
   1:Middlewares/Third_Party/ARM_CMSIS/CMSIS/DSP/Source/SVMFunctions/arm_svm_polynomial_predict_f32.c **** /* ----------------------------------------------------------------------
   2:Middlewares/Third_Party/ARM_CMSIS/CMSIS/DSP/Source/SVMFunctions/arm_svm_polynomial_predict_f32.c ****  * Project:      CMSIS DSP Library
   3:Middlewares/Third_Party/ARM_CMSIS/CMSIS/DSP/Source/SVMFunctions/arm_svm_polynomial_predict_f32.c ****  * Title:        arm_svm_polynomial_predict_f32.c
   4:Middlewares/Third_Party/ARM_CMSIS/CMSIS/DSP/Source/SVMFunctions/arm_svm_polynomial_predict_f32.c ****  * Description:  SVM Polynomial Classifier
   5:Middlewares/Third_Party/ARM_CMSIS/CMSIS/DSP/Source/SVMFunctions/arm_svm_polynomial_predict_f32.c ****  *
   6:Middlewares/Third_Party/ARM_CMSIS/CMSIS/DSP/Source/SVMFunctions/arm_svm_polynomial_predict_f32.c ****  * $Date:        23 April 2021
   7:Middlewares/Third_Party/ARM_CMSIS/CMSIS/DSP/Source/SVMFunctions/arm_svm_polynomial_predict_f32.c ****  * $Revision:    V1.9.0
   8:Middlewares/Third_Party/ARM_CMSIS/CMSIS/DSP/Source/SVMFunctions/arm_svm_polynomial_predict_f32.c ****  *
   9:Middlewares/Third_Party/ARM_CMSIS/CMSIS/DSP/Source/SVMFunctions/arm_svm_polynomial_predict_f32.c ****  * Target Processor: Cortex-M and Cortex-A cores
  10:Middlewares/Third_Party/ARM_CMSIS/CMSIS/DSP/Source/SVMFunctions/arm_svm_polynomial_predict_f32.c ****  * -------------------------------------------------------------------- */
  11:Middlewares/Third_Party/ARM_CMSIS/CMSIS/DSP/Source/SVMFunctions/arm_svm_polynomial_predict_f32.c **** /*
  12:Middlewares/Third_Party/ARM_CMSIS/CMSIS/DSP/Source/SVMFunctions/arm_svm_polynomial_predict_f32.c ****  * Copyright (C) 2010-2021 ARM Limited or its affiliates. All rights reserved.
  13:Middlewares/Third_Party/ARM_CMSIS/CMSIS/DSP/Source/SVMFunctions/arm_svm_polynomial_predict_f32.c ****  *
  14:Middlewares/Third_Party/ARM_CMSIS/CMSIS/DSP/Source/SVMFunctions/arm_svm_polynomial_predict_f32.c ****  * SPDX-License-Identifier: Apache-2.0
  15:Middlewares/Third_Party/ARM_CMSIS/CMSIS/DSP/Source/SVMFunctions/arm_svm_polynomial_predict_f32.c ****  *
  16:Middlewares/Third_Party/ARM_CMSIS/CMSIS/DSP/Source/SVMFunctions/arm_svm_polynomial_predict_f32.c ****  * Licensed under the Apache License, Version 2.0 (the License); you may
  17:Middlewares/Third_Party/ARM_CMSIS/CMSIS/DSP/Source/SVMFunctions/arm_svm_polynomial_predict_f32.c ****  * not use this file except in compliance with the License.
  18:Middlewares/Third_Party/ARM_CMSIS/CMSIS/DSP/Source/SVMFunctions/arm_svm_polynomial_predict_f32.c ****  * You may obtain a copy of the License at
  19:Middlewares/Third_Party/ARM_CMSIS/CMSIS/DSP/Source/SVMFunctions/arm_svm_polynomial_predict_f32.c ****  *
  20:Middlewares/Third_Party/ARM_CMSIS/CMSIS/DSP/Source/SVMFunctions/arm_svm_polynomial_predict_f32.c ****  * www.apache.org/licenses/LICENSE-2.0
  21:Middlewares/Third_Party/ARM_CMSIS/CMSIS/DSP/Source/SVMFunctions/arm_svm_polynomial_predict_f32.c ****  *
  22:Middlewares/Third_Party/ARM_CMSIS/CMSIS/DSP/Source/SVMFunctions/arm_svm_polynomial_predict_f32.c ****  * Unless required by applicable law or agreed to in writing, software
  23:Middlewares/Third_Party/ARM_CMSIS/CMSIS/DSP/Source/SVMFunctions/arm_svm_polynomial_predict_f32.c ****  * distributed under the License is distributed on an AS IS BASIS, WITHOUT
  24:Middlewares/Third_Party/ARM_CMSIS/CMSIS/DSP/Source/SVMFunctions/arm_svm_polynomial_predict_f32.c ****  * WARRANTIES OR CONDITIONS OF ANY KIND, either express or implied.
  25:Middlewares/Third_Party/ARM_CMSIS/CMSIS/DSP/Source/SVMFunctions/arm_svm_polynomial_predict_f32.c ****  * See the License for the specific language governing permissions and
  26:Middlewares/Third_Party/ARM_CMSIS/CMSIS/DSP/Source/SVMFunctions/arm_svm_polynomial_predict_f32.c ****  * limitations under the License.
  27:Middlewares/Third_Party/ARM_CMSIS/CMSIS/DSP/Source/SVMFunctions/arm_svm_polynomial_predict_f32.c ****  */
  28:Middlewares/Third_Party/ARM_CMSIS/CMSIS/DSP/Source/SVMFunctions/arm_svm_polynomial_predict_f32.c **** 
  29:Middlewares/Third_Party/ARM_CMSIS/CMSIS/DSP/Source/SVMFunctions/arm_svm_polynomial_predict_f32.c **** #include "dsp/svm_functions.h"
  30:Middlewares/Third_Party/ARM_CMSIS/CMSIS/DSP/Source/SVMFunctions/arm_svm_polynomial_predict_f32.c **** #include <limits.h>
  31:Middlewares/Third_Party/ARM_CMSIS/CMSIS/DSP/Source/SVMFunctions/arm_svm_polynomial_predict_f32.c **** #include <math.h>
  32:Middlewares/Third_Party/ARM_CMSIS/CMSIS/DSP/Source/SVMFunctions/arm_svm_polynomial_predict_f32.c **** 
ARM GAS  C:\Users\7636~1\AppData\Local\Temp\cc7HvPcb.s 			page 17


  33:Middlewares/Third_Party/ARM_CMSIS/CMSIS/DSP/Source/SVMFunctions/arm_svm_polynomial_predict_f32.c **** #if defined(ARM_MATH_NEON) && !defined(ARM_MATH_AUTOVECTORIZE)
  34:Middlewares/Third_Party/ARM_CMSIS/CMSIS/DSP/Source/SVMFunctions/arm_svm_polynomial_predict_f32.c **** #include "arm_vec_math.h"
  35:Middlewares/Third_Party/ARM_CMSIS/CMSIS/DSP/Source/SVMFunctions/arm_svm_polynomial_predict_f32.c **** #endif
  36:Middlewares/Third_Party/ARM_CMSIS/CMSIS/DSP/Source/SVMFunctions/arm_svm_polynomial_predict_f32.c **** 
  37:Middlewares/Third_Party/ARM_CMSIS/CMSIS/DSP/Source/SVMFunctions/arm_svm_polynomial_predict_f32.c **** /**
  38:Middlewares/Third_Party/ARM_CMSIS/CMSIS/DSP/Source/SVMFunctions/arm_svm_polynomial_predict_f32.c ****  * @addtogroup polysvm
  39:Middlewares/Third_Party/ARM_CMSIS/CMSIS/DSP/Source/SVMFunctions/arm_svm_polynomial_predict_f32.c ****  * @{
  40:Middlewares/Third_Party/ARM_CMSIS/CMSIS/DSP/Source/SVMFunctions/arm_svm_polynomial_predict_f32.c ****  */
  41:Middlewares/Third_Party/ARM_CMSIS/CMSIS/DSP/Source/SVMFunctions/arm_svm_polynomial_predict_f32.c **** 
  42:Middlewares/Third_Party/ARM_CMSIS/CMSIS/DSP/Source/SVMFunctions/arm_svm_polynomial_predict_f32.c **** 
  43:Middlewares/Third_Party/ARM_CMSIS/CMSIS/DSP/Source/SVMFunctions/arm_svm_polynomial_predict_f32.c **** /**
  44:Middlewares/Third_Party/ARM_CMSIS/CMSIS/DSP/Source/SVMFunctions/arm_svm_polynomial_predict_f32.c ****  * @brief SVM polynomial prediction
  45:Middlewares/Third_Party/ARM_CMSIS/CMSIS/DSP/Source/SVMFunctions/arm_svm_polynomial_predict_f32.c ****  * @param[in]    S          Pointer to an instance of the polynomial SVM structure.
  46:Middlewares/Third_Party/ARM_CMSIS/CMSIS/DSP/Source/SVMFunctions/arm_svm_polynomial_predict_f32.c ****  * @param[in]    in         Pointer to input vector
  47:Middlewares/Third_Party/ARM_CMSIS/CMSIS/DSP/Source/SVMFunctions/arm_svm_polynomial_predict_f32.c ****  * @param[out]   pResult    Decision value
  48:Middlewares/Third_Party/ARM_CMSIS/CMSIS/DSP/Source/SVMFunctions/arm_svm_polynomial_predict_f32.c ****  * @return none.
  49:Middlewares/Third_Party/ARM_CMSIS/CMSIS/DSP/Source/SVMFunctions/arm_svm_polynomial_predict_f32.c ****  *
  50:Middlewares/Third_Party/ARM_CMSIS/CMSIS/DSP/Source/SVMFunctions/arm_svm_polynomial_predict_f32.c ****  */
  51:Middlewares/Third_Party/ARM_CMSIS/CMSIS/DSP/Source/SVMFunctions/arm_svm_polynomial_predict_f32.c **** 
  52:Middlewares/Third_Party/ARM_CMSIS/CMSIS/DSP/Source/SVMFunctions/arm_svm_polynomial_predict_f32.c **** #if defined(ARM_MATH_MVEF) && !defined(ARM_MATH_AUTOVECTORIZE)
  53:Middlewares/Third_Party/ARM_CMSIS/CMSIS/DSP/Source/SVMFunctions/arm_svm_polynomial_predict_f32.c **** 
  54:Middlewares/Third_Party/ARM_CMSIS/CMSIS/DSP/Source/SVMFunctions/arm_svm_polynomial_predict_f32.c **** #include "arm_helium_utils.h"
  55:Middlewares/Third_Party/ARM_CMSIS/CMSIS/DSP/Source/SVMFunctions/arm_svm_polynomial_predict_f32.c **** #include "arm_vec_math.h"
  56:Middlewares/Third_Party/ARM_CMSIS/CMSIS/DSP/Source/SVMFunctions/arm_svm_polynomial_predict_f32.c **** 
  57:Middlewares/Third_Party/ARM_CMSIS/CMSIS/DSP/Source/SVMFunctions/arm_svm_polynomial_predict_f32.c **** void arm_svm_polynomial_predict_f32(
  58:Middlewares/Third_Party/ARM_CMSIS/CMSIS/DSP/Source/SVMFunctions/arm_svm_polynomial_predict_f32.c ****     const arm_svm_polynomial_instance_f32 *S,
  59:Middlewares/Third_Party/ARM_CMSIS/CMSIS/DSP/Source/SVMFunctions/arm_svm_polynomial_predict_f32.c ****     const float32_t * in,
  60:Middlewares/Third_Party/ARM_CMSIS/CMSIS/DSP/Source/SVMFunctions/arm_svm_polynomial_predict_f32.c ****     int32_t * pResult)
  61:Middlewares/Third_Party/ARM_CMSIS/CMSIS/DSP/Source/SVMFunctions/arm_svm_polynomial_predict_f32.c **** {
  62:Middlewares/Third_Party/ARM_CMSIS/CMSIS/DSP/Source/SVMFunctions/arm_svm_polynomial_predict_f32.c ****         /* inlined Matrix x Vector function interleaved with dot prod */
  63:Middlewares/Third_Party/ARM_CMSIS/CMSIS/DSP/Source/SVMFunctions/arm_svm_polynomial_predict_f32.c ****     uint32_t        numRows = S->nbOfSupportVectors;
  64:Middlewares/Third_Party/ARM_CMSIS/CMSIS/DSP/Source/SVMFunctions/arm_svm_polynomial_predict_f32.c ****     uint32_t        numCols = S->vectorDimension;
  65:Middlewares/Third_Party/ARM_CMSIS/CMSIS/DSP/Source/SVMFunctions/arm_svm_polynomial_predict_f32.c ****     const float32_t *pSupport = S->supportVectors;
  66:Middlewares/Third_Party/ARM_CMSIS/CMSIS/DSP/Source/SVMFunctions/arm_svm_polynomial_predict_f32.c ****     const float32_t *pSrcA = pSupport;
  67:Middlewares/Third_Party/ARM_CMSIS/CMSIS/DSP/Source/SVMFunctions/arm_svm_polynomial_predict_f32.c ****     const float32_t *pInA0;
  68:Middlewares/Third_Party/ARM_CMSIS/CMSIS/DSP/Source/SVMFunctions/arm_svm_polynomial_predict_f32.c ****     const float32_t *pInA1;
  69:Middlewares/Third_Party/ARM_CMSIS/CMSIS/DSP/Source/SVMFunctions/arm_svm_polynomial_predict_f32.c ****     uint32_t         row;
  70:Middlewares/Third_Party/ARM_CMSIS/CMSIS/DSP/Source/SVMFunctions/arm_svm_polynomial_predict_f32.c ****     uint32_t         blkCnt;     /* loop counters */
  71:Middlewares/Third_Party/ARM_CMSIS/CMSIS/DSP/Source/SVMFunctions/arm_svm_polynomial_predict_f32.c ****     const float32_t *pDualCoef = S->dualCoefficients;
  72:Middlewares/Third_Party/ARM_CMSIS/CMSIS/DSP/Source/SVMFunctions/arm_svm_polynomial_predict_f32.c ****     float32_t       sum = S->intercept;
  73:Middlewares/Third_Party/ARM_CMSIS/CMSIS/DSP/Source/SVMFunctions/arm_svm_polynomial_predict_f32.c ****     f32x4_t         vSum = vdupq_n_f32(0.0f);
  74:Middlewares/Third_Party/ARM_CMSIS/CMSIS/DSP/Source/SVMFunctions/arm_svm_polynomial_predict_f32.c **** 
  75:Middlewares/Third_Party/ARM_CMSIS/CMSIS/DSP/Source/SVMFunctions/arm_svm_polynomial_predict_f32.c ****     row = numRows;
  76:Middlewares/Third_Party/ARM_CMSIS/CMSIS/DSP/Source/SVMFunctions/arm_svm_polynomial_predict_f32.c **** 
  77:Middlewares/Third_Party/ARM_CMSIS/CMSIS/DSP/Source/SVMFunctions/arm_svm_polynomial_predict_f32.c ****     /*
  78:Middlewares/Third_Party/ARM_CMSIS/CMSIS/DSP/Source/SVMFunctions/arm_svm_polynomial_predict_f32.c ****      * compute 4 rows in parrallel
  79:Middlewares/Third_Party/ARM_CMSIS/CMSIS/DSP/Source/SVMFunctions/arm_svm_polynomial_predict_f32.c ****      */
  80:Middlewares/Third_Party/ARM_CMSIS/CMSIS/DSP/Source/SVMFunctions/arm_svm_polynomial_predict_f32.c ****     while (row >= 4) {
  81:Middlewares/Third_Party/ARM_CMSIS/CMSIS/DSP/Source/SVMFunctions/arm_svm_polynomial_predict_f32.c ****         const float32_t *pInA2, *pInA3;
  82:Middlewares/Third_Party/ARM_CMSIS/CMSIS/DSP/Source/SVMFunctions/arm_svm_polynomial_predict_f32.c ****         float32_t const *pSrcA0Vec, *pSrcA1Vec, *pSrcA2Vec, *pSrcA3Vec, *pInVec;
  83:Middlewares/Third_Party/ARM_CMSIS/CMSIS/DSP/Source/SVMFunctions/arm_svm_polynomial_predict_f32.c ****         f32x4_t         vecIn, acc0, acc1, acc2, acc3;
  84:Middlewares/Third_Party/ARM_CMSIS/CMSIS/DSP/Source/SVMFunctions/arm_svm_polynomial_predict_f32.c ****         float32_t const *pSrcVecPtr = in;
  85:Middlewares/Third_Party/ARM_CMSIS/CMSIS/DSP/Source/SVMFunctions/arm_svm_polynomial_predict_f32.c **** 
  86:Middlewares/Third_Party/ARM_CMSIS/CMSIS/DSP/Source/SVMFunctions/arm_svm_polynomial_predict_f32.c ****         /*
  87:Middlewares/Third_Party/ARM_CMSIS/CMSIS/DSP/Source/SVMFunctions/arm_svm_polynomial_predict_f32.c ****          * Initialize the pointers to 4 consecutive MatrixA rows
  88:Middlewares/Third_Party/ARM_CMSIS/CMSIS/DSP/Source/SVMFunctions/arm_svm_polynomial_predict_f32.c ****          */
  89:Middlewares/Third_Party/ARM_CMSIS/CMSIS/DSP/Source/SVMFunctions/arm_svm_polynomial_predict_f32.c ****         pInA0 = pSrcA;
ARM GAS  C:\Users\7636~1\AppData\Local\Temp\cc7HvPcb.s 			page 18


  90:Middlewares/Third_Party/ARM_CMSIS/CMSIS/DSP/Source/SVMFunctions/arm_svm_polynomial_predict_f32.c ****         pInA1 = pInA0 + numCols;
  91:Middlewares/Third_Party/ARM_CMSIS/CMSIS/DSP/Source/SVMFunctions/arm_svm_polynomial_predict_f32.c ****         pInA2 = pInA1 + numCols;
  92:Middlewares/Third_Party/ARM_CMSIS/CMSIS/DSP/Source/SVMFunctions/arm_svm_polynomial_predict_f32.c ****         pInA3 = pInA2 + numCols;
  93:Middlewares/Third_Party/ARM_CMSIS/CMSIS/DSP/Source/SVMFunctions/arm_svm_polynomial_predict_f32.c ****         /*
  94:Middlewares/Third_Party/ARM_CMSIS/CMSIS/DSP/Source/SVMFunctions/arm_svm_polynomial_predict_f32.c ****          * Initialize the vector pointer
  95:Middlewares/Third_Party/ARM_CMSIS/CMSIS/DSP/Source/SVMFunctions/arm_svm_polynomial_predict_f32.c ****          */
  96:Middlewares/Third_Party/ARM_CMSIS/CMSIS/DSP/Source/SVMFunctions/arm_svm_polynomial_predict_f32.c ****         pInVec = pSrcVecPtr;
  97:Middlewares/Third_Party/ARM_CMSIS/CMSIS/DSP/Source/SVMFunctions/arm_svm_polynomial_predict_f32.c ****         /*
  98:Middlewares/Third_Party/ARM_CMSIS/CMSIS/DSP/Source/SVMFunctions/arm_svm_polynomial_predict_f32.c ****          * reset accumulators
  99:Middlewares/Third_Party/ARM_CMSIS/CMSIS/DSP/Source/SVMFunctions/arm_svm_polynomial_predict_f32.c ****          */
 100:Middlewares/Third_Party/ARM_CMSIS/CMSIS/DSP/Source/SVMFunctions/arm_svm_polynomial_predict_f32.c ****         acc0 = vdupq_n_f32(0.0f);
 101:Middlewares/Third_Party/ARM_CMSIS/CMSIS/DSP/Source/SVMFunctions/arm_svm_polynomial_predict_f32.c ****         acc1 = vdupq_n_f32(0.0f);
 102:Middlewares/Third_Party/ARM_CMSIS/CMSIS/DSP/Source/SVMFunctions/arm_svm_polynomial_predict_f32.c ****         acc2 = vdupq_n_f32(0.0f);
 103:Middlewares/Third_Party/ARM_CMSIS/CMSIS/DSP/Source/SVMFunctions/arm_svm_polynomial_predict_f32.c ****         acc3 = vdupq_n_f32(0.0f);
 104:Middlewares/Third_Party/ARM_CMSIS/CMSIS/DSP/Source/SVMFunctions/arm_svm_polynomial_predict_f32.c **** 
 105:Middlewares/Third_Party/ARM_CMSIS/CMSIS/DSP/Source/SVMFunctions/arm_svm_polynomial_predict_f32.c ****         pSrcA0Vec = pInA0;
 106:Middlewares/Third_Party/ARM_CMSIS/CMSIS/DSP/Source/SVMFunctions/arm_svm_polynomial_predict_f32.c ****         pSrcA1Vec = pInA1;
 107:Middlewares/Third_Party/ARM_CMSIS/CMSIS/DSP/Source/SVMFunctions/arm_svm_polynomial_predict_f32.c ****         pSrcA2Vec = pInA2;
 108:Middlewares/Third_Party/ARM_CMSIS/CMSIS/DSP/Source/SVMFunctions/arm_svm_polynomial_predict_f32.c ****         pSrcA3Vec = pInA3;
 109:Middlewares/Third_Party/ARM_CMSIS/CMSIS/DSP/Source/SVMFunctions/arm_svm_polynomial_predict_f32.c **** 
 110:Middlewares/Third_Party/ARM_CMSIS/CMSIS/DSP/Source/SVMFunctions/arm_svm_polynomial_predict_f32.c ****         blkCnt = numCols >> 2;
 111:Middlewares/Third_Party/ARM_CMSIS/CMSIS/DSP/Source/SVMFunctions/arm_svm_polynomial_predict_f32.c ****         while (blkCnt > 0U) {
 112:Middlewares/Third_Party/ARM_CMSIS/CMSIS/DSP/Source/SVMFunctions/arm_svm_polynomial_predict_f32.c ****             f32x4_t         vecA;
 113:Middlewares/Third_Party/ARM_CMSIS/CMSIS/DSP/Source/SVMFunctions/arm_svm_polynomial_predict_f32.c **** 
 114:Middlewares/Third_Party/ARM_CMSIS/CMSIS/DSP/Source/SVMFunctions/arm_svm_polynomial_predict_f32.c ****             vecIn = vld1q(pInVec);
 115:Middlewares/Third_Party/ARM_CMSIS/CMSIS/DSP/Source/SVMFunctions/arm_svm_polynomial_predict_f32.c ****             pInVec += 4;
 116:Middlewares/Third_Party/ARM_CMSIS/CMSIS/DSP/Source/SVMFunctions/arm_svm_polynomial_predict_f32.c ****             vecA = vld1q(pSrcA0Vec);
 117:Middlewares/Third_Party/ARM_CMSIS/CMSIS/DSP/Source/SVMFunctions/arm_svm_polynomial_predict_f32.c ****             pSrcA0Vec += 4;
 118:Middlewares/Third_Party/ARM_CMSIS/CMSIS/DSP/Source/SVMFunctions/arm_svm_polynomial_predict_f32.c ****             acc0 = vfmaq(acc0, vecIn, vecA);
 119:Middlewares/Third_Party/ARM_CMSIS/CMSIS/DSP/Source/SVMFunctions/arm_svm_polynomial_predict_f32.c ****             vecA = vld1q(pSrcA1Vec);
 120:Middlewares/Third_Party/ARM_CMSIS/CMSIS/DSP/Source/SVMFunctions/arm_svm_polynomial_predict_f32.c ****             pSrcA1Vec += 4;
 121:Middlewares/Third_Party/ARM_CMSIS/CMSIS/DSP/Source/SVMFunctions/arm_svm_polynomial_predict_f32.c ****             acc1 = vfmaq(acc1, vecIn, vecA);
 122:Middlewares/Third_Party/ARM_CMSIS/CMSIS/DSP/Source/SVMFunctions/arm_svm_polynomial_predict_f32.c ****             vecA = vld1q(pSrcA2Vec);
 123:Middlewares/Third_Party/ARM_CMSIS/CMSIS/DSP/Source/SVMFunctions/arm_svm_polynomial_predict_f32.c ****             pSrcA2Vec += 4;
 124:Middlewares/Third_Party/ARM_CMSIS/CMSIS/DSP/Source/SVMFunctions/arm_svm_polynomial_predict_f32.c ****             acc2 = vfmaq(acc2, vecIn, vecA);
 125:Middlewares/Third_Party/ARM_CMSIS/CMSIS/DSP/Source/SVMFunctions/arm_svm_polynomial_predict_f32.c ****             vecA = vld1q(pSrcA3Vec);
 126:Middlewares/Third_Party/ARM_CMSIS/CMSIS/DSP/Source/SVMFunctions/arm_svm_polynomial_predict_f32.c ****             pSrcA3Vec += 4;
 127:Middlewares/Third_Party/ARM_CMSIS/CMSIS/DSP/Source/SVMFunctions/arm_svm_polynomial_predict_f32.c ****             acc3 = vfmaq(acc3, vecIn, vecA);
 128:Middlewares/Third_Party/ARM_CMSIS/CMSIS/DSP/Source/SVMFunctions/arm_svm_polynomial_predict_f32.c **** 
 129:Middlewares/Third_Party/ARM_CMSIS/CMSIS/DSP/Source/SVMFunctions/arm_svm_polynomial_predict_f32.c ****             blkCnt--;
 130:Middlewares/Third_Party/ARM_CMSIS/CMSIS/DSP/Source/SVMFunctions/arm_svm_polynomial_predict_f32.c ****         }
 131:Middlewares/Third_Party/ARM_CMSIS/CMSIS/DSP/Source/SVMFunctions/arm_svm_polynomial_predict_f32.c ****         /*
 132:Middlewares/Third_Party/ARM_CMSIS/CMSIS/DSP/Source/SVMFunctions/arm_svm_polynomial_predict_f32.c ****          * tail
 133:Middlewares/Third_Party/ARM_CMSIS/CMSIS/DSP/Source/SVMFunctions/arm_svm_polynomial_predict_f32.c ****          * (will be merged thru tail predication)
 134:Middlewares/Third_Party/ARM_CMSIS/CMSIS/DSP/Source/SVMFunctions/arm_svm_polynomial_predict_f32.c ****          */
 135:Middlewares/Third_Party/ARM_CMSIS/CMSIS/DSP/Source/SVMFunctions/arm_svm_polynomial_predict_f32.c ****         blkCnt = numCols & 3;
 136:Middlewares/Third_Party/ARM_CMSIS/CMSIS/DSP/Source/SVMFunctions/arm_svm_polynomial_predict_f32.c ****         if (blkCnt > 0U) {
 137:Middlewares/Third_Party/ARM_CMSIS/CMSIS/DSP/Source/SVMFunctions/arm_svm_polynomial_predict_f32.c ****             mve_pred16_t    p0 = vctp32q(blkCnt);
 138:Middlewares/Third_Party/ARM_CMSIS/CMSIS/DSP/Source/SVMFunctions/arm_svm_polynomial_predict_f32.c ****             f32x4_t         vecA;
 139:Middlewares/Third_Party/ARM_CMSIS/CMSIS/DSP/Source/SVMFunctions/arm_svm_polynomial_predict_f32.c **** 
 140:Middlewares/Third_Party/ARM_CMSIS/CMSIS/DSP/Source/SVMFunctions/arm_svm_polynomial_predict_f32.c ****             vecIn = vldrwq_z_f32(pInVec, p0);
 141:Middlewares/Third_Party/ARM_CMSIS/CMSIS/DSP/Source/SVMFunctions/arm_svm_polynomial_predict_f32.c ****             vecA = vldrwq_z_f32(pSrcA0Vec, p0);
 142:Middlewares/Third_Party/ARM_CMSIS/CMSIS/DSP/Source/SVMFunctions/arm_svm_polynomial_predict_f32.c ****             acc0 = vfmaq(acc0, vecIn, vecA);
 143:Middlewares/Third_Party/ARM_CMSIS/CMSIS/DSP/Source/SVMFunctions/arm_svm_polynomial_predict_f32.c ****             vecA = vldrwq_z_f32(pSrcA1Vec, p0);
 144:Middlewares/Third_Party/ARM_CMSIS/CMSIS/DSP/Source/SVMFunctions/arm_svm_polynomial_predict_f32.c ****             acc1 = vfmaq(acc1, vecIn, vecA);
 145:Middlewares/Third_Party/ARM_CMSIS/CMSIS/DSP/Source/SVMFunctions/arm_svm_polynomial_predict_f32.c ****             vecA = vldrwq_z_f32(pSrcA2Vec, p0);
 146:Middlewares/Third_Party/ARM_CMSIS/CMSIS/DSP/Source/SVMFunctions/arm_svm_polynomial_predict_f32.c ****             acc2 = vfmaq(acc2, vecIn, vecA);
ARM GAS  C:\Users\7636~1\AppData\Local\Temp\cc7HvPcb.s 			page 19


 147:Middlewares/Third_Party/ARM_CMSIS/CMSIS/DSP/Source/SVMFunctions/arm_svm_polynomial_predict_f32.c ****             vecA = vldrwq_z_f32(pSrcA3Vec, p0);
 148:Middlewares/Third_Party/ARM_CMSIS/CMSIS/DSP/Source/SVMFunctions/arm_svm_polynomial_predict_f32.c ****             acc3 = vfmaq(acc3, vecIn, vecA);
 149:Middlewares/Third_Party/ARM_CMSIS/CMSIS/DSP/Source/SVMFunctions/arm_svm_polynomial_predict_f32.c ****         }
 150:Middlewares/Third_Party/ARM_CMSIS/CMSIS/DSP/Source/SVMFunctions/arm_svm_polynomial_predict_f32.c ****         /*
 151:Middlewares/Third_Party/ARM_CMSIS/CMSIS/DSP/Source/SVMFunctions/arm_svm_polynomial_predict_f32.c ****          * Sum the partial parts
 152:Middlewares/Third_Party/ARM_CMSIS/CMSIS/DSP/Source/SVMFunctions/arm_svm_polynomial_predict_f32.c ****          */
 153:Middlewares/Third_Party/ARM_CMSIS/CMSIS/DSP/Source/SVMFunctions/arm_svm_polynomial_predict_f32.c ****         f32x4_t         vtmp = vuninitializedq_f32();
 154:Middlewares/Third_Party/ARM_CMSIS/CMSIS/DSP/Source/SVMFunctions/arm_svm_polynomial_predict_f32.c ****         vtmp = vsetq_lane(vecAddAcrossF32Mve(acc0), vtmp, 0);
 155:Middlewares/Third_Party/ARM_CMSIS/CMSIS/DSP/Source/SVMFunctions/arm_svm_polynomial_predict_f32.c ****         vtmp = vsetq_lane(vecAddAcrossF32Mve(acc1), vtmp, 1);
 156:Middlewares/Third_Party/ARM_CMSIS/CMSIS/DSP/Source/SVMFunctions/arm_svm_polynomial_predict_f32.c ****         vtmp = vsetq_lane(vecAddAcrossF32Mve(acc2), vtmp, 2);
 157:Middlewares/Third_Party/ARM_CMSIS/CMSIS/DSP/Source/SVMFunctions/arm_svm_polynomial_predict_f32.c ****         vtmp = vsetq_lane(vecAddAcrossF32Mve(acc3), vtmp, 3);
 158:Middlewares/Third_Party/ARM_CMSIS/CMSIS/DSP/Source/SVMFunctions/arm_svm_polynomial_predict_f32.c **** 
 159:Middlewares/Third_Party/ARM_CMSIS/CMSIS/DSP/Source/SVMFunctions/arm_svm_polynomial_predict_f32.c ****         vSum = vfmaq_f32(vSum, vld1q(pDualCoef),
 160:Middlewares/Third_Party/ARM_CMSIS/CMSIS/DSP/Source/SVMFunctions/arm_svm_polynomial_predict_f32.c ****                              arm_vec_exponent_f32
 161:Middlewares/Third_Party/ARM_CMSIS/CMSIS/DSP/Source/SVMFunctions/arm_svm_polynomial_predict_f32.c ****                              (vaddq_n_f32(vmulq_n_f32(vtmp, S->gamma), S->coef0), S->degree));
 162:Middlewares/Third_Party/ARM_CMSIS/CMSIS/DSP/Source/SVMFunctions/arm_svm_polynomial_predict_f32.c ****         
 163:Middlewares/Third_Party/ARM_CMSIS/CMSIS/DSP/Source/SVMFunctions/arm_svm_polynomial_predict_f32.c ****         pDualCoef += 4;
 164:Middlewares/Third_Party/ARM_CMSIS/CMSIS/DSP/Source/SVMFunctions/arm_svm_polynomial_predict_f32.c **** 
 165:Middlewares/Third_Party/ARM_CMSIS/CMSIS/DSP/Source/SVMFunctions/arm_svm_polynomial_predict_f32.c ****         pSrcA += numCols * 4;
 166:Middlewares/Third_Party/ARM_CMSIS/CMSIS/DSP/Source/SVMFunctions/arm_svm_polynomial_predict_f32.c ****         /*
 167:Middlewares/Third_Party/ARM_CMSIS/CMSIS/DSP/Source/SVMFunctions/arm_svm_polynomial_predict_f32.c ****          * Decrement the row loop counter
 168:Middlewares/Third_Party/ARM_CMSIS/CMSIS/DSP/Source/SVMFunctions/arm_svm_polynomial_predict_f32.c ****          */
 169:Middlewares/Third_Party/ARM_CMSIS/CMSIS/DSP/Source/SVMFunctions/arm_svm_polynomial_predict_f32.c ****         row -= 4;
 170:Middlewares/Third_Party/ARM_CMSIS/CMSIS/DSP/Source/SVMFunctions/arm_svm_polynomial_predict_f32.c ****     }
 171:Middlewares/Third_Party/ARM_CMSIS/CMSIS/DSP/Source/SVMFunctions/arm_svm_polynomial_predict_f32.c **** 
 172:Middlewares/Third_Party/ARM_CMSIS/CMSIS/DSP/Source/SVMFunctions/arm_svm_polynomial_predict_f32.c ****     /*
 173:Middlewares/Third_Party/ARM_CMSIS/CMSIS/DSP/Source/SVMFunctions/arm_svm_polynomial_predict_f32.c ****      * compute 2 rows in parrallel
 174:Middlewares/Third_Party/ARM_CMSIS/CMSIS/DSP/Source/SVMFunctions/arm_svm_polynomial_predict_f32.c ****      */
 175:Middlewares/Third_Party/ARM_CMSIS/CMSIS/DSP/Source/SVMFunctions/arm_svm_polynomial_predict_f32.c ****     if (row >= 2) {
 176:Middlewares/Third_Party/ARM_CMSIS/CMSIS/DSP/Source/SVMFunctions/arm_svm_polynomial_predict_f32.c ****         float32_t const *pSrcA0Vec, *pSrcA1Vec, *pInVec;
 177:Middlewares/Third_Party/ARM_CMSIS/CMSIS/DSP/Source/SVMFunctions/arm_svm_polynomial_predict_f32.c ****         f32x4_t         vecIn, acc0, acc1;
 178:Middlewares/Third_Party/ARM_CMSIS/CMSIS/DSP/Source/SVMFunctions/arm_svm_polynomial_predict_f32.c ****         float32_t const *pSrcVecPtr = in;
 179:Middlewares/Third_Party/ARM_CMSIS/CMSIS/DSP/Source/SVMFunctions/arm_svm_polynomial_predict_f32.c **** 
 180:Middlewares/Third_Party/ARM_CMSIS/CMSIS/DSP/Source/SVMFunctions/arm_svm_polynomial_predict_f32.c ****         /*
 181:Middlewares/Third_Party/ARM_CMSIS/CMSIS/DSP/Source/SVMFunctions/arm_svm_polynomial_predict_f32.c ****          * Initialize the pointers to 2 consecutive MatrixA rows
 182:Middlewares/Third_Party/ARM_CMSIS/CMSIS/DSP/Source/SVMFunctions/arm_svm_polynomial_predict_f32.c ****          */
 183:Middlewares/Third_Party/ARM_CMSIS/CMSIS/DSP/Source/SVMFunctions/arm_svm_polynomial_predict_f32.c ****         pInA0 = pSrcA;
 184:Middlewares/Third_Party/ARM_CMSIS/CMSIS/DSP/Source/SVMFunctions/arm_svm_polynomial_predict_f32.c ****         pInA1 = pInA0 + numCols;
 185:Middlewares/Third_Party/ARM_CMSIS/CMSIS/DSP/Source/SVMFunctions/arm_svm_polynomial_predict_f32.c ****         /*
 186:Middlewares/Third_Party/ARM_CMSIS/CMSIS/DSP/Source/SVMFunctions/arm_svm_polynomial_predict_f32.c ****          * Initialize the vector pointer
 187:Middlewares/Third_Party/ARM_CMSIS/CMSIS/DSP/Source/SVMFunctions/arm_svm_polynomial_predict_f32.c ****          */
 188:Middlewares/Third_Party/ARM_CMSIS/CMSIS/DSP/Source/SVMFunctions/arm_svm_polynomial_predict_f32.c ****         pInVec = pSrcVecPtr;
 189:Middlewares/Third_Party/ARM_CMSIS/CMSIS/DSP/Source/SVMFunctions/arm_svm_polynomial_predict_f32.c ****         /*
 190:Middlewares/Third_Party/ARM_CMSIS/CMSIS/DSP/Source/SVMFunctions/arm_svm_polynomial_predict_f32.c ****          * reset accumulators
 191:Middlewares/Third_Party/ARM_CMSIS/CMSIS/DSP/Source/SVMFunctions/arm_svm_polynomial_predict_f32.c ****          */
 192:Middlewares/Third_Party/ARM_CMSIS/CMSIS/DSP/Source/SVMFunctions/arm_svm_polynomial_predict_f32.c ****         acc0 = vdupq_n_f32(0.0f);
 193:Middlewares/Third_Party/ARM_CMSIS/CMSIS/DSP/Source/SVMFunctions/arm_svm_polynomial_predict_f32.c ****         acc1 = vdupq_n_f32(0.0f);
 194:Middlewares/Third_Party/ARM_CMSIS/CMSIS/DSP/Source/SVMFunctions/arm_svm_polynomial_predict_f32.c ****         pSrcA0Vec = pInA0;
 195:Middlewares/Third_Party/ARM_CMSIS/CMSIS/DSP/Source/SVMFunctions/arm_svm_polynomial_predict_f32.c ****         pSrcA1Vec = pInA1;
 196:Middlewares/Third_Party/ARM_CMSIS/CMSIS/DSP/Source/SVMFunctions/arm_svm_polynomial_predict_f32.c **** 
 197:Middlewares/Third_Party/ARM_CMSIS/CMSIS/DSP/Source/SVMFunctions/arm_svm_polynomial_predict_f32.c ****         blkCnt = numCols >> 2;
 198:Middlewares/Third_Party/ARM_CMSIS/CMSIS/DSP/Source/SVMFunctions/arm_svm_polynomial_predict_f32.c ****         while (blkCnt > 0U) {
 199:Middlewares/Third_Party/ARM_CMSIS/CMSIS/DSP/Source/SVMFunctions/arm_svm_polynomial_predict_f32.c ****             f32x4_t         vecA;
 200:Middlewares/Third_Party/ARM_CMSIS/CMSIS/DSP/Source/SVMFunctions/arm_svm_polynomial_predict_f32.c **** 
 201:Middlewares/Third_Party/ARM_CMSIS/CMSIS/DSP/Source/SVMFunctions/arm_svm_polynomial_predict_f32.c ****             vecIn = vld1q(pInVec);
 202:Middlewares/Third_Party/ARM_CMSIS/CMSIS/DSP/Source/SVMFunctions/arm_svm_polynomial_predict_f32.c ****             pInVec += 4;
 203:Middlewares/Third_Party/ARM_CMSIS/CMSIS/DSP/Source/SVMFunctions/arm_svm_polynomial_predict_f32.c ****             vecA = vld1q(pSrcA0Vec);
ARM GAS  C:\Users\7636~1\AppData\Local\Temp\cc7HvPcb.s 			page 20


 204:Middlewares/Third_Party/ARM_CMSIS/CMSIS/DSP/Source/SVMFunctions/arm_svm_polynomial_predict_f32.c ****             pSrcA0Vec += 4;
 205:Middlewares/Third_Party/ARM_CMSIS/CMSIS/DSP/Source/SVMFunctions/arm_svm_polynomial_predict_f32.c ****             acc0 = vfmaq(acc0, vecIn, vecA);
 206:Middlewares/Third_Party/ARM_CMSIS/CMSIS/DSP/Source/SVMFunctions/arm_svm_polynomial_predict_f32.c ****             vecA = vld1q(pSrcA1Vec);
 207:Middlewares/Third_Party/ARM_CMSIS/CMSIS/DSP/Source/SVMFunctions/arm_svm_polynomial_predict_f32.c ****             pSrcA1Vec += 4;
 208:Middlewares/Third_Party/ARM_CMSIS/CMSIS/DSP/Source/SVMFunctions/arm_svm_polynomial_predict_f32.c ****             acc1 = vfmaq(acc1, vecIn, vecA);
 209:Middlewares/Third_Party/ARM_CMSIS/CMSIS/DSP/Source/SVMFunctions/arm_svm_polynomial_predict_f32.c **** 
 210:Middlewares/Third_Party/ARM_CMSIS/CMSIS/DSP/Source/SVMFunctions/arm_svm_polynomial_predict_f32.c ****             blkCnt--;
 211:Middlewares/Third_Party/ARM_CMSIS/CMSIS/DSP/Source/SVMFunctions/arm_svm_polynomial_predict_f32.c ****         }
 212:Middlewares/Third_Party/ARM_CMSIS/CMSIS/DSP/Source/SVMFunctions/arm_svm_polynomial_predict_f32.c ****         /*
 213:Middlewares/Third_Party/ARM_CMSIS/CMSIS/DSP/Source/SVMFunctions/arm_svm_polynomial_predict_f32.c ****          * tail
 214:Middlewares/Third_Party/ARM_CMSIS/CMSIS/DSP/Source/SVMFunctions/arm_svm_polynomial_predict_f32.c ****          * (will be merged thru tail predication)
 215:Middlewares/Third_Party/ARM_CMSIS/CMSIS/DSP/Source/SVMFunctions/arm_svm_polynomial_predict_f32.c ****          */
 216:Middlewares/Third_Party/ARM_CMSIS/CMSIS/DSP/Source/SVMFunctions/arm_svm_polynomial_predict_f32.c ****         blkCnt = numCols & 3;
 217:Middlewares/Third_Party/ARM_CMSIS/CMSIS/DSP/Source/SVMFunctions/arm_svm_polynomial_predict_f32.c ****         if (blkCnt > 0U) {
 218:Middlewares/Third_Party/ARM_CMSIS/CMSIS/DSP/Source/SVMFunctions/arm_svm_polynomial_predict_f32.c ****             mve_pred16_t    p0 = vctp32q(blkCnt);
 219:Middlewares/Third_Party/ARM_CMSIS/CMSIS/DSP/Source/SVMFunctions/arm_svm_polynomial_predict_f32.c ****             f32x4_t         vecA;
 220:Middlewares/Third_Party/ARM_CMSIS/CMSIS/DSP/Source/SVMFunctions/arm_svm_polynomial_predict_f32.c **** 
 221:Middlewares/Third_Party/ARM_CMSIS/CMSIS/DSP/Source/SVMFunctions/arm_svm_polynomial_predict_f32.c ****             vecIn = vldrwq_z_f32(pInVec, p0);
 222:Middlewares/Third_Party/ARM_CMSIS/CMSIS/DSP/Source/SVMFunctions/arm_svm_polynomial_predict_f32.c ****             vecA = vldrwq_z_f32(pSrcA0Vec, p0);
 223:Middlewares/Third_Party/ARM_CMSIS/CMSIS/DSP/Source/SVMFunctions/arm_svm_polynomial_predict_f32.c ****             acc0 = vfmaq(acc0, vecIn, vecA);
 224:Middlewares/Third_Party/ARM_CMSIS/CMSIS/DSP/Source/SVMFunctions/arm_svm_polynomial_predict_f32.c ****             vecA = vldrwq_z_f32(pSrcA1Vec, p0);
 225:Middlewares/Third_Party/ARM_CMSIS/CMSIS/DSP/Source/SVMFunctions/arm_svm_polynomial_predict_f32.c ****             acc1 = vfmaq(acc1, vecIn, vecA);
 226:Middlewares/Third_Party/ARM_CMSIS/CMSIS/DSP/Source/SVMFunctions/arm_svm_polynomial_predict_f32.c ****         }
 227:Middlewares/Third_Party/ARM_CMSIS/CMSIS/DSP/Source/SVMFunctions/arm_svm_polynomial_predict_f32.c ****         /*
 228:Middlewares/Third_Party/ARM_CMSIS/CMSIS/DSP/Source/SVMFunctions/arm_svm_polynomial_predict_f32.c ****          * Sum the partial parts
 229:Middlewares/Third_Party/ARM_CMSIS/CMSIS/DSP/Source/SVMFunctions/arm_svm_polynomial_predict_f32.c ****          */
 230:Middlewares/Third_Party/ARM_CMSIS/CMSIS/DSP/Source/SVMFunctions/arm_svm_polynomial_predict_f32.c ****         f32x4_t         vtmp = vuninitializedq_f32();
 231:Middlewares/Third_Party/ARM_CMSIS/CMSIS/DSP/Source/SVMFunctions/arm_svm_polynomial_predict_f32.c ****         vtmp = vsetq_lane(vecAddAcrossF32Mve(acc0), vtmp, 0);
 232:Middlewares/Third_Party/ARM_CMSIS/CMSIS/DSP/Source/SVMFunctions/arm_svm_polynomial_predict_f32.c ****         vtmp = vsetq_lane(vecAddAcrossF32Mve(acc1), vtmp, 1);
 233:Middlewares/Third_Party/ARM_CMSIS/CMSIS/DSP/Source/SVMFunctions/arm_svm_polynomial_predict_f32.c **** 
 234:Middlewares/Third_Party/ARM_CMSIS/CMSIS/DSP/Source/SVMFunctions/arm_svm_polynomial_predict_f32.c ****         vSum = vfmaq_m_f32(vSum, vld1q(pDualCoef),
 235:Middlewares/Third_Party/ARM_CMSIS/CMSIS/DSP/Source/SVMFunctions/arm_svm_polynomial_predict_f32.c ****                              arm_vec_exponent_f32
 236:Middlewares/Third_Party/ARM_CMSIS/CMSIS/DSP/Source/SVMFunctions/arm_svm_polynomial_predict_f32.c ****                              (vaddq_n_f32(vmulq_n_f32(vtmp, S->gamma), S->coef0), S->degree), 
 237:Middlewares/Third_Party/ARM_CMSIS/CMSIS/DSP/Source/SVMFunctions/arm_svm_polynomial_predict_f32.c ****                              vctp32q(2));
 238:Middlewares/Third_Party/ARM_CMSIS/CMSIS/DSP/Source/SVMFunctions/arm_svm_polynomial_predict_f32.c ****         
 239:Middlewares/Third_Party/ARM_CMSIS/CMSIS/DSP/Source/SVMFunctions/arm_svm_polynomial_predict_f32.c ****         pDualCoef += 2;
 240:Middlewares/Third_Party/ARM_CMSIS/CMSIS/DSP/Source/SVMFunctions/arm_svm_polynomial_predict_f32.c ****         pSrcA += numCols * 2;
 241:Middlewares/Third_Party/ARM_CMSIS/CMSIS/DSP/Source/SVMFunctions/arm_svm_polynomial_predict_f32.c ****         row -= 2;
 242:Middlewares/Third_Party/ARM_CMSIS/CMSIS/DSP/Source/SVMFunctions/arm_svm_polynomial_predict_f32.c ****     }
 243:Middlewares/Third_Party/ARM_CMSIS/CMSIS/DSP/Source/SVMFunctions/arm_svm_polynomial_predict_f32.c **** 
 244:Middlewares/Third_Party/ARM_CMSIS/CMSIS/DSP/Source/SVMFunctions/arm_svm_polynomial_predict_f32.c ****     if (row >= 1) {
 245:Middlewares/Third_Party/ARM_CMSIS/CMSIS/DSP/Source/SVMFunctions/arm_svm_polynomial_predict_f32.c ****         f32x4_t         vecIn, acc0;
 246:Middlewares/Third_Party/ARM_CMSIS/CMSIS/DSP/Source/SVMFunctions/arm_svm_polynomial_predict_f32.c ****         float32_t const *pSrcA0Vec, *pInVec;
 247:Middlewares/Third_Party/ARM_CMSIS/CMSIS/DSP/Source/SVMFunctions/arm_svm_polynomial_predict_f32.c ****         float32_t const *pSrcVecPtr = in;
 248:Middlewares/Third_Party/ARM_CMSIS/CMSIS/DSP/Source/SVMFunctions/arm_svm_polynomial_predict_f32.c ****         /*
 249:Middlewares/Third_Party/ARM_CMSIS/CMSIS/DSP/Source/SVMFunctions/arm_svm_polynomial_predict_f32.c ****          * Initialize the pointers to last MatrixA row
 250:Middlewares/Third_Party/ARM_CMSIS/CMSIS/DSP/Source/SVMFunctions/arm_svm_polynomial_predict_f32.c ****          */
 251:Middlewares/Third_Party/ARM_CMSIS/CMSIS/DSP/Source/SVMFunctions/arm_svm_polynomial_predict_f32.c ****         pInA0 = pSrcA;
 252:Middlewares/Third_Party/ARM_CMSIS/CMSIS/DSP/Source/SVMFunctions/arm_svm_polynomial_predict_f32.c ****         /*
 253:Middlewares/Third_Party/ARM_CMSIS/CMSIS/DSP/Source/SVMFunctions/arm_svm_polynomial_predict_f32.c ****          * Initialize the vector pointer
 254:Middlewares/Third_Party/ARM_CMSIS/CMSIS/DSP/Source/SVMFunctions/arm_svm_polynomial_predict_f32.c ****          */
 255:Middlewares/Third_Party/ARM_CMSIS/CMSIS/DSP/Source/SVMFunctions/arm_svm_polynomial_predict_f32.c ****         pInVec = pSrcVecPtr;
 256:Middlewares/Third_Party/ARM_CMSIS/CMSIS/DSP/Source/SVMFunctions/arm_svm_polynomial_predict_f32.c ****         /*
 257:Middlewares/Third_Party/ARM_CMSIS/CMSIS/DSP/Source/SVMFunctions/arm_svm_polynomial_predict_f32.c ****          * reset accumulators
 258:Middlewares/Third_Party/ARM_CMSIS/CMSIS/DSP/Source/SVMFunctions/arm_svm_polynomial_predict_f32.c ****          */
 259:Middlewares/Third_Party/ARM_CMSIS/CMSIS/DSP/Source/SVMFunctions/arm_svm_polynomial_predict_f32.c ****         acc0 = vdupq_n_f32(0.0f);
 260:Middlewares/Third_Party/ARM_CMSIS/CMSIS/DSP/Source/SVMFunctions/arm_svm_polynomial_predict_f32.c **** 
ARM GAS  C:\Users\7636~1\AppData\Local\Temp\cc7HvPcb.s 			page 21


 261:Middlewares/Third_Party/ARM_CMSIS/CMSIS/DSP/Source/SVMFunctions/arm_svm_polynomial_predict_f32.c ****         pSrcA0Vec = pInA0;
 262:Middlewares/Third_Party/ARM_CMSIS/CMSIS/DSP/Source/SVMFunctions/arm_svm_polynomial_predict_f32.c **** 
 263:Middlewares/Third_Party/ARM_CMSIS/CMSIS/DSP/Source/SVMFunctions/arm_svm_polynomial_predict_f32.c ****         blkCnt = numCols >> 2;
 264:Middlewares/Third_Party/ARM_CMSIS/CMSIS/DSP/Source/SVMFunctions/arm_svm_polynomial_predict_f32.c ****         while (blkCnt > 0U) {
 265:Middlewares/Third_Party/ARM_CMSIS/CMSIS/DSP/Source/SVMFunctions/arm_svm_polynomial_predict_f32.c ****             f32x4_t         vecA;
 266:Middlewares/Third_Party/ARM_CMSIS/CMSIS/DSP/Source/SVMFunctions/arm_svm_polynomial_predict_f32.c **** 
 267:Middlewares/Third_Party/ARM_CMSIS/CMSIS/DSP/Source/SVMFunctions/arm_svm_polynomial_predict_f32.c ****             vecIn = vld1q(pInVec);
 268:Middlewares/Third_Party/ARM_CMSIS/CMSIS/DSP/Source/SVMFunctions/arm_svm_polynomial_predict_f32.c ****             pInVec += 4;
 269:Middlewares/Third_Party/ARM_CMSIS/CMSIS/DSP/Source/SVMFunctions/arm_svm_polynomial_predict_f32.c ****             vecA = vld1q(pSrcA0Vec);
 270:Middlewares/Third_Party/ARM_CMSIS/CMSIS/DSP/Source/SVMFunctions/arm_svm_polynomial_predict_f32.c ****             pSrcA0Vec += 4;
 271:Middlewares/Third_Party/ARM_CMSIS/CMSIS/DSP/Source/SVMFunctions/arm_svm_polynomial_predict_f32.c ****             acc0 = vfmaq(acc0, vecIn, vecA);
 272:Middlewares/Third_Party/ARM_CMSIS/CMSIS/DSP/Source/SVMFunctions/arm_svm_polynomial_predict_f32.c **** 
 273:Middlewares/Third_Party/ARM_CMSIS/CMSIS/DSP/Source/SVMFunctions/arm_svm_polynomial_predict_f32.c ****             blkCnt--;
 274:Middlewares/Third_Party/ARM_CMSIS/CMSIS/DSP/Source/SVMFunctions/arm_svm_polynomial_predict_f32.c ****         }
 275:Middlewares/Third_Party/ARM_CMSIS/CMSIS/DSP/Source/SVMFunctions/arm_svm_polynomial_predict_f32.c ****         /*
 276:Middlewares/Third_Party/ARM_CMSIS/CMSIS/DSP/Source/SVMFunctions/arm_svm_polynomial_predict_f32.c ****          * tail
 277:Middlewares/Third_Party/ARM_CMSIS/CMSIS/DSP/Source/SVMFunctions/arm_svm_polynomial_predict_f32.c ****          * (will be merged thru tail predication)
 278:Middlewares/Third_Party/ARM_CMSIS/CMSIS/DSP/Source/SVMFunctions/arm_svm_polynomial_predict_f32.c ****          */
 279:Middlewares/Third_Party/ARM_CMSIS/CMSIS/DSP/Source/SVMFunctions/arm_svm_polynomial_predict_f32.c ****         blkCnt = numCols & 3;
 280:Middlewares/Third_Party/ARM_CMSIS/CMSIS/DSP/Source/SVMFunctions/arm_svm_polynomial_predict_f32.c ****         if (blkCnt > 0U) {
 281:Middlewares/Third_Party/ARM_CMSIS/CMSIS/DSP/Source/SVMFunctions/arm_svm_polynomial_predict_f32.c ****             mve_pred16_t    p0 = vctp32q(blkCnt);
 282:Middlewares/Third_Party/ARM_CMSIS/CMSIS/DSP/Source/SVMFunctions/arm_svm_polynomial_predict_f32.c ****             f32x4_t         vecA;
 283:Middlewares/Third_Party/ARM_CMSIS/CMSIS/DSP/Source/SVMFunctions/arm_svm_polynomial_predict_f32.c **** 
 284:Middlewares/Third_Party/ARM_CMSIS/CMSIS/DSP/Source/SVMFunctions/arm_svm_polynomial_predict_f32.c ****             vecIn = vldrwq_z_f32(pInVec, p0);
 285:Middlewares/Third_Party/ARM_CMSIS/CMSIS/DSP/Source/SVMFunctions/arm_svm_polynomial_predict_f32.c ****             vecA = vldrwq_z_f32(pSrcA0Vec, p0);
 286:Middlewares/Third_Party/ARM_CMSIS/CMSIS/DSP/Source/SVMFunctions/arm_svm_polynomial_predict_f32.c ****             acc0 = vfmaq(acc0, vecIn, vecA);
 287:Middlewares/Third_Party/ARM_CMSIS/CMSIS/DSP/Source/SVMFunctions/arm_svm_polynomial_predict_f32.c ****         }
 288:Middlewares/Third_Party/ARM_CMSIS/CMSIS/DSP/Source/SVMFunctions/arm_svm_polynomial_predict_f32.c ****         /*
 289:Middlewares/Third_Party/ARM_CMSIS/CMSIS/DSP/Source/SVMFunctions/arm_svm_polynomial_predict_f32.c ****          * Sum the partial parts
 290:Middlewares/Third_Party/ARM_CMSIS/CMSIS/DSP/Source/SVMFunctions/arm_svm_polynomial_predict_f32.c ****          */
 291:Middlewares/Third_Party/ARM_CMSIS/CMSIS/DSP/Source/SVMFunctions/arm_svm_polynomial_predict_f32.c ****         f32x4_t         vtmp = vuninitializedq_f32();
 292:Middlewares/Third_Party/ARM_CMSIS/CMSIS/DSP/Source/SVMFunctions/arm_svm_polynomial_predict_f32.c ****         vtmp = vsetq_lane(vecAddAcrossF32Mve(acc0), vtmp, 0);
 293:Middlewares/Third_Party/ARM_CMSIS/CMSIS/DSP/Source/SVMFunctions/arm_svm_polynomial_predict_f32.c ****         vSum = vfmaq_m_f32(vSum, vld1q(pDualCoef),
 294:Middlewares/Third_Party/ARM_CMSIS/CMSIS/DSP/Source/SVMFunctions/arm_svm_polynomial_predict_f32.c ****                              arm_vec_exponent_f32
 295:Middlewares/Third_Party/ARM_CMSIS/CMSIS/DSP/Source/SVMFunctions/arm_svm_polynomial_predict_f32.c ****                              (vaddq_n_f32(vmulq_n_f32(vtmp, S->gamma), S->coef0), S->degree), 
 296:Middlewares/Third_Party/ARM_CMSIS/CMSIS/DSP/Source/SVMFunctions/arm_svm_polynomial_predict_f32.c ****                              vctp32q(1));
 297:Middlewares/Third_Party/ARM_CMSIS/CMSIS/DSP/Source/SVMFunctions/arm_svm_polynomial_predict_f32.c ****     }
 298:Middlewares/Third_Party/ARM_CMSIS/CMSIS/DSP/Source/SVMFunctions/arm_svm_polynomial_predict_f32.c ****     sum += vecAddAcrossF32Mve(vSum);
 299:Middlewares/Third_Party/ARM_CMSIS/CMSIS/DSP/Source/SVMFunctions/arm_svm_polynomial_predict_f32.c **** 
 300:Middlewares/Third_Party/ARM_CMSIS/CMSIS/DSP/Source/SVMFunctions/arm_svm_polynomial_predict_f32.c ****     
 301:Middlewares/Third_Party/ARM_CMSIS/CMSIS/DSP/Source/SVMFunctions/arm_svm_polynomial_predict_f32.c ****     *pResult = S->classes[STEP(sum)];
 302:Middlewares/Third_Party/ARM_CMSIS/CMSIS/DSP/Source/SVMFunctions/arm_svm_polynomial_predict_f32.c **** }
 303:Middlewares/Third_Party/ARM_CMSIS/CMSIS/DSP/Source/SVMFunctions/arm_svm_polynomial_predict_f32.c **** 
 304:Middlewares/Third_Party/ARM_CMSIS/CMSIS/DSP/Source/SVMFunctions/arm_svm_polynomial_predict_f32.c **** #else
 305:Middlewares/Third_Party/ARM_CMSIS/CMSIS/DSP/Source/SVMFunctions/arm_svm_polynomial_predict_f32.c **** #if defined(ARM_MATH_NEON)
 306:Middlewares/Third_Party/ARM_CMSIS/CMSIS/DSP/Source/SVMFunctions/arm_svm_polynomial_predict_f32.c **** void arm_svm_polynomial_predict_f32(
 307:Middlewares/Third_Party/ARM_CMSIS/CMSIS/DSP/Source/SVMFunctions/arm_svm_polynomial_predict_f32.c ****     const arm_svm_polynomial_instance_f32 *S,
 308:Middlewares/Third_Party/ARM_CMSIS/CMSIS/DSP/Source/SVMFunctions/arm_svm_polynomial_predict_f32.c ****     const float32_t * in,
 309:Middlewares/Third_Party/ARM_CMSIS/CMSIS/DSP/Source/SVMFunctions/arm_svm_polynomial_predict_f32.c ****     int32_t * pResult)
 310:Middlewares/Third_Party/ARM_CMSIS/CMSIS/DSP/Source/SVMFunctions/arm_svm_polynomial_predict_f32.c **** {
 311:Middlewares/Third_Party/ARM_CMSIS/CMSIS/DSP/Source/SVMFunctions/arm_svm_polynomial_predict_f32.c ****     float32_t sum = S->intercept;
 312:Middlewares/Third_Party/ARM_CMSIS/CMSIS/DSP/Source/SVMFunctions/arm_svm_polynomial_predict_f32.c ****    
 313:Middlewares/Third_Party/ARM_CMSIS/CMSIS/DSP/Source/SVMFunctions/arm_svm_polynomial_predict_f32.c ****     float32_t dot;
 314:Middlewares/Third_Party/ARM_CMSIS/CMSIS/DSP/Source/SVMFunctions/arm_svm_polynomial_predict_f32.c ****     float32x4_t dotV; 
 315:Middlewares/Third_Party/ARM_CMSIS/CMSIS/DSP/Source/SVMFunctions/arm_svm_polynomial_predict_f32.c **** 
 316:Middlewares/Third_Party/ARM_CMSIS/CMSIS/DSP/Source/SVMFunctions/arm_svm_polynomial_predict_f32.c ****     float32x4_t accuma,accumb,accumc,accumd,accum;
 317:Middlewares/Third_Party/ARM_CMSIS/CMSIS/DSP/Source/SVMFunctions/arm_svm_polynomial_predict_f32.c ****     float32x2_t accum2;
ARM GAS  C:\Users\7636~1\AppData\Local\Temp\cc7HvPcb.s 			page 22


 318:Middlewares/Third_Party/ARM_CMSIS/CMSIS/DSP/Source/SVMFunctions/arm_svm_polynomial_predict_f32.c ****     float32x4_t vec1;
 319:Middlewares/Third_Party/ARM_CMSIS/CMSIS/DSP/Source/SVMFunctions/arm_svm_polynomial_predict_f32.c ****     float32x4_t coef0 = vdupq_n_f32(S->coef0);
 320:Middlewares/Third_Party/ARM_CMSIS/CMSIS/DSP/Source/SVMFunctions/arm_svm_polynomial_predict_f32.c **** 
 321:Middlewares/Third_Party/ARM_CMSIS/CMSIS/DSP/Source/SVMFunctions/arm_svm_polynomial_predict_f32.c ****     float32x4_t vec2,vec2a,vec2b,vec2c,vec2d;
 322:Middlewares/Third_Party/ARM_CMSIS/CMSIS/DSP/Source/SVMFunctions/arm_svm_polynomial_predict_f32.c **** 
 323:Middlewares/Third_Party/ARM_CMSIS/CMSIS/DSP/Source/SVMFunctions/arm_svm_polynomial_predict_f32.c ****     uint32_t blkCnt;   
 324:Middlewares/Third_Party/ARM_CMSIS/CMSIS/DSP/Source/SVMFunctions/arm_svm_polynomial_predict_f32.c ****     uint32_t vectorBlkCnt;   
 325:Middlewares/Third_Party/ARM_CMSIS/CMSIS/DSP/Source/SVMFunctions/arm_svm_polynomial_predict_f32.c **** 
 326:Middlewares/Third_Party/ARM_CMSIS/CMSIS/DSP/Source/SVMFunctions/arm_svm_polynomial_predict_f32.c ****     const float32_t *pIn = in;
 327:Middlewares/Third_Party/ARM_CMSIS/CMSIS/DSP/Source/SVMFunctions/arm_svm_polynomial_predict_f32.c **** 
 328:Middlewares/Third_Party/ARM_CMSIS/CMSIS/DSP/Source/SVMFunctions/arm_svm_polynomial_predict_f32.c ****     const float32_t *pSupport = S->supportVectors;
 329:Middlewares/Third_Party/ARM_CMSIS/CMSIS/DSP/Source/SVMFunctions/arm_svm_polynomial_predict_f32.c **** 
 330:Middlewares/Third_Party/ARM_CMSIS/CMSIS/DSP/Source/SVMFunctions/arm_svm_polynomial_predict_f32.c ****     const float32_t *pSupporta = S->supportVectors;
 331:Middlewares/Third_Party/ARM_CMSIS/CMSIS/DSP/Source/SVMFunctions/arm_svm_polynomial_predict_f32.c ****     const float32_t *pSupportb;
 332:Middlewares/Third_Party/ARM_CMSIS/CMSIS/DSP/Source/SVMFunctions/arm_svm_polynomial_predict_f32.c ****     const float32_t *pSupportc;
 333:Middlewares/Third_Party/ARM_CMSIS/CMSIS/DSP/Source/SVMFunctions/arm_svm_polynomial_predict_f32.c ****     const float32_t *pSupportd;
 334:Middlewares/Third_Party/ARM_CMSIS/CMSIS/DSP/Source/SVMFunctions/arm_svm_polynomial_predict_f32.c **** 
 335:Middlewares/Third_Party/ARM_CMSIS/CMSIS/DSP/Source/SVMFunctions/arm_svm_polynomial_predict_f32.c ****     pSupportb = pSupporta + S->vectorDimension;
 336:Middlewares/Third_Party/ARM_CMSIS/CMSIS/DSP/Source/SVMFunctions/arm_svm_polynomial_predict_f32.c ****     pSupportc = pSupportb + S->vectorDimension;
 337:Middlewares/Third_Party/ARM_CMSIS/CMSIS/DSP/Source/SVMFunctions/arm_svm_polynomial_predict_f32.c ****     pSupportd = pSupportc + S->vectorDimension;
 338:Middlewares/Third_Party/ARM_CMSIS/CMSIS/DSP/Source/SVMFunctions/arm_svm_polynomial_predict_f32.c **** 
 339:Middlewares/Third_Party/ARM_CMSIS/CMSIS/DSP/Source/SVMFunctions/arm_svm_polynomial_predict_f32.c ****     const float32_t *pDualCoefs = S->dualCoefficients;
 340:Middlewares/Third_Party/ARM_CMSIS/CMSIS/DSP/Source/SVMFunctions/arm_svm_polynomial_predict_f32.c **** 
 341:Middlewares/Third_Party/ARM_CMSIS/CMSIS/DSP/Source/SVMFunctions/arm_svm_polynomial_predict_f32.c ****     vectorBlkCnt = S->nbOfSupportVectors >> 2;
 342:Middlewares/Third_Party/ARM_CMSIS/CMSIS/DSP/Source/SVMFunctions/arm_svm_polynomial_predict_f32.c ****     while (vectorBlkCnt > 0U)
 343:Middlewares/Third_Party/ARM_CMSIS/CMSIS/DSP/Source/SVMFunctions/arm_svm_polynomial_predict_f32.c ****     {
 344:Middlewares/Third_Party/ARM_CMSIS/CMSIS/DSP/Source/SVMFunctions/arm_svm_polynomial_predict_f32.c ****         accuma = vdupq_n_f32(0);
 345:Middlewares/Third_Party/ARM_CMSIS/CMSIS/DSP/Source/SVMFunctions/arm_svm_polynomial_predict_f32.c ****         accumb = vdupq_n_f32(0);
 346:Middlewares/Third_Party/ARM_CMSIS/CMSIS/DSP/Source/SVMFunctions/arm_svm_polynomial_predict_f32.c ****         accumc = vdupq_n_f32(0);
 347:Middlewares/Third_Party/ARM_CMSIS/CMSIS/DSP/Source/SVMFunctions/arm_svm_polynomial_predict_f32.c ****         accumd = vdupq_n_f32(0);
 348:Middlewares/Third_Party/ARM_CMSIS/CMSIS/DSP/Source/SVMFunctions/arm_svm_polynomial_predict_f32.c **** 
 349:Middlewares/Third_Party/ARM_CMSIS/CMSIS/DSP/Source/SVMFunctions/arm_svm_polynomial_predict_f32.c ****         pIn = in;
 350:Middlewares/Third_Party/ARM_CMSIS/CMSIS/DSP/Source/SVMFunctions/arm_svm_polynomial_predict_f32.c **** 
 351:Middlewares/Third_Party/ARM_CMSIS/CMSIS/DSP/Source/SVMFunctions/arm_svm_polynomial_predict_f32.c ****         blkCnt = S->vectorDimension >> 2;
 352:Middlewares/Third_Party/ARM_CMSIS/CMSIS/DSP/Source/SVMFunctions/arm_svm_polynomial_predict_f32.c ****         while (blkCnt > 0U)
 353:Middlewares/Third_Party/ARM_CMSIS/CMSIS/DSP/Source/SVMFunctions/arm_svm_polynomial_predict_f32.c ****         {
 354:Middlewares/Third_Party/ARM_CMSIS/CMSIS/DSP/Source/SVMFunctions/arm_svm_polynomial_predict_f32.c ****         
 355:Middlewares/Third_Party/ARM_CMSIS/CMSIS/DSP/Source/SVMFunctions/arm_svm_polynomial_predict_f32.c ****             vec1 = vld1q_f32(pIn);
 356:Middlewares/Third_Party/ARM_CMSIS/CMSIS/DSP/Source/SVMFunctions/arm_svm_polynomial_predict_f32.c ****             vec2a = vld1q_f32(pSupporta);
 357:Middlewares/Third_Party/ARM_CMSIS/CMSIS/DSP/Source/SVMFunctions/arm_svm_polynomial_predict_f32.c ****             vec2b = vld1q_f32(pSupportb);
 358:Middlewares/Third_Party/ARM_CMSIS/CMSIS/DSP/Source/SVMFunctions/arm_svm_polynomial_predict_f32.c ****             vec2c = vld1q_f32(pSupportc);
 359:Middlewares/Third_Party/ARM_CMSIS/CMSIS/DSP/Source/SVMFunctions/arm_svm_polynomial_predict_f32.c ****             vec2d = vld1q_f32(pSupportd);
 360:Middlewares/Third_Party/ARM_CMSIS/CMSIS/DSP/Source/SVMFunctions/arm_svm_polynomial_predict_f32.c **** 
 361:Middlewares/Third_Party/ARM_CMSIS/CMSIS/DSP/Source/SVMFunctions/arm_svm_polynomial_predict_f32.c ****             pIn += 4;
 362:Middlewares/Third_Party/ARM_CMSIS/CMSIS/DSP/Source/SVMFunctions/arm_svm_polynomial_predict_f32.c ****             pSupporta += 4;
 363:Middlewares/Third_Party/ARM_CMSIS/CMSIS/DSP/Source/SVMFunctions/arm_svm_polynomial_predict_f32.c ****             pSupportb += 4;
 364:Middlewares/Third_Party/ARM_CMSIS/CMSIS/DSP/Source/SVMFunctions/arm_svm_polynomial_predict_f32.c ****             pSupportc += 4;
 365:Middlewares/Third_Party/ARM_CMSIS/CMSIS/DSP/Source/SVMFunctions/arm_svm_polynomial_predict_f32.c ****             pSupportd += 4;
 366:Middlewares/Third_Party/ARM_CMSIS/CMSIS/DSP/Source/SVMFunctions/arm_svm_polynomial_predict_f32.c **** 
 367:Middlewares/Third_Party/ARM_CMSIS/CMSIS/DSP/Source/SVMFunctions/arm_svm_polynomial_predict_f32.c ****             accuma = vmlaq_f32(accuma, vec1,vec2a);
 368:Middlewares/Third_Party/ARM_CMSIS/CMSIS/DSP/Source/SVMFunctions/arm_svm_polynomial_predict_f32.c ****             accumb = vmlaq_f32(accumb, vec1,vec2b);
 369:Middlewares/Third_Party/ARM_CMSIS/CMSIS/DSP/Source/SVMFunctions/arm_svm_polynomial_predict_f32.c ****             accumc = vmlaq_f32(accumc, vec1,vec2c);
 370:Middlewares/Third_Party/ARM_CMSIS/CMSIS/DSP/Source/SVMFunctions/arm_svm_polynomial_predict_f32.c ****             accumd = vmlaq_f32(accumd, vec1,vec2d);
 371:Middlewares/Third_Party/ARM_CMSIS/CMSIS/DSP/Source/SVMFunctions/arm_svm_polynomial_predict_f32.c **** 
 372:Middlewares/Third_Party/ARM_CMSIS/CMSIS/DSP/Source/SVMFunctions/arm_svm_polynomial_predict_f32.c ****             blkCnt -- ;
 373:Middlewares/Third_Party/ARM_CMSIS/CMSIS/DSP/Source/SVMFunctions/arm_svm_polynomial_predict_f32.c ****         }
 374:Middlewares/Third_Party/ARM_CMSIS/CMSIS/DSP/Source/SVMFunctions/arm_svm_polynomial_predict_f32.c ****         accum2 = vpadd_f32(vget_low_f32(accuma),vget_high_f32(accuma));
ARM GAS  C:\Users\7636~1\AppData\Local\Temp\cc7HvPcb.s 			page 23


 375:Middlewares/Third_Party/ARM_CMSIS/CMSIS/DSP/Source/SVMFunctions/arm_svm_polynomial_predict_f32.c ****         dotV = vsetq_lane_f32(vget_lane_f32(accum2, 0) + vget_lane_f32(accum2, 1),dotV,0);
 376:Middlewares/Third_Party/ARM_CMSIS/CMSIS/DSP/Source/SVMFunctions/arm_svm_polynomial_predict_f32.c **** 
 377:Middlewares/Third_Party/ARM_CMSIS/CMSIS/DSP/Source/SVMFunctions/arm_svm_polynomial_predict_f32.c ****         accum2 = vpadd_f32(vget_low_f32(accumb),vget_high_f32(accumb));
 378:Middlewares/Third_Party/ARM_CMSIS/CMSIS/DSP/Source/SVMFunctions/arm_svm_polynomial_predict_f32.c ****         dotV = vsetq_lane_f32(vget_lane_f32(accum2, 0) + vget_lane_f32(accum2, 1),dotV,1);
 379:Middlewares/Third_Party/ARM_CMSIS/CMSIS/DSP/Source/SVMFunctions/arm_svm_polynomial_predict_f32.c **** 
 380:Middlewares/Third_Party/ARM_CMSIS/CMSIS/DSP/Source/SVMFunctions/arm_svm_polynomial_predict_f32.c ****         accum2 = vpadd_f32(vget_low_f32(accumc),vget_high_f32(accumc));
 381:Middlewares/Third_Party/ARM_CMSIS/CMSIS/DSP/Source/SVMFunctions/arm_svm_polynomial_predict_f32.c ****         dotV = vsetq_lane_f32(vget_lane_f32(accum2, 0) + vget_lane_f32(accum2, 1),dotV,2);
 382:Middlewares/Third_Party/ARM_CMSIS/CMSIS/DSP/Source/SVMFunctions/arm_svm_polynomial_predict_f32.c **** 
 383:Middlewares/Third_Party/ARM_CMSIS/CMSIS/DSP/Source/SVMFunctions/arm_svm_polynomial_predict_f32.c ****         accum2 = vpadd_f32(vget_low_f32(accumd),vget_high_f32(accumd));
 384:Middlewares/Third_Party/ARM_CMSIS/CMSIS/DSP/Source/SVMFunctions/arm_svm_polynomial_predict_f32.c ****         dotV = vsetq_lane_f32(vget_lane_f32(accum2, 0) + vget_lane_f32(accum2, 1),dotV,3);
 385:Middlewares/Third_Party/ARM_CMSIS/CMSIS/DSP/Source/SVMFunctions/arm_svm_polynomial_predict_f32.c **** 
 386:Middlewares/Third_Party/ARM_CMSIS/CMSIS/DSP/Source/SVMFunctions/arm_svm_polynomial_predict_f32.c **** 
 387:Middlewares/Third_Party/ARM_CMSIS/CMSIS/DSP/Source/SVMFunctions/arm_svm_polynomial_predict_f32.c ****         blkCnt = S->vectorDimension & 3;
 388:Middlewares/Third_Party/ARM_CMSIS/CMSIS/DSP/Source/SVMFunctions/arm_svm_polynomial_predict_f32.c ****         while (blkCnt > 0U)
 389:Middlewares/Third_Party/ARM_CMSIS/CMSIS/DSP/Source/SVMFunctions/arm_svm_polynomial_predict_f32.c ****         {
 390:Middlewares/Third_Party/ARM_CMSIS/CMSIS/DSP/Source/SVMFunctions/arm_svm_polynomial_predict_f32.c ****             dotV = vsetq_lane_f32(vgetq_lane_f32(dotV,0) + *pIn * *pSupporta++, dotV,0);
 391:Middlewares/Third_Party/ARM_CMSIS/CMSIS/DSP/Source/SVMFunctions/arm_svm_polynomial_predict_f32.c ****             dotV = vsetq_lane_f32(vgetq_lane_f32(dotV,1) + *pIn * *pSupportb++, dotV,1);
 392:Middlewares/Third_Party/ARM_CMSIS/CMSIS/DSP/Source/SVMFunctions/arm_svm_polynomial_predict_f32.c ****             dotV = vsetq_lane_f32(vgetq_lane_f32(dotV,2) + *pIn * *pSupportc++, dotV,2);
 393:Middlewares/Third_Party/ARM_CMSIS/CMSIS/DSP/Source/SVMFunctions/arm_svm_polynomial_predict_f32.c ****             dotV = vsetq_lane_f32(vgetq_lane_f32(dotV,3) + *pIn * *pSupportd++, dotV,3);
 394:Middlewares/Third_Party/ARM_CMSIS/CMSIS/DSP/Source/SVMFunctions/arm_svm_polynomial_predict_f32.c **** 
 395:Middlewares/Third_Party/ARM_CMSIS/CMSIS/DSP/Source/SVMFunctions/arm_svm_polynomial_predict_f32.c ****             pIn++;
 396:Middlewares/Third_Party/ARM_CMSIS/CMSIS/DSP/Source/SVMFunctions/arm_svm_polynomial_predict_f32.c **** 
 397:Middlewares/Third_Party/ARM_CMSIS/CMSIS/DSP/Source/SVMFunctions/arm_svm_polynomial_predict_f32.c ****             blkCnt -- ;
 398:Middlewares/Third_Party/ARM_CMSIS/CMSIS/DSP/Source/SVMFunctions/arm_svm_polynomial_predict_f32.c ****         }
 399:Middlewares/Third_Party/ARM_CMSIS/CMSIS/DSP/Source/SVMFunctions/arm_svm_polynomial_predict_f32.c **** 
 400:Middlewares/Third_Party/ARM_CMSIS/CMSIS/DSP/Source/SVMFunctions/arm_svm_polynomial_predict_f32.c ****         vec1 = vld1q_f32(pDualCoefs);
 401:Middlewares/Third_Party/ARM_CMSIS/CMSIS/DSP/Source/SVMFunctions/arm_svm_polynomial_predict_f32.c ****         pDualCoefs += 4; 
 402:Middlewares/Third_Party/ARM_CMSIS/CMSIS/DSP/Source/SVMFunctions/arm_svm_polynomial_predict_f32.c **** 
 403:Middlewares/Third_Party/ARM_CMSIS/CMSIS/DSP/Source/SVMFunctions/arm_svm_polynomial_predict_f32.c ****         // To vectorize later
 404:Middlewares/Third_Party/ARM_CMSIS/CMSIS/DSP/Source/SVMFunctions/arm_svm_polynomial_predict_f32.c ****         dotV = vmulq_n_f32(dotV, S->gamma);
 405:Middlewares/Third_Party/ARM_CMSIS/CMSIS/DSP/Source/SVMFunctions/arm_svm_polynomial_predict_f32.c ****         dotV = vaddq_f32(dotV, coef0);
 406:Middlewares/Third_Party/ARM_CMSIS/CMSIS/DSP/Source/SVMFunctions/arm_svm_polynomial_predict_f32.c **** 
 407:Middlewares/Third_Party/ARM_CMSIS/CMSIS/DSP/Source/SVMFunctions/arm_svm_polynomial_predict_f32.c ****         dotV = arm_vec_exponent_f32(dotV,S->degree);
 408:Middlewares/Third_Party/ARM_CMSIS/CMSIS/DSP/Source/SVMFunctions/arm_svm_polynomial_predict_f32.c **** 
 409:Middlewares/Third_Party/ARM_CMSIS/CMSIS/DSP/Source/SVMFunctions/arm_svm_polynomial_predict_f32.c ****         accum = vmulq_f32(vec1,dotV);
 410:Middlewares/Third_Party/ARM_CMSIS/CMSIS/DSP/Source/SVMFunctions/arm_svm_polynomial_predict_f32.c ****         accum2 = vpadd_f32(vget_low_f32(accum),vget_high_f32(accum));
 411:Middlewares/Third_Party/ARM_CMSIS/CMSIS/DSP/Source/SVMFunctions/arm_svm_polynomial_predict_f32.c ****         sum += vget_lane_f32(accum2, 0) + vget_lane_f32(accum2, 1);
 412:Middlewares/Third_Party/ARM_CMSIS/CMSIS/DSP/Source/SVMFunctions/arm_svm_polynomial_predict_f32.c **** 
 413:Middlewares/Third_Party/ARM_CMSIS/CMSIS/DSP/Source/SVMFunctions/arm_svm_polynomial_predict_f32.c ****         pSupporta += 3*S->vectorDimension;
 414:Middlewares/Third_Party/ARM_CMSIS/CMSIS/DSP/Source/SVMFunctions/arm_svm_polynomial_predict_f32.c ****         pSupportb += 3*S->vectorDimension;
 415:Middlewares/Third_Party/ARM_CMSIS/CMSIS/DSP/Source/SVMFunctions/arm_svm_polynomial_predict_f32.c ****         pSupportc += 3*S->vectorDimension;
 416:Middlewares/Third_Party/ARM_CMSIS/CMSIS/DSP/Source/SVMFunctions/arm_svm_polynomial_predict_f32.c ****         pSupportd += 3*S->vectorDimension;
 417:Middlewares/Third_Party/ARM_CMSIS/CMSIS/DSP/Source/SVMFunctions/arm_svm_polynomial_predict_f32.c **** 
 418:Middlewares/Third_Party/ARM_CMSIS/CMSIS/DSP/Source/SVMFunctions/arm_svm_polynomial_predict_f32.c ****         vectorBlkCnt -- ;
 419:Middlewares/Third_Party/ARM_CMSIS/CMSIS/DSP/Source/SVMFunctions/arm_svm_polynomial_predict_f32.c ****     }
 420:Middlewares/Third_Party/ARM_CMSIS/CMSIS/DSP/Source/SVMFunctions/arm_svm_polynomial_predict_f32.c **** 
 421:Middlewares/Third_Party/ARM_CMSIS/CMSIS/DSP/Source/SVMFunctions/arm_svm_polynomial_predict_f32.c ****     pSupport = pSupporta;
 422:Middlewares/Third_Party/ARM_CMSIS/CMSIS/DSP/Source/SVMFunctions/arm_svm_polynomial_predict_f32.c ****     vectorBlkCnt = S->nbOfSupportVectors & 3;
 423:Middlewares/Third_Party/ARM_CMSIS/CMSIS/DSP/Source/SVMFunctions/arm_svm_polynomial_predict_f32.c **** 
 424:Middlewares/Third_Party/ARM_CMSIS/CMSIS/DSP/Source/SVMFunctions/arm_svm_polynomial_predict_f32.c ****     while (vectorBlkCnt > 0U)
 425:Middlewares/Third_Party/ARM_CMSIS/CMSIS/DSP/Source/SVMFunctions/arm_svm_polynomial_predict_f32.c ****     {
 426:Middlewares/Third_Party/ARM_CMSIS/CMSIS/DSP/Source/SVMFunctions/arm_svm_polynomial_predict_f32.c ****         accum = vdupq_n_f32(0);
 427:Middlewares/Third_Party/ARM_CMSIS/CMSIS/DSP/Source/SVMFunctions/arm_svm_polynomial_predict_f32.c ****         dot = 0.0f;
 428:Middlewares/Third_Party/ARM_CMSIS/CMSIS/DSP/Source/SVMFunctions/arm_svm_polynomial_predict_f32.c ****         pIn = in;
 429:Middlewares/Third_Party/ARM_CMSIS/CMSIS/DSP/Source/SVMFunctions/arm_svm_polynomial_predict_f32.c **** 
 430:Middlewares/Third_Party/ARM_CMSIS/CMSIS/DSP/Source/SVMFunctions/arm_svm_polynomial_predict_f32.c ****         blkCnt = S->vectorDimension >> 2;
 431:Middlewares/Third_Party/ARM_CMSIS/CMSIS/DSP/Source/SVMFunctions/arm_svm_polynomial_predict_f32.c ****         while (blkCnt > 0U)
ARM GAS  C:\Users\7636~1\AppData\Local\Temp\cc7HvPcb.s 			page 24


 432:Middlewares/Third_Party/ARM_CMSIS/CMSIS/DSP/Source/SVMFunctions/arm_svm_polynomial_predict_f32.c ****         {
 433:Middlewares/Third_Party/ARM_CMSIS/CMSIS/DSP/Source/SVMFunctions/arm_svm_polynomial_predict_f32.c ****         
 434:Middlewares/Third_Party/ARM_CMSIS/CMSIS/DSP/Source/SVMFunctions/arm_svm_polynomial_predict_f32.c ****             vec1 = vld1q_f32(pIn);
 435:Middlewares/Third_Party/ARM_CMSIS/CMSIS/DSP/Source/SVMFunctions/arm_svm_polynomial_predict_f32.c ****             vec2 = vld1q_f32(pSupport);
 436:Middlewares/Third_Party/ARM_CMSIS/CMSIS/DSP/Source/SVMFunctions/arm_svm_polynomial_predict_f32.c ****             pIn += 4;
 437:Middlewares/Third_Party/ARM_CMSIS/CMSIS/DSP/Source/SVMFunctions/arm_svm_polynomial_predict_f32.c ****             pSupport += 4;
 438:Middlewares/Third_Party/ARM_CMSIS/CMSIS/DSP/Source/SVMFunctions/arm_svm_polynomial_predict_f32.c **** 
 439:Middlewares/Third_Party/ARM_CMSIS/CMSIS/DSP/Source/SVMFunctions/arm_svm_polynomial_predict_f32.c ****             accum = vmlaq_f32(accum, vec1,vec2);
 440:Middlewares/Third_Party/ARM_CMSIS/CMSIS/DSP/Source/SVMFunctions/arm_svm_polynomial_predict_f32.c **** 
 441:Middlewares/Third_Party/ARM_CMSIS/CMSIS/DSP/Source/SVMFunctions/arm_svm_polynomial_predict_f32.c ****             blkCnt -- ;
 442:Middlewares/Third_Party/ARM_CMSIS/CMSIS/DSP/Source/SVMFunctions/arm_svm_polynomial_predict_f32.c ****         }
 443:Middlewares/Third_Party/ARM_CMSIS/CMSIS/DSP/Source/SVMFunctions/arm_svm_polynomial_predict_f32.c ****         accum2 = vpadd_f32(vget_low_f32(accum),vget_high_f32(accum));
 444:Middlewares/Third_Party/ARM_CMSIS/CMSIS/DSP/Source/SVMFunctions/arm_svm_polynomial_predict_f32.c ****         dot = vget_lane_f32(accum2, 0) + vget_lane_f32(accum2, 1);
 445:Middlewares/Third_Party/ARM_CMSIS/CMSIS/DSP/Source/SVMFunctions/arm_svm_polynomial_predict_f32.c **** 
 446:Middlewares/Third_Party/ARM_CMSIS/CMSIS/DSP/Source/SVMFunctions/arm_svm_polynomial_predict_f32.c **** 
 447:Middlewares/Third_Party/ARM_CMSIS/CMSIS/DSP/Source/SVMFunctions/arm_svm_polynomial_predict_f32.c ****         blkCnt = S->vectorDimension & 3;
 448:Middlewares/Third_Party/ARM_CMSIS/CMSIS/DSP/Source/SVMFunctions/arm_svm_polynomial_predict_f32.c ****         while (blkCnt > 0U)
 449:Middlewares/Third_Party/ARM_CMSIS/CMSIS/DSP/Source/SVMFunctions/arm_svm_polynomial_predict_f32.c ****         {
 450:Middlewares/Third_Party/ARM_CMSIS/CMSIS/DSP/Source/SVMFunctions/arm_svm_polynomial_predict_f32.c ****             dot = dot + *pIn++ * *pSupport++;
 451:Middlewares/Third_Party/ARM_CMSIS/CMSIS/DSP/Source/SVMFunctions/arm_svm_polynomial_predict_f32.c **** 
 452:Middlewares/Third_Party/ARM_CMSIS/CMSIS/DSP/Source/SVMFunctions/arm_svm_polynomial_predict_f32.c ****             blkCnt -- ;
 453:Middlewares/Third_Party/ARM_CMSIS/CMSIS/DSP/Source/SVMFunctions/arm_svm_polynomial_predict_f32.c ****         }
 454:Middlewares/Third_Party/ARM_CMSIS/CMSIS/DSP/Source/SVMFunctions/arm_svm_polynomial_predict_f32.c **** 
 455:Middlewares/Third_Party/ARM_CMSIS/CMSIS/DSP/Source/SVMFunctions/arm_svm_polynomial_predict_f32.c ****         sum += *pDualCoefs++ * arm_exponent_f32(S->gamma * dot + S->coef0, S->degree);
 456:Middlewares/Third_Party/ARM_CMSIS/CMSIS/DSP/Source/SVMFunctions/arm_svm_polynomial_predict_f32.c ****         vectorBlkCnt -- ;
 457:Middlewares/Third_Party/ARM_CMSIS/CMSIS/DSP/Source/SVMFunctions/arm_svm_polynomial_predict_f32.c ****     }
 458:Middlewares/Third_Party/ARM_CMSIS/CMSIS/DSP/Source/SVMFunctions/arm_svm_polynomial_predict_f32.c **** 
 459:Middlewares/Third_Party/ARM_CMSIS/CMSIS/DSP/Source/SVMFunctions/arm_svm_polynomial_predict_f32.c ****     *pResult=S->classes[STEP(sum)];
 460:Middlewares/Third_Party/ARM_CMSIS/CMSIS/DSP/Source/SVMFunctions/arm_svm_polynomial_predict_f32.c **** }
 461:Middlewares/Third_Party/ARM_CMSIS/CMSIS/DSP/Source/SVMFunctions/arm_svm_polynomial_predict_f32.c **** #else
 462:Middlewares/Third_Party/ARM_CMSIS/CMSIS/DSP/Source/SVMFunctions/arm_svm_polynomial_predict_f32.c **** void arm_svm_polynomial_predict_f32(
 463:Middlewares/Third_Party/ARM_CMSIS/CMSIS/DSP/Source/SVMFunctions/arm_svm_polynomial_predict_f32.c ****     const arm_svm_polynomial_instance_f32 *S,
 464:Middlewares/Third_Party/ARM_CMSIS/CMSIS/DSP/Source/SVMFunctions/arm_svm_polynomial_predict_f32.c ****     const float32_t * in,
 465:Middlewares/Third_Party/ARM_CMSIS/CMSIS/DSP/Source/SVMFunctions/arm_svm_polynomial_predict_f32.c ****     int32_t * pResult)
 466:Middlewares/Third_Party/ARM_CMSIS/CMSIS/DSP/Source/SVMFunctions/arm_svm_polynomial_predict_f32.c **** {
 246              		.loc 4 466 1 is_stmt 1 view -0
 247              		.cfi_startproc
 248              		@ args = 0, pretend = 0, frame = 0
 249              		@ frame_needed = 0, uses_anonymous_args = 0
 250              		.loc 4 466 1 is_stmt 0 view .LVU76
 251 0000 30B5     		push	{r4, r5, lr}
 252              	.LCFI1:
 253              		.cfi_def_cfa_offset 12
 254              		.cfi_offset 4, -12
 255              		.cfi_offset 5, -8
 256              		.cfi_offset 14, -4
 257 0002 1446     		mov	r4, r2
 467:Middlewares/Third_Party/ARM_CMSIS/CMSIS/DSP/Source/SVMFunctions/arm_svm_polynomial_predict_f32.c ****     float32_t sum=S->intercept;
 258              		.loc 4 467 5 is_stmt 1 view .LVU77
 259              		.loc 4 467 15 is_stmt 0 view .LVU78
 260 0004 90ED026A 		vldr.32	s12, [r0, #8]
 261              	.LVL21:
 468:Middlewares/Third_Party/ARM_CMSIS/CMSIS/DSP/Source/SVMFunctions/arm_svm_polynomial_predict_f32.c ****     float32_t dot=0;
 262              		.loc 4 468 5 is_stmt 1 view .LVU79
 469:Middlewares/Third_Party/ARM_CMSIS/CMSIS/DSP/Source/SVMFunctions/arm_svm_polynomial_predict_f32.c ****     uint32_t i,j;
 263              		.loc 4 469 5 view .LVU80
 470:Middlewares/Third_Party/ARM_CMSIS/CMSIS/DSP/Source/SVMFunctions/arm_svm_polynomial_predict_f32.c ****     const float32_t *pSupport = S->supportVectors;
ARM GAS  C:\Users\7636~1\AppData\Local\Temp\cc7HvPcb.s 			page 25


 264              		.loc 4 470 5 view .LVU81
 265              		.loc 4 470 22 is_stmt 0 view .LVU82
 266 0008 0369     		ldr	r3, [r0, #16]
 267              	.LVL22:
 471:Middlewares/Third_Party/ARM_CMSIS/CMSIS/DSP/Source/SVMFunctions/arm_svm_polynomial_predict_f32.c **** 
 472:Middlewares/Third_Party/ARM_CMSIS/CMSIS/DSP/Source/SVMFunctions/arm_svm_polynomial_predict_f32.c ****     for(i=0; i < S->nbOfSupportVectors; i++)
 268              		.loc 4 472 5 is_stmt 1 view .LVU83
 269              		.loc 4 472 10 is_stmt 0 view .LVU84
 270 000a 0022     		movs	r2, #0
 271              	.LVL23:
 272              		.loc 4 472 5 view .LVU85
 273 000c 2DE0     		b	.L13
 274              	.LVL24:
 275              	.L14:
 473:Middlewares/Third_Party/ARM_CMSIS/CMSIS/DSP/Source/SVMFunctions/arm_svm_polynomial_predict_f32.c ****     {
 474:Middlewares/Third_Party/ARM_CMSIS/CMSIS/DSP/Source/SVMFunctions/arm_svm_polynomial_predict_f32.c ****         dot=0;
 475:Middlewares/Third_Party/ARM_CMSIS/CMSIS/DSP/Source/SVMFunctions/arm_svm_polynomial_predict_f32.c ****         for(j=0; j < S->vectorDimension; j++)
 476:Middlewares/Third_Party/ARM_CMSIS/CMSIS/DSP/Source/SVMFunctions/arm_svm_polynomial_predict_f32.c ****         {
 477:Middlewares/Third_Party/ARM_CMSIS/CMSIS/DSP/Source/SVMFunctions/arm_svm_polynomial_predict_f32.c ****             dot = dot + in[j]* *pSupport++;
 276              		.loc 4 477 13 is_stmt 1 discriminator 3 view .LVU86
 277              		.loc 4 477 27 is_stmt 0 discriminator 3 view .LVU87
 278 000e 01EB8C0E 		add	lr, r1, ip, lsl #2
 279 0012 DEED007A 		vldr.32	s15, [lr]
 280              	.LVL25:
 281              		.loc 4 477 32 discriminator 3 view .LVU88
 282 0016 F3EC016A 		vldmia.32	r3!, {s13}
 283              	.LVL26:
 284              		.loc 4 477 30 discriminator 3 view .LVU89
 285 001a 67EEA67A 		vmul.f32	s15, s15, s13
 286              		.loc 4 477 17 discriminator 3 view .LVU90
 287 001e 37EE277A 		vadd.f32	s14, s14, s15
 288              	.LVL27:
 475:Middlewares/Third_Party/ARM_CMSIS/CMSIS/DSP/Source/SVMFunctions/arm_svm_polynomial_predict_f32.c ****         {
 289              		.loc 4 475 42 is_stmt 1 discriminator 3 view .LVU91
 475:Middlewares/Third_Party/ARM_CMSIS/CMSIS/DSP/Source/SVMFunctions/arm_svm_polynomial_predict_f32.c ****         {
 290              		.loc 4 475 43 is_stmt 0 discriminator 3 view .LVU92
 291 0022 0CF1010C 		add	ip, ip, #1
 292              	.LVL28:
 293              	.L17:
 475:Middlewares/Third_Party/ARM_CMSIS/CMSIS/DSP/Source/SVMFunctions/arm_svm_polynomial_predict_f32.c ****         {
 294              		.loc 4 475 18 is_stmt 1 discriminator 1 view .LVU93
 475:Middlewares/Third_Party/ARM_CMSIS/CMSIS/DSP/Source/SVMFunctions/arm_svm_polynomial_predict_f32.c ****         {
 295              		.loc 4 475 9 is_stmt 0 discriminator 1 view .LVU94
 296 0026 4568     		ldr	r5, [r0, #4]
 297 0028 6545     		cmp	r5, ip
 298 002a F0D8     		bhi	.L14
 478:Middlewares/Third_Party/ARM_CMSIS/CMSIS/DSP/Source/SVMFunctions/arm_svm_polynomial_predict_f32.c ****         }
 479:Middlewares/Third_Party/ARM_CMSIS/CMSIS/DSP/Source/SVMFunctions/arm_svm_polynomial_predict_f32.c ****         sum += S->dualCoefficients[i] * arm_exponent_f32(S->gamma * dot + S->coef0, S->degree);
 299              		.loc 4 479 9 is_stmt 1 discriminator 2 view .LVU95
 300              		.loc 4 479 35 is_stmt 0 discriminator 2 view .LVU96
 301 002c C568     		ldr	r5, [r0, #12]
 302 002e 05EB820C 		add	ip, r5, r2, lsl #2
 303              	.LVL29:
 304              		.loc 4 479 35 discriminator 2 view .LVU97
 305 0032 DCED006A 		vldr.32	s13, [ip]
 306              		.loc 4 479 59 discriminator 2 view .LVU98
 307 0036 D0ED087A 		vldr.32	s15, [r0, #32]
ARM GAS  C:\Users\7636~1\AppData\Local\Temp\cc7HvPcb.s 			page 26


 308              		.loc 4 479 67 discriminator 2 view .LVU99
 309 003a 27EE877A 		vmul.f32	s14, s15, s14
 310              	.LVL30:
 311              		.loc 4 479 76 discriminator 2 view .LVU100
 312 003e D0ED077A 		vldr.32	s15, [r0, #28]
 313              		.loc 4 479 41 discriminator 2 view .LVU101
 314 0042 37EE277A 		vadd.f32	s14, s14, s15
 315              	.LVL31:
 316              	.LBB4:
 317              	.LBI4:
 318              		.file 5 "Middlewares/Third_Party/ARM_CMSIS/CMSIS/DSP/Include/dsp/svm_functions.h"
   1:Middlewares/Third_Party/ARM_CMSIS/CMSIS/DSP/Include/dsp/svm_functions.h **** /******************************************************************************
   2:Middlewares/Third_Party/ARM_CMSIS/CMSIS/DSP/Include/dsp/svm_functions.h ****  * @file     svm_functions.h
   3:Middlewares/Third_Party/ARM_CMSIS/CMSIS/DSP/Include/dsp/svm_functions.h ****  * @brief    Public header file for CMSIS DSP Library
   4:Middlewares/Third_Party/ARM_CMSIS/CMSIS/DSP/Include/dsp/svm_functions.h ****  * @version  V1.9.0
   5:Middlewares/Third_Party/ARM_CMSIS/CMSIS/DSP/Include/dsp/svm_functions.h ****  * @date     23 April 2021
   6:Middlewares/Third_Party/ARM_CMSIS/CMSIS/DSP/Include/dsp/svm_functions.h ****  * Target Processor: Cortex-M and Cortex-A cores
   7:Middlewares/Third_Party/ARM_CMSIS/CMSIS/DSP/Include/dsp/svm_functions.h ****  ******************************************************************************/
   8:Middlewares/Third_Party/ARM_CMSIS/CMSIS/DSP/Include/dsp/svm_functions.h **** /*
   9:Middlewares/Third_Party/ARM_CMSIS/CMSIS/DSP/Include/dsp/svm_functions.h ****  * Copyright (c) 2010-2020 Arm Limited or its affiliates. All rights reserved.
  10:Middlewares/Third_Party/ARM_CMSIS/CMSIS/DSP/Include/dsp/svm_functions.h ****  *
  11:Middlewares/Third_Party/ARM_CMSIS/CMSIS/DSP/Include/dsp/svm_functions.h ****  * SPDX-License-Identifier: Apache-2.0
  12:Middlewares/Third_Party/ARM_CMSIS/CMSIS/DSP/Include/dsp/svm_functions.h ****  *
  13:Middlewares/Third_Party/ARM_CMSIS/CMSIS/DSP/Include/dsp/svm_functions.h ****  * Licensed under the Apache License, Version 2.0 (the License); you may
  14:Middlewares/Third_Party/ARM_CMSIS/CMSIS/DSP/Include/dsp/svm_functions.h ****  * not use this file except in compliance with the License.
  15:Middlewares/Third_Party/ARM_CMSIS/CMSIS/DSP/Include/dsp/svm_functions.h ****  * You may obtain a copy of the License at
  16:Middlewares/Third_Party/ARM_CMSIS/CMSIS/DSP/Include/dsp/svm_functions.h ****  *
  17:Middlewares/Third_Party/ARM_CMSIS/CMSIS/DSP/Include/dsp/svm_functions.h ****  * www.apache.org/licenses/LICENSE-2.0
  18:Middlewares/Third_Party/ARM_CMSIS/CMSIS/DSP/Include/dsp/svm_functions.h ****  *
  19:Middlewares/Third_Party/ARM_CMSIS/CMSIS/DSP/Include/dsp/svm_functions.h ****  * Unless required by applicable law or agreed to in writing, software
  20:Middlewares/Third_Party/ARM_CMSIS/CMSIS/DSP/Include/dsp/svm_functions.h ****  * distributed under the License is distributed on an AS IS BASIS, WITHOUT
  21:Middlewares/Third_Party/ARM_CMSIS/CMSIS/DSP/Include/dsp/svm_functions.h ****  * WARRANTIES OR CONDITIONS OF ANY KIND, either express or implied.
  22:Middlewares/Third_Party/ARM_CMSIS/CMSIS/DSP/Include/dsp/svm_functions.h ****  * See the License for the specific language governing permissions and
  23:Middlewares/Third_Party/ARM_CMSIS/CMSIS/DSP/Include/dsp/svm_functions.h ****  * limitations under the License.
  24:Middlewares/Third_Party/ARM_CMSIS/CMSIS/DSP/Include/dsp/svm_functions.h ****  */
  25:Middlewares/Third_Party/ARM_CMSIS/CMSIS/DSP/Include/dsp/svm_functions.h **** 
  26:Middlewares/Third_Party/ARM_CMSIS/CMSIS/DSP/Include/dsp/svm_functions.h ****  
  27:Middlewares/Third_Party/ARM_CMSIS/CMSIS/DSP/Include/dsp/svm_functions.h **** #ifndef _SVM_FUNCTIONS_H_
  28:Middlewares/Third_Party/ARM_CMSIS/CMSIS/DSP/Include/dsp/svm_functions.h **** #define _SVM_FUNCTIONS_H_
  29:Middlewares/Third_Party/ARM_CMSIS/CMSIS/DSP/Include/dsp/svm_functions.h **** 
  30:Middlewares/Third_Party/ARM_CMSIS/CMSIS/DSP/Include/dsp/svm_functions.h **** #include "arm_math_types.h"
  31:Middlewares/Third_Party/ARM_CMSIS/CMSIS/DSP/Include/dsp/svm_functions.h **** #include "arm_math_memory.h"
  32:Middlewares/Third_Party/ARM_CMSIS/CMSIS/DSP/Include/dsp/svm_functions.h **** 
  33:Middlewares/Third_Party/ARM_CMSIS/CMSIS/DSP/Include/dsp/svm_functions.h **** #include "dsp/none.h"
  34:Middlewares/Third_Party/ARM_CMSIS/CMSIS/DSP/Include/dsp/svm_functions.h **** #include "dsp/utils.h"
  35:Middlewares/Third_Party/ARM_CMSIS/CMSIS/DSP/Include/dsp/svm_functions.h **** #include "dsp/svm_defines.h"
  36:Middlewares/Third_Party/ARM_CMSIS/CMSIS/DSP/Include/dsp/svm_functions.h **** 
  37:Middlewares/Third_Party/ARM_CMSIS/CMSIS/DSP/Include/dsp/svm_functions.h **** #ifdef   __cplusplus
  38:Middlewares/Third_Party/ARM_CMSIS/CMSIS/DSP/Include/dsp/svm_functions.h **** extern "C"
  39:Middlewares/Third_Party/ARM_CMSIS/CMSIS/DSP/Include/dsp/svm_functions.h **** {
  40:Middlewares/Third_Party/ARM_CMSIS/CMSIS/DSP/Include/dsp/svm_functions.h **** #endif
  41:Middlewares/Third_Party/ARM_CMSIS/CMSIS/DSP/Include/dsp/svm_functions.h **** 
  42:Middlewares/Third_Party/ARM_CMSIS/CMSIS/DSP/Include/dsp/svm_functions.h **** #define STEP(x) (x) <= 0 ? 0 : 1
  43:Middlewares/Third_Party/ARM_CMSIS/CMSIS/DSP/Include/dsp/svm_functions.h **** 
  44:Middlewares/Third_Party/ARM_CMSIS/CMSIS/DSP/Include/dsp/svm_functions.h **** /**
  45:Middlewares/Third_Party/ARM_CMSIS/CMSIS/DSP/Include/dsp/svm_functions.h ****  * @defgroup groupSVM SVM Functions
  46:Middlewares/Third_Party/ARM_CMSIS/CMSIS/DSP/Include/dsp/svm_functions.h ****  * This set of functions is implementing SVM classification on 2 classes.
ARM GAS  C:\Users\7636~1\AppData\Local\Temp\cc7HvPcb.s 			page 27


  47:Middlewares/Third_Party/ARM_CMSIS/CMSIS/DSP/Include/dsp/svm_functions.h ****  * The training must be done from scikit-learn. The parameters can be easily
  48:Middlewares/Third_Party/ARM_CMSIS/CMSIS/DSP/Include/dsp/svm_functions.h ****  * generated from the scikit-learn object. Some examples are given in
  49:Middlewares/Third_Party/ARM_CMSIS/CMSIS/DSP/Include/dsp/svm_functions.h ****  * DSP/Testing/PatternGeneration/SVM.py
  50:Middlewares/Third_Party/ARM_CMSIS/CMSIS/DSP/Include/dsp/svm_functions.h ****  *
  51:Middlewares/Third_Party/ARM_CMSIS/CMSIS/DSP/Include/dsp/svm_functions.h ****  * If more than 2 classes are needed, the functions in this folder 
  52:Middlewares/Third_Party/ARM_CMSIS/CMSIS/DSP/Include/dsp/svm_functions.h ****  * will have to be used, as building blocks, to do multi-class classification.
  53:Middlewares/Third_Party/ARM_CMSIS/CMSIS/DSP/Include/dsp/svm_functions.h ****  *
  54:Middlewares/Third_Party/ARM_CMSIS/CMSIS/DSP/Include/dsp/svm_functions.h ****  * No multi-class classification is provided in this SVM folder.
  55:Middlewares/Third_Party/ARM_CMSIS/CMSIS/DSP/Include/dsp/svm_functions.h ****  * 
  56:Middlewares/Third_Party/ARM_CMSIS/CMSIS/DSP/Include/dsp/svm_functions.h ****  */
  57:Middlewares/Third_Party/ARM_CMSIS/CMSIS/DSP/Include/dsp/svm_functions.h **** 
  58:Middlewares/Third_Party/ARM_CMSIS/CMSIS/DSP/Include/dsp/svm_functions.h **** /**
  59:Middlewares/Third_Party/ARM_CMSIS/CMSIS/DSP/Include/dsp/svm_functions.h ****  * @brief Integer exponentiation
  60:Middlewares/Third_Party/ARM_CMSIS/CMSIS/DSP/Include/dsp/svm_functions.h ****  * @param[in]    x           value
  61:Middlewares/Third_Party/ARM_CMSIS/CMSIS/DSP/Include/dsp/svm_functions.h ****  * @param[in]    nb          integer exponent >= 1
  62:Middlewares/Third_Party/ARM_CMSIS/CMSIS/DSP/Include/dsp/svm_functions.h ****  * @return x^nb
  63:Middlewares/Third_Party/ARM_CMSIS/CMSIS/DSP/Include/dsp/svm_functions.h ****  *
  64:Middlewares/Third_Party/ARM_CMSIS/CMSIS/DSP/Include/dsp/svm_functions.h ****  */
  65:Middlewares/Third_Party/ARM_CMSIS/CMSIS/DSP/Include/dsp/svm_functions.h **** __STATIC_INLINE float32_t arm_exponent_f32(float32_t x, int32_t nb)
 319              		.loc 5 65 27 is_stmt 1 discriminator 2 view .LVU102
 320              	.LBB5:
  66:Middlewares/Third_Party/ARM_CMSIS/CMSIS/DSP/Include/dsp/svm_functions.h **** {
  67:Middlewares/Third_Party/ARM_CMSIS/CMSIS/DSP/Include/dsp/svm_functions.h ****     float32_t r = x;
 321              		.loc 5 67 5 discriminator 2 view .LVU103
  68:Middlewares/Third_Party/ARM_CMSIS/CMSIS/DSP/Include/dsp/svm_functions.h ****     nb --;
 322              		.loc 5 68 5 discriminator 2 view .LVU104
 323              		.loc 5 68 8 is_stmt 0 discriminator 2 view .LVU105
 324 0046 8569     		ldr	r5, [r0, #24]
 325 0048 05F1FF3C 		add	ip, r5, #-1
 326              	.LVL32:
  69:Middlewares/Third_Party/ARM_CMSIS/CMSIS/DSP/Include/dsp/svm_functions.h ****     while(nb > 0)
 327              		.loc 5 69 5 is_stmt 1 discriminator 2 view .LVU106
  67:Middlewares/Third_Party/ARM_CMSIS/CMSIS/DSP/Include/dsp/svm_functions.h ****     nb --;
 328              		.loc 5 67 15 is_stmt 0 discriminator 2 view .LVU107
 329 004c F0EE477A 		vmov.f32	s15, s14
 330              		.loc 5 69 10 discriminator 2 view .LVU108
 331 0050 03E0     		b	.L15
 332              	.LVL33:
 333              	.L16:
  70:Middlewares/Third_Party/ARM_CMSIS/CMSIS/DSP/Include/dsp/svm_functions.h ****     {
  71:Middlewares/Third_Party/ARM_CMSIS/CMSIS/DSP/Include/dsp/svm_functions.h ****         r = r * x;
 334              		.loc 5 71 9 is_stmt 1 view .LVU109
 335              		.loc 5 71 11 is_stmt 0 view .LVU110
 336 0052 67EE877A 		vmul.f32	s15, s15, s14
 337              	.LVL34:
  72:Middlewares/Third_Party/ARM_CMSIS/CMSIS/DSP/Include/dsp/svm_functions.h ****         nb--;
 338              		.loc 5 72 9 is_stmt 1 view .LVU111
 339              		.loc 5 72 11 is_stmt 0 view .LVU112
 340 0056 0CF1FF3C 		add	ip, ip, #-1
 341              	.LVL35:
 342              	.L15:
  69:Middlewares/Third_Party/ARM_CMSIS/CMSIS/DSP/Include/dsp/svm_functions.h ****     {
 343              		.loc 5 69 10 is_stmt 1 view .LVU113
 344 005a BCF1000F 		cmp	ip, #0
 345 005e F8DC     		bgt	.L16
  73:Middlewares/Third_Party/ARM_CMSIS/CMSIS/DSP/Include/dsp/svm_functions.h ****     }
  74:Middlewares/Third_Party/ARM_CMSIS/CMSIS/DSP/Include/dsp/svm_functions.h ****     return(r);
ARM GAS  C:\Users\7636~1\AppData\Local\Temp\cc7HvPcb.s 			page 28


 346              		.loc 5 74 5 view .LVU114
 347              	.LVL36:
 348              		.loc 5 74 5 is_stmt 0 view .LVU115
 349              	.LBE5:
 350              	.LBE4:
 351              		.loc 4 479 39 view .LVU116
 352 0060 66EEA77A 		vmul.f32	s15, s13, s15
 353              		.loc 4 479 13 view .LVU117
 354 0064 36EE276A 		vadd.f32	s12, s12, s15
 355              	.LVL37:
 472:Middlewares/Third_Party/ARM_CMSIS/CMSIS/DSP/Source/SVMFunctions/arm_svm_polynomial_predict_f32.c ****     {
 356              		.loc 4 472 41 is_stmt 1 view .LVU118
 472:Middlewares/Third_Party/ARM_CMSIS/CMSIS/DSP/Source/SVMFunctions/arm_svm_polynomial_predict_f32.c ****     {
 357              		.loc 4 472 42 is_stmt 0 view .LVU119
 358 0068 0132     		adds	r2, r2, #1
 359              	.LVL38:
 360              	.L13:
 472:Middlewares/Third_Party/ARM_CMSIS/CMSIS/DSP/Source/SVMFunctions/arm_svm_polynomial_predict_f32.c ****     {
 361              		.loc 4 472 14 is_stmt 1 discriminator 1 view .LVU120
 472:Middlewares/Third_Party/ARM_CMSIS/CMSIS/DSP/Source/SVMFunctions/arm_svm_polynomial_predict_f32.c ****     {
 362              		.loc 4 472 5 is_stmt 0 discriminator 1 view .LVU121
 363 006a 0568     		ldr	r5, [r0]
 364 006c 9542     		cmp	r5, r2
 365 006e 04D9     		bls	.L20
 475:Middlewares/Third_Party/ARM_CMSIS/CMSIS/DSP/Source/SVMFunctions/arm_svm_polynomial_predict_f32.c ****         {
 366              		.loc 4 475 14 view .LVU122
 367 0070 4FF0000C 		mov	ip, #0
 474:Middlewares/Third_Party/ARM_CMSIS/CMSIS/DSP/Source/SVMFunctions/arm_svm_polynomial_predict_f32.c ****         for(j=0; j < S->vectorDimension; j++)
 368              		.loc 4 474 12 view .LVU123
 369 0074 9FED077A 		vldr.32	s14, .L21
 370 0078 D5E7     		b	.L17
 371              	.L20:
 480:Middlewares/Third_Party/ARM_CMSIS/CMSIS/DSP/Source/SVMFunctions/arm_svm_polynomial_predict_f32.c ****     }
 481:Middlewares/Third_Party/ARM_CMSIS/CMSIS/DSP/Source/SVMFunctions/arm_svm_polynomial_predict_f32.c **** 
 482:Middlewares/Third_Party/ARM_CMSIS/CMSIS/DSP/Source/SVMFunctions/arm_svm_polynomial_predict_f32.c ****     *pResult=S->classes[STEP(sum)];
 372              		.loc 4 482 5 is_stmt 1 view .LVU124
 373              		.loc 4 482 15 is_stmt 0 view .LVU125
 374 007a 4369     		ldr	r3, [r0, #20]
 375              	.LVL39:
 376              		.loc 4 482 25 view .LVU126
 377 007c B5EEC06A 		vcmpe.f32	s12, #0
 378 0080 F1EE10FA 		vmrs	APSR_nzcv, FPSCR
 379 0084 8CBF     		ite	hi
 380 0086 0122     		movhi	r2, #1
 381              	.LVL40:
 382              		.loc 4 482 25 view .LVU127
 383 0088 0022     		movls	r2, #0
 384              		.loc 4 482 24 view .LVU128
 385 008a 53F82230 		ldr	r3, [r3, r2, lsl #2]
 386              		.loc 4 482 13 view .LVU129
 387 008e 2360     		str	r3, [r4]
 483:Middlewares/Third_Party/ARM_CMSIS/CMSIS/DSP/Source/SVMFunctions/arm_svm_polynomial_predict_f32.c **** }
 388              		.loc 4 483 1 view .LVU130
 389 0090 30BD     		pop	{r4, r5, pc}
 390              	.LVL41:
 391              	.L22:
 392              		.loc 4 483 1 view .LVU131
ARM GAS  C:\Users\7636~1\AppData\Local\Temp\cc7HvPcb.s 			page 29


 393 0092 00BF     		.align	2
 394              	.L21:
 395 0094 00000000 		.word	0
 396              		.cfi_endproc
 397              	.LFE123:
 399              		.section	.text.arm_svm_rbf_init_f32,"ax",%progbits
 400              		.align	1
 401              		.global	arm_svm_rbf_init_f32
 402              		.syntax unified
 403              		.thumb
 404              		.thumb_func
 406              	arm_svm_rbf_init_f32:
 407              	.LVL42:
 408              	.LFB124:
 409              		.file 6 "Middlewares/Third_Party/ARM_CMSIS/CMSIS/DSP/Source/SVMFunctions/arm_svm_rbf_init_f32.c"
   1:Middlewares/Third_Party/ARM_CMSIS/CMSIS/DSP/Source/SVMFunctions/arm_svm_rbf_init_f32.c **** /* ----------------------------------------------------------------------
   2:Middlewares/Third_Party/ARM_CMSIS/CMSIS/DSP/Source/SVMFunctions/arm_svm_rbf_init_f32.c ****  * Project:      CMSIS DSP Library
   3:Middlewares/Third_Party/ARM_CMSIS/CMSIS/DSP/Source/SVMFunctions/arm_svm_rbf_init_f32.c ****  * Title:        arm_svm_rbf_init_f32.c
   4:Middlewares/Third_Party/ARM_CMSIS/CMSIS/DSP/Source/SVMFunctions/arm_svm_rbf_init_f32.c ****  * Description:  SVM Radial Basis Function Instance Initialization
   5:Middlewares/Third_Party/ARM_CMSIS/CMSIS/DSP/Source/SVMFunctions/arm_svm_rbf_init_f32.c ****  *
   6:Middlewares/Third_Party/ARM_CMSIS/CMSIS/DSP/Source/SVMFunctions/arm_svm_rbf_init_f32.c ****  * $Date:        23 April 2021
   7:Middlewares/Third_Party/ARM_CMSIS/CMSIS/DSP/Source/SVMFunctions/arm_svm_rbf_init_f32.c ****  * $Revision:    V1.9.0
   8:Middlewares/Third_Party/ARM_CMSIS/CMSIS/DSP/Source/SVMFunctions/arm_svm_rbf_init_f32.c ****  *
   9:Middlewares/Third_Party/ARM_CMSIS/CMSIS/DSP/Source/SVMFunctions/arm_svm_rbf_init_f32.c ****  * Target Processor: Cortex-M and Cortex-A cores
  10:Middlewares/Third_Party/ARM_CMSIS/CMSIS/DSP/Source/SVMFunctions/arm_svm_rbf_init_f32.c ****  * -------------------------------------------------------------------- */
  11:Middlewares/Third_Party/ARM_CMSIS/CMSIS/DSP/Source/SVMFunctions/arm_svm_rbf_init_f32.c **** /*
  12:Middlewares/Third_Party/ARM_CMSIS/CMSIS/DSP/Source/SVMFunctions/arm_svm_rbf_init_f32.c ****  * Copyright (C) 2010-2021 ARM Limited or its affiliates. All rights reserved.
  13:Middlewares/Third_Party/ARM_CMSIS/CMSIS/DSP/Source/SVMFunctions/arm_svm_rbf_init_f32.c ****  *
  14:Middlewares/Third_Party/ARM_CMSIS/CMSIS/DSP/Source/SVMFunctions/arm_svm_rbf_init_f32.c ****  * SPDX-License-Identifier: Apache-2.0
  15:Middlewares/Third_Party/ARM_CMSIS/CMSIS/DSP/Source/SVMFunctions/arm_svm_rbf_init_f32.c ****  *
  16:Middlewares/Third_Party/ARM_CMSIS/CMSIS/DSP/Source/SVMFunctions/arm_svm_rbf_init_f32.c ****  * Licensed under the Apache License, Version 2.0 (the License); you may
  17:Middlewares/Third_Party/ARM_CMSIS/CMSIS/DSP/Source/SVMFunctions/arm_svm_rbf_init_f32.c ****  * not use this file except in compliance with the License.
  18:Middlewares/Third_Party/ARM_CMSIS/CMSIS/DSP/Source/SVMFunctions/arm_svm_rbf_init_f32.c ****  * You may obtain a copy of the License at
  19:Middlewares/Third_Party/ARM_CMSIS/CMSIS/DSP/Source/SVMFunctions/arm_svm_rbf_init_f32.c ****  *
  20:Middlewares/Third_Party/ARM_CMSIS/CMSIS/DSP/Source/SVMFunctions/arm_svm_rbf_init_f32.c ****  * www.apache.org/licenses/LICENSE-2.0
  21:Middlewares/Third_Party/ARM_CMSIS/CMSIS/DSP/Source/SVMFunctions/arm_svm_rbf_init_f32.c ****  *
  22:Middlewares/Third_Party/ARM_CMSIS/CMSIS/DSP/Source/SVMFunctions/arm_svm_rbf_init_f32.c ****  * Unless required by applicable law or agreed to in writing, software
  23:Middlewares/Third_Party/ARM_CMSIS/CMSIS/DSP/Source/SVMFunctions/arm_svm_rbf_init_f32.c ****  * distributed under the License is distributed on an AS IS BASIS, WITHOUT
  24:Middlewares/Third_Party/ARM_CMSIS/CMSIS/DSP/Source/SVMFunctions/arm_svm_rbf_init_f32.c ****  * WARRANTIES OR CONDITIONS OF ANY KIND, either express or implied.
  25:Middlewares/Third_Party/ARM_CMSIS/CMSIS/DSP/Source/SVMFunctions/arm_svm_rbf_init_f32.c ****  * See the License for the specific language governing permissions and
  26:Middlewares/Third_Party/ARM_CMSIS/CMSIS/DSP/Source/SVMFunctions/arm_svm_rbf_init_f32.c ****  * limitations under the License.
  27:Middlewares/Third_Party/ARM_CMSIS/CMSIS/DSP/Source/SVMFunctions/arm_svm_rbf_init_f32.c ****  */
  28:Middlewares/Third_Party/ARM_CMSIS/CMSIS/DSP/Source/SVMFunctions/arm_svm_rbf_init_f32.c **** 
  29:Middlewares/Third_Party/ARM_CMSIS/CMSIS/DSP/Source/SVMFunctions/arm_svm_rbf_init_f32.c **** #include "dsp/svm_functions.h"
  30:Middlewares/Third_Party/ARM_CMSIS/CMSIS/DSP/Source/SVMFunctions/arm_svm_rbf_init_f32.c **** #include <limits.h>
  31:Middlewares/Third_Party/ARM_CMSIS/CMSIS/DSP/Source/SVMFunctions/arm_svm_rbf_init_f32.c **** #include <math.h>
  32:Middlewares/Third_Party/ARM_CMSIS/CMSIS/DSP/Source/SVMFunctions/arm_svm_rbf_init_f32.c **** 
  33:Middlewares/Third_Party/ARM_CMSIS/CMSIS/DSP/Source/SVMFunctions/arm_svm_rbf_init_f32.c **** /**
  34:Middlewares/Third_Party/ARM_CMSIS/CMSIS/DSP/Source/SVMFunctions/arm_svm_rbf_init_f32.c ****   @ingroup groupSVM
  35:Middlewares/Third_Party/ARM_CMSIS/CMSIS/DSP/Source/SVMFunctions/arm_svm_rbf_init_f32.c ****  */
  36:Middlewares/Third_Party/ARM_CMSIS/CMSIS/DSP/Source/SVMFunctions/arm_svm_rbf_init_f32.c **** 
  37:Middlewares/Third_Party/ARM_CMSIS/CMSIS/DSP/Source/SVMFunctions/arm_svm_rbf_init_f32.c **** /**
  38:Middlewares/Third_Party/ARM_CMSIS/CMSIS/DSP/Source/SVMFunctions/arm_svm_rbf_init_f32.c ****   @defgroup rbfsvm RBF SVM
  39:Middlewares/Third_Party/ARM_CMSIS/CMSIS/DSP/Source/SVMFunctions/arm_svm_rbf_init_f32.c **** 
  40:Middlewares/Third_Party/ARM_CMSIS/CMSIS/DSP/Source/SVMFunctions/arm_svm_rbf_init_f32.c ****   RBF SVM classifier
  41:Middlewares/Third_Party/ARM_CMSIS/CMSIS/DSP/Source/SVMFunctions/arm_svm_rbf_init_f32.c ****  */
  42:Middlewares/Third_Party/ARM_CMSIS/CMSIS/DSP/Source/SVMFunctions/arm_svm_rbf_init_f32.c **** 
ARM GAS  C:\Users\7636~1\AppData\Local\Temp\cc7HvPcb.s 			page 30


  43:Middlewares/Third_Party/ARM_CMSIS/CMSIS/DSP/Source/SVMFunctions/arm_svm_rbf_init_f32.c **** 
  44:Middlewares/Third_Party/ARM_CMSIS/CMSIS/DSP/Source/SVMFunctions/arm_svm_rbf_init_f32.c **** /**
  45:Middlewares/Third_Party/ARM_CMSIS/CMSIS/DSP/Source/SVMFunctions/arm_svm_rbf_init_f32.c ****  * @addtogroup rbfsvm
  46:Middlewares/Third_Party/ARM_CMSIS/CMSIS/DSP/Source/SVMFunctions/arm_svm_rbf_init_f32.c ****  * @{
  47:Middlewares/Third_Party/ARM_CMSIS/CMSIS/DSP/Source/SVMFunctions/arm_svm_rbf_init_f32.c ****  */
  48:Middlewares/Third_Party/ARM_CMSIS/CMSIS/DSP/Source/SVMFunctions/arm_svm_rbf_init_f32.c **** 
  49:Middlewares/Third_Party/ARM_CMSIS/CMSIS/DSP/Source/SVMFunctions/arm_svm_rbf_init_f32.c **** 
  50:Middlewares/Third_Party/ARM_CMSIS/CMSIS/DSP/Source/SVMFunctions/arm_svm_rbf_init_f32.c **** /**
  51:Middlewares/Third_Party/ARM_CMSIS/CMSIS/DSP/Source/SVMFunctions/arm_svm_rbf_init_f32.c ****  * @brief        SVM radial basis function instance init function
  52:Middlewares/Third_Party/ARM_CMSIS/CMSIS/DSP/Source/SVMFunctions/arm_svm_rbf_init_f32.c ****  *
  53:Middlewares/Third_Party/ARM_CMSIS/CMSIS/DSP/Source/SVMFunctions/arm_svm_rbf_init_f32.c ****  * Classes are integer used as output of the function (instead of having -1,1
  54:Middlewares/Third_Party/ARM_CMSIS/CMSIS/DSP/Source/SVMFunctions/arm_svm_rbf_init_f32.c ****  * as class values).
  55:Middlewares/Third_Party/ARM_CMSIS/CMSIS/DSP/Source/SVMFunctions/arm_svm_rbf_init_f32.c ****  *
  56:Middlewares/Third_Party/ARM_CMSIS/CMSIS/DSP/Source/SVMFunctions/arm_svm_rbf_init_f32.c ****  * @param[in]    S                      points to an instance of the polynomial SVM structure.
  57:Middlewares/Third_Party/ARM_CMSIS/CMSIS/DSP/Source/SVMFunctions/arm_svm_rbf_init_f32.c ****  * @param[in]    nbOfSupportVectors     Number of support vectors
  58:Middlewares/Third_Party/ARM_CMSIS/CMSIS/DSP/Source/SVMFunctions/arm_svm_rbf_init_f32.c ****  * @param[in]    vectorDimension        Dimension of vector space
  59:Middlewares/Third_Party/ARM_CMSIS/CMSIS/DSP/Source/SVMFunctions/arm_svm_rbf_init_f32.c ****  * @param[in]    intercept              Intercept
  60:Middlewares/Third_Party/ARM_CMSIS/CMSIS/DSP/Source/SVMFunctions/arm_svm_rbf_init_f32.c ****  * @param[in]    dualCoefficients       Array of dual coefficients
  61:Middlewares/Third_Party/ARM_CMSIS/CMSIS/DSP/Source/SVMFunctions/arm_svm_rbf_init_f32.c ****  * @param[in]    supportVectors         Array of support vectors
  62:Middlewares/Third_Party/ARM_CMSIS/CMSIS/DSP/Source/SVMFunctions/arm_svm_rbf_init_f32.c ****  * @param[in]    classes                Array of 2 classes ID
  63:Middlewares/Third_Party/ARM_CMSIS/CMSIS/DSP/Source/SVMFunctions/arm_svm_rbf_init_f32.c ****  * @param[in]    gamma                  gamma (scikit-learn terminology)
  64:Middlewares/Third_Party/ARM_CMSIS/CMSIS/DSP/Source/SVMFunctions/arm_svm_rbf_init_f32.c ****  * @return none.
  65:Middlewares/Third_Party/ARM_CMSIS/CMSIS/DSP/Source/SVMFunctions/arm_svm_rbf_init_f32.c ****  *
  66:Middlewares/Third_Party/ARM_CMSIS/CMSIS/DSP/Source/SVMFunctions/arm_svm_rbf_init_f32.c ****  */
  67:Middlewares/Third_Party/ARM_CMSIS/CMSIS/DSP/Source/SVMFunctions/arm_svm_rbf_init_f32.c **** 
  68:Middlewares/Third_Party/ARM_CMSIS/CMSIS/DSP/Source/SVMFunctions/arm_svm_rbf_init_f32.c **** void arm_svm_rbf_init_f32(arm_svm_rbf_instance_f32 *S, 
  69:Middlewares/Third_Party/ARM_CMSIS/CMSIS/DSP/Source/SVMFunctions/arm_svm_rbf_init_f32.c ****   uint32_t nbOfSupportVectors,
  70:Middlewares/Third_Party/ARM_CMSIS/CMSIS/DSP/Source/SVMFunctions/arm_svm_rbf_init_f32.c ****   uint32_t vectorDimension,
  71:Middlewares/Third_Party/ARM_CMSIS/CMSIS/DSP/Source/SVMFunctions/arm_svm_rbf_init_f32.c ****   float32_t intercept,
  72:Middlewares/Third_Party/ARM_CMSIS/CMSIS/DSP/Source/SVMFunctions/arm_svm_rbf_init_f32.c ****   const float32_t *dualCoefficients,
  73:Middlewares/Third_Party/ARM_CMSIS/CMSIS/DSP/Source/SVMFunctions/arm_svm_rbf_init_f32.c ****   const float32_t *supportVectors,
  74:Middlewares/Third_Party/ARM_CMSIS/CMSIS/DSP/Source/SVMFunctions/arm_svm_rbf_init_f32.c ****   const int32_t *classes,
  75:Middlewares/Third_Party/ARM_CMSIS/CMSIS/DSP/Source/SVMFunctions/arm_svm_rbf_init_f32.c ****   float32_t gamma
  76:Middlewares/Third_Party/ARM_CMSIS/CMSIS/DSP/Source/SVMFunctions/arm_svm_rbf_init_f32.c ****   )
  77:Middlewares/Third_Party/ARM_CMSIS/CMSIS/DSP/Source/SVMFunctions/arm_svm_rbf_init_f32.c **** {
 410              		.loc 6 77 1 is_stmt 1 view -0
 411              		.cfi_startproc
 412              		@ args = 8, pretend = 0, frame = 0
 413              		@ frame_needed = 0, uses_anonymous_args = 0
 414              		@ link register save eliminated.
  78:Middlewares/Third_Party/ARM_CMSIS/CMSIS/DSP/Source/SVMFunctions/arm_svm_rbf_init_f32.c ****    S->nbOfSupportVectors = nbOfSupportVectors;
 415              		.loc 6 78 4 view .LVU133
 416              		.loc 6 78 26 is_stmt 0 view .LVU134
 417 0000 0160     		str	r1, [r0]
  79:Middlewares/Third_Party/ARM_CMSIS/CMSIS/DSP/Source/SVMFunctions/arm_svm_rbf_init_f32.c ****    S->vectorDimension = vectorDimension;
 418              		.loc 6 79 4 is_stmt 1 view .LVU135
 419              		.loc 6 79 23 is_stmt 0 view .LVU136
 420 0002 4260     		str	r2, [r0, #4]
  80:Middlewares/Third_Party/ARM_CMSIS/CMSIS/DSP/Source/SVMFunctions/arm_svm_rbf_init_f32.c ****    S->intercept = intercept;
 421              		.loc 6 80 4 is_stmt 1 view .LVU137
 422              		.loc 6 80 17 is_stmt 0 view .LVU138
 423 0004 80ED020A 		vstr.32	s0, [r0, #8]
  81:Middlewares/Third_Party/ARM_CMSIS/CMSIS/DSP/Source/SVMFunctions/arm_svm_rbf_init_f32.c ****    S->dualCoefficients = dualCoefficients;
 424              		.loc 6 81 4 is_stmt 1 view .LVU139
 425              		.loc 6 81 24 is_stmt 0 view .LVU140
 426 0008 C360     		str	r3, [r0, #12]
  82:Middlewares/Third_Party/ARM_CMSIS/CMSIS/DSP/Source/SVMFunctions/arm_svm_rbf_init_f32.c ****    S->supportVectors = supportVectors;
ARM GAS  C:\Users\7636~1\AppData\Local\Temp\cc7HvPcb.s 			page 31


 427              		.loc 6 82 4 is_stmt 1 view .LVU141
 428              		.loc 6 82 22 is_stmt 0 view .LVU142
 429 000a 009B     		ldr	r3, [sp]
 430              	.LVL43:
 431              		.loc 6 82 22 view .LVU143
 432 000c 0361     		str	r3, [r0, #16]
  83:Middlewares/Third_Party/ARM_CMSIS/CMSIS/DSP/Source/SVMFunctions/arm_svm_rbf_init_f32.c ****    S->classes = classes;
 433              		.loc 6 83 4 is_stmt 1 view .LVU144
 434              		.loc 6 83 15 is_stmt 0 view .LVU145
 435 000e 019B     		ldr	r3, [sp, #4]
 436 0010 4361     		str	r3, [r0, #20]
  84:Middlewares/Third_Party/ARM_CMSIS/CMSIS/DSP/Source/SVMFunctions/arm_svm_rbf_init_f32.c ****    S->gamma = gamma;
 437              		.loc 6 84 4 is_stmt 1 view .LVU146
 438              		.loc 6 84 13 is_stmt 0 view .LVU147
 439 0012 C0ED060A 		vstr.32	s1, [r0, #24]
  85:Middlewares/Third_Party/ARM_CMSIS/CMSIS/DSP/Source/SVMFunctions/arm_svm_rbf_init_f32.c **** }
 440              		.loc 6 85 1 view .LVU148
 441 0016 7047     		bx	lr
 442              		.cfi_endproc
 443              	.LFE124:
 445              		.section	.text.arm_svm_rbf_predict_f32,"ax",%progbits
 446              		.align	1
 447              		.global	arm_svm_rbf_predict_f32
 448              		.syntax unified
 449              		.thumb
 450              		.thumb_func
 452              	arm_svm_rbf_predict_f32:
 453              	.LVL44:
 454              	.LFB125:
 455              		.file 7 "Middlewares/Third_Party/ARM_CMSIS/CMSIS/DSP/Source/SVMFunctions/arm_svm_rbf_predict_f32.c
   1:Middlewares/Third_Party/ARM_CMSIS/CMSIS/DSP/Source/SVMFunctions/arm_svm_rbf_predict_f32.c **** /* ----------------------------------------------------------------------
   2:Middlewares/Third_Party/ARM_CMSIS/CMSIS/DSP/Source/SVMFunctions/arm_svm_rbf_predict_f32.c ****  * Project:      CMSIS DSP Library
   3:Middlewares/Third_Party/ARM_CMSIS/CMSIS/DSP/Source/SVMFunctions/arm_svm_rbf_predict_f32.c ****  * Title:        arm_svm_rbf_predict_f32.c
   4:Middlewares/Third_Party/ARM_CMSIS/CMSIS/DSP/Source/SVMFunctions/arm_svm_rbf_predict_f32.c ****  * Description:  SVM Radial Basis Function Classifier
   5:Middlewares/Third_Party/ARM_CMSIS/CMSIS/DSP/Source/SVMFunctions/arm_svm_rbf_predict_f32.c ****  *
   6:Middlewares/Third_Party/ARM_CMSIS/CMSIS/DSP/Source/SVMFunctions/arm_svm_rbf_predict_f32.c ****  * $Date:        23 April 2021
   7:Middlewares/Third_Party/ARM_CMSIS/CMSIS/DSP/Source/SVMFunctions/arm_svm_rbf_predict_f32.c ****  * $Revision:    V1.9.0
   8:Middlewares/Third_Party/ARM_CMSIS/CMSIS/DSP/Source/SVMFunctions/arm_svm_rbf_predict_f32.c ****  *
   9:Middlewares/Third_Party/ARM_CMSIS/CMSIS/DSP/Source/SVMFunctions/arm_svm_rbf_predict_f32.c ****  * Target Processor: Cortex-M and Cortex-A cores
  10:Middlewares/Third_Party/ARM_CMSIS/CMSIS/DSP/Source/SVMFunctions/arm_svm_rbf_predict_f32.c ****  * -------------------------------------------------------------------- */
  11:Middlewares/Third_Party/ARM_CMSIS/CMSIS/DSP/Source/SVMFunctions/arm_svm_rbf_predict_f32.c **** /*
  12:Middlewares/Third_Party/ARM_CMSIS/CMSIS/DSP/Source/SVMFunctions/arm_svm_rbf_predict_f32.c ****  * Copyright (C) 2010-2021 ARM Limited or its affiliates. All rights reserved.
  13:Middlewares/Third_Party/ARM_CMSIS/CMSIS/DSP/Source/SVMFunctions/arm_svm_rbf_predict_f32.c ****  *
  14:Middlewares/Third_Party/ARM_CMSIS/CMSIS/DSP/Source/SVMFunctions/arm_svm_rbf_predict_f32.c ****  * SPDX-License-Identifier: Apache-2.0
  15:Middlewares/Third_Party/ARM_CMSIS/CMSIS/DSP/Source/SVMFunctions/arm_svm_rbf_predict_f32.c ****  *
  16:Middlewares/Third_Party/ARM_CMSIS/CMSIS/DSP/Source/SVMFunctions/arm_svm_rbf_predict_f32.c ****  * Licensed under the Apache License, Version 2.0 (the License); you may
  17:Middlewares/Third_Party/ARM_CMSIS/CMSIS/DSP/Source/SVMFunctions/arm_svm_rbf_predict_f32.c ****  * not use this file except in compliance with the License.
  18:Middlewares/Third_Party/ARM_CMSIS/CMSIS/DSP/Source/SVMFunctions/arm_svm_rbf_predict_f32.c ****  * You may obtain a copy of the License at
  19:Middlewares/Third_Party/ARM_CMSIS/CMSIS/DSP/Source/SVMFunctions/arm_svm_rbf_predict_f32.c ****  *
  20:Middlewares/Third_Party/ARM_CMSIS/CMSIS/DSP/Source/SVMFunctions/arm_svm_rbf_predict_f32.c ****  * www.apache.org/licenses/LICENSE-2.0
  21:Middlewares/Third_Party/ARM_CMSIS/CMSIS/DSP/Source/SVMFunctions/arm_svm_rbf_predict_f32.c ****  *
  22:Middlewares/Third_Party/ARM_CMSIS/CMSIS/DSP/Source/SVMFunctions/arm_svm_rbf_predict_f32.c ****  * Unless required by applicable law or agreed to in writing, software
  23:Middlewares/Third_Party/ARM_CMSIS/CMSIS/DSP/Source/SVMFunctions/arm_svm_rbf_predict_f32.c ****  * distributed under the License is distributed on an AS IS BASIS, WITHOUT
  24:Middlewares/Third_Party/ARM_CMSIS/CMSIS/DSP/Source/SVMFunctions/arm_svm_rbf_predict_f32.c ****  * WARRANTIES OR CONDITIONS OF ANY KIND, either express or implied.
  25:Middlewares/Third_Party/ARM_CMSIS/CMSIS/DSP/Source/SVMFunctions/arm_svm_rbf_predict_f32.c ****  * See the License for the specific language governing permissions and
  26:Middlewares/Third_Party/ARM_CMSIS/CMSIS/DSP/Source/SVMFunctions/arm_svm_rbf_predict_f32.c ****  * limitations under the License.
  27:Middlewares/Third_Party/ARM_CMSIS/CMSIS/DSP/Source/SVMFunctions/arm_svm_rbf_predict_f32.c ****  */
ARM GAS  C:\Users\7636~1\AppData\Local\Temp\cc7HvPcb.s 			page 32


  28:Middlewares/Third_Party/ARM_CMSIS/CMSIS/DSP/Source/SVMFunctions/arm_svm_rbf_predict_f32.c **** 
  29:Middlewares/Third_Party/ARM_CMSIS/CMSIS/DSP/Source/SVMFunctions/arm_svm_rbf_predict_f32.c **** #include "dsp/svm_functions.h"
  30:Middlewares/Third_Party/ARM_CMSIS/CMSIS/DSP/Source/SVMFunctions/arm_svm_rbf_predict_f32.c **** #include <limits.h>
  31:Middlewares/Third_Party/ARM_CMSIS/CMSIS/DSP/Source/SVMFunctions/arm_svm_rbf_predict_f32.c **** #include <math.h>
  32:Middlewares/Third_Party/ARM_CMSIS/CMSIS/DSP/Source/SVMFunctions/arm_svm_rbf_predict_f32.c **** 
  33:Middlewares/Third_Party/ARM_CMSIS/CMSIS/DSP/Source/SVMFunctions/arm_svm_rbf_predict_f32.c **** 
  34:Middlewares/Third_Party/ARM_CMSIS/CMSIS/DSP/Source/SVMFunctions/arm_svm_rbf_predict_f32.c **** /**
  35:Middlewares/Third_Party/ARM_CMSIS/CMSIS/DSP/Source/SVMFunctions/arm_svm_rbf_predict_f32.c ****  * @addtogroup rbfsvm
  36:Middlewares/Third_Party/ARM_CMSIS/CMSIS/DSP/Source/SVMFunctions/arm_svm_rbf_predict_f32.c ****  * @{
  37:Middlewares/Third_Party/ARM_CMSIS/CMSIS/DSP/Source/SVMFunctions/arm_svm_rbf_predict_f32.c ****  */
  38:Middlewares/Third_Party/ARM_CMSIS/CMSIS/DSP/Source/SVMFunctions/arm_svm_rbf_predict_f32.c **** 
  39:Middlewares/Third_Party/ARM_CMSIS/CMSIS/DSP/Source/SVMFunctions/arm_svm_rbf_predict_f32.c **** 
  40:Middlewares/Third_Party/ARM_CMSIS/CMSIS/DSP/Source/SVMFunctions/arm_svm_rbf_predict_f32.c **** /**
  41:Middlewares/Third_Party/ARM_CMSIS/CMSIS/DSP/Source/SVMFunctions/arm_svm_rbf_predict_f32.c ****  * @brief SVM rbf prediction
  42:Middlewares/Third_Party/ARM_CMSIS/CMSIS/DSP/Source/SVMFunctions/arm_svm_rbf_predict_f32.c ****  * @param[in]    S         Pointer to an instance of the rbf SVM structure.
  43:Middlewares/Third_Party/ARM_CMSIS/CMSIS/DSP/Source/SVMFunctions/arm_svm_rbf_predict_f32.c ****  * @param[in]    in        Pointer to input vector
  44:Middlewares/Third_Party/ARM_CMSIS/CMSIS/DSP/Source/SVMFunctions/arm_svm_rbf_predict_f32.c ****  * @param[out]   pResult   decision value
  45:Middlewares/Third_Party/ARM_CMSIS/CMSIS/DSP/Source/SVMFunctions/arm_svm_rbf_predict_f32.c ****  * @return none.
  46:Middlewares/Third_Party/ARM_CMSIS/CMSIS/DSP/Source/SVMFunctions/arm_svm_rbf_predict_f32.c ****  *
  47:Middlewares/Third_Party/ARM_CMSIS/CMSIS/DSP/Source/SVMFunctions/arm_svm_rbf_predict_f32.c ****  */
  48:Middlewares/Third_Party/ARM_CMSIS/CMSIS/DSP/Source/SVMFunctions/arm_svm_rbf_predict_f32.c **** 
  49:Middlewares/Third_Party/ARM_CMSIS/CMSIS/DSP/Source/SVMFunctions/arm_svm_rbf_predict_f32.c **** #if defined(ARM_MATH_MVEF) && !defined(ARM_MATH_AUTOVECTORIZE)
  50:Middlewares/Third_Party/ARM_CMSIS/CMSIS/DSP/Source/SVMFunctions/arm_svm_rbf_predict_f32.c **** 
  51:Middlewares/Third_Party/ARM_CMSIS/CMSIS/DSP/Source/SVMFunctions/arm_svm_rbf_predict_f32.c **** #include "arm_helium_utils.h"
  52:Middlewares/Third_Party/ARM_CMSIS/CMSIS/DSP/Source/SVMFunctions/arm_svm_rbf_predict_f32.c **** #include "arm_vec_math.h"
  53:Middlewares/Third_Party/ARM_CMSIS/CMSIS/DSP/Source/SVMFunctions/arm_svm_rbf_predict_f32.c **** 
  54:Middlewares/Third_Party/ARM_CMSIS/CMSIS/DSP/Source/SVMFunctions/arm_svm_rbf_predict_f32.c **** void arm_svm_rbf_predict_f32(
  55:Middlewares/Third_Party/ARM_CMSIS/CMSIS/DSP/Source/SVMFunctions/arm_svm_rbf_predict_f32.c ****     const arm_svm_rbf_instance_f32 *S,
  56:Middlewares/Third_Party/ARM_CMSIS/CMSIS/DSP/Source/SVMFunctions/arm_svm_rbf_predict_f32.c ****     const float32_t * in,
  57:Middlewares/Third_Party/ARM_CMSIS/CMSIS/DSP/Source/SVMFunctions/arm_svm_rbf_predict_f32.c ****     int32_t * pResult)
  58:Middlewares/Third_Party/ARM_CMSIS/CMSIS/DSP/Source/SVMFunctions/arm_svm_rbf_predict_f32.c **** {
  59:Middlewares/Third_Party/ARM_CMSIS/CMSIS/DSP/Source/SVMFunctions/arm_svm_rbf_predict_f32.c ****         /* inlined Matrix x Vector function interleaved with dot prod */
  60:Middlewares/Third_Party/ARM_CMSIS/CMSIS/DSP/Source/SVMFunctions/arm_svm_rbf_predict_f32.c ****     uint32_t        numRows = S->nbOfSupportVectors;
  61:Middlewares/Third_Party/ARM_CMSIS/CMSIS/DSP/Source/SVMFunctions/arm_svm_rbf_predict_f32.c ****     uint32_t        numCols = S->vectorDimension;
  62:Middlewares/Third_Party/ARM_CMSIS/CMSIS/DSP/Source/SVMFunctions/arm_svm_rbf_predict_f32.c ****     const float32_t *pSupport = S->supportVectors;
  63:Middlewares/Third_Party/ARM_CMSIS/CMSIS/DSP/Source/SVMFunctions/arm_svm_rbf_predict_f32.c ****     const float32_t *pSrcA = pSupport;
  64:Middlewares/Third_Party/ARM_CMSIS/CMSIS/DSP/Source/SVMFunctions/arm_svm_rbf_predict_f32.c ****     const float32_t *pInA0;
  65:Middlewares/Third_Party/ARM_CMSIS/CMSIS/DSP/Source/SVMFunctions/arm_svm_rbf_predict_f32.c ****     const float32_t *pInA1;
  66:Middlewares/Third_Party/ARM_CMSIS/CMSIS/DSP/Source/SVMFunctions/arm_svm_rbf_predict_f32.c ****     uint32_t         row;
  67:Middlewares/Third_Party/ARM_CMSIS/CMSIS/DSP/Source/SVMFunctions/arm_svm_rbf_predict_f32.c ****     uint32_t         blkCnt;     /* loop counters */
  68:Middlewares/Third_Party/ARM_CMSIS/CMSIS/DSP/Source/SVMFunctions/arm_svm_rbf_predict_f32.c ****     const float32_t *pDualCoef = S->dualCoefficients;
  69:Middlewares/Third_Party/ARM_CMSIS/CMSIS/DSP/Source/SVMFunctions/arm_svm_rbf_predict_f32.c ****     float32_t       sum = S->intercept;
  70:Middlewares/Third_Party/ARM_CMSIS/CMSIS/DSP/Source/SVMFunctions/arm_svm_rbf_predict_f32.c ****     f32x4_t         vSum = vdupq_n_f32(0);
  71:Middlewares/Third_Party/ARM_CMSIS/CMSIS/DSP/Source/SVMFunctions/arm_svm_rbf_predict_f32.c **** 
  72:Middlewares/Third_Party/ARM_CMSIS/CMSIS/DSP/Source/SVMFunctions/arm_svm_rbf_predict_f32.c ****     row = numRows;
  73:Middlewares/Third_Party/ARM_CMSIS/CMSIS/DSP/Source/SVMFunctions/arm_svm_rbf_predict_f32.c **** 
  74:Middlewares/Third_Party/ARM_CMSIS/CMSIS/DSP/Source/SVMFunctions/arm_svm_rbf_predict_f32.c ****     /*
  75:Middlewares/Third_Party/ARM_CMSIS/CMSIS/DSP/Source/SVMFunctions/arm_svm_rbf_predict_f32.c ****      * compute 4 rows in parrallel
  76:Middlewares/Third_Party/ARM_CMSIS/CMSIS/DSP/Source/SVMFunctions/arm_svm_rbf_predict_f32.c ****      */
  77:Middlewares/Third_Party/ARM_CMSIS/CMSIS/DSP/Source/SVMFunctions/arm_svm_rbf_predict_f32.c ****     while (row >= 4) {
  78:Middlewares/Third_Party/ARM_CMSIS/CMSIS/DSP/Source/SVMFunctions/arm_svm_rbf_predict_f32.c ****         const float32_t *pInA2, *pInA3;
  79:Middlewares/Third_Party/ARM_CMSIS/CMSIS/DSP/Source/SVMFunctions/arm_svm_rbf_predict_f32.c ****         float32_t const *pSrcA0Vec, *pSrcA1Vec, *pSrcA2Vec, *pSrcA3Vec, *pInVec;
  80:Middlewares/Third_Party/ARM_CMSIS/CMSIS/DSP/Source/SVMFunctions/arm_svm_rbf_predict_f32.c ****         f32x4_t         vecIn, acc0, acc1, acc2, acc3;
  81:Middlewares/Third_Party/ARM_CMSIS/CMSIS/DSP/Source/SVMFunctions/arm_svm_rbf_predict_f32.c ****         float32_t const *pSrcVecPtr = in;
  82:Middlewares/Third_Party/ARM_CMSIS/CMSIS/DSP/Source/SVMFunctions/arm_svm_rbf_predict_f32.c **** 
  83:Middlewares/Third_Party/ARM_CMSIS/CMSIS/DSP/Source/SVMFunctions/arm_svm_rbf_predict_f32.c ****         /*
  84:Middlewares/Third_Party/ARM_CMSIS/CMSIS/DSP/Source/SVMFunctions/arm_svm_rbf_predict_f32.c ****          * Initialize the pointers to 4 consecutive MatrixA rows
ARM GAS  C:\Users\7636~1\AppData\Local\Temp\cc7HvPcb.s 			page 33


  85:Middlewares/Third_Party/ARM_CMSIS/CMSIS/DSP/Source/SVMFunctions/arm_svm_rbf_predict_f32.c ****          */
  86:Middlewares/Third_Party/ARM_CMSIS/CMSIS/DSP/Source/SVMFunctions/arm_svm_rbf_predict_f32.c ****         pInA0 = pSrcA;
  87:Middlewares/Third_Party/ARM_CMSIS/CMSIS/DSP/Source/SVMFunctions/arm_svm_rbf_predict_f32.c ****         pInA1 = pInA0 + numCols;
  88:Middlewares/Third_Party/ARM_CMSIS/CMSIS/DSP/Source/SVMFunctions/arm_svm_rbf_predict_f32.c ****         pInA2 = pInA1 + numCols;
  89:Middlewares/Third_Party/ARM_CMSIS/CMSIS/DSP/Source/SVMFunctions/arm_svm_rbf_predict_f32.c ****         pInA3 = pInA2 + numCols;
  90:Middlewares/Third_Party/ARM_CMSIS/CMSIS/DSP/Source/SVMFunctions/arm_svm_rbf_predict_f32.c ****         /*
  91:Middlewares/Third_Party/ARM_CMSIS/CMSIS/DSP/Source/SVMFunctions/arm_svm_rbf_predict_f32.c ****          * Initialize the vector pointer
  92:Middlewares/Third_Party/ARM_CMSIS/CMSIS/DSP/Source/SVMFunctions/arm_svm_rbf_predict_f32.c ****          */
  93:Middlewares/Third_Party/ARM_CMSIS/CMSIS/DSP/Source/SVMFunctions/arm_svm_rbf_predict_f32.c ****         pInVec = pSrcVecPtr;
  94:Middlewares/Third_Party/ARM_CMSIS/CMSIS/DSP/Source/SVMFunctions/arm_svm_rbf_predict_f32.c ****         /*
  95:Middlewares/Third_Party/ARM_CMSIS/CMSIS/DSP/Source/SVMFunctions/arm_svm_rbf_predict_f32.c ****          * reset accumulators
  96:Middlewares/Third_Party/ARM_CMSIS/CMSIS/DSP/Source/SVMFunctions/arm_svm_rbf_predict_f32.c ****          */
  97:Middlewares/Third_Party/ARM_CMSIS/CMSIS/DSP/Source/SVMFunctions/arm_svm_rbf_predict_f32.c ****         acc0 = vdupq_n_f32(0.0f);
  98:Middlewares/Third_Party/ARM_CMSIS/CMSIS/DSP/Source/SVMFunctions/arm_svm_rbf_predict_f32.c ****         acc1 = vdupq_n_f32(0.0f);
  99:Middlewares/Third_Party/ARM_CMSIS/CMSIS/DSP/Source/SVMFunctions/arm_svm_rbf_predict_f32.c ****         acc2 = vdupq_n_f32(0.0f);
 100:Middlewares/Third_Party/ARM_CMSIS/CMSIS/DSP/Source/SVMFunctions/arm_svm_rbf_predict_f32.c ****         acc3 = vdupq_n_f32(0.0f);
 101:Middlewares/Third_Party/ARM_CMSIS/CMSIS/DSP/Source/SVMFunctions/arm_svm_rbf_predict_f32.c **** 
 102:Middlewares/Third_Party/ARM_CMSIS/CMSIS/DSP/Source/SVMFunctions/arm_svm_rbf_predict_f32.c ****         pSrcA0Vec = pInA0;
 103:Middlewares/Third_Party/ARM_CMSIS/CMSIS/DSP/Source/SVMFunctions/arm_svm_rbf_predict_f32.c ****         pSrcA1Vec = pInA1;
 104:Middlewares/Third_Party/ARM_CMSIS/CMSIS/DSP/Source/SVMFunctions/arm_svm_rbf_predict_f32.c ****         pSrcA2Vec = pInA2;
 105:Middlewares/Third_Party/ARM_CMSIS/CMSIS/DSP/Source/SVMFunctions/arm_svm_rbf_predict_f32.c ****         pSrcA3Vec = pInA3;
 106:Middlewares/Third_Party/ARM_CMSIS/CMSIS/DSP/Source/SVMFunctions/arm_svm_rbf_predict_f32.c **** 
 107:Middlewares/Third_Party/ARM_CMSIS/CMSIS/DSP/Source/SVMFunctions/arm_svm_rbf_predict_f32.c ****         blkCnt = numCols >> 2;
 108:Middlewares/Third_Party/ARM_CMSIS/CMSIS/DSP/Source/SVMFunctions/arm_svm_rbf_predict_f32.c ****         while (blkCnt > 0U) {
 109:Middlewares/Third_Party/ARM_CMSIS/CMSIS/DSP/Source/SVMFunctions/arm_svm_rbf_predict_f32.c ****             f32x4_t         vecA;
 110:Middlewares/Third_Party/ARM_CMSIS/CMSIS/DSP/Source/SVMFunctions/arm_svm_rbf_predict_f32.c ****             f32x4_t         vecDif;
 111:Middlewares/Third_Party/ARM_CMSIS/CMSIS/DSP/Source/SVMFunctions/arm_svm_rbf_predict_f32.c **** 
 112:Middlewares/Third_Party/ARM_CMSIS/CMSIS/DSP/Source/SVMFunctions/arm_svm_rbf_predict_f32.c ****             vecIn = vld1q(pInVec);
 113:Middlewares/Third_Party/ARM_CMSIS/CMSIS/DSP/Source/SVMFunctions/arm_svm_rbf_predict_f32.c ****             pInVec += 4;
 114:Middlewares/Third_Party/ARM_CMSIS/CMSIS/DSP/Source/SVMFunctions/arm_svm_rbf_predict_f32.c ****             vecA = vld1q(pSrcA0Vec);
 115:Middlewares/Third_Party/ARM_CMSIS/CMSIS/DSP/Source/SVMFunctions/arm_svm_rbf_predict_f32.c ****             pSrcA0Vec += 4;
 116:Middlewares/Third_Party/ARM_CMSIS/CMSIS/DSP/Source/SVMFunctions/arm_svm_rbf_predict_f32.c ****             vecDif = vsubq(vecIn, vecA);
 117:Middlewares/Third_Party/ARM_CMSIS/CMSIS/DSP/Source/SVMFunctions/arm_svm_rbf_predict_f32.c ****             acc0 = vfmaq(acc0, vecDif, vecDif);
 118:Middlewares/Third_Party/ARM_CMSIS/CMSIS/DSP/Source/SVMFunctions/arm_svm_rbf_predict_f32.c ****             vecA = vld1q(pSrcA1Vec);
 119:Middlewares/Third_Party/ARM_CMSIS/CMSIS/DSP/Source/SVMFunctions/arm_svm_rbf_predict_f32.c ****             pSrcA1Vec += 4;
 120:Middlewares/Third_Party/ARM_CMSIS/CMSIS/DSP/Source/SVMFunctions/arm_svm_rbf_predict_f32.c ****             vecDif = vsubq(vecIn, vecA);
 121:Middlewares/Third_Party/ARM_CMSIS/CMSIS/DSP/Source/SVMFunctions/arm_svm_rbf_predict_f32.c ****             acc1 = vfmaq(acc1, vecDif, vecDif);
 122:Middlewares/Third_Party/ARM_CMSIS/CMSIS/DSP/Source/SVMFunctions/arm_svm_rbf_predict_f32.c ****             vecA = vld1q(pSrcA2Vec);
 123:Middlewares/Third_Party/ARM_CMSIS/CMSIS/DSP/Source/SVMFunctions/arm_svm_rbf_predict_f32.c ****             pSrcA2Vec += 4;
 124:Middlewares/Third_Party/ARM_CMSIS/CMSIS/DSP/Source/SVMFunctions/arm_svm_rbf_predict_f32.c ****             vecDif = vsubq(vecIn, vecA);
 125:Middlewares/Third_Party/ARM_CMSIS/CMSIS/DSP/Source/SVMFunctions/arm_svm_rbf_predict_f32.c ****             acc2 = vfmaq(acc2, vecDif, vecDif);
 126:Middlewares/Third_Party/ARM_CMSIS/CMSIS/DSP/Source/SVMFunctions/arm_svm_rbf_predict_f32.c ****             vecA = vld1q(pSrcA3Vec);
 127:Middlewares/Third_Party/ARM_CMSIS/CMSIS/DSP/Source/SVMFunctions/arm_svm_rbf_predict_f32.c ****             pSrcA3Vec += 4;
 128:Middlewares/Third_Party/ARM_CMSIS/CMSIS/DSP/Source/SVMFunctions/arm_svm_rbf_predict_f32.c ****             vecDif = vsubq(vecIn, vecA);
 129:Middlewares/Third_Party/ARM_CMSIS/CMSIS/DSP/Source/SVMFunctions/arm_svm_rbf_predict_f32.c ****             acc3 = vfmaq(acc3, vecDif, vecDif);
 130:Middlewares/Third_Party/ARM_CMSIS/CMSIS/DSP/Source/SVMFunctions/arm_svm_rbf_predict_f32.c **** 
 131:Middlewares/Third_Party/ARM_CMSIS/CMSIS/DSP/Source/SVMFunctions/arm_svm_rbf_predict_f32.c ****             blkCnt--;
 132:Middlewares/Third_Party/ARM_CMSIS/CMSIS/DSP/Source/SVMFunctions/arm_svm_rbf_predict_f32.c ****         }
 133:Middlewares/Third_Party/ARM_CMSIS/CMSIS/DSP/Source/SVMFunctions/arm_svm_rbf_predict_f32.c ****         /*
 134:Middlewares/Third_Party/ARM_CMSIS/CMSIS/DSP/Source/SVMFunctions/arm_svm_rbf_predict_f32.c ****          * tail
 135:Middlewares/Third_Party/ARM_CMSIS/CMSIS/DSP/Source/SVMFunctions/arm_svm_rbf_predict_f32.c ****          * (will be merged thru tail predication)
 136:Middlewares/Third_Party/ARM_CMSIS/CMSIS/DSP/Source/SVMFunctions/arm_svm_rbf_predict_f32.c ****          */
 137:Middlewares/Third_Party/ARM_CMSIS/CMSIS/DSP/Source/SVMFunctions/arm_svm_rbf_predict_f32.c ****         blkCnt = numCols & 3;
 138:Middlewares/Third_Party/ARM_CMSIS/CMSIS/DSP/Source/SVMFunctions/arm_svm_rbf_predict_f32.c ****         if (blkCnt > 0U) {
 139:Middlewares/Third_Party/ARM_CMSIS/CMSIS/DSP/Source/SVMFunctions/arm_svm_rbf_predict_f32.c ****             mve_pred16_t    p0 = vctp32q(blkCnt);
 140:Middlewares/Third_Party/ARM_CMSIS/CMSIS/DSP/Source/SVMFunctions/arm_svm_rbf_predict_f32.c ****             f32x4_t         vecA;
 141:Middlewares/Third_Party/ARM_CMSIS/CMSIS/DSP/Source/SVMFunctions/arm_svm_rbf_predict_f32.c ****             f32x4_t         vecDif;
ARM GAS  C:\Users\7636~1\AppData\Local\Temp\cc7HvPcb.s 			page 34


 142:Middlewares/Third_Party/ARM_CMSIS/CMSIS/DSP/Source/SVMFunctions/arm_svm_rbf_predict_f32.c **** 
 143:Middlewares/Third_Party/ARM_CMSIS/CMSIS/DSP/Source/SVMFunctions/arm_svm_rbf_predict_f32.c ****             vecIn = vldrwq_z_f32(pInVec, p0);
 144:Middlewares/Third_Party/ARM_CMSIS/CMSIS/DSP/Source/SVMFunctions/arm_svm_rbf_predict_f32.c ****             vecA = vldrwq_z_f32(pSrcA0Vec, p0);
 145:Middlewares/Third_Party/ARM_CMSIS/CMSIS/DSP/Source/SVMFunctions/arm_svm_rbf_predict_f32.c ****             vecDif = vsubq(vecIn, vecA);
 146:Middlewares/Third_Party/ARM_CMSIS/CMSIS/DSP/Source/SVMFunctions/arm_svm_rbf_predict_f32.c ****             acc0 = vfmaq(acc0, vecDif, vecDif);
 147:Middlewares/Third_Party/ARM_CMSIS/CMSIS/DSP/Source/SVMFunctions/arm_svm_rbf_predict_f32.c ****             vecA = vldrwq_z_f32(pSrcA1Vec, p0);
 148:Middlewares/Third_Party/ARM_CMSIS/CMSIS/DSP/Source/SVMFunctions/arm_svm_rbf_predict_f32.c ****             vecDif = vsubq(vecIn, vecA);
 149:Middlewares/Third_Party/ARM_CMSIS/CMSIS/DSP/Source/SVMFunctions/arm_svm_rbf_predict_f32.c ****             acc1 = vfmaq(acc1, vecDif, vecDif);
 150:Middlewares/Third_Party/ARM_CMSIS/CMSIS/DSP/Source/SVMFunctions/arm_svm_rbf_predict_f32.c ****             vecA = vldrwq_z_f32(pSrcA2Vec, p0);;
 151:Middlewares/Third_Party/ARM_CMSIS/CMSIS/DSP/Source/SVMFunctions/arm_svm_rbf_predict_f32.c ****             vecDif = vsubq(vecIn, vecA);
 152:Middlewares/Third_Party/ARM_CMSIS/CMSIS/DSP/Source/SVMFunctions/arm_svm_rbf_predict_f32.c ****             acc2 = vfmaq(acc2, vecDif, vecDif);
 153:Middlewares/Third_Party/ARM_CMSIS/CMSIS/DSP/Source/SVMFunctions/arm_svm_rbf_predict_f32.c ****             vecA = vldrwq_z_f32(pSrcA3Vec, p0);
 154:Middlewares/Third_Party/ARM_CMSIS/CMSIS/DSP/Source/SVMFunctions/arm_svm_rbf_predict_f32.c ****             vecDif = vsubq(vecIn, vecA);
 155:Middlewares/Third_Party/ARM_CMSIS/CMSIS/DSP/Source/SVMFunctions/arm_svm_rbf_predict_f32.c ****             acc3 = vfmaq(acc3, vecDif, vecDif);
 156:Middlewares/Third_Party/ARM_CMSIS/CMSIS/DSP/Source/SVMFunctions/arm_svm_rbf_predict_f32.c ****         }
 157:Middlewares/Third_Party/ARM_CMSIS/CMSIS/DSP/Source/SVMFunctions/arm_svm_rbf_predict_f32.c ****         /*
 158:Middlewares/Third_Party/ARM_CMSIS/CMSIS/DSP/Source/SVMFunctions/arm_svm_rbf_predict_f32.c ****          * Sum the partial parts
 159:Middlewares/Third_Party/ARM_CMSIS/CMSIS/DSP/Source/SVMFunctions/arm_svm_rbf_predict_f32.c ****          */
 160:Middlewares/Third_Party/ARM_CMSIS/CMSIS/DSP/Source/SVMFunctions/arm_svm_rbf_predict_f32.c **** 
 161:Middlewares/Third_Party/ARM_CMSIS/CMSIS/DSP/Source/SVMFunctions/arm_svm_rbf_predict_f32.c ****         //sum += *pDualCoef++ * expf(-S->gamma * vecReduceF32Mve(acc0));
 162:Middlewares/Third_Party/ARM_CMSIS/CMSIS/DSP/Source/SVMFunctions/arm_svm_rbf_predict_f32.c ****         f32x4_t         vtmp = vuninitializedq_f32();
 163:Middlewares/Third_Party/ARM_CMSIS/CMSIS/DSP/Source/SVMFunctions/arm_svm_rbf_predict_f32.c ****         vtmp = vsetq_lane(vecAddAcrossF32Mve(acc0), vtmp, 0);
 164:Middlewares/Third_Party/ARM_CMSIS/CMSIS/DSP/Source/SVMFunctions/arm_svm_rbf_predict_f32.c ****         vtmp = vsetq_lane(vecAddAcrossF32Mve(acc1), vtmp, 1);
 165:Middlewares/Third_Party/ARM_CMSIS/CMSIS/DSP/Source/SVMFunctions/arm_svm_rbf_predict_f32.c ****         vtmp = vsetq_lane(vecAddAcrossF32Mve(acc2), vtmp, 2);
 166:Middlewares/Third_Party/ARM_CMSIS/CMSIS/DSP/Source/SVMFunctions/arm_svm_rbf_predict_f32.c ****         vtmp = vsetq_lane(vecAddAcrossF32Mve(acc3), vtmp, 3);
 167:Middlewares/Third_Party/ARM_CMSIS/CMSIS/DSP/Source/SVMFunctions/arm_svm_rbf_predict_f32.c **** 
 168:Middlewares/Third_Party/ARM_CMSIS/CMSIS/DSP/Source/SVMFunctions/arm_svm_rbf_predict_f32.c ****         vSum =
 169:Middlewares/Third_Party/ARM_CMSIS/CMSIS/DSP/Source/SVMFunctions/arm_svm_rbf_predict_f32.c ****             vfmaq_f32(vSum, vld1q(pDualCoef),
 170:Middlewares/Third_Party/ARM_CMSIS/CMSIS/DSP/Source/SVMFunctions/arm_svm_rbf_predict_f32.c ****                       vexpq_f32(vmulq_n_f32(vtmp, -S->gamma)));
 171:Middlewares/Third_Party/ARM_CMSIS/CMSIS/DSP/Source/SVMFunctions/arm_svm_rbf_predict_f32.c ****         pDualCoef += 4;
 172:Middlewares/Third_Party/ARM_CMSIS/CMSIS/DSP/Source/SVMFunctions/arm_svm_rbf_predict_f32.c ****         pSrcA += numCols * 4;
 173:Middlewares/Third_Party/ARM_CMSIS/CMSIS/DSP/Source/SVMFunctions/arm_svm_rbf_predict_f32.c ****         /*
 174:Middlewares/Third_Party/ARM_CMSIS/CMSIS/DSP/Source/SVMFunctions/arm_svm_rbf_predict_f32.c ****          * Decrement the row loop counter
 175:Middlewares/Third_Party/ARM_CMSIS/CMSIS/DSP/Source/SVMFunctions/arm_svm_rbf_predict_f32.c ****          */
 176:Middlewares/Third_Party/ARM_CMSIS/CMSIS/DSP/Source/SVMFunctions/arm_svm_rbf_predict_f32.c ****         row -= 4;
 177:Middlewares/Third_Party/ARM_CMSIS/CMSIS/DSP/Source/SVMFunctions/arm_svm_rbf_predict_f32.c ****     }
 178:Middlewares/Third_Party/ARM_CMSIS/CMSIS/DSP/Source/SVMFunctions/arm_svm_rbf_predict_f32.c **** 
 179:Middlewares/Third_Party/ARM_CMSIS/CMSIS/DSP/Source/SVMFunctions/arm_svm_rbf_predict_f32.c ****     /*
 180:Middlewares/Third_Party/ARM_CMSIS/CMSIS/DSP/Source/SVMFunctions/arm_svm_rbf_predict_f32.c ****      * compute 2 rows in parrallel
 181:Middlewares/Third_Party/ARM_CMSIS/CMSIS/DSP/Source/SVMFunctions/arm_svm_rbf_predict_f32.c ****      */
 182:Middlewares/Third_Party/ARM_CMSIS/CMSIS/DSP/Source/SVMFunctions/arm_svm_rbf_predict_f32.c ****     if (row >= 2) {
 183:Middlewares/Third_Party/ARM_CMSIS/CMSIS/DSP/Source/SVMFunctions/arm_svm_rbf_predict_f32.c ****         float32_t const *pSrcA0Vec, *pSrcA1Vec, *pInVec;
 184:Middlewares/Third_Party/ARM_CMSIS/CMSIS/DSP/Source/SVMFunctions/arm_svm_rbf_predict_f32.c ****         f32x4_t         vecIn, acc0, acc1;
 185:Middlewares/Third_Party/ARM_CMSIS/CMSIS/DSP/Source/SVMFunctions/arm_svm_rbf_predict_f32.c ****         float32_t const *pSrcVecPtr = in;
 186:Middlewares/Third_Party/ARM_CMSIS/CMSIS/DSP/Source/SVMFunctions/arm_svm_rbf_predict_f32.c **** 
 187:Middlewares/Third_Party/ARM_CMSIS/CMSIS/DSP/Source/SVMFunctions/arm_svm_rbf_predict_f32.c ****         /*
 188:Middlewares/Third_Party/ARM_CMSIS/CMSIS/DSP/Source/SVMFunctions/arm_svm_rbf_predict_f32.c ****          * Initialize the pointers to 2 consecutive MatrixA rows
 189:Middlewares/Third_Party/ARM_CMSIS/CMSIS/DSP/Source/SVMFunctions/arm_svm_rbf_predict_f32.c ****          */
 190:Middlewares/Third_Party/ARM_CMSIS/CMSIS/DSP/Source/SVMFunctions/arm_svm_rbf_predict_f32.c ****         pInA0 = pSrcA;
 191:Middlewares/Third_Party/ARM_CMSIS/CMSIS/DSP/Source/SVMFunctions/arm_svm_rbf_predict_f32.c ****         pInA1 = pInA0 + numCols;
 192:Middlewares/Third_Party/ARM_CMSIS/CMSIS/DSP/Source/SVMFunctions/arm_svm_rbf_predict_f32.c ****         /*
 193:Middlewares/Third_Party/ARM_CMSIS/CMSIS/DSP/Source/SVMFunctions/arm_svm_rbf_predict_f32.c ****          * Initialize the vector pointer
 194:Middlewares/Third_Party/ARM_CMSIS/CMSIS/DSP/Source/SVMFunctions/arm_svm_rbf_predict_f32.c ****          */
 195:Middlewares/Third_Party/ARM_CMSIS/CMSIS/DSP/Source/SVMFunctions/arm_svm_rbf_predict_f32.c ****         pInVec = pSrcVecPtr;
 196:Middlewares/Third_Party/ARM_CMSIS/CMSIS/DSP/Source/SVMFunctions/arm_svm_rbf_predict_f32.c ****         /*
 197:Middlewares/Third_Party/ARM_CMSIS/CMSIS/DSP/Source/SVMFunctions/arm_svm_rbf_predict_f32.c ****          * reset accumulators
 198:Middlewares/Third_Party/ARM_CMSIS/CMSIS/DSP/Source/SVMFunctions/arm_svm_rbf_predict_f32.c ****          */
ARM GAS  C:\Users\7636~1\AppData\Local\Temp\cc7HvPcb.s 			page 35


 199:Middlewares/Third_Party/ARM_CMSIS/CMSIS/DSP/Source/SVMFunctions/arm_svm_rbf_predict_f32.c ****         acc0 = vdupq_n_f32(0.0f);
 200:Middlewares/Third_Party/ARM_CMSIS/CMSIS/DSP/Source/SVMFunctions/arm_svm_rbf_predict_f32.c ****         acc1 = vdupq_n_f32(0.0f);
 201:Middlewares/Third_Party/ARM_CMSIS/CMSIS/DSP/Source/SVMFunctions/arm_svm_rbf_predict_f32.c ****         pSrcA0Vec = pInA0;
 202:Middlewares/Third_Party/ARM_CMSIS/CMSIS/DSP/Source/SVMFunctions/arm_svm_rbf_predict_f32.c ****         pSrcA1Vec = pInA1;
 203:Middlewares/Third_Party/ARM_CMSIS/CMSIS/DSP/Source/SVMFunctions/arm_svm_rbf_predict_f32.c **** 
 204:Middlewares/Third_Party/ARM_CMSIS/CMSIS/DSP/Source/SVMFunctions/arm_svm_rbf_predict_f32.c ****         blkCnt = numCols >> 2;
 205:Middlewares/Third_Party/ARM_CMSIS/CMSIS/DSP/Source/SVMFunctions/arm_svm_rbf_predict_f32.c ****         while (blkCnt > 0U) {
 206:Middlewares/Third_Party/ARM_CMSIS/CMSIS/DSP/Source/SVMFunctions/arm_svm_rbf_predict_f32.c ****             f32x4_t         vecA;
 207:Middlewares/Third_Party/ARM_CMSIS/CMSIS/DSP/Source/SVMFunctions/arm_svm_rbf_predict_f32.c ****             f32x4_t         vecDif;
 208:Middlewares/Third_Party/ARM_CMSIS/CMSIS/DSP/Source/SVMFunctions/arm_svm_rbf_predict_f32.c **** 
 209:Middlewares/Third_Party/ARM_CMSIS/CMSIS/DSP/Source/SVMFunctions/arm_svm_rbf_predict_f32.c ****             vecIn = vld1q(pInVec);
 210:Middlewares/Third_Party/ARM_CMSIS/CMSIS/DSP/Source/SVMFunctions/arm_svm_rbf_predict_f32.c ****             pInVec += 4;
 211:Middlewares/Third_Party/ARM_CMSIS/CMSIS/DSP/Source/SVMFunctions/arm_svm_rbf_predict_f32.c ****             vecA = vld1q(pSrcA0Vec);
 212:Middlewares/Third_Party/ARM_CMSIS/CMSIS/DSP/Source/SVMFunctions/arm_svm_rbf_predict_f32.c ****             pSrcA0Vec += 4;
 213:Middlewares/Third_Party/ARM_CMSIS/CMSIS/DSP/Source/SVMFunctions/arm_svm_rbf_predict_f32.c ****             vecDif = vsubq(vecIn, vecA);
 214:Middlewares/Third_Party/ARM_CMSIS/CMSIS/DSP/Source/SVMFunctions/arm_svm_rbf_predict_f32.c ****             acc0 = vfmaq(acc0, vecDif, vecDif);;
 215:Middlewares/Third_Party/ARM_CMSIS/CMSIS/DSP/Source/SVMFunctions/arm_svm_rbf_predict_f32.c ****             vecA = vld1q(pSrcA1Vec);
 216:Middlewares/Third_Party/ARM_CMSIS/CMSIS/DSP/Source/SVMFunctions/arm_svm_rbf_predict_f32.c ****             pSrcA1Vec += 4;
 217:Middlewares/Third_Party/ARM_CMSIS/CMSIS/DSP/Source/SVMFunctions/arm_svm_rbf_predict_f32.c ****             vecDif = vsubq(vecIn, vecA);
 218:Middlewares/Third_Party/ARM_CMSIS/CMSIS/DSP/Source/SVMFunctions/arm_svm_rbf_predict_f32.c ****             acc1 = vfmaq(acc1, vecDif, vecDif);
 219:Middlewares/Third_Party/ARM_CMSIS/CMSIS/DSP/Source/SVMFunctions/arm_svm_rbf_predict_f32.c **** 
 220:Middlewares/Third_Party/ARM_CMSIS/CMSIS/DSP/Source/SVMFunctions/arm_svm_rbf_predict_f32.c ****             blkCnt--;
 221:Middlewares/Third_Party/ARM_CMSIS/CMSIS/DSP/Source/SVMFunctions/arm_svm_rbf_predict_f32.c ****         }
 222:Middlewares/Third_Party/ARM_CMSIS/CMSIS/DSP/Source/SVMFunctions/arm_svm_rbf_predict_f32.c ****         /*
 223:Middlewares/Third_Party/ARM_CMSIS/CMSIS/DSP/Source/SVMFunctions/arm_svm_rbf_predict_f32.c ****          * tail
 224:Middlewares/Third_Party/ARM_CMSIS/CMSIS/DSP/Source/SVMFunctions/arm_svm_rbf_predict_f32.c ****          * (will be merged thru tail predication)
 225:Middlewares/Third_Party/ARM_CMSIS/CMSIS/DSP/Source/SVMFunctions/arm_svm_rbf_predict_f32.c ****          */
 226:Middlewares/Third_Party/ARM_CMSIS/CMSIS/DSP/Source/SVMFunctions/arm_svm_rbf_predict_f32.c ****         blkCnt = numCols & 3;
 227:Middlewares/Third_Party/ARM_CMSIS/CMSIS/DSP/Source/SVMFunctions/arm_svm_rbf_predict_f32.c ****         if (blkCnt > 0U) {
 228:Middlewares/Third_Party/ARM_CMSIS/CMSIS/DSP/Source/SVMFunctions/arm_svm_rbf_predict_f32.c ****             mve_pred16_t    p0 = vctp32q(blkCnt);
 229:Middlewares/Third_Party/ARM_CMSIS/CMSIS/DSP/Source/SVMFunctions/arm_svm_rbf_predict_f32.c ****             f32x4_t         vecA, vecDif;
 230:Middlewares/Third_Party/ARM_CMSIS/CMSIS/DSP/Source/SVMFunctions/arm_svm_rbf_predict_f32.c **** 
 231:Middlewares/Third_Party/ARM_CMSIS/CMSIS/DSP/Source/SVMFunctions/arm_svm_rbf_predict_f32.c ****             vecIn = vldrwq_z_f32(pInVec, p0);
 232:Middlewares/Third_Party/ARM_CMSIS/CMSIS/DSP/Source/SVMFunctions/arm_svm_rbf_predict_f32.c ****             vecA = vldrwq_z_f32(pSrcA0Vec, p0);
 233:Middlewares/Third_Party/ARM_CMSIS/CMSIS/DSP/Source/SVMFunctions/arm_svm_rbf_predict_f32.c ****             vecDif = vsubq(vecIn, vecA);
 234:Middlewares/Third_Party/ARM_CMSIS/CMSIS/DSP/Source/SVMFunctions/arm_svm_rbf_predict_f32.c ****             acc0 = vfmaq(acc0, vecDif, vecDif);
 235:Middlewares/Third_Party/ARM_CMSIS/CMSIS/DSP/Source/SVMFunctions/arm_svm_rbf_predict_f32.c ****             vecA = vldrwq_z_f32(pSrcA1Vec, p0);
 236:Middlewares/Third_Party/ARM_CMSIS/CMSIS/DSP/Source/SVMFunctions/arm_svm_rbf_predict_f32.c ****             vecDif = vsubq(vecIn, vecA);
 237:Middlewares/Third_Party/ARM_CMSIS/CMSIS/DSP/Source/SVMFunctions/arm_svm_rbf_predict_f32.c ****             acc1 = vfmaq(acc1, vecDif, vecDif);
 238:Middlewares/Third_Party/ARM_CMSIS/CMSIS/DSP/Source/SVMFunctions/arm_svm_rbf_predict_f32.c ****         }
 239:Middlewares/Third_Party/ARM_CMSIS/CMSIS/DSP/Source/SVMFunctions/arm_svm_rbf_predict_f32.c ****         /*
 240:Middlewares/Third_Party/ARM_CMSIS/CMSIS/DSP/Source/SVMFunctions/arm_svm_rbf_predict_f32.c ****          * Sum the partial parts
 241:Middlewares/Third_Party/ARM_CMSIS/CMSIS/DSP/Source/SVMFunctions/arm_svm_rbf_predict_f32.c ****          */
 242:Middlewares/Third_Party/ARM_CMSIS/CMSIS/DSP/Source/SVMFunctions/arm_svm_rbf_predict_f32.c ****         f32x4_t         vtmp = vuninitializedq_f32();
 243:Middlewares/Third_Party/ARM_CMSIS/CMSIS/DSP/Source/SVMFunctions/arm_svm_rbf_predict_f32.c ****         vtmp = vsetq_lane(vecAddAcrossF32Mve(acc0), vtmp, 0);
 244:Middlewares/Third_Party/ARM_CMSIS/CMSIS/DSP/Source/SVMFunctions/arm_svm_rbf_predict_f32.c ****         vtmp = vsetq_lane(vecAddAcrossF32Mve(acc1), vtmp, 1);
 245:Middlewares/Third_Party/ARM_CMSIS/CMSIS/DSP/Source/SVMFunctions/arm_svm_rbf_predict_f32.c **** 
 246:Middlewares/Third_Party/ARM_CMSIS/CMSIS/DSP/Source/SVMFunctions/arm_svm_rbf_predict_f32.c ****         vSum =
 247:Middlewares/Third_Party/ARM_CMSIS/CMSIS/DSP/Source/SVMFunctions/arm_svm_rbf_predict_f32.c ****             vfmaq_m_f32(vSum, vld1q(pDualCoef),
 248:Middlewares/Third_Party/ARM_CMSIS/CMSIS/DSP/Source/SVMFunctions/arm_svm_rbf_predict_f32.c ****                         vexpq_f32(vmulq_n_f32(vtmp, -S->gamma)), vctp32q(2));
 249:Middlewares/Third_Party/ARM_CMSIS/CMSIS/DSP/Source/SVMFunctions/arm_svm_rbf_predict_f32.c ****         pDualCoef += 2;
 250:Middlewares/Third_Party/ARM_CMSIS/CMSIS/DSP/Source/SVMFunctions/arm_svm_rbf_predict_f32.c **** 
 251:Middlewares/Third_Party/ARM_CMSIS/CMSIS/DSP/Source/SVMFunctions/arm_svm_rbf_predict_f32.c ****         pSrcA += numCols * 2;
 252:Middlewares/Third_Party/ARM_CMSIS/CMSIS/DSP/Source/SVMFunctions/arm_svm_rbf_predict_f32.c ****         row -= 2;
 253:Middlewares/Third_Party/ARM_CMSIS/CMSIS/DSP/Source/SVMFunctions/arm_svm_rbf_predict_f32.c ****     }
 254:Middlewares/Third_Party/ARM_CMSIS/CMSIS/DSP/Source/SVMFunctions/arm_svm_rbf_predict_f32.c **** 
 255:Middlewares/Third_Party/ARM_CMSIS/CMSIS/DSP/Source/SVMFunctions/arm_svm_rbf_predict_f32.c ****     if (row >= 1) {
ARM GAS  C:\Users\7636~1\AppData\Local\Temp\cc7HvPcb.s 			page 36


 256:Middlewares/Third_Party/ARM_CMSIS/CMSIS/DSP/Source/SVMFunctions/arm_svm_rbf_predict_f32.c ****         f32x4_t         vecIn, acc0;
 257:Middlewares/Third_Party/ARM_CMSIS/CMSIS/DSP/Source/SVMFunctions/arm_svm_rbf_predict_f32.c ****         float32_t const *pSrcA0Vec, *pInVec;
 258:Middlewares/Third_Party/ARM_CMSIS/CMSIS/DSP/Source/SVMFunctions/arm_svm_rbf_predict_f32.c ****         float32_t const *pSrcVecPtr = in;
 259:Middlewares/Third_Party/ARM_CMSIS/CMSIS/DSP/Source/SVMFunctions/arm_svm_rbf_predict_f32.c ****         /*
 260:Middlewares/Third_Party/ARM_CMSIS/CMSIS/DSP/Source/SVMFunctions/arm_svm_rbf_predict_f32.c ****          * Initialize the pointers to last MatrixA row
 261:Middlewares/Third_Party/ARM_CMSIS/CMSIS/DSP/Source/SVMFunctions/arm_svm_rbf_predict_f32.c ****          */
 262:Middlewares/Third_Party/ARM_CMSIS/CMSIS/DSP/Source/SVMFunctions/arm_svm_rbf_predict_f32.c ****         pInA0 = pSrcA;
 263:Middlewares/Third_Party/ARM_CMSIS/CMSIS/DSP/Source/SVMFunctions/arm_svm_rbf_predict_f32.c ****         /*
 264:Middlewares/Third_Party/ARM_CMSIS/CMSIS/DSP/Source/SVMFunctions/arm_svm_rbf_predict_f32.c ****          * Initialize the vector pointer
 265:Middlewares/Third_Party/ARM_CMSIS/CMSIS/DSP/Source/SVMFunctions/arm_svm_rbf_predict_f32.c ****          */
 266:Middlewares/Third_Party/ARM_CMSIS/CMSIS/DSP/Source/SVMFunctions/arm_svm_rbf_predict_f32.c ****         pInVec = pSrcVecPtr;
 267:Middlewares/Third_Party/ARM_CMSIS/CMSIS/DSP/Source/SVMFunctions/arm_svm_rbf_predict_f32.c ****         /*
 268:Middlewares/Third_Party/ARM_CMSIS/CMSIS/DSP/Source/SVMFunctions/arm_svm_rbf_predict_f32.c ****          * reset accumulators
 269:Middlewares/Third_Party/ARM_CMSIS/CMSIS/DSP/Source/SVMFunctions/arm_svm_rbf_predict_f32.c ****          */
 270:Middlewares/Third_Party/ARM_CMSIS/CMSIS/DSP/Source/SVMFunctions/arm_svm_rbf_predict_f32.c ****         acc0 = vdupq_n_f32(0.0f);
 271:Middlewares/Third_Party/ARM_CMSIS/CMSIS/DSP/Source/SVMFunctions/arm_svm_rbf_predict_f32.c **** 
 272:Middlewares/Third_Party/ARM_CMSIS/CMSIS/DSP/Source/SVMFunctions/arm_svm_rbf_predict_f32.c ****         pSrcA0Vec = pInA0;
 273:Middlewares/Third_Party/ARM_CMSIS/CMSIS/DSP/Source/SVMFunctions/arm_svm_rbf_predict_f32.c **** 
 274:Middlewares/Third_Party/ARM_CMSIS/CMSIS/DSP/Source/SVMFunctions/arm_svm_rbf_predict_f32.c ****         blkCnt = numCols >> 2;
 275:Middlewares/Third_Party/ARM_CMSIS/CMSIS/DSP/Source/SVMFunctions/arm_svm_rbf_predict_f32.c ****         while (blkCnt > 0U) {
 276:Middlewares/Third_Party/ARM_CMSIS/CMSIS/DSP/Source/SVMFunctions/arm_svm_rbf_predict_f32.c ****             f32x4_t         vecA, vecDif;
 277:Middlewares/Third_Party/ARM_CMSIS/CMSIS/DSP/Source/SVMFunctions/arm_svm_rbf_predict_f32.c **** 
 278:Middlewares/Third_Party/ARM_CMSIS/CMSIS/DSP/Source/SVMFunctions/arm_svm_rbf_predict_f32.c ****             vecIn = vld1q(pInVec);
 279:Middlewares/Third_Party/ARM_CMSIS/CMSIS/DSP/Source/SVMFunctions/arm_svm_rbf_predict_f32.c ****             pInVec += 4;
 280:Middlewares/Third_Party/ARM_CMSIS/CMSIS/DSP/Source/SVMFunctions/arm_svm_rbf_predict_f32.c ****             vecA = vld1q(pSrcA0Vec);
 281:Middlewares/Third_Party/ARM_CMSIS/CMSIS/DSP/Source/SVMFunctions/arm_svm_rbf_predict_f32.c ****             pSrcA0Vec += 4;
 282:Middlewares/Third_Party/ARM_CMSIS/CMSIS/DSP/Source/SVMFunctions/arm_svm_rbf_predict_f32.c ****             vecDif = vsubq(vecIn, vecA);
 283:Middlewares/Third_Party/ARM_CMSIS/CMSIS/DSP/Source/SVMFunctions/arm_svm_rbf_predict_f32.c ****             acc0 = vfmaq(acc0, vecDif, vecDif);
 284:Middlewares/Third_Party/ARM_CMSIS/CMSIS/DSP/Source/SVMFunctions/arm_svm_rbf_predict_f32.c **** 
 285:Middlewares/Third_Party/ARM_CMSIS/CMSIS/DSP/Source/SVMFunctions/arm_svm_rbf_predict_f32.c ****             blkCnt--;
 286:Middlewares/Third_Party/ARM_CMSIS/CMSIS/DSP/Source/SVMFunctions/arm_svm_rbf_predict_f32.c ****         }
 287:Middlewares/Third_Party/ARM_CMSIS/CMSIS/DSP/Source/SVMFunctions/arm_svm_rbf_predict_f32.c ****         /*
 288:Middlewares/Third_Party/ARM_CMSIS/CMSIS/DSP/Source/SVMFunctions/arm_svm_rbf_predict_f32.c ****          * tail
 289:Middlewares/Third_Party/ARM_CMSIS/CMSIS/DSP/Source/SVMFunctions/arm_svm_rbf_predict_f32.c ****          * (will be merged thru tail predication)
 290:Middlewares/Third_Party/ARM_CMSIS/CMSIS/DSP/Source/SVMFunctions/arm_svm_rbf_predict_f32.c ****          */
 291:Middlewares/Third_Party/ARM_CMSIS/CMSIS/DSP/Source/SVMFunctions/arm_svm_rbf_predict_f32.c ****         blkCnt = numCols & 3;
 292:Middlewares/Third_Party/ARM_CMSIS/CMSIS/DSP/Source/SVMFunctions/arm_svm_rbf_predict_f32.c ****         if (blkCnt > 0U) {
 293:Middlewares/Third_Party/ARM_CMSIS/CMSIS/DSP/Source/SVMFunctions/arm_svm_rbf_predict_f32.c ****             mve_pred16_t    p0 = vctp32q(blkCnt);
 294:Middlewares/Third_Party/ARM_CMSIS/CMSIS/DSP/Source/SVMFunctions/arm_svm_rbf_predict_f32.c ****             f32x4_t         vecA, vecDif;
 295:Middlewares/Third_Party/ARM_CMSIS/CMSIS/DSP/Source/SVMFunctions/arm_svm_rbf_predict_f32.c **** 
 296:Middlewares/Third_Party/ARM_CMSIS/CMSIS/DSP/Source/SVMFunctions/arm_svm_rbf_predict_f32.c ****             vecIn = vldrwq_z_f32(pInVec, p0);
 297:Middlewares/Third_Party/ARM_CMSIS/CMSIS/DSP/Source/SVMFunctions/arm_svm_rbf_predict_f32.c ****             vecA = vldrwq_z_f32(pSrcA0Vec, p0);
 298:Middlewares/Third_Party/ARM_CMSIS/CMSIS/DSP/Source/SVMFunctions/arm_svm_rbf_predict_f32.c ****             vecDif = vsubq(vecIn, vecA);
 299:Middlewares/Third_Party/ARM_CMSIS/CMSIS/DSP/Source/SVMFunctions/arm_svm_rbf_predict_f32.c ****             acc0 = vfmaq(acc0, vecDif, vecDif);
 300:Middlewares/Third_Party/ARM_CMSIS/CMSIS/DSP/Source/SVMFunctions/arm_svm_rbf_predict_f32.c ****         }
 301:Middlewares/Third_Party/ARM_CMSIS/CMSIS/DSP/Source/SVMFunctions/arm_svm_rbf_predict_f32.c ****         /*
 302:Middlewares/Third_Party/ARM_CMSIS/CMSIS/DSP/Source/SVMFunctions/arm_svm_rbf_predict_f32.c ****          * Sum the partial parts
 303:Middlewares/Third_Party/ARM_CMSIS/CMSIS/DSP/Source/SVMFunctions/arm_svm_rbf_predict_f32.c ****          */
 304:Middlewares/Third_Party/ARM_CMSIS/CMSIS/DSP/Source/SVMFunctions/arm_svm_rbf_predict_f32.c ****         f32x4_t         vtmp = vuninitializedq_f32();
 305:Middlewares/Third_Party/ARM_CMSIS/CMSIS/DSP/Source/SVMFunctions/arm_svm_rbf_predict_f32.c ****         vtmp = vsetq_lane(vecAddAcrossF32Mve(acc0), vtmp, 0);
 306:Middlewares/Third_Party/ARM_CMSIS/CMSIS/DSP/Source/SVMFunctions/arm_svm_rbf_predict_f32.c **** 
 307:Middlewares/Third_Party/ARM_CMSIS/CMSIS/DSP/Source/SVMFunctions/arm_svm_rbf_predict_f32.c ****         vSum =
 308:Middlewares/Third_Party/ARM_CMSIS/CMSIS/DSP/Source/SVMFunctions/arm_svm_rbf_predict_f32.c ****             vfmaq_m_f32(vSum, vld1q(pDualCoef),
 309:Middlewares/Third_Party/ARM_CMSIS/CMSIS/DSP/Source/SVMFunctions/arm_svm_rbf_predict_f32.c ****                         vexpq_f32(vmulq_n_f32(vtmp, -S->gamma)), vctp32q(1));
 310:Middlewares/Third_Party/ARM_CMSIS/CMSIS/DSP/Source/SVMFunctions/arm_svm_rbf_predict_f32.c **** 
 311:Middlewares/Third_Party/ARM_CMSIS/CMSIS/DSP/Source/SVMFunctions/arm_svm_rbf_predict_f32.c ****     }
 312:Middlewares/Third_Party/ARM_CMSIS/CMSIS/DSP/Source/SVMFunctions/arm_svm_rbf_predict_f32.c **** 
ARM GAS  C:\Users\7636~1\AppData\Local\Temp\cc7HvPcb.s 			page 37


 313:Middlewares/Third_Party/ARM_CMSIS/CMSIS/DSP/Source/SVMFunctions/arm_svm_rbf_predict_f32.c **** 
 314:Middlewares/Third_Party/ARM_CMSIS/CMSIS/DSP/Source/SVMFunctions/arm_svm_rbf_predict_f32.c ****     sum += vecAddAcrossF32Mve(vSum);
 315:Middlewares/Third_Party/ARM_CMSIS/CMSIS/DSP/Source/SVMFunctions/arm_svm_rbf_predict_f32.c ****     *pResult = S->classes[STEP(sum)];
 316:Middlewares/Third_Party/ARM_CMSIS/CMSIS/DSP/Source/SVMFunctions/arm_svm_rbf_predict_f32.c **** }
 317:Middlewares/Third_Party/ARM_CMSIS/CMSIS/DSP/Source/SVMFunctions/arm_svm_rbf_predict_f32.c **** 
 318:Middlewares/Third_Party/ARM_CMSIS/CMSIS/DSP/Source/SVMFunctions/arm_svm_rbf_predict_f32.c **** 
 319:Middlewares/Third_Party/ARM_CMSIS/CMSIS/DSP/Source/SVMFunctions/arm_svm_rbf_predict_f32.c **** #else
 320:Middlewares/Third_Party/ARM_CMSIS/CMSIS/DSP/Source/SVMFunctions/arm_svm_rbf_predict_f32.c **** #if defined(ARM_MATH_NEON)
 321:Middlewares/Third_Party/ARM_CMSIS/CMSIS/DSP/Source/SVMFunctions/arm_svm_rbf_predict_f32.c **** 
 322:Middlewares/Third_Party/ARM_CMSIS/CMSIS/DSP/Source/SVMFunctions/arm_svm_rbf_predict_f32.c **** #include "NEMath.h"
 323:Middlewares/Third_Party/ARM_CMSIS/CMSIS/DSP/Source/SVMFunctions/arm_svm_rbf_predict_f32.c **** 
 324:Middlewares/Third_Party/ARM_CMSIS/CMSIS/DSP/Source/SVMFunctions/arm_svm_rbf_predict_f32.c **** void arm_svm_rbf_predict_f32(
 325:Middlewares/Third_Party/ARM_CMSIS/CMSIS/DSP/Source/SVMFunctions/arm_svm_rbf_predict_f32.c ****     const arm_svm_rbf_instance_f32 *S,
 326:Middlewares/Third_Party/ARM_CMSIS/CMSIS/DSP/Source/SVMFunctions/arm_svm_rbf_predict_f32.c ****     const float32_t * in,
 327:Middlewares/Third_Party/ARM_CMSIS/CMSIS/DSP/Source/SVMFunctions/arm_svm_rbf_predict_f32.c ****     int32_t * pResult)
 328:Middlewares/Third_Party/ARM_CMSIS/CMSIS/DSP/Source/SVMFunctions/arm_svm_rbf_predict_f32.c **** {
 329:Middlewares/Third_Party/ARM_CMSIS/CMSIS/DSP/Source/SVMFunctions/arm_svm_rbf_predict_f32.c ****     float32_t sum = S->intercept;
 330:Middlewares/Third_Party/ARM_CMSIS/CMSIS/DSP/Source/SVMFunctions/arm_svm_rbf_predict_f32.c ****    
 331:Middlewares/Third_Party/ARM_CMSIS/CMSIS/DSP/Source/SVMFunctions/arm_svm_rbf_predict_f32.c ****     float32_t dot;
 332:Middlewares/Third_Party/ARM_CMSIS/CMSIS/DSP/Source/SVMFunctions/arm_svm_rbf_predict_f32.c ****     float32x4_t dotV; 
 333:Middlewares/Third_Party/ARM_CMSIS/CMSIS/DSP/Source/SVMFunctions/arm_svm_rbf_predict_f32.c **** 
 334:Middlewares/Third_Party/ARM_CMSIS/CMSIS/DSP/Source/SVMFunctions/arm_svm_rbf_predict_f32.c ****     float32x4_t accuma,accumb,accumc,accumd,accum;
 335:Middlewares/Third_Party/ARM_CMSIS/CMSIS/DSP/Source/SVMFunctions/arm_svm_rbf_predict_f32.c ****     float32x2_t accum2;
 336:Middlewares/Third_Party/ARM_CMSIS/CMSIS/DSP/Source/SVMFunctions/arm_svm_rbf_predict_f32.c ****     float32x4_t temp;
 337:Middlewares/Third_Party/ARM_CMSIS/CMSIS/DSP/Source/SVMFunctions/arm_svm_rbf_predict_f32.c ****     float32x4_t vec1;
 338:Middlewares/Third_Party/ARM_CMSIS/CMSIS/DSP/Source/SVMFunctions/arm_svm_rbf_predict_f32.c **** 
 339:Middlewares/Third_Party/ARM_CMSIS/CMSIS/DSP/Source/SVMFunctions/arm_svm_rbf_predict_f32.c ****     float32x4_t vec2,vec2a,vec2b,vec2c,vec2d;
 340:Middlewares/Third_Party/ARM_CMSIS/CMSIS/DSP/Source/SVMFunctions/arm_svm_rbf_predict_f32.c **** 
 341:Middlewares/Third_Party/ARM_CMSIS/CMSIS/DSP/Source/SVMFunctions/arm_svm_rbf_predict_f32.c ****     uint32_t blkCnt;   
 342:Middlewares/Third_Party/ARM_CMSIS/CMSIS/DSP/Source/SVMFunctions/arm_svm_rbf_predict_f32.c ****     uint32_t vectorBlkCnt;   
 343:Middlewares/Third_Party/ARM_CMSIS/CMSIS/DSP/Source/SVMFunctions/arm_svm_rbf_predict_f32.c **** 
 344:Middlewares/Third_Party/ARM_CMSIS/CMSIS/DSP/Source/SVMFunctions/arm_svm_rbf_predict_f32.c ****     const float32_t *pIn = in;
 345:Middlewares/Third_Party/ARM_CMSIS/CMSIS/DSP/Source/SVMFunctions/arm_svm_rbf_predict_f32.c **** 
 346:Middlewares/Third_Party/ARM_CMSIS/CMSIS/DSP/Source/SVMFunctions/arm_svm_rbf_predict_f32.c ****     const float32_t *pSupport = S->supportVectors;
 347:Middlewares/Third_Party/ARM_CMSIS/CMSIS/DSP/Source/SVMFunctions/arm_svm_rbf_predict_f32.c **** 
 348:Middlewares/Third_Party/ARM_CMSIS/CMSIS/DSP/Source/SVMFunctions/arm_svm_rbf_predict_f32.c ****     const float32_t *pSupporta = S->supportVectors;
 349:Middlewares/Third_Party/ARM_CMSIS/CMSIS/DSP/Source/SVMFunctions/arm_svm_rbf_predict_f32.c ****     const float32_t *pSupportb;
 350:Middlewares/Third_Party/ARM_CMSIS/CMSIS/DSP/Source/SVMFunctions/arm_svm_rbf_predict_f32.c ****     const float32_t *pSupportc;
 351:Middlewares/Third_Party/ARM_CMSIS/CMSIS/DSP/Source/SVMFunctions/arm_svm_rbf_predict_f32.c ****     const float32_t *pSupportd;
 352:Middlewares/Third_Party/ARM_CMSIS/CMSIS/DSP/Source/SVMFunctions/arm_svm_rbf_predict_f32.c **** 
 353:Middlewares/Third_Party/ARM_CMSIS/CMSIS/DSP/Source/SVMFunctions/arm_svm_rbf_predict_f32.c ****     pSupportb = pSupporta + S->vectorDimension;
 354:Middlewares/Third_Party/ARM_CMSIS/CMSIS/DSP/Source/SVMFunctions/arm_svm_rbf_predict_f32.c ****     pSupportc = pSupportb + S->vectorDimension;
 355:Middlewares/Third_Party/ARM_CMSIS/CMSIS/DSP/Source/SVMFunctions/arm_svm_rbf_predict_f32.c ****     pSupportd = pSupportc + S->vectorDimension;
 356:Middlewares/Third_Party/ARM_CMSIS/CMSIS/DSP/Source/SVMFunctions/arm_svm_rbf_predict_f32.c **** 
 357:Middlewares/Third_Party/ARM_CMSIS/CMSIS/DSP/Source/SVMFunctions/arm_svm_rbf_predict_f32.c ****     const float32_t *pDualCoefs = S->dualCoefficients;
 358:Middlewares/Third_Party/ARM_CMSIS/CMSIS/DSP/Source/SVMFunctions/arm_svm_rbf_predict_f32.c **** 
 359:Middlewares/Third_Party/ARM_CMSIS/CMSIS/DSP/Source/SVMFunctions/arm_svm_rbf_predict_f32.c **** 
 360:Middlewares/Third_Party/ARM_CMSIS/CMSIS/DSP/Source/SVMFunctions/arm_svm_rbf_predict_f32.c ****     vectorBlkCnt = S->nbOfSupportVectors >> 2;
 361:Middlewares/Third_Party/ARM_CMSIS/CMSIS/DSP/Source/SVMFunctions/arm_svm_rbf_predict_f32.c ****     while (vectorBlkCnt > 0U)
 362:Middlewares/Third_Party/ARM_CMSIS/CMSIS/DSP/Source/SVMFunctions/arm_svm_rbf_predict_f32.c ****     {
 363:Middlewares/Third_Party/ARM_CMSIS/CMSIS/DSP/Source/SVMFunctions/arm_svm_rbf_predict_f32.c ****         accuma = vdupq_n_f32(0);
 364:Middlewares/Third_Party/ARM_CMSIS/CMSIS/DSP/Source/SVMFunctions/arm_svm_rbf_predict_f32.c ****         accumb = vdupq_n_f32(0);
 365:Middlewares/Third_Party/ARM_CMSIS/CMSIS/DSP/Source/SVMFunctions/arm_svm_rbf_predict_f32.c ****         accumc = vdupq_n_f32(0);
 366:Middlewares/Third_Party/ARM_CMSIS/CMSIS/DSP/Source/SVMFunctions/arm_svm_rbf_predict_f32.c ****         accumd = vdupq_n_f32(0);
 367:Middlewares/Third_Party/ARM_CMSIS/CMSIS/DSP/Source/SVMFunctions/arm_svm_rbf_predict_f32.c **** 
 368:Middlewares/Third_Party/ARM_CMSIS/CMSIS/DSP/Source/SVMFunctions/arm_svm_rbf_predict_f32.c ****         pIn = in;
 369:Middlewares/Third_Party/ARM_CMSIS/CMSIS/DSP/Source/SVMFunctions/arm_svm_rbf_predict_f32.c **** 
ARM GAS  C:\Users\7636~1\AppData\Local\Temp\cc7HvPcb.s 			page 38


 370:Middlewares/Third_Party/ARM_CMSIS/CMSIS/DSP/Source/SVMFunctions/arm_svm_rbf_predict_f32.c ****         blkCnt = S->vectorDimension >> 2;
 371:Middlewares/Third_Party/ARM_CMSIS/CMSIS/DSP/Source/SVMFunctions/arm_svm_rbf_predict_f32.c ****         while (blkCnt > 0U)
 372:Middlewares/Third_Party/ARM_CMSIS/CMSIS/DSP/Source/SVMFunctions/arm_svm_rbf_predict_f32.c ****         {
 373:Middlewares/Third_Party/ARM_CMSIS/CMSIS/DSP/Source/SVMFunctions/arm_svm_rbf_predict_f32.c ****         
 374:Middlewares/Third_Party/ARM_CMSIS/CMSIS/DSP/Source/SVMFunctions/arm_svm_rbf_predict_f32.c ****             vec1 = vld1q_f32(pIn);
 375:Middlewares/Third_Party/ARM_CMSIS/CMSIS/DSP/Source/SVMFunctions/arm_svm_rbf_predict_f32.c ****             vec2a = vld1q_f32(pSupporta);
 376:Middlewares/Third_Party/ARM_CMSIS/CMSIS/DSP/Source/SVMFunctions/arm_svm_rbf_predict_f32.c ****             vec2b = vld1q_f32(pSupportb);
 377:Middlewares/Third_Party/ARM_CMSIS/CMSIS/DSP/Source/SVMFunctions/arm_svm_rbf_predict_f32.c ****             vec2c = vld1q_f32(pSupportc);
 378:Middlewares/Third_Party/ARM_CMSIS/CMSIS/DSP/Source/SVMFunctions/arm_svm_rbf_predict_f32.c ****             vec2d = vld1q_f32(pSupportd);
 379:Middlewares/Third_Party/ARM_CMSIS/CMSIS/DSP/Source/SVMFunctions/arm_svm_rbf_predict_f32.c **** 
 380:Middlewares/Third_Party/ARM_CMSIS/CMSIS/DSP/Source/SVMFunctions/arm_svm_rbf_predict_f32.c ****             pIn += 4;
 381:Middlewares/Third_Party/ARM_CMSIS/CMSIS/DSP/Source/SVMFunctions/arm_svm_rbf_predict_f32.c ****             pSupporta += 4;
 382:Middlewares/Third_Party/ARM_CMSIS/CMSIS/DSP/Source/SVMFunctions/arm_svm_rbf_predict_f32.c ****             pSupportb += 4;
 383:Middlewares/Third_Party/ARM_CMSIS/CMSIS/DSP/Source/SVMFunctions/arm_svm_rbf_predict_f32.c ****             pSupportc += 4;
 384:Middlewares/Third_Party/ARM_CMSIS/CMSIS/DSP/Source/SVMFunctions/arm_svm_rbf_predict_f32.c ****             pSupportd += 4;
 385:Middlewares/Third_Party/ARM_CMSIS/CMSIS/DSP/Source/SVMFunctions/arm_svm_rbf_predict_f32.c **** 
 386:Middlewares/Third_Party/ARM_CMSIS/CMSIS/DSP/Source/SVMFunctions/arm_svm_rbf_predict_f32.c ****             temp = vsubq_f32(vec1, vec2a);
 387:Middlewares/Third_Party/ARM_CMSIS/CMSIS/DSP/Source/SVMFunctions/arm_svm_rbf_predict_f32.c ****             accuma = vmlaq_f32(accuma, temp, temp);
 388:Middlewares/Third_Party/ARM_CMSIS/CMSIS/DSP/Source/SVMFunctions/arm_svm_rbf_predict_f32.c **** 
 389:Middlewares/Third_Party/ARM_CMSIS/CMSIS/DSP/Source/SVMFunctions/arm_svm_rbf_predict_f32.c ****             temp = vsubq_f32(vec1, vec2b);
 390:Middlewares/Third_Party/ARM_CMSIS/CMSIS/DSP/Source/SVMFunctions/arm_svm_rbf_predict_f32.c ****             accumb = vmlaq_f32(accumb, temp, temp);
 391:Middlewares/Third_Party/ARM_CMSIS/CMSIS/DSP/Source/SVMFunctions/arm_svm_rbf_predict_f32.c **** 
 392:Middlewares/Third_Party/ARM_CMSIS/CMSIS/DSP/Source/SVMFunctions/arm_svm_rbf_predict_f32.c ****             temp = vsubq_f32(vec1, vec2c);
 393:Middlewares/Third_Party/ARM_CMSIS/CMSIS/DSP/Source/SVMFunctions/arm_svm_rbf_predict_f32.c ****             accumc = vmlaq_f32(accumc, temp, temp);
 394:Middlewares/Third_Party/ARM_CMSIS/CMSIS/DSP/Source/SVMFunctions/arm_svm_rbf_predict_f32.c **** 
 395:Middlewares/Third_Party/ARM_CMSIS/CMSIS/DSP/Source/SVMFunctions/arm_svm_rbf_predict_f32.c ****             temp = vsubq_f32(vec1, vec2d);
 396:Middlewares/Third_Party/ARM_CMSIS/CMSIS/DSP/Source/SVMFunctions/arm_svm_rbf_predict_f32.c ****             accumd = vmlaq_f32(accumd, temp, temp);
 397:Middlewares/Third_Party/ARM_CMSIS/CMSIS/DSP/Source/SVMFunctions/arm_svm_rbf_predict_f32.c **** 
 398:Middlewares/Third_Party/ARM_CMSIS/CMSIS/DSP/Source/SVMFunctions/arm_svm_rbf_predict_f32.c ****             blkCnt -- ;
 399:Middlewares/Third_Party/ARM_CMSIS/CMSIS/DSP/Source/SVMFunctions/arm_svm_rbf_predict_f32.c ****         }
 400:Middlewares/Third_Party/ARM_CMSIS/CMSIS/DSP/Source/SVMFunctions/arm_svm_rbf_predict_f32.c ****         accum2 = vpadd_f32(vget_low_f32(accuma),vget_high_f32(accuma));
 401:Middlewares/Third_Party/ARM_CMSIS/CMSIS/DSP/Source/SVMFunctions/arm_svm_rbf_predict_f32.c ****         dotV = vsetq_lane_f32(vget_lane_f32(accum2, 0) + vget_lane_f32(accum2, 1),dotV,0);
 402:Middlewares/Third_Party/ARM_CMSIS/CMSIS/DSP/Source/SVMFunctions/arm_svm_rbf_predict_f32.c **** 
 403:Middlewares/Third_Party/ARM_CMSIS/CMSIS/DSP/Source/SVMFunctions/arm_svm_rbf_predict_f32.c ****         accum2 = vpadd_f32(vget_low_f32(accumb),vget_high_f32(accumb));
 404:Middlewares/Third_Party/ARM_CMSIS/CMSIS/DSP/Source/SVMFunctions/arm_svm_rbf_predict_f32.c ****         dotV = vsetq_lane_f32(vget_lane_f32(accum2, 0) + vget_lane_f32(accum2, 1),dotV,1);
 405:Middlewares/Third_Party/ARM_CMSIS/CMSIS/DSP/Source/SVMFunctions/arm_svm_rbf_predict_f32.c **** 
 406:Middlewares/Third_Party/ARM_CMSIS/CMSIS/DSP/Source/SVMFunctions/arm_svm_rbf_predict_f32.c ****         accum2 = vpadd_f32(vget_low_f32(accumc),vget_high_f32(accumc));
 407:Middlewares/Third_Party/ARM_CMSIS/CMSIS/DSP/Source/SVMFunctions/arm_svm_rbf_predict_f32.c ****         dotV = vsetq_lane_f32(vget_lane_f32(accum2, 0) + vget_lane_f32(accum2, 1),dotV,2);
 408:Middlewares/Third_Party/ARM_CMSIS/CMSIS/DSP/Source/SVMFunctions/arm_svm_rbf_predict_f32.c **** 
 409:Middlewares/Third_Party/ARM_CMSIS/CMSIS/DSP/Source/SVMFunctions/arm_svm_rbf_predict_f32.c ****         accum2 = vpadd_f32(vget_low_f32(accumd),vget_high_f32(accumd));
 410:Middlewares/Third_Party/ARM_CMSIS/CMSIS/DSP/Source/SVMFunctions/arm_svm_rbf_predict_f32.c ****         dotV = vsetq_lane_f32(vget_lane_f32(accum2, 0) + vget_lane_f32(accum2, 1),dotV,3);
 411:Middlewares/Third_Party/ARM_CMSIS/CMSIS/DSP/Source/SVMFunctions/arm_svm_rbf_predict_f32.c **** 
 412:Middlewares/Third_Party/ARM_CMSIS/CMSIS/DSP/Source/SVMFunctions/arm_svm_rbf_predict_f32.c **** 
 413:Middlewares/Third_Party/ARM_CMSIS/CMSIS/DSP/Source/SVMFunctions/arm_svm_rbf_predict_f32.c ****         blkCnt = S->vectorDimension & 3;
 414:Middlewares/Third_Party/ARM_CMSIS/CMSIS/DSP/Source/SVMFunctions/arm_svm_rbf_predict_f32.c ****         while (blkCnt > 0U)
 415:Middlewares/Third_Party/ARM_CMSIS/CMSIS/DSP/Source/SVMFunctions/arm_svm_rbf_predict_f32.c ****         {
 416:Middlewares/Third_Party/ARM_CMSIS/CMSIS/DSP/Source/SVMFunctions/arm_svm_rbf_predict_f32.c ****             dotV = vsetq_lane_f32(vgetq_lane_f32(dotV,0) + SQ(*pIn - *pSupporta), dotV,0);
 417:Middlewares/Third_Party/ARM_CMSIS/CMSIS/DSP/Source/SVMFunctions/arm_svm_rbf_predict_f32.c ****             dotV = vsetq_lane_f32(vgetq_lane_f32(dotV,1) + SQ(*pIn - *pSupportb), dotV,1);
 418:Middlewares/Third_Party/ARM_CMSIS/CMSIS/DSP/Source/SVMFunctions/arm_svm_rbf_predict_f32.c ****             dotV = vsetq_lane_f32(vgetq_lane_f32(dotV,2) + SQ(*pIn - *pSupportc), dotV,2);
 419:Middlewares/Third_Party/ARM_CMSIS/CMSIS/DSP/Source/SVMFunctions/arm_svm_rbf_predict_f32.c ****             dotV = vsetq_lane_f32(vgetq_lane_f32(dotV,3) + SQ(*pIn - *pSupportd), dotV,3);
 420:Middlewares/Third_Party/ARM_CMSIS/CMSIS/DSP/Source/SVMFunctions/arm_svm_rbf_predict_f32.c **** 
 421:Middlewares/Third_Party/ARM_CMSIS/CMSIS/DSP/Source/SVMFunctions/arm_svm_rbf_predict_f32.c ****             pSupporta++;
 422:Middlewares/Third_Party/ARM_CMSIS/CMSIS/DSP/Source/SVMFunctions/arm_svm_rbf_predict_f32.c ****             pSupportb++;
 423:Middlewares/Third_Party/ARM_CMSIS/CMSIS/DSP/Source/SVMFunctions/arm_svm_rbf_predict_f32.c ****             pSupportc++;
 424:Middlewares/Third_Party/ARM_CMSIS/CMSIS/DSP/Source/SVMFunctions/arm_svm_rbf_predict_f32.c ****             pSupportd++;
 425:Middlewares/Third_Party/ARM_CMSIS/CMSIS/DSP/Source/SVMFunctions/arm_svm_rbf_predict_f32.c **** 
 426:Middlewares/Third_Party/ARM_CMSIS/CMSIS/DSP/Source/SVMFunctions/arm_svm_rbf_predict_f32.c ****             pIn++;
ARM GAS  C:\Users\7636~1\AppData\Local\Temp\cc7HvPcb.s 			page 39


 427:Middlewares/Third_Party/ARM_CMSIS/CMSIS/DSP/Source/SVMFunctions/arm_svm_rbf_predict_f32.c **** 
 428:Middlewares/Third_Party/ARM_CMSIS/CMSIS/DSP/Source/SVMFunctions/arm_svm_rbf_predict_f32.c ****             blkCnt -- ;
 429:Middlewares/Third_Party/ARM_CMSIS/CMSIS/DSP/Source/SVMFunctions/arm_svm_rbf_predict_f32.c ****         }
 430:Middlewares/Third_Party/ARM_CMSIS/CMSIS/DSP/Source/SVMFunctions/arm_svm_rbf_predict_f32.c **** 
 431:Middlewares/Third_Party/ARM_CMSIS/CMSIS/DSP/Source/SVMFunctions/arm_svm_rbf_predict_f32.c ****         vec1 = vld1q_f32(pDualCoefs);
 432:Middlewares/Third_Party/ARM_CMSIS/CMSIS/DSP/Source/SVMFunctions/arm_svm_rbf_predict_f32.c ****         pDualCoefs += 4; 
 433:Middlewares/Third_Party/ARM_CMSIS/CMSIS/DSP/Source/SVMFunctions/arm_svm_rbf_predict_f32.c **** 
 434:Middlewares/Third_Party/ARM_CMSIS/CMSIS/DSP/Source/SVMFunctions/arm_svm_rbf_predict_f32.c ****         // To vectorize later
 435:Middlewares/Third_Party/ARM_CMSIS/CMSIS/DSP/Source/SVMFunctions/arm_svm_rbf_predict_f32.c ****         dotV = vmulq_n_f32(dotV, -S->gamma);
 436:Middlewares/Third_Party/ARM_CMSIS/CMSIS/DSP/Source/SVMFunctions/arm_svm_rbf_predict_f32.c ****         dotV = vexpq_f32(dotV);
 437:Middlewares/Third_Party/ARM_CMSIS/CMSIS/DSP/Source/SVMFunctions/arm_svm_rbf_predict_f32.c **** 
 438:Middlewares/Third_Party/ARM_CMSIS/CMSIS/DSP/Source/SVMFunctions/arm_svm_rbf_predict_f32.c ****         accum = vmulq_f32(vec1,dotV);
 439:Middlewares/Third_Party/ARM_CMSIS/CMSIS/DSP/Source/SVMFunctions/arm_svm_rbf_predict_f32.c ****         accum2 = vpadd_f32(vget_low_f32(accum),vget_high_f32(accum));
 440:Middlewares/Third_Party/ARM_CMSIS/CMSIS/DSP/Source/SVMFunctions/arm_svm_rbf_predict_f32.c ****         sum += vget_lane_f32(accum2, 0) + vget_lane_f32(accum2, 1);
 441:Middlewares/Third_Party/ARM_CMSIS/CMSIS/DSP/Source/SVMFunctions/arm_svm_rbf_predict_f32.c **** 
 442:Middlewares/Third_Party/ARM_CMSIS/CMSIS/DSP/Source/SVMFunctions/arm_svm_rbf_predict_f32.c ****         pSupporta += 3*S->vectorDimension;
 443:Middlewares/Third_Party/ARM_CMSIS/CMSIS/DSP/Source/SVMFunctions/arm_svm_rbf_predict_f32.c ****         pSupportb += 3*S->vectorDimension;
 444:Middlewares/Third_Party/ARM_CMSIS/CMSIS/DSP/Source/SVMFunctions/arm_svm_rbf_predict_f32.c ****         pSupportc += 3*S->vectorDimension;
 445:Middlewares/Third_Party/ARM_CMSIS/CMSIS/DSP/Source/SVMFunctions/arm_svm_rbf_predict_f32.c ****         pSupportd += 3*S->vectorDimension;
 446:Middlewares/Third_Party/ARM_CMSIS/CMSIS/DSP/Source/SVMFunctions/arm_svm_rbf_predict_f32.c **** 
