ARM GAS  C:\Users\7636~1\AppData\Local\Temp\ccagWtKu.s 			page 1


   1              		.cpu cortex-m4
   2              		.arch armv7e-m
   3              		.fpu fpv4-sp-d16
   4              		.eabi_attribute 27, 1
   5              		.eabi_attribute 28, 1
   6              		.eabi_attribute 20, 1
   7              		.eabi_attribute 21, 1
   8              		.eabi_attribute 23, 3
   9              		.eabi_attribute 24, 1
  10              		.eabi_attribute 25, 1
  11              		.eabi_attribute 26, 1
  12              		.eabi_attribute 30, 1
  13              		.eabi_attribute 34, 1
  14              		.eabi_attribute 18, 4
  15              		.file	"TransformFunctions.c"
  16              		.text
  17              	.Ltext0:
  18              		.cfi_sections	.debug_frame
  19              		.section	.text.arm_rfft_32_fast_init_f64,"ax",%progbits
  20              		.align	1
  21              		.syntax unified
  22              		.thumb
  23              		.thumb_func
  25              	arm_rfft_32_fast_init_f64:
  26              	.LVL0:
  27              	.LFB176:
  28              		.file 1 "Middlewares/Third_Party/ARM_CMSIS/CMSIS/DSP/Source/TransformFunctions/arm_rfft_fast_init_
   1:Middlewares/Third_Party/ARM_CMSIS/CMSIS/DSP/Source/TransformFunctions/arm_rfft_fast_init_f64.c **** /* ----------------------------------------------------------------------
   2:Middlewares/Third_Party/ARM_CMSIS/CMSIS/DSP/Source/TransformFunctions/arm_rfft_fast_init_f64.c ****  * Project:      CMSIS DSP Library
   3:Middlewares/Third_Party/ARM_CMSIS/CMSIS/DSP/Source/TransformFunctions/arm_rfft_fast_init_f64.c ****  * Title:        arm_rfft_fast_init_f64.c
   4:Middlewares/Third_Party/ARM_CMSIS/CMSIS/DSP/Source/TransformFunctions/arm_rfft_fast_init_f64.c ****  * Description:  Split Radix Decimation in Frequency CFFT Double Precision Floating point processin
   5:Middlewares/Third_Party/ARM_CMSIS/CMSIS/DSP/Source/TransformFunctions/arm_rfft_fast_init_f64.c ****  *
   6:Middlewares/Third_Party/ARM_CMSIS/CMSIS/DSP/Source/TransformFunctions/arm_rfft_fast_init_f64.c ****  * $Date:        23 April 2021
   7:Middlewares/Third_Party/ARM_CMSIS/CMSIS/DSP/Source/TransformFunctions/arm_rfft_fast_init_f64.c ****  * $Revision:    V1.9.0
   8:Middlewares/Third_Party/ARM_CMSIS/CMSIS/DSP/Source/TransformFunctions/arm_rfft_fast_init_f64.c ****  *
   9:Middlewares/Third_Party/ARM_CMSIS/CMSIS/DSP/Source/TransformFunctions/arm_rfft_fast_init_f64.c ****  * Target Processor: Cortex-M and Cortex-A cores
  10:Middlewares/Third_Party/ARM_CMSIS/CMSIS/DSP/Source/TransformFunctions/arm_rfft_fast_init_f64.c ****  * -------------------------------------------------------------------- */
  11:Middlewares/Third_Party/ARM_CMSIS/CMSIS/DSP/Source/TransformFunctions/arm_rfft_fast_init_f64.c **** /*
  12:Middlewares/Third_Party/ARM_CMSIS/CMSIS/DSP/Source/TransformFunctions/arm_rfft_fast_init_f64.c ****  * Copyright (C) 2010-2021 ARM Limited or its affiliates. All rights reserved.
  13:Middlewares/Third_Party/ARM_CMSIS/CMSIS/DSP/Source/TransformFunctions/arm_rfft_fast_init_f64.c ****  *
  14:Middlewares/Third_Party/ARM_CMSIS/CMSIS/DSP/Source/TransformFunctions/arm_rfft_fast_init_f64.c ****  * SPDX-License-Identifier: Apache-2.0
  15:Middlewares/Third_Party/ARM_CMSIS/CMSIS/DSP/Source/TransformFunctions/arm_rfft_fast_init_f64.c ****  *
  16:Middlewares/Third_Party/ARM_CMSIS/CMSIS/DSP/Source/TransformFunctions/arm_rfft_fast_init_f64.c ****  * Licensed under the Apache License, Version 2.0 (the License); you may
  17:Middlewares/Third_Party/ARM_CMSIS/CMSIS/DSP/Source/TransformFunctions/arm_rfft_fast_init_f64.c ****  * not use this file except in compliance with the License.
  18:Middlewares/Third_Party/ARM_CMSIS/CMSIS/DSP/Source/TransformFunctions/arm_rfft_fast_init_f64.c ****  * You may obtain a copy of the License at
  19:Middlewares/Third_Party/ARM_CMSIS/CMSIS/DSP/Source/TransformFunctions/arm_rfft_fast_init_f64.c ****  *
  20:Middlewares/Third_Party/ARM_CMSIS/CMSIS/DSP/Source/TransformFunctions/arm_rfft_fast_init_f64.c ****  * www.apache.org/licenses/LICENSE-2.0
  21:Middlewares/Third_Party/ARM_CMSIS/CMSIS/DSP/Source/TransformFunctions/arm_rfft_fast_init_f64.c ****  *
  22:Middlewares/Third_Party/ARM_CMSIS/CMSIS/DSP/Source/TransformFunctions/arm_rfft_fast_init_f64.c ****  * Unless required by applicable law or agreed to in writing, software
  23:Middlewares/Third_Party/ARM_CMSIS/CMSIS/DSP/Source/TransformFunctions/arm_rfft_fast_init_f64.c ****  * distributed under the License is distributed on an AS IS BASIS, WITHOUT
  24:Middlewares/Third_Party/ARM_CMSIS/CMSIS/DSP/Source/TransformFunctions/arm_rfft_fast_init_f64.c ****  * WARRANTIES OR CONDITIONS OF ANY KIND, either express or implied.
  25:Middlewares/Third_Party/ARM_CMSIS/CMSIS/DSP/Source/TransformFunctions/arm_rfft_fast_init_f64.c ****  * See the License for the specific language governing permissions and
  26:Middlewares/Third_Party/ARM_CMSIS/CMSIS/DSP/Source/TransformFunctions/arm_rfft_fast_init_f64.c ****  * limitations under the License.
  27:Middlewares/Third_Party/ARM_CMSIS/CMSIS/DSP/Source/TransformFunctions/arm_rfft_fast_init_f64.c ****  */
  28:Middlewares/Third_Party/ARM_CMSIS/CMSIS/DSP/Source/TransformFunctions/arm_rfft_fast_init_f64.c **** 
  29:Middlewares/Third_Party/ARM_CMSIS/CMSIS/DSP/Source/TransformFunctions/arm_rfft_fast_init_f64.c **** #include "dsp/transform_functions.h"
  30:Middlewares/Third_Party/ARM_CMSIS/CMSIS/DSP/Source/TransformFunctions/arm_rfft_fast_init_f64.c **** #include "arm_common_tables.h"
ARM GAS  C:\Users\7636~1\AppData\Local\Temp\ccagWtKu.s 			page 2


  31:Middlewares/Third_Party/ARM_CMSIS/CMSIS/DSP/Source/TransformFunctions/arm_rfft_fast_init_f64.c **** 
  32:Middlewares/Third_Party/ARM_CMSIS/CMSIS/DSP/Source/TransformFunctions/arm_rfft_fast_init_f64.c **** /**
  33:Middlewares/Third_Party/ARM_CMSIS/CMSIS/DSP/Source/TransformFunctions/arm_rfft_fast_init_f64.c ****   @ingroup groupTransforms
  34:Middlewares/Third_Party/ARM_CMSIS/CMSIS/DSP/Source/TransformFunctions/arm_rfft_fast_init_f64.c ****  */
  35:Middlewares/Third_Party/ARM_CMSIS/CMSIS/DSP/Source/TransformFunctions/arm_rfft_fast_init_f64.c **** 
  36:Middlewares/Third_Party/ARM_CMSIS/CMSIS/DSP/Source/TransformFunctions/arm_rfft_fast_init_f64.c **** /**
  37:Middlewares/Third_Party/ARM_CMSIS/CMSIS/DSP/Source/TransformFunctions/arm_rfft_fast_init_f64.c ****   @addtogroup RealFFT
  38:Middlewares/Third_Party/ARM_CMSIS/CMSIS/DSP/Source/TransformFunctions/arm_rfft_fast_init_f64.c ****   @{
  39:Middlewares/Third_Party/ARM_CMSIS/CMSIS/DSP/Source/TransformFunctions/arm_rfft_fast_init_f64.c ****  */
  40:Middlewares/Third_Party/ARM_CMSIS/CMSIS/DSP/Source/TransformFunctions/arm_rfft_fast_init_f64.c **** 
  41:Middlewares/Third_Party/ARM_CMSIS/CMSIS/DSP/Source/TransformFunctions/arm_rfft_fast_init_f64.c **** #if !defined(ARM_DSP_CONFIG_TABLES) || defined(ARM_ALL_FFT_TABLES) || (defined(ARM_TABLE_TWIDDLECOE
  42:Middlewares/Third_Party/ARM_CMSIS/CMSIS/DSP/Source/TransformFunctions/arm_rfft_fast_init_f64.c **** 
  43:Middlewares/Third_Party/ARM_CMSIS/CMSIS/DSP/Source/TransformFunctions/arm_rfft_fast_init_f64.c **** /**
  44:Middlewares/Third_Party/ARM_CMSIS/CMSIS/DSP/Source/TransformFunctions/arm_rfft_fast_init_f64.c ****   @brief         Initialization function for the 32pt double precision floating-point real FFT.
  45:Middlewares/Third_Party/ARM_CMSIS/CMSIS/DSP/Source/TransformFunctions/arm_rfft_fast_init_f64.c ****   @param[in,out] S  points to an arm_rfft_fast_instance_f64 structure
  46:Middlewares/Third_Party/ARM_CMSIS/CMSIS/DSP/Source/TransformFunctions/arm_rfft_fast_init_f64.c ****   @return        execution status
  47:Middlewares/Third_Party/ARM_CMSIS/CMSIS/DSP/Source/TransformFunctions/arm_rfft_fast_init_f64.c ****                    - \ref ARM_MATH_SUCCESS        : Operation successful
  48:Middlewares/Third_Party/ARM_CMSIS/CMSIS/DSP/Source/TransformFunctions/arm_rfft_fast_init_f64.c ****                    - \ref ARM_MATH_ARGUMENT_ERROR : an error is detected
  49:Middlewares/Third_Party/ARM_CMSIS/CMSIS/DSP/Source/TransformFunctions/arm_rfft_fast_init_f64.c ****  */
  50:Middlewares/Third_Party/ARM_CMSIS/CMSIS/DSP/Source/TransformFunctions/arm_rfft_fast_init_f64.c **** 
  51:Middlewares/Third_Party/ARM_CMSIS/CMSIS/DSP/Source/TransformFunctions/arm_rfft_fast_init_f64.c **** static arm_status arm_rfft_32_fast_init_f64( arm_rfft_fast_instance_f64 * S ) {
  29              		.loc 1 51 79 view -0
  30              		.cfi_startproc
  31              		@ args = 0, pretend = 0, frame = 0
  32              		@ frame_needed = 0, uses_anonymous_args = 0
  33              		@ link register save eliminated.
  52:Middlewares/Third_Party/ARM_CMSIS/CMSIS/DSP/Source/TransformFunctions/arm_rfft_fast_init_f64.c **** 
  53:Middlewares/Third_Party/ARM_CMSIS/CMSIS/DSP/Source/TransformFunctions/arm_rfft_fast_init_f64.c ****   arm_cfft_instance_f64 * Sint;
  34              		.loc 1 53 3 view .LVU1
  54:Middlewares/Third_Party/ARM_CMSIS/CMSIS/DSP/Source/TransformFunctions/arm_rfft_fast_init_f64.c **** 
  55:Middlewares/Third_Party/ARM_CMSIS/CMSIS/DSP/Source/TransformFunctions/arm_rfft_fast_init_f64.c ****   if( !S ) return ARM_MATH_ARGUMENT_ERROR;
  35              		.loc 1 55 3 view .LVU2
  36              		.loc 1 55 5 is_stmt 0 view .LVU3
  37 0000 68B1     		cbz	r0, .L3
  56:Middlewares/Third_Party/ARM_CMSIS/CMSIS/DSP/Source/TransformFunctions/arm_rfft_fast_init_f64.c **** 
  57:Middlewares/Third_Party/ARM_CMSIS/CMSIS/DSP/Source/TransformFunctions/arm_rfft_fast_init_f64.c ****   Sint = &(S->Sint);
  38              		.loc 1 57 3 is_stmt 1 view .LVU4
  39              	.LVL1:
  58:Middlewares/Third_Party/ARM_CMSIS/CMSIS/DSP/Source/TransformFunctions/arm_rfft_fast_init_f64.c ****   Sint->fftLen = 16U;
  40              		.loc 1 58 3 view .LVU5
  41              		.loc 1 58 16 is_stmt 0 view .LVU6
  42 0002 1022     		movs	r2, #16
  43 0004 0280     		strh	r2, [r0]	@ movhi
  59:Middlewares/Third_Party/ARM_CMSIS/CMSIS/DSP/Source/TransformFunctions/arm_rfft_fast_init_f64.c ****   S->fftLenRFFT = 32U;
  44              		.loc 1 59 3 is_stmt 1 view .LVU7
  45              		.loc 1 59 17 is_stmt 0 view .LVU8
  46 0006 2022     		movs	r2, #32
  47 0008 0282     		strh	r2, [r0, #16]	@ movhi
  60:Middlewares/Third_Party/ARM_CMSIS/CMSIS/DSP/Source/TransformFunctions/arm_rfft_fast_init_f64.c **** 
  61:Middlewares/Third_Party/ARM_CMSIS/CMSIS/DSP/Source/TransformFunctions/arm_rfft_fast_init_f64.c ****   Sint->bitRevLength = ARMBITREVINDEXTABLEF64_16_TABLE_LENGTH;
  48              		.loc 1 61 3 is_stmt 1 view .LVU9
  49              		.loc 1 61 22 is_stmt 0 view .LVU10
  50 000a 0C22     		movs	r2, #12
  51 000c 8281     		strh	r2, [r0, #12]	@ movhi
  62:Middlewares/Third_Party/ARM_CMSIS/CMSIS/DSP/Source/TransformFunctions/arm_rfft_fast_init_f64.c ****   Sint->pBitRevTable = (uint16_t *)armBitRevIndexTableF64_16;
  52              		.loc 1 62 3 is_stmt 1 view .LVU11
  53              		.loc 1 62 22 is_stmt 0 view .LVU12
ARM GAS  C:\Users\7636~1\AppData\Local\Temp\ccagWtKu.s 			page 3


  54 000e 054A     		ldr	r2, .L4
  55 0010 8260     		str	r2, [r0, #8]
  63:Middlewares/Third_Party/ARM_CMSIS/CMSIS/DSP/Source/TransformFunctions/arm_rfft_fast_init_f64.c ****   Sint->pTwiddle     = (float64_t *) twiddleCoefF64_16;
  56              		.loc 1 63 3 is_stmt 1 view .LVU13
  57              		.loc 1 63 22 is_stmt 0 view .LVU14
  58 0012 054A     		ldr	r2, .L4+4
  59 0014 4260     		str	r2, [r0, #4]
  64:Middlewares/Third_Party/ARM_CMSIS/CMSIS/DSP/Source/TransformFunctions/arm_rfft_fast_init_f64.c ****   S->pTwiddleRFFT    = (float64_t *) twiddleCoefF64_rfft_32;
  60              		.loc 1 64 3 is_stmt 1 view .LVU15
  61              		.loc 1 64 22 is_stmt 0 view .LVU16
  62 0016 054A     		ldr	r2, .L4+8
  63 0018 4261     		str	r2, [r0, #20]
  65:Middlewares/Third_Party/ARM_CMSIS/CMSIS/DSP/Source/TransformFunctions/arm_rfft_fast_init_f64.c **** 
  66:Middlewares/Third_Party/ARM_CMSIS/CMSIS/DSP/Source/TransformFunctions/arm_rfft_fast_init_f64.c ****   return ARM_MATH_SUCCESS;
  64              		.loc 1 66 3 is_stmt 1 view .LVU17
  65              		.loc 1 66 10 is_stmt 0 view .LVU18
  66 001a 0020     		movs	r0, #0
  67              	.LVL2:
  68              		.loc 1 66 10 view .LVU19
  69 001c 7047     		bx	lr
  70              	.LVL3:
  71              	.L3:
  55:Middlewares/Third_Party/ARM_CMSIS/CMSIS/DSP/Source/TransformFunctions/arm_rfft_fast_init_f64.c **** 
  72              		.loc 1 55 19 view .LVU20
  73 001e 4FF0FF30 		mov	r0, #-1
  74              	.LVL4:
  67:Middlewares/Third_Party/ARM_CMSIS/CMSIS/DSP/Source/TransformFunctions/arm_rfft_fast_init_f64.c **** }
  75              		.loc 1 67 1 view .LVU21
  76 0022 7047     		bx	lr
  77              	.L5:
  78              		.align	2
  79              	.L4:
  80 0024 00000000 		.word	armBitRevIndexTableF64_16
  81 0028 00000000 		.word	twiddleCoefF64_16
  82 002c 00000000 		.word	twiddleCoefF64_rfft_32
  83              		.cfi_endproc
  84              	.LFE176:
  86              		.section	.text.arm_rfft_64_fast_init_f64,"ax",%progbits
  87              		.align	1
  88              		.syntax unified
  89              		.thumb
  90              		.thumb_func
  92              	arm_rfft_64_fast_init_f64:
  93              	.LVL5:
  94              	.LFB177:
  68:Middlewares/Third_Party/ARM_CMSIS/CMSIS/DSP/Source/TransformFunctions/arm_rfft_fast_init_f64.c **** #endif
  69:Middlewares/Third_Party/ARM_CMSIS/CMSIS/DSP/Source/TransformFunctions/arm_rfft_fast_init_f64.c **** 
  70:Middlewares/Third_Party/ARM_CMSIS/CMSIS/DSP/Source/TransformFunctions/arm_rfft_fast_init_f64.c **** #if !defined(ARM_DSP_CONFIG_TABLES) || defined(ARM_ALL_FFT_TABLES) || (defined(ARM_TABLE_TWIDDLECOE
  71:Middlewares/Third_Party/ARM_CMSIS/CMSIS/DSP/Source/TransformFunctions/arm_rfft_fast_init_f64.c **** 
  72:Middlewares/Third_Party/ARM_CMSIS/CMSIS/DSP/Source/TransformFunctions/arm_rfft_fast_init_f64.c **** /**
  73:Middlewares/Third_Party/ARM_CMSIS/CMSIS/DSP/Source/TransformFunctions/arm_rfft_fast_init_f64.c ****   @brief         Initialization function for the 64pt Double Precision floating-point real FFT.
  74:Middlewares/Third_Party/ARM_CMSIS/CMSIS/DSP/Source/TransformFunctions/arm_rfft_fast_init_f64.c ****   @param[in,out] S  points to an arm_rfft_fast_instance_f64 structure
  75:Middlewares/Third_Party/ARM_CMSIS/CMSIS/DSP/Source/TransformFunctions/arm_rfft_fast_init_f64.c ****   @return        execution status
  76:Middlewares/Third_Party/ARM_CMSIS/CMSIS/DSP/Source/TransformFunctions/arm_rfft_fast_init_f64.c ****                    - \ref ARM_MATH_SUCCESS        : Operation successful
  77:Middlewares/Third_Party/ARM_CMSIS/CMSIS/DSP/Source/TransformFunctions/arm_rfft_fast_init_f64.c ****                    - \ref ARM_MATH_ARGUMENT_ERROR : an error is detected
  78:Middlewares/Third_Party/ARM_CMSIS/CMSIS/DSP/Source/TransformFunctions/arm_rfft_fast_init_f64.c ****  */
  79:Middlewares/Third_Party/ARM_CMSIS/CMSIS/DSP/Source/TransformFunctions/arm_rfft_fast_init_f64.c **** 
ARM GAS  C:\Users\7636~1\AppData\Local\Temp\ccagWtKu.s 			page 4


  80:Middlewares/Third_Party/ARM_CMSIS/CMSIS/DSP/Source/TransformFunctions/arm_rfft_fast_init_f64.c **** static arm_status arm_rfft_64_fast_init_f64( arm_rfft_fast_instance_f64 * S ) {
  95              		.loc 1 80 79 is_stmt 1 view -0
  96              		.cfi_startproc
  97              		@ args = 0, pretend = 0, frame = 0
  98              		@ frame_needed = 0, uses_anonymous_args = 0
  99              		@ link register save eliminated.
  81:Middlewares/Third_Party/ARM_CMSIS/CMSIS/DSP/Source/TransformFunctions/arm_rfft_fast_init_f64.c **** 
  82:Middlewares/Third_Party/ARM_CMSIS/CMSIS/DSP/Source/TransformFunctions/arm_rfft_fast_init_f64.c ****   arm_cfft_instance_f64 * Sint;
 100              		.loc 1 82 3 view .LVU23
  83:Middlewares/Third_Party/ARM_CMSIS/CMSIS/DSP/Source/TransformFunctions/arm_rfft_fast_init_f64.c **** 
  84:Middlewares/Third_Party/ARM_CMSIS/CMSIS/DSP/Source/TransformFunctions/arm_rfft_fast_init_f64.c ****   if( !S ) return ARM_MATH_ARGUMENT_ERROR;
 101              		.loc 1 84 3 view .LVU24
 102              		.loc 1 84 5 is_stmt 0 view .LVU25
 103 0000 68B1     		cbz	r0, .L8
  85:Middlewares/Third_Party/ARM_CMSIS/CMSIS/DSP/Source/TransformFunctions/arm_rfft_fast_init_f64.c **** 
  86:Middlewares/Third_Party/ARM_CMSIS/CMSIS/DSP/Source/TransformFunctions/arm_rfft_fast_init_f64.c ****   Sint = &(S->Sint);
 104              		.loc 1 86 3 is_stmt 1 view .LVU26
 105              	.LVL6:
  87:Middlewares/Third_Party/ARM_CMSIS/CMSIS/DSP/Source/TransformFunctions/arm_rfft_fast_init_f64.c ****   Sint->fftLen = 32U;
 106              		.loc 1 87 3 view .LVU27
 107              		.loc 1 87 16 is_stmt 0 view .LVU28
 108 0002 2022     		movs	r2, #32
 109 0004 0280     		strh	r2, [r0]	@ movhi
  88:Middlewares/Third_Party/ARM_CMSIS/CMSIS/DSP/Source/TransformFunctions/arm_rfft_fast_init_f64.c ****   S->fftLenRFFT = 64U;
 110              		.loc 1 88 3 is_stmt 1 view .LVU29
 111              		.loc 1 88 17 is_stmt 0 view .LVU30
 112 0006 4022     		movs	r2, #64
 113 0008 0282     		strh	r2, [r0, #16]	@ movhi
  89:Middlewares/Third_Party/ARM_CMSIS/CMSIS/DSP/Source/TransformFunctions/arm_rfft_fast_init_f64.c **** 
  90:Middlewares/Third_Party/ARM_CMSIS/CMSIS/DSP/Source/TransformFunctions/arm_rfft_fast_init_f64.c ****   Sint->bitRevLength = ARMBITREVINDEXTABLEF64_32_TABLE_LENGTH;
 114              		.loc 1 90 3 is_stmt 1 view .LVU31
 115              		.loc 1 90 22 is_stmt 0 view .LVU32
 116 000a 1822     		movs	r2, #24
 117 000c 8281     		strh	r2, [r0, #12]	@ movhi
  91:Middlewares/Third_Party/ARM_CMSIS/CMSIS/DSP/Source/TransformFunctions/arm_rfft_fast_init_f64.c ****   Sint->pBitRevTable = (uint16_t *)armBitRevIndexTableF64_32;
 118              		.loc 1 91 3 is_stmt 1 view .LVU33
 119              		.loc 1 91 22 is_stmt 0 view .LVU34
 120 000e 054A     		ldr	r2, .L9
 121 0010 8260     		str	r2, [r0, #8]
  92:Middlewares/Third_Party/ARM_CMSIS/CMSIS/DSP/Source/TransformFunctions/arm_rfft_fast_init_f64.c ****   Sint->pTwiddle     = (float64_t *) twiddleCoefF64_32;
 122              		.loc 1 92 3 is_stmt 1 view .LVU35
 123              		.loc 1 92 22 is_stmt 0 view .LVU36
 124 0012 054A     		ldr	r2, .L9+4
 125 0014 4260     		str	r2, [r0, #4]
  93:Middlewares/Third_Party/ARM_CMSIS/CMSIS/DSP/Source/TransformFunctions/arm_rfft_fast_init_f64.c ****   S->pTwiddleRFFT    = (float64_t *) twiddleCoefF64_rfft_64;
 126              		.loc 1 93 3 is_stmt 1 view .LVU37
 127              		.loc 1 93 22 is_stmt 0 view .LVU38
 128 0016 054A     		ldr	r2, .L9+8
 129 0018 4261     		str	r2, [r0, #20]
  94:Middlewares/Third_Party/ARM_CMSIS/CMSIS/DSP/Source/TransformFunctions/arm_rfft_fast_init_f64.c **** 
  95:Middlewares/Third_Party/ARM_CMSIS/CMSIS/DSP/Source/TransformFunctions/arm_rfft_fast_init_f64.c ****   return ARM_MATH_SUCCESS;
 130              		.loc 1 95 3 is_stmt 1 view .LVU39
 131              		.loc 1 95 10 is_stmt 0 view .LVU40
 132 001a 0020     		movs	r0, #0
 133              	.LVL7:
 134              		.loc 1 95 10 view .LVU41
 135 001c 7047     		bx	lr
ARM GAS  C:\Users\7636~1\AppData\Local\Temp\ccagWtKu.s 			page 5


 136              	.LVL8:
 137              	.L8:
  84:Middlewares/Third_Party/ARM_CMSIS/CMSIS/DSP/Source/TransformFunctions/arm_rfft_fast_init_f64.c **** 
 138              		.loc 1 84 19 view .LVU42
 139 001e 4FF0FF30 		mov	r0, #-1
 140              	.LVL9:
  96:Middlewares/Third_Party/ARM_CMSIS/CMSIS/DSP/Source/TransformFunctions/arm_rfft_fast_init_f64.c **** }
 141              		.loc 1 96 1 view .LVU43
 142 0022 7047     		bx	lr
 143              	.L10:
 144              		.align	2
 145              	.L9:
 146 0024 00000000 		.word	armBitRevIndexTableF64_32
 147 0028 00000000 		.word	twiddleCoefF64_32
 148 002c 00000000 		.word	twiddleCoefF64_rfft_64
 149              		.cfi_endproc
 150              	.LFE177:
 152              		.section	.text.arm_rfft_128_fast_init_f64,"ax",%progbits
 153              		.align	1
 154              		.syntax unified
 155              		.thumb
 156              		.thumb_func
 158              	arm_rfft_128_fast_init_f64:
 159              	.LVL10:
 160              	.LFB178:
  97:Middlewares/Third_Party/ARM_CMSIS/CMSIS/DSP/Source/TransformFunctions/arm_rfft_fast_init_f64.c **** #endif
  98:Middlewares/Third_Party/ARM_CMSIS/CMSIS/DSP/Source/TransformFunctions/arm_rfft_fast_init_f64.c **** 
  99:Middlewares/Third_Party/ARM_CMSIS/CMSIS/DSP/Source/TransformFunctions/arm_rfft_fast_init_f64.c **** #if !defined(ARM_DSP_CONFIG_TABLES) || defined(ARM_ALL_FFT_TABLES) || (defined(ARM_TABLE_TWIDDLECOE
 100:Middlewares/Third_Party/ARM_CMSIS/CMSIS/DSP/Source/TransformFunctions/arm_rfft_fast_init_f64.c **** 
 101:Middlewares/Third_Party/ARM_CMSIS/CMSIS/DSP/Source/TransformFunctions/arm_rfft_fast_init_f64.c **** /**
 102:Middlewares/Third_Party/ARM_CMSIS/CMSIS/DSP/Source/TransformFunctions/arm_rfft_fast_init_f64.c ****   @brief         Initialization function for the 128pt Double Precision floating-point real FFT.
 103:Middlewares/Third_Party/ARM_CMSIS/CMSIS/DSP/Source/TransformFunctions/arm_rfft_fast_init_f64.c ****   @param[in,out] S  points to an arm_rfft_fast_instance_f64 structure
 104:Middlewares/Third_Party/ARM_CMSIS/CMSIS/DSP/Source/TransformFunctions/arm_rfft_fast_init_f64.c ****   @return        execution status
 105:Middlewares/Third_Party/ARM_CMSIS/CMSIS/DSP/Source/TransformFunctions/arm_rfft_fast_init_f64.c ****                    - \ref ARM_MATH_SUCCESS        : Operation successful
 106:Middlewares/Third_Party/ARM_CMSIS/CMSIS/DSP/Source/TransformFunctions/arm_rfft_fast_init_f64.c ****                    - \ref ARM_MATH_ARGUMENT_ERROR : an error is detected
 107:Middlewares/Third_Party/ARM_CMSIS/CMSIS/DSP/Source/TransformFunctions/arm_rfft_fast_init_f64.c ****  */
 108:Middlewares/Third_Party/ARM_CMSIS/CMSIS/DSP/Source/TransformFunctions/arm_rfft_fast_init_f64.c **** 
 109:Middlewares/Third_Party/ARM_CMSIS/CMSIS/DSP/Source/TransformFunctions/arm_rfft_fast_init_f64.c **** static arm_status arm_rfft_128_fast_init_f64( arm_rfft_fast_instance_f64 * S ) {
 161              		.loc 1 109 80 is_stmt 1 view -0
 162              		.cfi_startproc
 163              		@ args = 0, pretend = 0, frame = 0
 164              		@ frame_needed = 0, uses_anonymous_args = 0
 165              		@ link register save eliminated.
 110:Middlewares/Third_Party/ARM_CMSIS/CMSIS/DSP/Source/TransformFunctions/arm_rfft_fast_init_f64.c **** 
 111:Middlewares/Third_Party/ARM_CMSIS/CMSIS/DSP/Source/TransformFunctions/arm_rfft_fast_init_f64.c ****   arm_cfft_instance_f64 * Sint;
 166              		.loc 1 111 3 view .LVU45
 112:Middlewares/Third_Party/ARM_CMSIS/CMSIS/DSP/Source/TransformFunctions/arm_rfft_fast_init_f64.c **** 
 113:Middlewares/Third_Party/ARM_CMSIS/CMSIS/DSP/Source/TransformFunctions/arm_rfft_fast_init_f64.c ****   if( !S ) return ARM_MATH_ARGUMENT_ERROR;
 167              		.loc 1 113 3 view .LVU46
 168              		.loc 1 113 5 is_stmt 0 view .LVU47
 169 0000 68B1     		cbz	r0, .L13
 114:Middlewares/Third_Party/ARM_CMSIS/CMSIS/DSP/Source/TransformFunctions/arm_rfft_fast_init_f64.c **** 
 115:Middlewares/Third_Party/ARM_CMSIS/CMSIS/DSP/Source/TransformFunctions/arm_rfft_fast_init_f64.c ****   Sint = &(S->Sint);
 170              		.loc 1 115 3 is_stmt 1 view .LVU48
 171              	.LVL11:
 116:Middlewares/Third_Party/ARM_CMSIS/CMSIS/DSP/Source/TransformFunctions/arm_rfft_fast_init_f64.c ****   Sint->fftLen = 64U;
 172              		.loc 1 116 3 view .LVU49
ARM GAS  C:\Users\7636~1\AppData\Local\Temp\ccagWtKu.s 			page 6


 173              		.loc 1 116 16 is_stmt 0 view .LVU50
 174 0002 4022     		movs	r2, #64
 175 0004 0280     		strh	r2, [r0]	@ movhi
 117:Middlewares/Third_Party/ARM_CMSIS/CMSIS/DSP/Source/TransformFunctions/arm_rfft_fast_init_f64.c ****   S->fftLenRFFT = 128U;
 176              		.loc 1 117 3 is_stmt 1 view .LVU51
 177              		.loc 1 117 17 is_stmt 0 view .LVU52
 178 0006 8022     		movs	r2, #128
 179 0008 0282     		strh	r2, [r0, #16]	@ movhi
 118:Middlewares/Third_Party/ARM_CMSIS/CMSIS/DSP/Source/TransformFunctions/arm_rfft_fast_init_f64.c **** 
 119:Middlewares/Third_Party/ARM_CMSIS/CMSIS/DSP/Source/TransformFunctions/arm_rfft_fast_init_f64.c ****   Sint->bitRevLength = ARMBITREVINDEXTABLEF64_64_TABLE_LENGTH;
 180              		.loc 1 119 3 is_stmt 1 view .LVU53
 181              		.loc 1 119 22 is_stmt 0 view .LVU54
 182 000a 3822     		movs	r2, #56
 183 000c 8281     		strh	r2, [r0, #12]	@ movhi
 120:Middlewares/Third_Party/ARM_CMSIS/CMSIS/DSP/Source/TransformFunctions/arm_rfft_fast_init_f64.c ****   Sint->pBitRevTable = (uint16_t *)armBitRevIndexTableF64_64;
 184              		.loc 1 120 3 is_stmt 1 view .LVU55
 185              		.loc 1 120 22 is_stmt 0 view .LVU56
 186 000e 054A     		ldr	r2, .L14
 187 0010 8260     		str	r2, [r0, #8]
 121:Middlewares/Third_Party/ARM_CMSIS/CMSIS/DSP/Source/TransformFunctions/arm_rfft_fast_init_f64.c ****   Sint->pTwiddle     = (float64_t *) twiddleCoefF64_64;
 188              		.loc 1 121 3 is_stmt 1 view .LVU57
 189              		.loc 1 121 22 is_stmt 0 view .LVU58
 190 0012 054A     		ldr	r2, .L14+4
 191 0014 4260     		str	r2, [r0, #4]
 122:Middlewares/Third_Party/ARM_CMSIS/CMSIS/DSP/Source/TransformFunctions/arm_rfft_fast_init_f64.c ****   S->pTwiddleRFFT    = (float64_t *) twiddleCoefF64_rfft_128;
 192              		.loc 1 122 3 is_stmt 1 view .LVU59
 193              		.loc 1 122 22 is_stmt 0 view .LVU60
 194 0016 054A     		ldr	r2, .L14+8
 195 0018 4261     		str	r2, [r0, #20]
 123:Middlewares/Third_Party/ARM_CMSIS/CMSIS/DSP/Source/TransformFunctions/arm_rfft_fast_init_f64.c **** 
 124:Middlewares/Third_Party/ARM_CMSIS/CMSIS/DSP/Source/TransformFunctions/arm_rfft_fast_init_f64.c ****   return ARM_MATH_SUCCESS;
 196              		.loc 1 124 3 is_stmt 1 view .LVU61
 197              		.loc 1 124 10 is_stmt 0 view .LVU62
 198 001a 0020     		movs	r0, #0
 199              	.LVL12:
 200              		.loc 1 124 10 view .LVU63
 201 001c 7047     		bx	lr
 202              	.LVL13:
 203              	.L13:
 113:Middlewares/Third_Party/ARM_CMSIS/CMSIS/DSP/Source/TransformFunctions/arm_rfft_fast_init_f64.c **** 
 204              		.loc 1 113 19 view .LVU64
 205 001e 4FF0FF30 		mov	r0, #-1
 206              	.LVL14:
 125:Middlewares/Third_Party/ARM_CMSIS/CMSIS/DSP/Source/TransformFunctions/arm_rfft_fast_init_f64.c **** }
 207              		.loc 1 125 1 view .LVU65
 208 0022 7047     		bx	lr
 209              	.L15:
 210              		.align	2
 211              	.L14:
 212 0024 00000000 		.word	armBitRevIndexTableF64_64
 213 0028 00000000 		.word	twiddleCoefF64_64
 214 002c 00000000 		.word	twiddleCoefF64_rfft_128
 215              		.cfi_endproc
 216              	.LFE178:
 218              		.section	.text.arm_rfft_256_fast_init_f64,"ax",%progbits
 219              		.align	1
 220              		.syntax unified
ARM GAS  C:\Users\7636~1\AppData\Local\Temp\ccagWtKu.s 			page 7


 221              		.thumb
 222              		.thumb_func
 224              	arm_rfft_256_fast_init_f64:
 225              	.LVL15:
 226              	.LFB179:
 126:Middlewares/Third_Party/ARM_CMSIS/CMSIS/DSP/Source/TransformFunctions/arm_rfft_fast_init_f64.c **** #endif
 127:Middlewares/Third_Party/ARM_CMSIS/CMSIS/DSP/Source/TransformFunctions/arm_rfft_fast_init_f64.c **** 
 128:Middlewares/Third_Party/ARM_CMSIS/CMSIS/DSP/Source/TransformFunctions/arm_rfft_fast_init_f64.c **** #if !defined(ARM_DSP_CONFIG_TABLES) || defined(ARM_ALL_FFT_TABLES) || (defined(ARM_TABLE_TWIDDLECOE
 129:Middlewares/Third_Party/ARM_CMSIS/CMSIS/DSP/Source/TransformFunctions/arm_rfft_fast_init_f64.c **** 
 130:Middlewares/Third_Party/ARM_CMSIS/CMSIS/DSP/Source/TransformFunctions/arm_rfft_fast_init_f64.c **** /**
 131:Middlewares/Third_Party/ARM_CMSIS/CMSIS/DSP/Source/TransformFunctions/arm_rfft_fast_init_f64.c ****   @brief         Initialization function for the 256pt Double Precision floating-point real FFT.
 132:Middlewares/Third_Party/ARM_CMSIS/CMSIS/DSP/Source/TransformFunctions/arm_rfft_fast_init_f64.c ****   @param[in,out] S  points to an arm_rfft_fast_instance_f64 structure
 133:Middlewares/Third_Party/ARM_CMSIS/CMSIS/DSP/Source/TransformFunctions/arm_rfft_fast_init_f64.c ****   @return        execution status
 134:Middlewares/Third_Party/ARM_CMSIS/CMSIS/DSP/Source/TransformFunctions/arm_rfft_fast_init_f64.c ****                    - \ref ARM_MATH_SUCCESS        : Operation successful
 135:Middlewares/Third_Party/ARM_CMSIS/CMSIS/DSP/Source/TransformFunctions/arm_rfft_fast_init_f64.c ****                    - \ref ARM_MATH_ARGUMENT_ERROR : an error is detected
 136:Middlewares/Third_Party/ARM_CMSIS/CMSIS/DSP/Source/TransformFunctions/arm_rfft_fast_init_f64.c **** */
 137:Middlewares/Third_Party/ARM_CMSIS/CMSIS/DSP/Source/TransformFunctions/arm_rfft_fast_init_f64.c **** 
 138:Middlewares/Third_Party/ARM_CMSIS/CMSIS/DSP/Source/TransformFunctions/arm_rfft_fast_init_f64.c **** static arm_status arm_rfft_256_fast_init_f64( arm_rfft_fast_instance_f64 * S ) {
 227              		.loc 1 138 80 is_stmt 1 view -0
 228              		.cfi_startproc
 229              		@ args = 0, pretend = 0, frame = 0
 230              		@ frame_needed = 0, uses_anonymous_args = 0
 231              		@ link register save eliminated.
 139:Middlewares/Third_Party/ARM_CMSIS/CMSIS/DSP/Source/TransformFunctions/arm_rfft_fast_init_f64.c **** 
 140:Middlewares/Third_Party/ARM_CMSIS/CMSIS/DSP/Source/TransformFunctions/arm_rfft_fast_init_f64.c ****   arm_cfft_instance_f64 * Sint;
 232              		.loc 1 140 3 view .LVU67
 141:Middlewares/Third_Party/ARM_CMSIS/CMSIS/DSP/Source/TransformFunctions/arm_rfft_fast_init_f64.c **** 
 142:Middlewares/Third_Party/ARM_CMSIS/CMSIS/DSP/Source/TransformFunctions/arm_rfft_fast_init_f64.c ****   if( !S ) return ARM_MATH_ARGUMENT_ERROR;
 233              		.loc 1 142 3 view .LVU68
 234              		.loc 1 142 5 is_stmt 0 view .LVU69
 235 0000 70B1     		cbz	r0, .L18
 143:Middlewares/Third_Party/ARM_CMSIS/CMSIS/DSP/Source/TransformFunctions/arm_rfft_fast_init_f64.c **** 
 144:Middlewares/Third_Party/ARM_CMSIS/CMSIS/DSP/Source/TransformFunctions/arm_rfft_fast_init_f64.c ****   Sint = &(S->Sint);
 236              		.loc 1 144 3 is_stmt 1 view .LVU70
 237              	.LVL16:
 145:Middlewares/Third_Party/ARM_CMSIS/CMSIS/DSP/Source/TransformFunctions/arm_rfft_fast_init_f64.c ****   Sint->fftLen = 128U;
 238              		.loc 1 145 3 view .LVU71
 239              		.loc 1 145 16 is_stmt 0 view .LVU72
 240 0002 8022     		movs	r2, #128
 241 0004 0280     		strh	r2, [r0]	@ movhi
 146:Middlewares/Third_Party/ARM_CMSIS/CMSIS/DSP/Source/TransformFunctions/arm_rfft_fast_init_f64.c ****   S->fftLenRFFT = 256U;
 242              		.loc 1 146 3 is_stmt 1 view .LVU73
 243              		.loc 1 146 17 is_stmt 0 view .LVU74
 244 0006 4FF48072 		mov	r2, #256
 245 000a 0282     		strh	r2, [r0, #16]	@ movhi
 147:Middlewares/Third_Party/ARM_CMSIS/CMSIS/DSP/Source/TransformFunctions/arm_rfft_fast_init_f64.c **** 
 148:Middlewares/Third_Party/ARM_CMSIS/CMSIS/DSP/Source/TransformFunctions/arm_rfft_fast_init_f64.c ****   Sint->bitRevLength = ARMBITREVINDEXTABLEF64_128_TABLE_LENGTH;
 246              		.loc 1 148 3 is_stmt 1 view .LVU75
 247              		.loc 1 148 22 is_stmt 0 view .LVU76
 248 000c 7022     		movs	r2, #112
 249 000e 8281     		strh	r2, [r0, #12]	@ movhi
 149:Middlewares/Third_Party/ARM_CMSIS/CMSIS/DSP/Source/TransformFunctions/arm_rfft_fast_init_f64.c ****   Sint->pBitRevTable = (uint16_t *)armBitRevIndexTableF64_128;
 250              		.loc 1 149 3 is_stmt 1 view .LVU77
 251              		.loc 1 149 22 is_stmt 0 view .LVU78
 252 0010 054A     		ldr	r2, .L19
 253 0012 8260     		str	r2, [r0, #8]
 150:Middlewares/Third_Party/ARM_CMSIS/CMSIS/DSP/Source/TransformFunctions/arm_rfft_fast_init_f64.c ****   Sint->pTwiddle     = (float64_t *) twiddleCoefF64_128;
ARM GAS  C:\Users\7636~1\AppData\Local\Temp\ccagWtKu.s 			page 8


 254              		.loc 1 150 3 is_stmt 1 view .LVU79
 255              		.loc 1 150 22 is_stmt 0 view .LVU80
 256 0014 054A     		ldr	r2, .L19+4
 257 0016 4260     		str	r2, [r0, #4]
 151:Middlewares/Third_Party/ARM_CMSIS/CMSIS/DSP/Source/TransformFunctions/arm_rfft_fast_init_f64.c ****   S->pTwiddleRFFT    = (float64_t *) twiddleCoefF64_rfft_256;
 258              		.loc 1 151 3 is_stmt 1 view .LVU81
 259              		.loc 1 151 22 is_stmt 0 view .LVU82
 260 0018 054A     		ldr	r2, .L19+8
 261 001a 4261     		str	r2, [r0, #20]
 152:Middlewares/Third_Party/ARM_CMSIS/CMSIS/DSP/Source/TransformFunctions/arm_rfft_fast_init_f64.c **** 
 153:Middlewares/Third_Party/ARM_CMSIS/CMSIS/DSP/Source/TransformFunctions/arm_rfft_fast_init_f64.c ****   return ARM_MATH_SUCCESS;
 262              		.loc 1 153 3 is_stmt 1 view .LVU83
 263              		.loc 1 153 10 is_stmt 0 view .LVU84
 264 001c 0020     		movs	r0, #0
 265              	.LVL17:
 266              		.loc 1 153 10 view .LVU85
 267 001e 7047     		bx	lr
 268              	.LVL18:
 269              	.L18:
 142:Middlewares/Third_Party/ARM_CMSIS/CMSIS/DSP/Source/TransformFunctions/arm_rfft_fast_init_f64.c **** 
 270              		.loc 1 142 19 view .LVU86
 271 0020 4FF0FF30 		mov	r0, #-1
 272              	.LVL19:
 154:Middlewares/Third_Party/ARM_CMSIS/CMSIS/DSP/Source/TransformFunctions/arm_rfft_fast_init_f64.c **** }
 273              		.loc 1 154 1 view .LVU87
 274 0024 7047     		bx	lr
 275              	.L20:
 276 0026 00BF     		.align	2
 277              	.L19:
 278 0028 00000000 		.word	armBitRevIndexTableF64_128
 279 002c 00000000 		.word	twiddleCoefF64_128
 280 0030 00000000 		.word	twiddleCoefF64_rfft_256
 281              		.cfi_endproc
 282              	.LFE179:
 284              		.section	.text.arm_rfft_512_fast_init_f64,"ax",%progbits
 285              		.align	1
 286              		.syntax unified
 287              		.thumb
 288              		.thumb_func
 290              	arm_rfft_512_fast_init_f64:
 291              	.LVL20:
 292              	.LFB180:
 155:Middlewares/Third_Party/ARM_CMSIS/CMSIS/DSP/Source/TransformFunctions/arm_rfft_fast_init_f64.c **** #endif
 156:Middlewares/Third_Party/ARM_CMSIS/CMSIS/DSP/Source/TransformFunctions/arm_rfft_fast_init_f64.c **** 
 157:Middlewares/Third_Party/ARM_CMSIS/CMSIS/DSP/Source/TransformFunctions/arm_rfft_fast_init_f64.c **** #if !defined(ARM_DSP_CONFIG_TABLES) || defined(ARM_ALL_FFT_TABLES) || (defined(ARM_TABLE_TWIDDLECOE
 158:Middlewares/Third_Party/ARM_CMSIS/CMSIS/DSP/Source/TransformFunctions/arm_rfft_fast_init_f64.c **** 
 159:Middlewares/Third_Party/ARM_CMSIS/CMSIS/DSP/Source/TransformFunctions/arm_rfft_fast_init_f64.c **** /**
 160:Middlewares/Third_Party/ARM_CMSIS/CMSIS/DSP/Source/TransformFunctions/arm_rfft_fast_init_f64.c ****   @brief         Initialization function for the 512pt Double Precision floating-point real FFT.
 161:Middlewares/Third_Party/ARM_CMSIS/CMSIS/DSP/Source/TransformFunctions/arm_rfft_fast_init_f64.c ****   @param[in,out] S  points to an arm_rfft_fast_instance_f64 structure
 162:Middlewares/Third_Party/ARM_CMSIS/CMSIS/DSP/Source/TransformFunctions/arm_rfft_fast_init_f64.c ****   @return        execution status
 163:Middlewares/Third_Party/ARM_CMSIS/CMSIS/DSP/Source/TransformFunctions/arm_rfft_fast_init_f64.c ****                    - \ref ARM_MATH_SUCCESS        : Operation successful
 164:Middlewares/Third_Party/ARM_CMSIS/CMSIS/DSP/Source/TransformFunctions/arm_rfft_fast_init_f64.c ****                    - \ref ARM_MATH_ARGUMENT_ERROR : an error is detected
 165:Middlewares/Third_Party/ARM_CMSIS/CMSIS/DSP/Source/TransformFunctions/arm_rfft_fast_init_f64.c ****  */
 166:Middlewares/Third_Party/ARM_CMSIS/CMSIS/DSP/Source/TransformFunctions/arm_rfft_fast_init_f64.c **** 
 167:Middlewares/Third_Party/ARM_CMSIS/CMSIS/DSP/Source/TransformFunctions/arm_rfft_fast_init_f64.c **** static arm_status arm_rfft_512_fast_init_f64( arm_rfft_fast_instance_f64 * S ) {
 293              		.loc 1 167 80 is_stmt 1 view -0
 294              		.cfi_startproc
ARM GAS  C:\Users\7636~1\AppData\Local\Temp\ccagWtKu.s 			page 9


 295              		@ args = 0, pretend = 0, frame = 0
 296              		@ frame_needed = 0, uses_anonymous_args = 0
 297              		@ link register save eliminated.
 168:Middlewares/Third_Party/ARM_CMSIS/CMSIS/DSP/Source/TransformFunctions/arm_rfft_fast_init_f64.c **** 
 169:Middlewares/Third_Party/ARM_CMSIS/CMSIS/DSP/Source/TransformFunctions/arm_rfft_fast_init_f64.c ****   arm_cfft_instance_f64 * Sint;
 298              		.loc 1 169 3 view .LVU89
 170:Middlewares/Third_Party/ARM_CMSIS/CMSIS/DSP/Source/TransformFunctions/arm_rfft_fast_init_f64.c **** 
 171:Middlewares/Third_Party/ARM_CMSIS/CMSIS/DSP/Source/TransformFunctions/arm_rfft_fast_init_f64.c ****   if( !S ) return ARM_MATH_ARGUMENT_ERROR;
 299              		.loc 1 171 3 view .LVU90
 300              		.loc 1 171 5 is_stmt 0 view .LVU91
 301 0000 78B1     		cbz	r0, .L23
 172:Middlewares/Third_Party/ARM_CMSIS/CMSIS/DSP/Source/TransformFunctions/arm_rfft_fast_init_f64.c **** 
 173:Middlewares/Third_Party/ARM_CMSIS/CMSIS/DSP/Source/TransformFunctions/arm_rfft_fast_init_f64.c ****   Sint = &(S->Sint);
 302              		.loc 1 173 3 is_stmt 1 view .LVU92
 303              	.LVL21:
 174:Middlewares/Third_Party/ARM_CMSIS/CMSIS/DSP/Source/TransformFunctions/arm_rfft_fast_init_f64.c ****   Sint->fftLen = 256U;
 304              		.loc 1 174 3 view .LVU93
 305              		.loc 1 174 16 is_stmt 0 view .LVU94
 306 0002 4FF48072 		mov	r2, #256
 307 0006 0280     		strh	r2, [r0]	@ movhi
 175:Middlewares/Third_Party/ARM_CMSIS/CMSIS/DSP/Source/TransformFunctions/arm_rfft_fast_init_f64.c ****   S->fftLenRFFT = 512U;
 308              		.loc 1 175 3 is_stmt 1 view .LVU95
 309              		.loc 1 175 17 is_stmt 0 view .LVU96
 310 0008 4FF40072 		mov	r2, #512
 311 000c 0282     		strh	r2, [r0, #16]	@ movhi
 176:Middlewares/Third_Party/ARM_CMSIS/CMSIS/DSP/Source/TransformFunctions/arm_rfft_fast_init_f64.c **** 
 177:Middlewares/Third_Party/ARM_CMSIS/CMSIS/DSP/Source/TransformFunctions/arm_rfft_fast_init_f64.c ****   Sint->bitRevLength = ARMBITREVINDEXTABLEF64_256_TABLE_LENGTH;
 312              		.loc 1 177 3 is_stmt 1 view .LVU97
 313              		.loc 1 177 22 is_stmt 0 view .LVU98
 314 000e F022     		movs	r2, #240
 315 0010 8281     		strh	r2, [r0, #12]	@ movhi
 178:Middlewares/Third_Party/ARM_CMSIS/CMSIS/DSP/Source/TransformFunctions/arm_rfft_fast_init_f64.c ****   Sint->pBitRevTable = (uint16_t *)armBitRevIndexTableF64_256;
 316              		.loc 1 178 3 is_stmt 1 view .LVU99
 317              		.loc 1 178 22 is_stmt 0 view .LVU100
 318 0012 054A     		ldr	r2, .L24
 319 0014 8260     		str	r2, [r0, #8]
 179:Middlewares/Third_Party/ARM_CMSIS/CMSIS/DSP/Source/TransformFunctions/arm_rfft_fast_init_f64.c ****   Sint->pTwiddle     = (float64_t *) twiddleCoefF64_256;
 320              		.loc 1 179 3 is_stmt 1 view .LVU101
 321              		.loc 1 179 22 is_stmt 0 view .LVU102
 322 0016 054A     		ldr	r2, .L24+4
 323 0018 4260     		str	r2, [r0, #4]
 180:Middlewares/Third_Party/ARM_CMSIS/CMSIS/DSP/Source/TransformFunctions/arm_rfft_fast_init_f64.c ****   S->pTwiddleRFFT    = (float64_t *) twiddleCoefF64_rfft_512;
 324              		.loc 1 180 3 is_stmt 1 view .LVU103
 325              		.loc 1 180 22 is_stmt 0 view .LVU104
 326 001a 054A     		ldr	r2, .L24+8
 327 001c 4261     		str	r2, [r0, #20]
 181:Middlewares/Third_Party/ARM_CMSIS/CMSIS/DSP/Source/TransformFunctions/arm_rfft_fast_init_f64.c **** 
 182:Middlewares/Third_Party/ARM_CMSIS/CMSIS/DSP/Source/TransformFunctions/arm_rfft_fast_init_f64.c ****   return ARM_MATH_SUCCESS;
 328              		.loc 1 182 3 is_stmt 1 view .LVU105
 329              		.loc 1 182 10 is_stmt 0 view .LVU106
 330 001e 0020     		movs	r0, #0
 331              	.LVL22:
 332              		.loc 1 182 10 view .LVU107
 333 0020 7047     		bx	lr
 334              	.LVL23:
 335              	.L23:
 171:Middlewares/Third_Party/ARM_CMSIS/CMSIS/DSP/Source/TransformFunctions/arm_rfft_fast_init_f64.c **** 
ARM GAS  C:\Users\7636~1\AppData\Local\Temp\ccagWtKu.s 			page 10


 336              		.loc 1 171 19 view .LVU108
 337 0022 4FF0FF30 		mov	r0, #-1
 338              	.LVL24:
 183:Middlewares/Third_Party/ARM_CMSIS/CMSIS/DSP/Source/TransformFunctions/arm_rfft_fast_init_f64.c **** }
 339              		.loc 1 183 1 view .LVU109
 340 0026 7047     		bx	lr
 341              	.L25:
 342              		.align	2
 343              	.L24:
 344 0028 00000000 		.word	armBitRevIndexTableF64_256
 345 002c 00000000 		.word	twiddleCoefF64_256
 346 0030 00000000 		.word	twiddleCoefF64_rfft_512
 347              		.cfi_endproc
 348              	.LFE180:
 350              		.section	.text.arm_rfft_1024_fast_init_f64,"ax",%progbits
 351              		.align	1
 352              		.syntax unified
 353              		.thumb
 354              		.thumb_func
 356              	arm_rfft_1024_fast_init_f64:
 357              	.LVL25:
 358              	.LFB181:
 184:Middlewares/Third_Party/ARM_CMSIS/CMSIS/DSP/Source/TransformFunctions/arm_rfft_fast_init_f64.c **** #endif
 185:Middlewares/Third_Party/ARM_CMSIS/CMSIS/DSP/Source/TransformFunctions/arm_rfft_fast_init_f64.c **** 
 186:Middlewares/Third_Party/ARM_CMSIS/CMSIS/DSP/Source/TransformFunctions/arm_rfft_fast_init_f64.c **** #if !defined(ARM_DSP_CONFIG_TABLES) || defined(ARM_ALL_FFT_TABLES) || (defined(ARM_TABLE_TWIDDLECOE
 187:Middlewares/Third_Party/ARM_CMSIS/CMSIS/DSP/Source/TransformFunctions/arm_rfft_fast_init_f64.c **** /**
 188:Middlewares/Third_Party/ARM_CMSIS/CMSIS/DSP/Source/TransformFunctions/arm_rfft_fast_init_f64.c ****   @brief         Initialization function for the 1024pt Double Precision floating-point real FFT.
 189:Middlewares/Third_Party/ARM_CMSIS/CMSIS/DSP/Source/TransformFunctions/arm_rfft_fast_init_f64.c ****   @param[in,out] S  points to an arm_rfft_fast_instance_f64 structure
 190:Middlewares/Third_Party/ARM_CMSIS/CMSIS/DSP/Source/TransformFunctions/arm_rfft_fast_init_f64.c ****   @return        execution status
 191:Middlewares/Third_Party/ARM_CMSIS/CMSIS/DSP/Source/TransformFunctions/arm_rfft_fast_init_f64.c ****                    - \ref ARM_MATH_SUCCESS        : Operation successful
 192:Middlewares/Third_Party/ARM_CMSIS/CMSIS/DSP/Source/TransformFunctions/arm_rfft_fast_init_f64.c ****                    - \ref ARM_MATH_ARGUMENT_ERROR : an error is detected
 193:Middlewares/Third_Party/ARM_CMSIS/CMSIS/DSP/Source/TransformFunctions/arm_rfft_fast_init_f64.c ****  */
 194:Middlewares/Third_Party/ARM_CMSIS/CMSIS/DSP/Source/TransformFunctions/arm_rfft_fast_init_f64.c **** 
 195:Middlewares/Third_Party/ARM_CMSIS/CMSIS/DSP/Source/TransformFunctions/arm_rfft_fast_init_f64.c **** static arm_status arm_rfft_1024_fast_init_f64( arm_rfft_fast_instance_f64 * S ) {
 359              		.loc 1 195 81 is_stmt 1 view -0
 360              		.cfi_startproc
 361              		@ args = 0, pretend = 0, frame = 0
 362              		@ frame_needed = 0, uses_anonymous_args = 0
 363              		@ link register save eliminated.
 196:Middlewares/Third_Party/ARM_CMSIS/CMSIS/DSP/Source/TransformFunctions/arm_rfft_fast_init_f64.c **** 
 197:Middlewares/Third_Party/ARM_CMSIS/CMSIS/DSP/Source/TransformFunctions/arm_rfft_fast_init_f64.c ****   arm_cfft_instance_f64 * Sint;
 364              		.loc 1 197 3 view .LVU111
 198:Middlewares/Third_Party/ARM_CMSIS/CMSIS/DSP/Source/TransformFunctions/arm_rfft_fast_init_f64.c **** 
 199:Middlewares/Third_Party/ARM_CMSIS/CMSIS/DSP/Source/TransformFunctions/arm_rfft_fast_init_f64.c ****   if( !S ) return ARM_MATH_ARGUMENT_ERROR;
 365              		.loc 1 199 3 view .LVU112
 366              		.loc 1 199 5 is_stmt 0 view .LVU113
 367 0000 80B1     		cbz	r0, .L28
 200:Middlewares/Third_Party/ARM_CMSIS/CMSIS/DSP/Source/TransformFunctions/arm_rfft_fast_init_f64.c **** 
 201:Middlewares/Third_Party/ARM_CMSIS/CMSIS/DSP/Source/TransformFunctions/arm_rfft_fast_init_f64.c ****   Sint = &(S->Sint);
 368              		.loc 1 201 3 is_stmt 1 view .LVU114
 369              	.LVL26:
 202:Middlewares/Third_Party/ARM_CMSIS/CMSIS/DSP/Source/TransformFunctions/arm_rfft_fast_init_f64.c ****   Sint->fftLen = 512U;
 370              		.loc 1 202 3 view .LVU115
 371              		.loc 1 202 16 is_stmt 0 view .LVU116
 372 0002 4FF40072 		mov	r2, #512
 373 0006 0280     		strh	r2, [r0]	@ movhi
 203:Middlewares/Third_Party/ARM_CMSIS/CMSIS/DSP/Source/TransformFunctions/arm_rfft_fast_init_f64.c ****   S->fftLenRFFT = 1024U;
ARM GAS  C:\Users\7636~1\AppData\Local\Temp\ccagWtKu.s 			page 11


 374              		.loc 1 203 3 is_stmt 1 view .LVU117
 375              		.loc 1 203 17 is_stmt 0 view .LVU118
 376 0008 4FF48062 		mov	r2, #1024
 377 000c 0282     		strh	r2, [r0, #16]	@ movhi
 204:Middlewares/Third_Party/ARM_CMSIS/CMSIS/DSP/Source/TransformFunctions/arm_rfft_fast_init_f64.c **** 
 205:Middlewares/Third_Party/ARM_CMSIS/CMSIS/DSP/Source/TransformFunctions/arm_rfft_fast_init_f64.c ****   Sint->bitRevLength = ARMBITREVINDEXTABLEF64_512_TABLE_LENGTH;
 378              		.loc 1 205 3 is_stmt 1 view .LVU119
 379              		.loc 1 205 22 is_stmt 0 view .LVU120
 380 000e 4FF4F072 		mov	r2, #480
 381 0012 8281     		strh	r2, [r0, #12]	@ movhi
 206:Middlewares/Third_Party/ARM_CMSIS/CMSIS/DSP/Source/TransformFunctions/arm_rfft_fast_init_f64.c ****   Sint->pBitRevTable = (uint16_t *)armBitRevIndexTableF64_512;
 382              		.loc 1 206 3 is_stmt 1 view .LVU121
 383              		.loc 1 206 22 is_stmt 0 view .LVU122
 384 0014 054A     		ldr	r2, .L29
 385 0016 8260     		str	r2, [r0, #8]
 207:Middlewares/Third_Party/ARM_CMSIS/CMSIS/DSP/Source/TransformFunctions/arm_rfft_fast_init_f64.c ****   Sint->pTwiddle     = (float64_t *) twiddleCoefF64_512;
 386              		.loc 1 207 3 is_stmt 1 view .LVU123
 387              		.loc 1 207 22 is_stmt 0 view .LVU124
 388 0018 054A     		ldr	r2, .L29+4
 389 001a 4260     		str	r2, [r0, #4]
 208:Middlewares/Third_Party/ARM_CMSIS/CMSIS/DSP/Source/TransformFunctions/arm_rfft_fast_init_f64.c ****   S->pTwiddleRFFT    = (float64_t *) twiddleCoefF64_rfft_1024;
 390              		.loc 1 208 3 is_stmt 1 view .LVU125
 391              		.loc 1 208 22 is_stmt 0 view .LVU126
 392 001c 054A     		ldr	r2, .L29+8
 393 001e 4261     		str	r2, [r0, #20]
 209:Middlewares/Third_Party/ARM_CMSIS/CMSIS/DSP/Source/TransformFunctions/arm_rfft_fast_init_f64.c **** 
 210:Middlewares/Third_Party/ARM_CMSIS/CMSIS/DSP/Source/TransformFunctions/arm_rfft_fast_init_f64.c ****   return ARM_MATH_SUCCESS;
 394              		.loc 1 210 3 is_stmt 1 view .LVU127
 395              		.loc 1 210 10 is_stmt 0 view .LVU128
 396 0020 0020     		movs	r0, #0
 397              	.LVL27:
 398              		.loc 1 210 10 view .LVU129
 399 0022 7047     		bx	lr
 400              	.LVL28:
 401              	.L28:
 199:Middlewares/Third_Party/ARM_CMSIS/CMSIS/DSP/Source/TransformFunctions/arm_rfft_fast_init_f64.c **** 
 402              		.loc 1 199 19 view .LVU130
 403 0024 4FF0FF30 		mov	r0, #-1
 404              	.LVL29:
 211:Middlewares/Third_Party/ARM_CMSIS/CMSIS/DSP/Source/TransformFunctions/arm_rfft_fast_init_f64.c **** }
 405              		.loc 1 211 1 view .LVU131
 406 0028 7047     		bx	lr
 407              	.L30:
 408 002a 00BF     		.align	2
 409              	.L29:
 410 002c 00000000 		.word	armBitRevIndexTableF64_512
 411 0030 00000000 		.word	twiddleCoefF64_512
 412 0034 00000000 		.word	twiddleCoefF64_rfft_1024
 413              		.cfi_endproc
 414              	.LFE181:
 416              		.section	.text.arm_rfft_2048_fast_init_f64,"ax",%progbits
 417              		.align	1
 418              		.syntax unified
 419              		.thumb
 420              		.thumb_func
 422              	arm_rfft_2048_fast_init_f64:
 423              	.LVL30:
ARM GAS  C:\Users\7636~1\AppData\Local\Temp\ccagWtKu.s 			page 12


 424              	.LFB182:
 212:Middlewares/Third_Party/ARM_CMSIS/CMSIS/DSP/Source/TransformFunctions/arm_rfft_fast_init_f64.c **** #endif
 213:Middlewares/Third_Party/ARM_CMSIS/CMSIS/DSP/Source/TransformFunctions/arm_rfft_fast_init_f64.c **** 
 214:Middlewares/Third_Party/ARM_CMSIS/CMSIS/DSP/Source/TransformFunctions/arm_rfft_fast_init_f64.c **** #if !defined(ARM_DSP_CONFIG_TABLES) || defined(ARM_ALL_FFT_TABLES) || (defined(ARM_TABLE_TWIDDLECOE
 215:Middlewares/Third_Party/ARM_CMSIS/CMSIS/DSP/Source/TransformFunctions/arm_rfft_fast_init_f64.c **** /**
 216:Middlewares/Third_Party/ARM_CMSIS/CMSIS/DSP/Source/TransformFunctions/arm_rfft_fast_init_f64.c ****   @brief         Initialization function for the 2048pt Double Precision floating-point real FFT.
 217:Middlewares/Third_Party/ARM_CMSIS/CMSIS/DSP/Source/TransformFunctions/arm_rfft_fast_init_f64.c ****   @param[in,out] S  points to an arm_rfft_fast_instance_f64 structure
 218:Middlewares/Third_Party/ARM_CMSIS/CMSIS/DSP/Source/TransformFunctions/arm_rfft_fast_init_f64.c ****   @return        execution status
 219:Middlewares/Third_Party/ARM_CMSIS/CMSIS/DSP/Source/TransformFunctions/arm_rfft_fast_init_f64.c ****                    - \ref ARM_MATH_SUCCESS        : Operation successful
 220:Middlewares/Third_Party/ARM_CMSIS/CMSIS/DSP/Source/TransformFunctions/arm_rfft_fast_init_f64.c ****                    - \ref ARM_MATH_ARGUMENT_ERROR : an error is detected
 221:Middlewares/Third_Party/ARM_CMSIS/CMSIS/DSP/Source/TransformFunctions/arm_rfft_fast_init_f64.c ****  */
 222:Middlewares/Third_Party/ARM_CMSIS/CMSIS/DSP/Source/TransformFunctions/arm_rfft_fast_init_f64.c **** static arm_status arm_rfft_2048_fast_init_f64( arm_rfft_fast_instance_f64 * S ) {
 425              		.loc 1 222 81 is_stmt 1 view -0
 426              		.cfi_startproc
 427              		@ args = 0, pretend = 0, frame = 0
 428              		@ frame_needed = 0, uses_anonymous_args = 0
 429              		@ link register save eliminated.
 223:Middlewares/Third_Party/ARM_CMSIS/CMSIS/DSP/Source/TransformFunctions/arm_rfft_fast_init_f64.c **** 
 224:Middlewares/Third_Party/ARM_CMSIS/CMSIS/DSP/Source/TransformFunctions/arm_rfft_fast_init_f64.c ****   arm_cfft_instance_f64 * Sint;
 430              		.loc 1 224 3 view .LVU133
 225:Middlewares/Third_Party/ARM_CMSIS/CMSIS/DSP/Source/TransformFunctions/arm_rfft_fast_init_f64.c **** 
 226:Middlewares/Third_Party/ARM_CMSIS/CMSIS/DSP/Source/TransformFunctions/arm_rfft_fast_init_f64.c ****   if( !S ) return ARM_MATH_ARGUMENT_ERROR;
 431              		.loc 1 226 3 view .LVU134
 432              		.loc 1 226 5 is_stmt 0 view .LVU135
 433 0000 80B1     		cbz	r0, .L33
 227:Middlewares/Third_Party/ARM_CMSIS/CMSIS/DSP/Source/TransformFunctions/arm_rfft_fast_init_f64.c **** 
 228:Middlewares/Third_Party/ARM_CMSIS/CMSIS/DSP/Source/TransformFunctions/arm_rfft_fast_init_f64.c ****   Sint = &(S->Sint);
 434              		.loc 1 228 3 is_stmt 1 view .LVU136
 435              	.LVL31:
 229:Middlewares/Third_Party/ARM_CMSIS/CMSIS/DSP/Source/TransformFunctions/arm_rfft_fast_init_f64.c ****   Sint->fftLen = 1024U;
 436              		.loc 1 229 3 view .LVU137
 437              		.loc 1 229 16 is_stmt 0 view .LVU138
 438 0002 4FF48062 		mov	r2, #1024
 439 0006 0280     		strh	r2, [r0]	@ movhi
 230:Middlewares/Third_Party/ARM_CMSIS/CMSIS/DSP/Source/TransformFunctions/arm_rfft_fast_init_f64.c ****   S->fftLenRFFT = 2048U;
 440              		.loc 1 230 3 is_stmt 1 view .LVU139
 441              		.loc 1 230 17 is_stmt 0 view .LVU140
 442 0008 4FF40062 		mov	r2, #2048
 443 000c 0282     		strh	r2, [r0, #16]	@ movhi
 231:Middlewares/Third_Party/ARM_CMSIS/CMSIS/DSP/Source/TransformFunctions/arm_rfft_fast_init_f64.c **** 
 232:Middlewares/Third_Party/ARM_CMSIS/CMSIS/DSP/Source/TransformFunctions/arm_rfft_fast_init_f64.c ****   Sint->bitRevLength = ARMBITREVINDEXTABLEF64_1024_TABLE_LENGTH;
 444              		.loc 1 232 3 is_stmt 1 view .LVU141
 445              		.loc 1 232 22 is_stmt 0 view .LVU142
 446 000e 4FF47872 		mov	r2, #992
 447 0012 8281     		strh	r2, [r0, #12]	@ movhi
 233:Middlewares/Third_Party/ARM_CMSIS/CMSIS/DSP/Source/TransformFunctions/arm_rfft_fast_init_f64.c ****   Sint->pBitRevTable = (uint16_t *)armBitRevIndexTableF64_1024;
 448              		.loc 1 233 3 is_stmt 1 view .LVU143
 449              		.loc 1 233 22 is_stmt 0 view .LVU144
 450 0014 054A     		ldr	r2, .L34
 451 0016 8260     		str	r2, [r0, #8]
 234:Middlewares/Third_Party/ARM_CMSIS/CMSIS/DSP/Source/TransformFunctions/arm_rfft_fast_init_f64.c ****   Sint->pTwiddle     = (float64_t *) twiddleCoefF64_1024;
 452              		.loc 1 234 3 is_stmt 1 view .LVU145
 453              		.loc 1 234 22 is_stmt 0 view .LVU146
 454 0018 054A     		ldr	r2, .L34+4
 455 001a 4260     		str	r2, [r0, #4]
 235:Middlewares/Third_Party/ARM_CMSIS/CMSIS/DSP/Source/TransformFunctions/arm_rfft_fast_init_f64.c ****   S->pTwiddleRFFT    = (float64_t *) twiddleCoefF64_rfft_2048;
 456              		.loc 1 235 3 is_stmt 1 view .LVU147
ARM GAS  C:\Users\7636~1\AppData\Local\Temp\ccagWtKu.s 			page 13


 457              		.loc 1 235 22 is_stmt 0 view .LVU148
 458 001c 054A     		ldr	r2, .L34+8
 459 001e 4261     		str	r2, [r0, #20]
 236:Middlewares/Third_Party/ARM_CMSIS/CMSIS/DSP/Source/TransformFunctions/arm_rfft_fast_init_f64.c **** 
 237:Middlewares/Third_Party/ARM_CMSIS/CMSIS/DSP/Source/TransformFunctions/arm_rfft_fast_init_f64.c ****   return ARM_MATH_SUCCESS;
 460              		.loc 1 237 3 is_stmt 1 view .LVU149
 461              		.loc 1 237 10 is_stmt 0 view .LVU150
 462 0020 0020     		movs	r0, #0
 463              	.LVL32:
 464              		.loc 1 237 10 view .LVU151
 465 0022 7047     		bx	lr
 466              	.LVL33:
 467              	.L33:
 226:Middlewares/Third_Party/ARM_CMSIS/CMSIS/DSP/Source/TransformFunctions/arm_rfft_fast_init_f64.c **** 
 468              		.loc 1 226 19 view .LVU152
 469 0024 4FF0FF30 		mov	r0, #-1
 470              	.LVL34:
 238:Middlewares/Third_Party/ARM_CMSIS/CMSIS/DSP/Source/TransformFunctions/arm_rfft_fast_init_f64.c **** }
 471              		.loc 1 238 1 view .LVU153
 472 0028 7047     		bx	lr
 473              	.L35:
 474 002a 00BF     		.align	2
 475              	.L34:
 476 002c 00000000 		.word	armBitRevIndexTableF64_1024
 477 0030 00000000 		.word	twiddleCoefF64_1024
 478 0034 00000000 		.word	twiddleCoefF64_rfft_2048
 479              		.cfi_endproc
 480              	.LFE182:
 482              		.section	.text.arm_rfft_4096_fast_init_f64,"ax",%progbits
 483              		.align	1
 484              		.syntax unified
 485              		.thumb
 486              		.thumb_func
 488              	arm_rfft_4096_fast_init_f64:
 489              	.LVL35:
 490              	.LFB183:
 239:Middlewares/Third_Party/ARM_CMSIS/CMSIS/DSP/Source/TransformFunctions/arm_rfft_fast_init_f64.c **** #endif
 240:Middlewares/Third_Party/ARM_CMSIS/CMSIS/DSP/Source/TransformFunctions/arm_rfft_fast_init_f64.c **** 
 241:Middlewares/Third_Party/ARM_CMSIS/CMSIS/DSP/Source/TransformFunctions/arm_rfft_fast_init_f64.c **** #if !defined(ARM_DSP_CONFIG_TABLES) || defined(ARM_ALL_FFT_TABLES) || (defined(ARM_TABLE_TWIDDLECOE
 242:Middlewares/Third_Party/ARM_CMSIS/CMSIS/DSP/Source/TransformFunctions/arm_rfft_fast_init_f64.c **** /**
 243:Middlewares/Third_Party/ARM_CMSIS/CMSIS/DSP/Source/TransformFunctions/arm_rfft_fast_init_f64.c **** * @brief         Initialization function for the 4096pt Double Precision floating-point real FFT.
 244:Middlewares/Third_Party/ARM_CMSIS/CMSIS/DSP/Source/TransformFunctions/arm_rfft_fast_init_f64.c **** * @param[in,out] S  points to an arm_rfft_fast_instance_f64 structure
 245:Middlewares/Third_Party/ARM_CMSIS/CMSIS/DSP/Source/TransformFunctions/arm_rfft_fast_init_f64.c ****   @return        execution status
 246:Middlewares/Third_Party/ARM_CMSIS/CMSIS/DSP/Source/TransformFunctions/arm_rfft_fast_init_f64.c ****                    - \ref ARM_MATH_SUCCESS        : Operation successful
 247:Middlewares/Third_Party/ARM_CMSIS/CMSIS/DSP/Source/TransformFunctions/arm_rfft_fast_init_f64.c ****                    - \ref ARM_MATH_ARGUMENT_ERROR : an error is detected
 248:Middlewares/Third_Party/ARM_CMSIS/CMSIS/DSP/Source/TransformFunctions/arm_rfft_fast_init_f64.c ****  */
 249:Middlewares/Third_Party/ARM_CMSIS/CMSIS/DSP/Source/TransformFunctions/arm_rfft_fast_init_f64.c **** 
 250:Middlewares/Third_Party/ARM_CMSIS/CMSIS/DSP/Source/TransformFunctions/arm_rfft_fast_init_f64.c **** static arm_status arm_rfft_4096_fast_init_f64( arm_rfft_fast_instance_f64 * S ) {
 491              		.loc 1 250 81 is_stmt 1 view -0
 492              		.cfi_startproc
 493              		@ args = 0, pretend = 0, frame = 0
 494              		@ frame_needed = 0, uses_anonymous_args = 0
 495              		@ link register save eliminated.
 251:Middlewares/Third_Party/ARM_CMSIS/CMSIS/DSP/Source/TransformFunctions/arm_rfft_fast_init_f64.c **** 
 252:Middlewares/Third_Party/ARM_CMSIS/CMSIS/DSP/Source/TransformFunctions/arm_rfft_fast_init_f64.c ****   arm_cfft_instance_f64 * Sint;
 496              		.loc 1 252 3 view .LVU155
 253:Middlewares/Third_Party/ARM_CMSIS/CMSIS/DSP/Source/TransformFunctions/arm_rfft_fast_init_f64.c **** 
ARM GAS  C:\Users\7636~1\AppData\Local\Temp\ccagWtKu.s 			page 14


 254:Middlewares/Third_Party/ARM_CMSIS/CMSIS/DSP/Source/TransformFunctions/arm_rfft_fast_init_f64.c ****   if( !S ) return ARM_MATH_ARGUMENT_ERROR;
 497              		.loc 1 254 3 view .LVU156
 498              		.loc 1 254 5 is_stmt 0 view .LVU157
 499 0000 80B1     		cbz	r0, .L38
 255:Middlewares/Third_Party/ARM_CMSIS/CMSIS/DSP/Source/TransformFunctions/arm_rfft_fast_init_f64.c **** 
 256:Middlewares/Third_Party/ARM_CMSIS/CMSIS/DSP/Source/TransformFunctions/arm_rfft_fast_init_f64.c ****   Sint = &(S->Sint);
 500              		.loc 1 256 3 is_stmt 1 view .LVU158
 501              	.LVL36:
 257:Middlewares/Third_Party/ARM_CMSIS/CMSIS/DSP/Source/TransformFunctions/arm_rfft_fast_init_f64.c ****   Sint->fftLen = 2048U;
 502              		.loc 1 257 3 view .LVU159
 503              		.loc 1 257 16 is_stmt 0 view .LVU160
 504 0002 4FF40062 		mov	r2, #2048
 505 0006 0280     		strh	r2, [r0]	@ movhi
 258:Middlewares/Third_Party/ARM_CMSIS/CMSIS/DSP/Source/TransformFunctions/arm_rfft_fast_init_f64.c ****   S->fftLenRFFT = 4096U;
 506              		.loc 1 258 3 is_stmt 1 view .LVU161
 507              		.loc 1 258 17 is_stmt 0 view .LVU162
 508 0008 4FF48052 		mov	r2, #4096
 509 000c 0282     		strh	r2, [r0, #16]	@ movhi
 259:Middlewares/Third_Party/ARM_CMSIS/CMSIS/DSP/Source/TransformFunctions/arm_rfft_fast_init_f64.c **** 
 260:Middlewares/Third_Party/ARM_CMSIS/CMSIS/DSP/Source/TransformFunctions/arm_rfft_fast_init_f64.c ****   Sint->bitRevLength = ARMBITREVINDEXTABLEF64_2048_TABLE_LENGTH;
 510              		.loc 1 260 3 is_stmt 1 view .LVU163
 511              		.loc 1 260 22 is_stmt 0 view .LVU164
 512 000e 4FF4F862 		mov	r2, #1984
 513 0012 8281     		strh	r2, [r0, #12]	@ movhi
 261:Middlewares/Third_Party/ARM_CMSIS/CMSIS/DSP/Source/TransformFunctions/arm_rfft_fast_init_f64.c ****   Sint->pBitRevTable = (uint16_t *)armBitRevIndexTableF64_2048;
 514              		.loc 1 261 3 is_stmt 1 view .LVU165
 515              		.loc 1 261 22 is_stmt 0 view .LVU166
 516 0014 054A     		ldr	r2, .L39
 517 0016 8260     		str	r2, [r0, #8]
 262:Middlewares/Third_Party/ARM_CMSIS/CMSIS/DSP/Source/TransformFunctions/arm_rfft_fast_init_f64.c ****   Sint->pTwiddle     = (float64_t *) twiddleCoefF64_2048;
 518              		.loc 1 262 3 is_stmt 1 view .LVU167
 519              		.loc 1 262 22 is_stmt 0 view .LVU168
 520 0018 054A     		ldr	r2, .L39+4
 521 001a 4260     		str	r2, [r0, #4]
 263:Middlewares/Third_Party/ARM_CMSIS/CMSIS/DSP/Source/TransformFunctions/arm_rfft_fast_init_f64.c ****   S->pTwiddleRFFT    = (float64_t *) twiddleCoefF64_rfft_4096;
 522              		.loc 1 263 3 is_stmt 1 view .LVU169
 523              		.loc 1 263 22 is_stmt 0 view .LVU170
 524 001c 054A     		ldr	r2, .L39+8
 525 001e 4261     		str	r2, [r0, #20]
 264:Middlewares/Third_Party/ARM_CMSIS/CMSIS/DSP/Source/TransformFunctions/arm_rfft_fast_init_f64.c **** 
 265:Middlewares/Third_Party/ARM_CMSIS/CMSIS/DSP/Source/TransformFunctions/arm_rfft_fast_init_f64.c ****   return ARM_MATH_SUCCESS;
 526              		.loc 1 265 3 is_stmt 1 view .LVU171
 527              		.loc 1 265 10 is_stmt 0 view .LVU172
 528 0020 0020     		movs	r0, #0
 529              	.LVL37:
 530              		.loc 1 265 10 view .LVU173
 531 0022 7047     		bx	lr
 532              	.LVL38:
 533              	.L38:
 254:Middlewares/Third_Party/ARM_CMSIS/CMSIS/DSP/Source/TransformFunctions/arm_rfft_fast_init_f64.c **** 
 534              		.loc 1 254 19 view .LVU174
 535 0024 4FF0FF30 		mov	r0, #-1
 536              	.LVL39:
 266:Middlewares/Third_Party/ARM_CMSIS/CMSIS/DSP/Source/TransformFunctions/arm_rfft_fast_init_f64.c **** }
 537              		.loc 1 266 1 view .LVU175
 538 0028 7047     		bx	lr
 539              	.L40:
ARM GAS  C:\Users\7636~1\AppData\Local\Temp\ccagWtKu.s 			page 15


 540 002a 00BF     		.align	2
 541              	.L39:
 542 002c 00000000 		.word	armBitRevIndexTableF64_2048
 543 0030 00000000 		.word	twiddleCoefF64_2048
 544 0034 00000000 		.word	twiddleCoefF64_rfft_4096
 545              		.cfi_endproc
 546              	.LFE183:
 548              		.section	.text.arm_bitreversal_f32,"ax",%progbits
 549              		.align	1
 550              		.global	arm_bitreversal_f32
 551              		.syntax unified
 552              		.thumb
 553              		.thumb_func
 555              	arm_bitreversal_f32:
 556              	.LVL40:
 557              	.LFB120:
 558              		.file 2 "Middlewares/Third_Party/ARM_CMSIS/CMSIS/DSP/Source/TransformFunctions/arm_bitreversal.c"
   1:Middlewares/Third_Party/ARM_CMSIS/CMSIS/DSP/Source/TransformFunctions/arm_bitreversal.c **** /* ----------------------------------------------------------------------
   2:Middlewares/Third_Party/ARM_CMSIS/CMSIS/DSP/Source/TransformFunctions/arm_bitreversal.c ****  * Project:      CMSIS DSP Library
   3:Middlewares/Third_Party/ARM_CMSIS/CMSIS/DSP/Source/TransformFunctions/arm_bitreversal.c ****  * Title:        arm_bitreversal.c
   4:Middlewares/Third_Party/ARM_CMSIS/CMSIS/DSP/Source/TransformFunctions/arm_bitreversal.c ****  * Description:  Bitreversal functions
   5:Middlewares/Third_Party/ARM_CMSIS/CMSIS/DSP/Source/TransformFunctions/arm_bitreversal.c ****  *
   6:Middlewares/Third_Party/ARM_CMSIS/CMSIS/DSP/Source/TransformFunctions/arm_bitreversal.c ****  * $Date:        23 April 2021
   7:Middlewares/Third_Party/ARM_CMSIS/CMSIS/DSP/Source/TransformFunctions/arm_bitreversal.c ****  * $Revision:    V1.9.0
   8:Middlewares/Third_Party/ARM_CMSIS/CMSIS/DSP/Source/TransformFunctions/arm_bitreversal.c ****  *
   9:Middlewares/Third_Party/ARM_CMSIS/CMSIS/DSP/Source/TransformFunctions/arm_bitreversal.c ****  * Target Processor: Cortex-M and Cortex-A cores
  10:Middlewares/Third_Party/ARM_CMSIS/CMSIS/DSP/Source/TransformFunctions/arm_bitreversal.c ****  * -------------------------------------------------------------------- */
  11:Middlewares/Third_Party/ARM_CMSIS/CMSIS/DSP/Source/TransformFunctions/arm_bitreversal.c **** /*
  12:Middlewares/Third_Party/ARM_CMSIS/CMSIS/DSP/Source/TransformFunctions/arm_bitreversal.c ****  * Copyright (C) 2010-2021 ARM Limited or its affiliates. All rights reserved.
  13:Middlewares/Third_Party/ARM_CMSIS/CMSIS/DSP/Source/TransformFunctions/arm_bitreversal.c ****  *
  14:Middlewares/Third_Party/ARM_CMSIS/CMSIS/DSP/Source/TransformFunctions/arm_bitreversal.c ****  * SPDX-License-Identifier: Apache-2.0
  15:Middlewares/Third_Party/ARM_CMSIS/CMSIS/DSP/Source/TransformFunctions/arm_bitreversal.c ****  *
  16:Middlewares/Third_Party/ARM_CMSIS/CMSIS/DSP/Source/TransformFunctions/arm_bitreversal.c ****  * Licensed under the Apache License, Version 2.0 (the License); you may
  17:Middlewares/Third_Party/ARM_CMSIS/CMSIS/DSP/Source/TransformFunctions/arm_bitreversal.c ****  * not use this file except in compliance with the License.
  18:Middlewares/Third_Party/ARM_CMSIS/CMSIS/DSP/Source/TransformFunctions/arm_bitreversal.c ****  * You may obtain a copy of the License at
  19:Middlewares/Third_Party/ARM_CMSIS/CMSIS/DSP/Source/TransformFunctions/arm_bitreversal.c ****  *
  20:Middlewares/Third_Party/ARM_CMSIS/CMSIS/DSP/Source/TransformFunctions/arm_bitreversal.c ****  * www.apache.org/licenses/LICENSE-2.0
  21:Middlewares/Third_Party/ARM_CMSIS/CMSIS/DSP/Source/TransformFunctions/arm_bitreversal.c ****  *
  22:Middlewares/Third_Party/ARM_CMSIS/CMSIS/DSP/Source/TransformFunctions/arm_bitreversal.c ****  * Unless required by applicable law or agreed to in writing, software
  23:Middlewares/Third_Party/ARM_CMSIS/CMSIS/DSP/Source/TransformFunctions/arm_bitreversal.c ****  * distributed under the License is distributed on an AS IS BASIS, WITHOUT
  24:Middlewares/Third_Party/ARM_CMSIS/CMSIS/DSP/Source/TransformFunctions/arm_bitreversal.c ****  * WARRANTIES OR CONDITIONS OF ANY KIND, either express or implied.
  25:Middlewares/Third_Party/ARM_CMSIS/CMSIS/DSP/Source/TransformFunctions/arm_bitreversal.c ****  * See the License for the specific language governing permissions and
  26:Middlewares/Third_Party/ARM_CMSIS/CMSIS/DSP/Source/TransformFunctions/arm_bitreversal.c ****  * limitations under the License.
  27:Middlewares/Third_Party/ARM_CMSIS/CMSIS/DSP/Source/TransformFunctions/arm_bitreversal.c ****  */
  28:Middlewares/Third_Party/ARM_CMSIS/CMSIS/DSP/Source/TransformFunctions/arm_bitreversal.c **** 
  29:Middlewares/Third_Party/ARM_CMSIS/CMSIS/DSP/Source/TransformFunctions/arm_bitreversal.c **** #include "dsp/transform_functions.h"
  30:Middlewares/Third_Party/ARM_CMSIS/CMSIS/DSP/Source/TransformFunctions/arm_bitreversal.c **** #include "arm_common_tables.h"
  31:Middlewares/Third_Party/ARM_CMSIS/CMSIS/DSP/Source/TransformFunctions/arm_bitreversal.c **** 
  32:Middlewares/Third_Party/ARM_CMSIS/CMSIS/DSP/Source/TransformFunctions/arm_bitreversal.c **** 
  33:Middlewares/Third_Party/ARM_CMSIS/CMSIS/DSP/Source/TransformFunctions/arm_bitreversal.c **** /**
  34:Middlewares/Third_Party/ARM_CMSIS/CMSIS/DSP/Source/TransformFunctions/arm_bitreversal.c ****   @brief         In-place floating-point bit reversal function.
  35:Middlewares/Third_Party/ARM_CMSIS/CMSIS/DSP/Source/TransformFunctions/arm_bitreversal.c ****   @param[in,out] pSrc         points to in-place floating-point data buffer
  36:Middlewares/Third_Party/ARM_CMSIS/CMSIS/DSP/Source/TransformFunctions/arm_bitreversal.c ****   @param[in]     fftSize      length of FFT
  37:Middlewares/Third_Party/ARM_CMSIS/CMSIS/DSP/Source/TransformFunctions/arm_bitreversal.c ****   @param[in]     bitRevFactor bit reversal modifier that supports different size FFTs with the same
  38:Middlewares/Third_Party/ARM_CMSIS/CMSIS/DSP/Source/TransformFunctions/arm_bitreversal.c ****   @param[in]     pBitRevTab   points to bit reversal table
  39:Middlewares/Third_Party/ARM_CMSIS/CMSIS/DSP/Source/TransformFunctions/arm_bitreversal.c ****   @return        none
  40:Middlewares/Third_Party/ARM_CMSIS/CMSIS/DSP/Source/TransformFunctions/arm_bitreversal.c ****  */
ARM GAS  C:\Users\7636~1\AppData\Local\Temp\ccagWtKu.s 			page 16


  41:Middlewares/Third_Party/ARM_CMSIS/CMSIS/DSP/Source/TransformFunctions/arm_bitreversal.c **** 
  42:Middlewares/Third_Party/ARM_CMSIS/CMSIS/DSP/Source/TransformFunctions/arm_bitreversal.c **** void arm_bitreversal_f32(
  43:Middlewares/Third_Party/ARM_CMSIS/CMSIS/DSP/Source/TransformFunctions/arm_bitreversal.c ****         float32_t * pSrc,
  44:Middlewares/Third_Party/ARM_CMSIS/CMSIS/DSP/Source/TransformFunctions/arm_bitreversal.c ****         uint16_t fftSize,
  45:Middlewares/Third_Party/ARM_CMSIS/CMSIS/DSP/Source/TransformFunctions/arm_bitreversal.c ****         uint16_t bitRevFactor,
  46:Middlewares/Third_Party/ARM_CMSIS/CMSIS/DSP/Source/TransformFunctions/arm_bitreversal.c ****   const uint16_t * pBitRevTab)
  47:Middlewares/Third_Party/ARM_CMSIS/CMSIS/DSP/Source/TransformFunctions/arm_bitreversal.c **** {
 559              		.loc 2 47 1 is_stmt 1 view -0
 560              		.cfi_startproc
 561              		@ args = 0, pretend = 0, frame = 0
 562              		@ frame_needed = 0, uses_anonymous_args = 0
 563              		.loc 2 47 1 is_stmt 0 view .LVU177
 564 0000 2DE9F043 		push	{r4, r5, r6, r7, r8, r9, lr}
 565              	.LCFI0:
 566              		.cfi_def_cfa_offset 28
 567              		.cfi_offset 4, -28
 568              		.cfi_offset 5, -24
 569              		.cfi_offset 6, -20
 570              		.cfi_offset 7, -16
 571              		.cfi_offset 8, -12
 572              		.cfi_offset 9, -8
 573              		.cfi_offset 14, -4
  48:Middlewares/Third_Party/ARM_CMSIS/CMSIS/DSP/Source/TransformFunctions/arm_bitreversal.c ****    uint16_t fftLenBy2, fftLenBy2p1;
 574              		.loc 2 48 4 is_stmt 1 view .LVU178
  49:Middlewares/Third_Party/ARM_CMSIS/CMSIS/DSP/Source/TransformFunctions/arm_bitreversal.c ****    uint16_t i, j;
 575              		.loc 2 49 4 view .LVU179
  50:Middlewares/Third_Party/ARM_CMSIS/CMSIS/DSP/Source/TransformFunctions/arm_bitreversal.c ****    float32_t in;
 576              		.loc 2 50 4 view .LVU180
  51:Middlewares/Third_Party/ARM_CMSIS/CMSIS/DSP/Source/TransformFunctions/arm_bitreversal.c **** 
  52:Middlewares/Third_Party/ARM_CMSIS/CMSIS/DSP/Source/TransformFunctions/arm_bitreversal.c ****    /*  Initializations */
  53:Middlewares/Third_Party/ARM_CMSIS/CMSIS/DSP/Source/TransformFunctions/arm_bitreversal.c ****    j = 0U;
 577              		.loc 2 53 4 view .LVU181
 578              	.LVL41:
  54:Middlewares/Third_Party/ARM_CMSIS/CMSIS/DSP/Source/TransformFunctions/arm_bitreversal.c ****    fftLenBy2 = fftSize >> 1U;
 579              		.loc 2 54 4 view .LVU182
 580              		.loc 2 54 14 is_stmt 0 view .LVU183
 581 0004 4C08     		lsrs	r4, r1, #1
 582              	.LVL42:
  55:Middlewares/Third_Party/ARM_CMSIS/CMSIS/DSP/Source/TransformFunctions/arm_bitreversal.c ****    fftLenBy2p1 = (fftSize >> 1U) + 1U;
 583              		.loc 2 55 4 is_stmt 1 view .LVU184
 584              		.loc 2 55 16 is_stmt 0 view .LVU185
 585 0006 651C     		adds	r5, r4, #1
 586              	.LVL43:
  56:Middlewares/Third_Party/ARM_CMSIS/CMSIS/DSP/Source/TransformFunctions/arm_bitreversal.c **** 
  57:Middlewares/Third_Party/ARM_CMSIS/CMSIS/DSP/Source/TransformFunctions/arm_bitreversal.c ****    /* Bit Reversal Implementation */
  58:Middlewares/Third_Party/ARM_CMSIS/CMSIS/DSP/Source/TransformFunctions/arm_bitreversal.c ****    for (i = 0U; i <= (fftLenBy2 - 2U); i += 2U)
 587              		.loc 2 58 4 is_stmt 1 view .LVU186
  53:Middlewares/Third_Party/ARM_CMSIS/CMSIS/DSP/Source/TransformFunctions/arm_bitreversal.c ****    fftLenBy2 = fftSize >> 1U;
 588              		.loc 2 53 6 is_stmt 0 view .LVU187
 589 0008 4FF0000C 		mov	ip, #0
 590              		.loc 2 58 11 view .LVU188
 591 000c 6146     		mov	r1, ip
 592              	.LVL44:
 593              		.loc 2 58 4 view .LVU189
 594 000e 27E0     		b	.L42
 595              	.LVL45:
 596              	.L43:
ARM GAS  C:\Users\7636~1\AppData\Local\Temp\ccagWtKu.s 			page 17


  59:Middlewares/Third_Party/ARM_CMSIS/CMSIS/DSP/Source/TransformFunctions/arm_bitreversal.c ****    {
  60:Middlewares/Third_Party/ARM_CMSIS/CMSIS/DSP/Source/TransformFunctions/arm_bitreversal.c ****       if (i < j)
  61:Middlewares/Third_Party/ARM_CMSIS/CMSIS/DSP/Source/TransformFunctions/arm_bitreversal.c ****       {
  62:Middlewares/Third_Party/ARM_CMSIS/CMSIS/DSP/Source/TransformFunctions/arm_bitreversal.c ****          /*  pSrc[i] <-> pSrc[j]; */
  63:Middlewares/Third_Party/ARM_CMSIS/CMSIS/DSP/Source/TransformFunctions/arm_bitreversal.c ****          in = pSrc[2U * i];
  64:Middlewares/Third_Party/ARM_CMSIS/CMSIS/DSP/Source/TransformFunctions/arm_bitreversal.c ****          pSrc[2U * i] = pSrc[2U * j];
  65:Middlewares/Third_Party/ARM_CMSIS/CMSIS/DSP/Source/TransformFunctions/arm_bitreversal.c ****          pSrc[2U * j] = in;
  66:Middlewares/Third_Party/ARM_CMSIS/CMSIS/DSP/Source/TransformFunctions/arm_bitreversal.c **** 
  67:Middlewares/Third_Party/ARM_CMSIS/CMSIS/DSP/Source/TransformFunctions/arm_bitreversal.c ****          /*  pSrc[i+1U] <-> pSrc[j+1U] */
  68:Middlewares/Third_Party/ARM_CMSIS/CMSIS/DSP/Source/TransformFunctions/arm_bitreversal.c ****          in = pSrc[(2U * i) + 1U];
  69:Middlewares/Third_Party/ARM_CMSIS/CMSIS/DSP/Source/TransformFunctions/arm_bitreversal.c ****          pSrc[(2U * i) + 1U] = pSrc[(2U * j) + 1U];
  70:Middlewares/Third_Party/ARM_CMSIS/CMSIS/DSP/Source/TransformFunctions/arm_bitreversal.c ****          pSrc[(2U * j) + 1U] = in;
  71:Middlewares/Third_Party/ARM_CMSIS/CMSIS/DSP/Source/TransformFunctions/arm_bitreversal.c **** 
  72:Middlewares/Third_Party/ARM_CMSIS/CMSIS/DSP/Source/TransformFunctions/arm_bitreversal.c ****          /*  pSrc[i+fftLenBy2p1] <-> pSrc[j+fftLenBy2p1] */
  73:Middlewares/Third_Party/ARM_CMSIS/CMSIS/DSP/Source/TransformFunctions/arm_bitreversal.c ****          in = pSrc[2U * (i + fftLenBy2p1)];
  74:Middlewares/Third_Party/ARM_CMSIS/CMSIS/DSP/Source/TransformFunctions/arm_bitreversal.c ****          pSrc[2U * (i + fftLenBy2p1)] = pSrc[2U * (j + fftLenBy2p1)];
  75:Middlewares/Third_Party/ARM_CMSIS/CMSIS/DSP/Source/TransformFunctions/arm_bitreversal.c ****          pSrc[2U * (j + fftLenBy2p1)] = in;
  76:Middlewares/Third_Party/ARM_CMSIS/CMSIS/DSP/Source/TransformFunctions/arm_bitreversal.c **** 
  77:Middlewares/Third_Party/ARM_CMSIS/CMSIS/DSP/Source/TransformFunctions/arm_bitreversal.c ****          /*  pSrc[i+fftLenBy2p1+1U] <-> pSrc[j+fftLenBy2p1+1U] */
  78:Middlewares/Third_Party/ARM_CMSIS/CMSIS/DSP/Source/TransformFunctions/arm_bitreversal.c ****          in = pSrc[(2U * (i + fftLenBy2p1)) + 1U];
  79:Middlewares/Third_Party/ARM_CMSIS/CMSIS/DSP/Source/TransformFunctions/arm_bitreversal.c ****          pSrc[(2U * (i + fftLenBy2p1)) + 1U] =
  80:Middlewares/Third_Party/ARM_CMSIS/CMSIS/DSP/Source/TransformFunctions/arm_bitreversal.c ****          pSrc[(2U * (j + fftLenBy2p1)) + 1U];
  81:Middlewares/Third_Party/ARM_CMSIS/CMSIS/DSP/Source/TransformFunctions/arm_bitreversal.c ****          pSrc[(2U * (j + fftLenBy2p1)) + 1U] = in;
  82:Middlewares/Third_Party/ARM_CMSIS/CMSIS/DSP/Source/TransformFunctions/arm_bitreversal.c **** 
  83:Middlewares/Third_Party/ARM_CMSIS/CMSIS/DSP/Source/TransformFunctions/arm_bitreversal.c ****       }
  84:Middlewares/Third_Party/ARM_CMSIS/CMSIS/DSP/Source/TransformFunctions/arm_bitreversal.c **** 
  85:Middlewares/Third_Party/ARM_CMSIS/CMSIS/DSP/Source/TransformFunctions/arm_bitreversal.c ****       /*  pSrc[i+1U] <-> pSrc[j+1U] */
  86:Middlewares/Third_Party/ARM_CMSIS/CMSIS/DSP/Source/TransformFunctions/arm_bitreversal.c ****       in = pSrc[2U * (i + 1U)];
 597              		.loc 2 86 7 is_stmt 1 discriminator 2 view .LVU190
 598              		.loc 2 86 25 is_stmt 0 discriminator 2 view .LVU191
 599 0010 0EF10107 		add	r7, lr, #1
 600              		.loc 2 86 16 discriminator 2 view .LVU192
 601 0014 4FEAC70E 		lsl	lr, r7, #3
 602 0018 00EBC707 		add	r7, r0, r7, lsl #3
 603              		.loc 2 86 10 discriminator 2 view .LVU193
 604 001c D7F80080 		ldr	r8, [r7]	@ float
 605              	.LVL46:
  87:Middlewares/Third_Party/ARM_CMSIS/CMSIS/DSP/Source/TransformFunctions/arm_bitreversal.c ****       pSrc[2U * (i + 1U)] = pSrc[2U * (j + fftLenBy2)];
 606              		.loc 2 87 7 is_stmt 1 discriminator 2 view .LVU194
 607              		.loc 2 87 42 is_stmt 0 discriminator 2 view .LVU195
 608 0020 0CEB0406 		add	r6, ip, r4
 609              		.loc 2 87 33 discriminator 2 view .LVU196
 610 0024 4FEAC60C 		lsl	ip, r6, #3
 611              	.LVL47:
 612              		.loc 2 87 33 discriminator 2 view .LVU197
 613 0028 00EBC606 		add	r6, r0, r6, lsl #3
 614 002c D6F80090 		ldr	r9, [r6]	@ float
 615              		.loc 2 87 27 discriminator 2 view .LVU198
 616 0030 C7F80090 		str	r9, [r7]	@ float
  88:Middlewares/Third_Party/ARM_CMSIS/CMSIS/DSP/Source/TransformFunctions/arm_bitreversal.c ****       pSrc[2U * (j + fftLenBy2)] = in;
 617              		.loc 2 88 7 is_stmt 1 discriminator 2 view .LVU199
 618              		.loc 2 88 34 is_stmt 0 discriminator 2 view .LVU200
 619 0034 C6F80080 		str	r8, [r6]	@ float
  89:Middlewares/Third_Party/ARM_CMSIS/CMSIS/DSP/Source/TransformFunctions/arm_bitreversal.c **** 
  90:Middlewares/Third_Party/ARM_CMSIS/CMSIS/DSP/Source/TransformFunctions/arm_bitreversal.c ****       /*  pSrc[i+2U] <-> pSrc[j+2U] */
  91:Middlewares/Third_Party/ARM_CMSIS/CMSIS/DSP/Source/TransformFunctions/arm_bitreversal.c ****       in = pSrc[(2U * (i + 1U)) + 1U];
 620              		.loc 2 91 7 is_stmt 1 discriminator 2 view .LVU201
ARM GAS  C:\Users\7636~1\AppData\Local\Temp\ccagWtKu.s 			page 18


 621              		.loc 2 91 16 is_stmt 0 discriminator 2 view .LVU202
 622 0038 0EF1040E 		add	lr, lr, #4
 623 003c 8644     		add	lr, lr, r0
 624              		.loc 2 91 10 discriminator 2 view .LVU203
 625 003e DEF80060 		ldr	r6, [lr]	@ float
 626              	.LVL48:
  92:Middlewares/Third_Party/ARM_CMSIS/CMSIS/DSP/Source/TransformFunctions/arm_bitreversal.c ****       pSrc[(2U * (i + 1U)) + 1U] = pSrc[(2U * (j + fftLenBy2)) + 1U];
 627              		.loc 2 92 7 is_stmt 1 discriminator 2 view .LVU204
 628              		.loc 2 92 40 is_stmt 0 discriminator 2 view .LVU205
 629 0042 0CF1040C 		add	ip, ip, #4
 630 0046 8444     		add	ip, ip, r0
 631 0048 DCF80070 		ldr	r7, [ip]	@ float
 632              		.loc 2 92 34 discriminator 2 view .LVU206
 633 004c CEF80070 		str	r7, [lr]	@ float
  93:Middlewares/Third_Party/ARM_CMSIS/CMSIS/DSP/Source/TransformFunctions/arm_bitreversal.c ****       pSrc[(2U * (j + fftLenBy2)) + 1U] = in;
 634              		.loc 2 93 7 is_stmt 1 discriminator 2 view .LVU207
 635              		.loc 2 93 41 is_stmt 0 discriminator 2 view .LVU208
 636 0050 CCF80060 		str	r6, [ip]	@ float
  94:Middlewares/Third_Party/ARM_CMSIS/CMSIS/DSP/Source/TransformFunctions/arm_bitreversal.c **** 
  95:Middlewares/Third_Party/ARM_CMSIS/CMSIS/DSP/Source/TransformFunctions/arm_bitreversal.c ****       /*  Reading the index for the bit reversal */
  96:Middlewares/Third_Party/ARM_CMSIS/CMSIS/DSP/Source/TransformFunctions/arm_bitreversal.c ****       j = *pBitRevTab;
 637              		.loc 2 96 7 is_stmt 1 discriminator 2 view .LVU209
 638              		.loc 2 96 9 is_stmt 0 discriminator 2 view .LVU210
 639 0054 B3F800C0 		ldrh	ip, [r3]
 640              	.LVL49:
  97:Middlewares/Third_Party/ARM_CMSIS/CMSIS/DSP/Source/TransformFunctions/arm_bitreversal.c **** 
  98:Middlewares/Third_Party/ARM_CMSIS/CMSIS/DSP/Source/TransformFunctions/arm_bitreversal.c ****       /*  Updating the bit reversal index depending on the fft length  */
  99:Middlewares/Third_Party/ARM_CMSIS/CMSIS/DSP/Source/TransformFunctions/arm_bitreversal.c ****       pBitRevTab += bitRevFactor;
 641              		.loc 2 99 7 is_stmt 1 discriminator 2 view .LVU211
 642              		.loc 2 99 18 is_stmt 0 discriminator 2 view .LVU212
 643 0058 03EB4203 		add	r3, r3, r2, lsl #1
 644              	.LVL50:
  58:Middlewares/Third_Party/ARM_CMSIS/CMSIS/DSP/Source/TransformFunctions/arm_bitreversal.c ****    {
 645              		.loc 2 58 40 is_stmt 1 discriminator 2 view .LVU213
  58:Middlewares/Third_Party/ARM_CMSIS/CMSIS/DSP/Source/TransformFunctions/arm_bitreversal.c ****    {
 646              		.loc 2 58 42 is_stmt 0 discriminator 2 view .LVU214
 647 005c 0231     		adds	r1, r1, #2
 648              	.LVL51:
  58:Middlewares/Third_Party/ARM_CMSIS/CMSIS/DSP/Source/TransformFunctions/arm_bitreversal.c ****    {
 649              		.loc 2 58 42 discriminator 2 view .LVU215
 650 005e 89B2     		uxth	r1, r1
 651              	.LVL52:
 652              	.L42:
  58:Middlewares/Third_Party/ARM_CMSIS/CMSIS/DSP/Source/TransformFunctions/arm_bitreversal.c ****    {
 653              		.loc 2 58 17 is_stmt 1 discriminator 1 view .LVU216
  58:Middlewares/Third_Party/ARM_CMSIS/CMSIS/DSP/Source/TransformFunctions/arm_bitreversal.c ****    {
 654              		.loc 2 58 19 is_stmt 0 discriminator 1 view .LVU217
 655 0060 8E46     		mov	lr, r1
  58:Middlewares/Third_Party/ARM_CMSIS/CMSIS/DSP/Source/TransformFunctions/arm_bitreversal.c ****    {
 656              		.loc 2 58 33 discriminator 1 view .LVU218
 657 0062 A61E     		subs	r6, r4, #2
  58:Middlewares/Third_Party/ARM_CMSIS/CMSIS/DSP/Source/TransformFunctions/arm_bitreversal.c ****    {
 658              		.loc 2 58 4 discriminator 1 view .LVU219
 659 0064 B142     		cmp	r1, r6
 660 0066 3ED8     		bhi	.L46
  60:Middlewares/Third_Party/ARM_CMSIS/CMSIS/DSP/Source/TransformFunctions/arm_bitreversal.c ****       {
 661              		.loc 2 60 7 is_stmt 1 view .LVU220
ARM GAS  C:\Users\7636~1\AppData\Local\Temp\ccagWtKu.s 			page 19


  60:Middlewares/Third_Party/ARM_CMSIS/CMSIS/DSP/Source/TransformFunctions/arm_bitreversal.c ****       {
 662              		.loc 2 60 10 is_stmt 0 view .LVU221
 663 0068 6145     		cmp	r1, ip
 664 006a D1D2     		bcs	.L43
  63:Middlewares/Third_Party/ARM_CMSIS/CMSIS/DSP/Source/TransformFunctions/arm_bitreversal.c ****          pSrc[2U * i] = pSrc[2U * j];
 665              		.loc 2 63 10 is_stmt 1 view .LVU222
  63:Middlewares/Third_Party/ARM_CMSIS/CMSIS/DSP/Source/TransformFunctions/arm_bitreversal.c ****          pSrc[2U * i] = pSrc[2U * j];
 666              		.loc 2 63 19 is_stmt 0 view .LVU223
 667 006c 4FEACE07 		lsl	r7, lr, #3
 668 0070 00EBCE09 		add	r9, r0, lr, lsl #3
  63:Middlewares/Third_Party/ARM_CMSIS/CMSIS/DSP/Source/TransformFunctions/arm_bitreversal.c ****          pSrc[2U * i] = pSrc[2U * j];
 669              		.loc 2 63 13 view .LVU224
 670 0074 D9ED007A 		vldr.32	s15, [r9]
 671              	.LVL53:
  64:Middlewares/Third_Party/ARM_CMSIS/CMSIS/DSP/Source/TransformFunctions/arm_bitreversal.c ****          pSrc[2U * j] = in;
 672              		.loc 2 64 10 is_stmt 1 view .LVU225
  64:Middlewares/Third_Party/ARM_CMSIS/CMSIS/DSP/Source/TransformFunctions/arm_bitreversal.c ****          pSrc[2U * j] = in;
 673              		.loc 2 64 29 is_stmt 0 view .LVU226
 674 0078 4FEACC06 		lsl	r6, ip, #3
 675 007c 00EBCC08 		add	r8, r0, ip, lsl #3
 676 0080 98ED007A 		vldr.32	s14, [r8]
  64:Middlewares/Third_Party/ARM_CMSIS/CMSIS/DSP/Source/TransformFunctions/arm_bitreversal.c ****          pSrc[2U * j] = in;
 677              		.loc 2 64 23 view .LVU227
 678 0084 89ED007A 		vstr.32	s14, [r9]
  65:Middlewares/Third_Party/ARM_CMSIS/CMSIS/DSP/Source/TransformFunctions/arm_bitreversal.c **** 
 679              		.loc 2 65 10 is_stmt 1 view .LVU228
  65:Middlewares/Third_Party/ARM_CMSIS/CMSIS/DSP/Source/TransformFunctions/arm_bitreversal.c **** 
 680              		.loc 2 65 23 is_stmt 0 view .LVU229
 681 0088 C8ED007A 		vstr.32	s15, [r8]
  68:Middlewares/Third_Party/ARM_CMSIS/CMSIS/DSP/Source/TransformFunctions/arm_bitreversal.c ****          pSrc[(2U * i) + 1U] = pSrc[(2U * j) + 1U];
 682              		.loc 2 68 10 is_stmt 1 view .LVU230
  68:Middlewares/Third_Party/ARM_CMSIS/CMSIS/DSP/Source/TransformFunctions/arm_bitreversal.c ****          pSrc[(2U * i) + 1U] = pSrc[(2U * j) + 1U];
 683              		.loc 2 68 19 is_stmt 0 view .LVU231
 684 008c 0437     		adds	r7, r7, #4
 685 008e 0744     		add	r7, r7, r0
  68:Middlewares/Third_Party/ARM_CMSIS/CMSIS/DSP/Source/TransformFunctions/arm_bitreversal.c ****          pSrc[(2U * i) + 1U] = pSrc[(2U * j) + 1U];
 686              		.loc 2 68 13 view .LVU232
 687 0090 D7F80080 		ldr	r8, [r7]	@ float
 688              	.LVL54:
  69:Middlewares/Third_Party/ARM_CMSIS/CMSIS/DSP/Source/TransformFunctions/arm_bitreversal.c ****          pSrc[(2U * j) + 1U] = in;
 689              		.loc 2 69 10 is_stmt 1 view .LVU233
  69:Middlewares/Third_Party/ARM_CMSIS/CMSIS/DSP/Source/TransformFunctions/arm_bitreversal.c ****          pSrc[(2U * j) + 1U] = in;
 690              		.loc 2 69 36 is_stmt 0 view .LVU234
 691 0094 0436     		adds	r6, r6, #4
 692 0096 0644     		add	r6, r6, r0
 693 0098 D6F80090 		ldr	r9, [r6]	@ float
  69:Middlewares/Third_Party/ARM_CMSIS/CMSIS/DSP/Source/TransformFunctions/arm_bitreversal.c ****          pSrc[(2U * j) + 1U] = in;
 694              		.loc 2 69 30 view .LVU235
 695 009c C7F80090 		str	r9, [r7]	@ float
  70:Middlewares/Third_Party/ARM_CMSIS/CMSIS/DSP/Source/TransformFunctions/arm_bitreversal.c **** 
 696              		.loc 2 70 10 is_stmt 1 view .LVU236
  70:Middlewares/Third_Party/ARM_CMSIS/CMSIS/DSP/Source/TransformFunctions/arm_bitreversal.c **** 
 697              		.loc 2 70 30 is_stmt 0 view .LVU237
 698 00a0 C6F80080 		str	r8, [r6]	@ float
  73:Middlewares/Third_Party/ARM_CMSIS/CMSIS/DSP/Source/TransformFunctions/arm_bitreversal.c ****          pSrc[2U * (i + fftLenBy2p1)] = pSrc[2U * (j + fftLenBy2p1)];
 699              		.loc 2 73 10 is_stmt 1 view .LVU238
  73:Middlewares/Third_Party/ARM_CMSIS/CMSIS/DSP/Source/TransformFunctions/arm_bitreversal.c ****          pSrc[2U * (i + fftLenBy2p1)] = pSrc[2U * (j + fftLenBy2p1)];
ARM GAS  C:\Users\7636~1\AppData\Local\Temp\ccagWtKu.s 			page 20


 700              		.loc 2 73 28 is_stmt 0 view .LVU239
 701 00a4 01EB0509 		add	r9, r1, r5
  73:Middlewares/Third_Party/ARM_CMSIS/CMSIS/DSP/Source/TransformFunctions/arm_bitreversal.c ****          pSrc[2U * (i + fftLenBy2p1)] = pSrc[2U * (j + fftLenBy2p1)];
 702              		.loc 2 73 19 view .LVU240
 703 00a8 4FEAC907 		lsl	r7, r9, #3
 704 00ac 00EBC909 		add	r9, r0, r9, lsl #3
  73:Middlewares/Third_Party/ARM_CMSIS/CMSIS/DSP/Source/TransformFunctions/arm_bitreversal.c ****          pSrc[2U * (i + fftLenBy2p1)] = pSrc[2U * (j + fftLenBy2p1)];
 705              		.loc 2 73 13 view .LVU241
 706 00b0 D9ED007A 		vldr.32	s15, [r9]
 707              	.LVL55:
  74:Middlewares/Third_Party/ARM_CMSIS/CMSIS/DSP/Source/TransformFunctions/arm_bitreversal.c ****          pSrc[2U * (j + fftLenBy2p1)] = in;
 708              		.loc 2 74 10 is_stmt 1 view .LVU242
  74:Middlewares/Third_Party/ARM_CMSIS/CMSIS/DSP/Source/TransformFunctions/arm_bitreversal.c ****          pSrc[2U * (j + fftLenBy2p1)] = in;
 709              		.loc 2 74 54 is_stmt 0 view .LVU243
 710 00b4 0CEB0508 		add	r8, ip, r5
  74:Middlewares/Third_Party/ARM_CMSIS/CMSIS/DSP/Source/TransformFunctions/arm_bitreversal.c ****          pSrc[2U * (j + fftLenBy2p1)] = in;
 711              		.loc 2 74 45 view .LVU244
 712 00b8 4FEAC806 		lsl	r6, r8, #3
 713 00bc 00EBC808 		add	r8, r0, r8, lsl #3
 714 00c0 98ED007A 		vldr.32	s14, [r8]
  74:Middlewares/Third_Party/ARM_CMSIS/CMSIS/DSP/Source/TransformFunctions/arm_bitreversal.c ****          pSrc[2U * (j + fftLenBy2p1)] = in;
 715              		.loc 2 74 39 view .LVU245
 716 00c4 89ED007A 		vstr.32	s14, [r9]
  75:Middlewares/Third_Party/ARM_CMSIS/CMSIS/DSP/Source/TransformFunctions/arm_bitreversal.c **** 
 717              		.loc 2 75 10 is_stmt 1 view .LVU246
  75:Middlewares/Third_Party/ARM_CMSIS/CMSIS/DSP/Source/TransformFunctions/arm_bitreversal.c **** 
 718              		.loc 2 75 39 is_stmt 0 view .LVU247
 719 00c8 C8ED007A 		vstr.32	s15, [r8]
  78:Middlewares/Third_Party/ARM_CMSIS/CMSIS/DSP/Source/TransformFunctions/arm_bitreversal.c ****          pSrc[(2U * (i + fftLenBy2p1)) + 1U] =
 720              		.loc 2 78 10 is_stmt 1 view .LVU248
  78:Middlewares/Third_Party/ARM_CMSIS/CMSIS/DSP/Source/TransformFunctions/arm_bitreversal.c ****          pSrc[(2U * (i + fftLenBy2p1)) + 1U] =
 721              		.loc 2 78 19 is_stmt 0 view .LVU249
 722 00cc 0437     		adds	r7, r7, #4
 723 00ce 0744     		add	r7, r7, r0
  78:Middlewares/Third_Party/ARM_CMSIS/CMSIS/DSP/Source/TransformFunctions/arm_bitreversal.c ****          pSrc[(2U * (i + fftLenBy2p1)) + 1U] =
 724              		.loc 2 78 13 view .LVU250
 725 00d0 D7F80080 		ldr	r8, [r7]	@ float
 726              	.LVL56:
  79:Middlewares/Third_Party/ARM_CMSIS/CMSIS/DSP/Source/TransformFunctions/arm_bitreversal.c ****          pSrc[(2U * (j + fftLenBy2p1)) + 1U];
 727              		.loc 2 79 10 is_stmt 1 view .LVU251
  80:Middlewares/Third_Party/ARM_CMSIS/CMSIS/DSP/Source/TransformFunctions/arm_bitreversal.c ****          pSrc[(2U * (j + fftLenBy2p1)) + 1U] = in;
 728              		.loc 2 80 14 is_stmt 0 view .LVU252
 729 00d4 0436     		adds	r6, r6, #4
 730 00d6 0644     		add	r6, r6, r0
 731 00d8 D6F80090 		ldr	r9, [r6]	@ float
  79:Middlewares/Third_Party/ARM_CMSIS/CMSIS/DSP/Source/TransformFunctions/arm_bitreversal.c ****          pSrc[(2U * (j + fftLenBy2p1)) + 1U];
 732              		.loc 2 79 46 view .LVU253
 733 00dc C7F80090 		str	r9, [r7]	@ float
  81:Middlewares/Third_Party/ARM_CMSIS/CMSIS/DSP/Source/TransformFunctions/arm_bitreversal.c **** 
 734              		.loc 2 81 10 is_stmt 1 view .LVU254
  81:Middlewares/Third_Party/ARM_CMSIS/CMSIS/DSP/Source/TransformFunctions/arm_bitreversal.c **** 
 735              		.loc 2 81 46 is_stmt 0 view .LVU255
 736 00e0 C6F80080 		str	r8, [r6]	@ float
 737 00e4 94E7     		b	.L43
 738              	.LVL57:
 739              	.L46:
 100:Middlewares/Third_Party/ARM_CMSIS/CMSIS/DSP/Source/TransformFunctions/arm_bitreversal.c ****    }
ARM GAS  C:\Users\7636~1\AppData\Local\Temp\ccagWtKu.s 			page 21


 101:Middlewares/Third_Party/ARM_CMSIS/CMSIS/DSP/Source/TransformFunctions/arm_bitreversal.c **** }
 740              		.loc 2 101 1 view .LVU256
 741 00e6 BDE8F083 		pop	{r4, r5, r6, r7, r8, r9, pc}
 742              		.loc 2 101 1 view .LVU257
 743              		.cfi_endproc
 744              	.LFE120:
 746              		.section	.text.arm_bitreversal_q31,"ax",%progbits
 747              		.align	1
 748              		.global	arm_bitreversal_q31
 749              		.syntax unified
 750              		.thumb
 751              		.thumb_func
 753              	arm_bitreversal_q31:
 754              	.LVL58:
 755              	.LFB121:
 102:Middlewares/Third_Party/ARM_CMSIS/CMSIS/DSP/Source/TransformFunctions/arm_bitreversal.c **** 
 103:Middlewares/Third_Party/ARM_CMSIS/CMSIS/DSP/Source/TransformFunctions/arm_bitreversal.c **** 
 104:Middlewares/Third_Party/ARM_CMSIS/CMSIS/DSP/Source/TransformFunctions/arm_bitreversal.c **** /**
 105:Middlewares/Third_Party/ARM_CMSIS/CMSIS/DSP/Source/TransformFunctions/arm_bitreversal.c ****   @brief         In-place Q31 bit reversal function.
 106:Middlewares/Third_Party/ARM_CMSIS/CMSIS/DSP/Source/TransformFunctions/arm_bitreversal.c ****   @param[in,out] pSrc         points to in-place Q31 data buffer.
 107:Middlewares/Third_Party/ARM_CMSIS/CMSIS/DSP/Source/TransformFunctions/arm_bitreversal.c ****   @param[in]     fftLen       length of FFT.
 108:Middlewares/Third_Party/ARM_CMSIS/CMSIS/DSP/Source/TransformFunctions/arm_bitreversal.c ****   @param[in]     bitRevFactor bit reversal modifier that supports different size FFTs with the same
 109:Middlewares/Third_Party/ARM_CMSIS/CMSIS/DSP/Source/TransformFunctions/arm_bitreversal.c ****   @param[in]     pBitRevTab   points to bit reversal table
 110:Middlewares/Third_Party/ARM_CMSIS/CMSIS/DSP/Source/TransformFunctions/arm_bitreversal.c ****   @return        none
 111:Middlewares/Third_Party/ARM_CMSIS/CMSIS/DSP/Source/TransformFunctions/arm_bitreversal.c **** */
 112:Middlewares/Third_Party/ARM_CMSIS/CMSIS/DSP/Source/TransformFunctions/arm_bitreversal.c **** 
 113:Middlewares/Third_Party/ARM_CMSIS/CMSIS/DSP/Source/TransformFunctions/arm_bitreversal.c **** void arm_bitreversal_q31(
 114:Middlewares/Third_Party/ARM_CMSIS/CMSIS/DSP/Source/TransformFunctions/arm_bitreversal.c ****         q31_t * pSrc,
 115:Middlewares/Third_Party/ARM_CMSIS/CMSIS/DSP/Source/TransformFunctions/arm_bitreversal.c ****         uint32_t fftLen,
 116:Middlewares/Third_Party/ARM_CMSIS/CMSIS/DSP/Source/TransformFunctions/arm_bitreversal.c ****         uint16_t bitRevFactor,
 117:Middlewares/Third_Party/ARM_CMSIS/CMSIS/DSP/Source/TransformFunctions/arm_bitreversal.c ****   const uint16_t * pBitRevTab)
 118:Middlewares/Third_Party/ARM_CMSIS/CMSIS/DSP/Source/TransformFunctions/arm_bitreversal.c **** {
 756              		.loc 2 118 1 is_stmt 1 view -0
 757              		.cfi_startproc
 758              		@ args = 0, pretend = 0, frame = 0
 759              		@ frame_needed = 0, uses_anonymous_args = 0
 760              		.loc 2 118 1 is_stmt 0 view .LVU259
 761 0000 2DE9F047 		push	{r4, r5, r6, r7, r8, r9, r10, lr}
 762              	.LCFI1:
 763              		.cfi_def_cfa_offset 32
 764              		.cfi_offset 4, -32
 765              		.cfi_offset 5, -28
 766              		.cfi_offset 6, -24
 767              		.cfi_offset 7, -20
 768              		.cfi_offset 8, -16
 769              		.cfi_offset 9, -12
 770              		.cfi_offset 10, -8
 771              		.cfi_offset 14, -4
 772 0004 9246     		mov	r10, r2
 119:Middlewares/Third_Party/ARM_CMSIS/CMSIS/DSP/Source/TransformFunctions/arm_bitreversal.c ****    uint32_t fftLenBy2, fftLenBy2p1, i, j;
 773              		.loc 2 119 4 is_stmt 1 view .LVU260
 120:Middlewares/Third_Party/ARM_CMSIS/CMSIS/DSP/Source/TransformFunctions/arm_bitreversal.c ****    q31_t in;
 774              		.loc 2 120 4 view .LVU261
 121:Middlewares/Third_Party/ARM_CMSIS/CMSIS/DSP/Source/TransformFunctions/arm_bitreversal.c **** 
 122:Middlewares/Third_Party/ARM_CMSIS/CMSIS/DSP/Source/TransformFunctions/arm_bitreversal.c ****    /*  Initializations      */
 123:Middlewares/Third_Party/ARM_CMSIS/CMSIS/DSP/Source/TransformFunctions/arm_bitreversal.c ****    j = 0U;
 775              		.loc 2 123 4 view .LVU262
ARM GAS  C:\Users\7636~1\AppData\Local\Temp\ccagWtKu.s 			page 22


 776              	.LVL59:
 124:Middlewares/Third_Party/ARM_CMSIS/CMSIS/DSP/Source/TransformFunctions/arm_bitreversal.c ****    fftLenBy2 = fftLen / 2U;
 777              		.loc 2 124 4 view .LVU263
 778              		.loc 2 124 14 is_stmt 0 view .LVU264
 779 0006 4D08     		lsrs	r5, r1, #1
 780              	.LVL60:
 125:Middlewares/Third_Party/ARM_CMSIS/CMSIS/DSP/Source/TransformFunctions/arm_bitreversal.c ****    fftLenBy2p1 = (fftLen / 2U) + 1U;
 781              		.loc 2 125 4 is_stmt 1 view .LVU265
 782              		.loc 2 125 16 is_stmt 0 view .LVU266
 783 0008 6E1C     		adds	r6, r5, #1
 784              	.LVL61:
 126:Middlewares/Third_Party/ARM_CMSIS/CMSIS/DSP/Source/TransformFunctions/arm_bitreversal.c **** 
 127:Middlewares/Third_Party/ARM_CMSIS/CMSIS/DSP/Source/TransformFunctions/arm_bitreversal.c ****    /* Bit Reversal Implementation */
 128:Middlewares/Third_Party/ARM_CMSIS/CMSIS/DSP/Source/TransformFunctions/arm_bitreversal.c ****    for (i = 0U; i <= (fftLenBy2 - 2U); i += 2U)
 785              		.loc 2 128 4 is_stmt 1 view .LVU267
 123:Middlewares/Third_Party/ARM_CMSIS/CMSIS/DSP/Source/TransformFunctions/arm_bitreversal.c ****    fftLenBy2 = fftLen / 2U;
 786              		.loc 2 123 6 is_stmt 0 view .LVU268
 787 000a 4FF0000C 		mov	ip, #0
 788              		.loc 2 128 11 view .LVU269
 789 000e 6446     		mov	r4, ip
 790              		.loc 2 128 4 view .LVU270
 791 0010 1FE0     		b	.L48
 792              	.LVL62:
 793              	.L49:
 129:Middlewares/Third_Party/ARM_CMSIS/CMSIS/DSP/Source/TransformFunctions/arm_bitreversal.c ****    {
 130:Middlewares/Third_Party/ARM_CMSIS/CMSIS/DSP/Source/TransformFunctions/arm_bitreversal.c ****       if (i < j)
 131:Middlewares/Third_Party/ARM_CMSIS/CMSIS/DSP/Source/TransformFunctions/arm_bitreversal.c ****       {
 132:Middlewares/Third_Party/ARM_CMSIS/CMSIS/DSP/Source/TransformFunctions/arm_bitreversal.c ****          /*  pSrc[i] <-> pSrc[j]; */
 133:Middlewares/Third_Party/ARM_CMSIS/CMSIS/DSP/Source/TransformFunctions/arm_bitreversal.c ****          in = pSrc[2U * i];
 134:Middlewares/Third_Party/ARM_CMSIS/CMSIS/DSP/Source/TransformFunctions/arm_bitreversal.c ****          pSrc[2U * i] = pSrc[2U * j];
 135:Middlewares/Third_Party/ARM_CMSIS/CMSIS/DSP/Source/TransformFunctions/arm_bitreversal.c ****          pSrc[2U * j] = in;
 136:Middlewares/Third_Party/ARM_CMSIS/CMSIS/DSP/Source/TransformFunctions/arm_bitreversal.c **** 
 137:Middlewares/Third_Party/ARM_CMSIS/CMSIS/DSP/Source/TransformFunctions/arm_bitreversal.c ****          /*  pSrc[i+1U] <-> pSrc[j+1U] */
 138:Middlewares/Third_Party/ARM_CMSIS/CMSIS/DSP/Source/TransformFunctions/arm_bitreversal.c ****          in = pSrc[(2U * i) + 1U];
 139:Middlewares/Third_Party/ARM_CMSIS/CMSIS/DSP/Source/TransformFunctions/arm_bitreversal.c ****          pSrc[(2U * i) + 1U] = pSrc[(2U * j) + 1U];
 140:Middlewares/Third_Party/ARM_CMSIS/CMSIS/DSP/Source/TransformFunctions/arm_bitreversal.c ****          pSrc[(2U * j) + 1U] = in;
 141:Middlewares/Third_Party/ARM_CMSIS/CMSIS/DSP/Source/TransformFunctions/arm_bitreversal.c **** 
 142:Middlewares/Third_Party/ARM_CMSIS/CMSIS/DSP/Source/TransformFunctions/arm_bitreversal.c ****          /*  pSrc[i+fftLenBy2p1] <-> pSrc[j+fftLenBy2p1] */
 143:Middlewares/Third_Party/ARM_CMSIS/CMSIS/DSP/Source/TransformFunctions/arm_bitreversal.c ****          in = pSrc[2U * (i + fftLenBy2p1)];
 144:Middlewares/Third_Party/ARM_CMSIS/CMSIS/DSP/Source/TransformFunctions/arm_bitreversal.c ****          pSrc[2U * (i + fftLenBy2p1)] = pSrc[2U * (j + fftLenBy2p1)];
 145:Middlewares/Third_Party/ARM_CMSIS/CMSIS/DSP/Source/TransformFunctions/arm_bitreversal.c ****          pSrc[2U * (j + fftLenBy2p1)] = in;
 146:Middlewares/Third_Party/ARM_CMSIS/CMSIS/DSP/Source/TransformFunctions/arm_bitreversal.c **** 
 147:Middlewares/Third_Party/ARM_CMSIS/CMSIS/DSP/Source/TransformFunctions/arm_bitreversal.c ****          /*  pSrc[i+fftLenBy2p1+1U] <-> pSrc[j+fftLenBy2p1+1U] */
 148:Middlewares/Third_Party/ARM_CMSIS/CMSIS/DSP/Source/TransformFunctions/arm_bitreversal.c ****          in = pSrc[(2U * (i + fftLenBy2p1)) + 1U];
 149:Middlewares/Third_Party/ARM_CMSIS/CMSIS/DSP/Source/TransformFunctions/arm_bitreversal.c ****          pSrc[(2U * (i + fftLenBy2p1)) + 1U] =
 150:Middlewares/Third_Party/ARM_CMSIS/CMSIS/DSP/Source/TransformFunctions/arm_bitreversal.c ****          pSrc[(2U * (j + fftLenBy2p1)) + 1U];
 151:Middlewares/Third_Party/ARM_CMSIS/CMSIS/DSP/Source/TransformFunctions/arm_bitreversal.c ****          pSrc[(2U * (j + fftLenBy2p1)) + 1U] = in;
 152:Middlewares/Third_Party/ARM_CMSIS/CMSIS/DSP/Source/TransformFunctions/arm_bitreversal.c **** 
 153:Middlewares/Third_Party/ARM_CMSIS/CMSIS/DSP/Source/TransformFunctions/arm_bitreversal.c ****       }
 154:Middlewares/Third_Party/ARM_CMSIS/CMSIS/DSP/Source/TransformFunctions/arm_bitreversal.c **** 
 155:Middlewares/Third_Party/ARM_CMSIS/CMSIS/DSP/Source/TransformFunctions/arm_bitreversal.c ****       /*  pSrc[i+1U] <-> pSrc[j+1U] */
 156:Middlewares/Third_Party/ARM_CMSIS/CMSIS/DSP/Source/TransformFunctions/arm_bitreversal.c ****       in = pSrc[2U * (i + 1U)];
 794              		.loc 2 156 7 is_stmt 1 discriminator 2 view .LVU271
 795              		.loc 2 156 25 is_stmt 0 discriminator 2 view .LVU272
 796 0012 671C     		adds	r7, r4, #1
 797              		.loc 2 156 16 discriminator 2 view .LVU273
 798 0014 4FEAC70E 		lsl	lr, r7, #3
ARM GAS  C:\Users\7636~1\AppData\Local\Temp\ccagWtKu.s 			page 23


 799              		.loc 2 156 10 discriminator 2 view .LVU274
 800 0018 50F83780 		ldr	r8, [r0, r7, lsl #3]
 801              	.LVL63:
 157:Middlewares/Third_Party/ARM_CMSIS/CMSIS/DSP/Source/TransformFunctions/arm_bitreversal.c ****       pSrc[2U * (i + 1U)] = pSrc[2U * (j + fftLenBy2)];
 802              		.loc 2 157 7 is_stmt 1 discriminator 2 view .LVU275
 803              		.loc 2 157 42 is_stmt 0 discriminator 2 view .LVU276
 804 001c 0CEB0501 		add	r1, ip, r5
 805              		.loc 2 157 33 discriminator 2 view .LVU277
 806 0020 4FEAC10C 		lsl	ip, r1, #3
 807              	.LVL64:
 808              		.loc 2 157 27 discriminator 2 view .LVU278
 809 0024 50F83120 		ldr	r2, [r0, r1, lsl #3]
 810 0028 40F83720 		str	r2, [r0, r7, lsl #3]
 158:Middlewares/Third_Party/ARM_CMSIS/CMSIS/DSP/Source/TransformFunctions/arm_bitreversal.c ****       pSrc[2U * (j + fftLenBy2)] = in;
 811              		.loc 2 158 7 is_stmt 1 discriminator 2 view .LVU279
 812              		.loc 2 158 34 is_stmt 0 discriminator 2 view .LVU280
 813 002c 40F83180 		str	r8, [r0, r1, lsl #3]
 159:Middlewares/Third_Party/ARM_CMSIS/CMSIS/DSP/Source/TransformFunctions/arm_bitreversal.c **** 
 160:Middlewares/Third_Party/ARM_CMSIS/CMSIS/DSP/Source/TransformFunctions/arm_bitreversal.c ****       /*  pSrc[i+2U] <-> pSrc[j+2U] */
 161:Middlewares/Third_Party/ARM_CMSIS/CMSIS/DSP/Source/TransformFunctions/arm_bitreversal.c ****       in = pSrc[(2U * (i + 1U)) + 1U];
 814              		.loc 2 161 7 is_stmt 1 discriminator 2 view .LVU281
 815              		.loc 2 161 16 is_stmt 0 discriminator 2 view .LVU282
 816 0030 0EF1040E 		add	lr, lr, #4
 817              		.loc 2 161 10 discriminator 2 view .LVU283
 818 0034 50F80E70 		ldr	r7, [r0, lr]
 819              	.LVL65:
 162:Middlewares/Third_Party/ARM_CMSIS/CMSIS/DSP/Source/TransformFunctions/arm_bitreversal.c ****       pSrc[(2U * (i + 1U)) + 1U] = pSrc[(2U * (j + fftLenBy2)) + 1U];
 820              		.loc 2 162 7 is_stmt 1 discriminator 2 view .LVU284
 821              		.loc 2 162 40 is_stmt 0 discriminator 2 view .LVU285
 822 0038 0CF1040C 		add	ip, ip, #4
 823 003c 50F80C10 		ldr	r1, [r0, ip]
 824              		.loc 2 162 34 discriminator 2 view .LVU286
 825 0040 40F80E10 		str	r1, [r0, lr]
 163:Middlewares/Third_Party/ARM_CMSIS/CMSIS/DSP/Source/TransformFunctions/arm_bitreversal.c ****       pSrc[(2U * (j + fftLenBy2)) + 1U] = in;
 826              		.loc 2 163 7 is_stmt 1 discriminator 2 view .LVU287
 827              		.loc 2 163 41 is_stmt 0 discriminator 2 view .LVU288
 828 0044 40F80C70 		str	r7, [r0, ip]
 164:Middlewares/Third_Party/ARM_CMSIS/CMSIS/DSP/Source/TransformFunctions/arm_bitreversal.c **** 
 165:Middlewares/Third_Party/ARM_CMSIS/CMSIS/DSP/Source/TransformFunctions/arm_bitreversal.c ****       /*  Reading the index for the bit reversal */
 166:Middlewares/Third_Party/ARM_CMSIS/CMSIS/DSP/Source/TransformFunctions/arm_bitreversal.c ****       j = *pBitRevTab;
 829              		.loc 2 166 7 is_stmt 1 discriminator 2 view .LVU289
 830              		.loc 2 166 11 is_stmt 0 discriminator 2 view .LVU290
 831 0048 B3F800C0 		ldrh	ip, [r3]
 832              	.LVL66:
 167:Middlewares/Third_Party/ARM_CMSIS/CMSIS/DSP/Source/TransformFunctions/arm_bitreversal.c **** 
 168:Middlewares/Third_Party/ARM_CMSIS/CMSIS/DSP/Source/TransformFunctions/arm_bitreversal.c ****       /*  Updating the bit reversal index depending on the fft length */
 169:Middlewares/Third_Party/ARM_CMSIS/CMSIS/DSP/Source/TransformFunctions/arm_bitreversal.c ****       pBitRevTab += bitRevFactor;
 833              		.loc 2 169 7 is_stmt 1 discriminator 2 view .LVU291
 834              		.loc 2 169 18 is_stmt 0 discriminator 2 view .LVU292
 835 004c 03EB4A03 		add	r3, r3, r10, lsl #1
 836              	.LVL67:
 128:Middlewares/Third_Party/ARM_CMSIS/CMSIS/DSP/Source/TransformFunctions/arm_bitreversal.c ****    {
 837              		.loc 2 128 40 is_stmt 1 discriminator 2 view .LVU293
 128:Middlewares/Third_Party/ARM_CMSIS/CMSIS/DSP/Source/TransformFunctions/arm_bitreversal.c ****    {
 838              		.loc 2 128 42 is_stmt 0 discriminator 2 view .LVU294
 839 0050 0234     		adds	r4, r4, #2
 840              	.LVL68:
ARM GAS  C:\Users\7636~1\AppData\Local\Temp\ccagWtKu.s 			page 24


 841              	.L48:
 128:Middlewares/Third_Party/ARM_CMSIS/CMSIS/DSP/Source/TransformFunctions/arm_bitreversal.c ****    {
 842              		.loc 2 128 17 is_stmt 1 discriminator 1 view .LVU295
 128:Middlewares/Third_Party/ARM_CMSIS/CMSIS/DSP/Source/TransformFunctions/arm_bitreversal.c ****    {
 843              		.loc 2 128 33 is_stmt 0 discriminator 1 view .LVU296
 844 0052 A91E     		subs	r1, r5, #2
 128:Middlewares/Third_Party/ARM_CMSIS/CMSIS/DSP/Source/TransformFunctions/arm_bitreversal.c ****    {
 845              		.loc 2 128 4 discriminator 1 view .LVU297
 846 0054 A142     		cmp	r1, r4
 847 0056 30D3     		bcc	.L52
 130:Middlewares/Third_Party/ARM_CMSIS/CMSIS/DSP/Source/TransformFunctions/arm_bitreversal.c ****       {
 848              		.loc 2 130 7 is_stmt 1 view .LVU298
 130:Middlewares/Third_Party/ARM_CMSIS/CMSIS/DSP/Source/TransformFunctions/arm_bitreversal.c ****       {
 849              		.loc 2 130 10 is_stmt 0 view .LVU299
 850 0058 6445     		cmp	r4, ip
 851 005a DAD2     		bcs	.L49
 133:Middlewares/Third_Party/ARM_CMSIS/CMSIS/DSP/Source/TransformFunctions/arm_bitreversal.c ****          pSrc[2U * i] = pSrc[2U * j];
 852              		.loc 2 133 10 is_stmt 1 view .LVU300
 133:Middlewares/Third_Party/ARM_CMSIS/CMSIS/DSP/Source/TransformFunctions/arm_bitreversal.c ****          pSrc[2U * i] = pSrc[2U * j];
 853              		.loc 2 133 19 is_stmt 0 view .LVU301
 854 005c 4FEAC40E 		lsl	lr, r4, #3
 133:Middlewares/Third_Party/ARM_CMSIS/CMSIS/DSP/Source/TransformFunctions/arm_bitreversal.c ****          pSrc[2U * i] = pSrc[2U * j];
 855              		.loc 2 133 13 view .LVU302
 856 0060 50F83410 		ldr	r1, [r0, r4, lsl #3]
 857              	.LVL69:
 134:Middlewares/Third_Party/ARM_CMSIS/CMSIS/DSP/Source/TransformFunctions/arm_bitreversal.c ****          pSrc[2U * j] = in;
 858              		.loc 2 134 10 is_stmt 1 view .LVU303
 134:Middlewares/Third_Party/ARM_CMSIS/CMSIS/DSP/Source/TransformFunctions/arm_bitreversal.c ****          pSrc[2U * j] = in;
 859              		.loc 2 134 29 is_stmt 0 view .LVU304
 860 0064 4FEACC07 		lsl	r7, ip, #3
 134:Middlewares/Third_Party/ARM_CMSIS/CMSIS/DSP/Source/TransformFunctions/arm_bitreversal.c ****          pSrc[2U * j] = in;
 861              		.loc 2 134 23 view .LVU305
 862 0068 50F83C20 		ldr	r2, [r0, ip, lsl #3]
 863 006c 40F83420 		str	r2, [r0, r4, lsl #3]
 135:Middlewares/Third_Party/ARM_CMSIS/CMSIS/DSP/Source/TransformFunctions/arm_bitreversal.c **** 
 864              		.loc 2 135 10 is_stmt 1 view .LVU306
 135:Middlewares/Third_Party/ARM_CMSIS/CMSIS/DSP/Source/TransformFunctions/arm_bitreversal.c **** 
 865              		.loc 2 135 23 is_stmt 0 view .LVU307
 866 0070 40F83C10 		str	r1, [r0, ip, lsl #3]
 138:Middlewares/Third_Party/ARM_CMSIS/CMSIS/DSP/Source/TransformFunctions/arm_bitreversal.c ****          pSrc[(2U * i) + 1U] = pSrc[(2U * j) + 1U];
 867              		.loc 2 138 10 is_stmt 1 view .LVU308
 138:Middlewares/Third_Party/ARM_CMSIS/CMSIS/DSP/Source/TransformFunctions/arm_bitreversal.c ****          pSrc[(2U * i) + 1U] = pSrc[(2U * j) + 1U];
 868              		.loc 2 138 19 is_stmt 0 view .LVU309
 869 0074 0EF1040E 		add	lr, lr, #4
 138:Middlewares/Third_Party/ARM_CMSIS/CMSIS/DSP/Source/TransformFunctions/arm_bitreversal.c ****          pSrc[(2U * i) + 1U] = pSrc[(2U * j) + 1U];
 870              		.loc 2 138 13 view .LVU310
 871 0078 50F80E10 		ldr	r1, [r0, lr]
 872              	.LVL70:
 139:Middlewares/Third_Party/ARM_CMSIS/CMSIS/DSP/Source/TransformFunctions/arm_bitreversal.c ****          pSrc[(2U * j) + 1U] = in;
 873              		.loc 2 139 10 is_stmt 1 view .LVU311
 139:Middlewares/Third_Party/ARM_CMSIS/CMSIS/DSP/Source/TransformFunctions/arm_bitreversal.c ****          pSrc[(2U * j) + 1U] = in;
 874              		.loc 2 139 36 is_stmt 0 view .LVU312
 875 007c 0437     		adds	r7, r7, #4
 139:Middlewares/Third_Party/ARM_CMSIS/CMSIS/DSP/Source/TransformFunctions/arm_bitreversal.c ****          pSrc[(2U * j) + 1U] = in;
 876              		.loc 2 139 30 view .LVU313
 877 007e C259     		ldr	r2, [r0, r7]
 878 0080 40F80E20 		str	r2, [r0, lr]
ARM GAS  C:\Users\7636~1\AppData\Local\Temp\ccagWtKu.s 			page 25


 140:Middlewares/Third_Party/ARM_CMSIS/CMSIS/DSP/Source/TransformFunctions/arm_bitreversal.c **** 
 879              		.loc 2 140 10 is_stmt 1 view .LVU314
 140:Middlewares/Third_Party/ARM_CMSIS/CMSIS/DSP/Source/TransformFunctions/arm_bitreversal.c **** 
 880              		.loc 2 140 30 is_stmt 0 view .LVU315
 881 0084 C151     		str	r1, [r0, r7]
 143:Middlewares/Third_Party/ARM_CMSIS/CMSIS/DSP/Source/TransformFunctions/arm_bitreversal.c ****          pSrc[2U * (i + fftLenBy2p1)] = pSrc[2U * (j + fftLenBy2p1)];
 882              		.loc 2 143 10 is_stmt 1 view .LVU316
 143:Middlewares/Third_Party/ARM_CMSIS/CMSIS/DSP/Source/TransformFunctions/arm_bitreversal.c ****          pSrc[2U * (i + fftLenBy2p1)] = pSrc[2U * (j + fftLenBy2p1)];
 883              		.loc 2 143 28 is_stmt 0 view .LVU317
 884 0086 04EB0609 		add	r9, r4, r6
 143:Middlewares/Third_Party/ARM_CMSIS/CMSIS/DSP/Source/TransformFunctions/arm_bitreversal.c ****          pSrc[2U * (i + fftLenBy2p1)] = pSrc[2U * (j + fftLenBy2p1)];
 885              		.loc 2 143 19 view .LVU318
 886 008a 4FEAC90E 		lsl	lr, r9, #3
 143:Middlewares/Third_Party/ARM_CMSIS/CMSIS/DSP/Source/TransformFunctions/arm_bitreversal.c ****          pSrc[2U * (i + fftLenBy2p1)] = pSrc[2U * (j + fftLenBy2p1)];
 887              		.loc 2 143 13 view .LVU319
 888 008e 50F83910 		ldr	r1, [r0, r9, lsl #3]
 889              	.LVL71:
 144:Middlewares/Third_Party/ARM_CMSIS/CMSIS/DSP/Source/TransformFunctions/arm_bitreversal.c ****          pSrc[2U * (j + fftLenBy2p1)] = in;
 890              		.loc 2 144 10 is_stmt 1 view .LVU320
 144:Middlewares/Third_Party/ARM_CMSIS/CMSIS/DSP/Source/TransformFunctions/arm_bitreversal.c ****          pSrc[2U * (j + fftLenBy2p1)] = in;
 891              		.loc 2 144 54 is_stmt 0 view .LVU321
 892 0092 0CEB0608 		add	r8, ip, r6
 144:Middlewares/Third_Party/ARM_CMSIS/CMSIS/DSP/Source/TransformFunctions/arm_bitreversal.c ****          pSrc[2U * (j + fftLenBy2p1)] = in;
 893              		.loc 2 144 45 view .LVU322
 894 0096 4FEAC807 		lsl	r7, r8, #3
 144:Middlewares/Third_Party/ARM_CMSIS/CMSIS/DSP/Source/TransformFunctions/arm_bitreversal.c ****          pSrc[2U * (j + fftLenBy2p1)] = in;
 895              		.loc 2 144 39 view .LVU323
 896 009a 50F83820 		ldr	r2, [r0, r8, lsl #3]
 897 009e 40F83920 		str	r2, [r0, r9, lsl #3]
 145:Middlewares/Third_Party/ARM_CMSIS/CMSIS/DSP/Source/TransformFunctions/arm_bitreversal.c **** 
 898              		.loc 2 145 10 is_stmt 1 view .LVU324
 145:Middlewares/Third_Party/ARM_CMSIS/CMSIS/DSP/Source/TransformFunctions/arm_bitreversal.c **** 
 899              		.loc 2 145 39 is_stmt 0 view .LVU325
 900 00a2 40F83810 		str	r1, [r0, r8, lsl #3]
 148:Middlewares/Third_Party/ARM_CMSIS/CMSIS/DSP/Source/TransformFunctions/arm_bitreversal.c ****          pSrc[(2U * (i + fftLenBy2p1)) + 1U] =
 901              		.loc 2 148 10 is_stmt 1 view .LVU326
 148:Middlewares/Third_Party/ARM_CMSIS/CMSIS/DSP/Source/TransformFunctions/arm_bitreversal.c ****          pSrc[(2U * (i + fftLenBy2p1)) + 1U] =
 902              		.loc 2 148 19 is_stmt 0 view .LVU327
 903 00a6 0EF1040E 		add	lr, lr, #4
 148:Middlewares/Third_Party/ARM_CMSIS/CMSIS/DSP/Source/TransformFunctions/arm_bitreversal.c ****          pSrc[(2U * (i + fftLenBy2p1)) + 1U] =
 904              		.loc 2 148 13 view .LVU328
 905 00aa 50F80E10 		ldr	r1, [r0, lr]
 906              	.LVL72:
 149:Middlewares/Third_Party/ARM_CMSIS/CMSIS/DSP/Source/TransformFunctions/arm_bitreversal.c ****          pSrc[(2U * (j + fftLenBy2p1)) + 1U];
 907              		.loc 2 149 10 is_stmt 1 view .LVU329
 150:Middlewares/Third_Party/ARM_CMSIS/CMSIS/DSP/Source/TransformFunctions/arm_bitreversal.c ****          pSrc[(2U * (j + fftLenBy2p1)) + 1U] = in;
 908              		.loc 2 150 14 is_stmt 0 view .LVU330
 909 00ae 0437     		adds	r7, r7, #4
 149:Middlewares/Third_Party/ARM_CMSIS/CMSIS/DSP/Source/TransformFunctions/arm_bitreversal.c ****          pSrc[(2U * (j + fftLenBy2p1)) + 1U];
 910              		.loc 2 149 46 view .LVU331
 911 00b0 C259     		ldr	r2, [r0, r7]
 912 00b2 40F80E20 		str	r2, [r0, lr]
 151:Middlewares/Third_Party/ARM_CMSIS/CMSIS/DSP/Source/TransformFunctions/arm_bitreversal.c **** 
 913              		.loc 2 151 10 is_stmt 1 view .LVU332
 151:Middlewares/Third_Party/ARM_CMSIS/CMSIS/DSP/Source/TransformFunctions/arm_bitreversal.c **** 
 914              		.loc 2 151 46 is_stmt 0 view .LVU333
 915 00b6 C151     		str	r1, [r0, r7]
ARM GAS  C:\Users\7636~1\AppData\Local\Temp\ccagWtKu.s 			page 26


 916 00b8 ABE7     		b	.L49
 917              	.LVL73:
 918              	.L52:
 170:Middlewares/Third_Party/ARM_CMSIS/CMSIS/DSP/Source/TransformFunctions/arm_bitreversal.c ****    }
 171:Middlewares/Third_Party/ARM_CMSIS/CMSIS/DSP/Source/TransformFunctions/arm_bitreversal.c **** }
 919              		.loc 2 171 1 view .LVU334
 920 00ba BDE8F087 		pop	{r4, r5, r6, r7, r8, r9, r10, pc}
 921              		.loc 2 171 1 view .LVU335
 922              		.cfi_endproc
 923              	.LFE121:
 925              		.section	.text.arm_bitreversal_q15,"ax",%progbits
 926              		.align	1
 927              		.global	arm_bitreversal_q15
 928              		.syntax unified
 929              		.thumb
 930              		.thumb_func
 932              	arm_bitreversal_q15:
 933              	.LVL74:
 934              	.LFB122:
 172:Middlewares/Third_Party/ARM_CMSIS/CMSIS/DSP/Source/TransformFunctions/arm_bitreversal.c **** 
 173:Middlewares/Third_Party/ARM_CMSIS/CMSIS/DSP/Source/TransformFunctions/arm_bitreversal.c **** 
 174:Middlewares/Third_Party/ARM_CMSIS/CMSIS/DSP/Source/TransformFunctions/arm_bitreversal.c **** 
 175:Middlewares/Third_Party/ARM_CMSIS/CMSIS/DSP/Source/TransformFunctions/arm_bitreversal.c **** /**
 176:Middlewares/Third_Party/ARM_CMSIS/CMSIS/DSP/Source/TransformFunctions/arm_bitreversal.c ****   @brief         In-place Q15 bit reversal function.
 177:Middlewares/Third_Party/ARM_CMSIS/CMSIS/DSP/Source/TransformFunctions/arm_bitreversal.c ****   @param[in,out] pSrc16       points to in-place Q15 data buffer
 178:Middlewares/Third_Party/ARM_CMSIS/CMSIS/DSP/Source/TransformFunctions/arm_bitreversal.c ****   @param[in]     fftLen       length of FFT
 179:Middlewares/Third_Party/ARM_CMSIS/CMSIS/DSP/Source/TransformFunctions/arm_bitreversal.c ****   @param[in]     bitRevFactor bit reversal modifier that supports different size FFTs with the same
 180:Middlewares/Third_Party/ARM_CMSIS/CMSIS/DSP/Source/TransformFunctions/arm_bitreversal.c ****   @param[in]     pBitRevTab   points to bit reversal table
 181:Middlewares/Third_Party/ARM_CMSIS/CMSIS/DSP/Source/TransformFunctions/arm_bitreversal.c ****   @return        none
 182:Middlewares/Third_Party/ARM_CMSIS/CMSIS/DSP/Source/TransformFunctions/arm_bitreversal.c **** */
 183:Middlewares/Third_Party/ARM_CMSIS/CMSIS/DSP/Source/TransformFunctions/arm_bitreversal.c **** 
 184:Middlewares/Third_Party/ARM_CMSIS/CMSIS/DSP/Source/TransformFunctions/arm_bitreversal.c **** void arm_bitreversal_q15(
 185:Middlewares/Third_Party/ARM_CMSIS/CMSIS/DSP/Source/TransformFunctions/arm_bitreversal.c ****         q15_t * pSrc16,
 186:Middlewares/Third_Party/ARM_CMSIS/CMSIS/DSP/Source/TransformFunctions/arm_bitreversal.c ****         uint32_t fftLen,
 187:Middlewares/Third_Party/ARM_CMSIS/CMSIS/DSP/Source/TransformFunctions/arm_bitreversal.c ****         uint16_t bitRevFactor,
 188:Middlewares/Third_Party/ARM_CMSIS/CMSIS/DSP/Source/TransformFunctions/arm_bitreversal.c ****   const uint16_t * pBitRevTab)
 189:Middlewares/Third_Party/ARM_CMSIS/CMSIS/DSP/Source/TransformFunctions/arm_bitreversal.c **** {
 935              		.loc 2 189 1 is_stmt 1 view -0
 936              		.cfi_startproc
 937              		@ args = 0, pretend = 0, frame = 0
 938              		@ frame_needed = 0, uses_anonymous_args = 0
 939              		.loc 2 189 1 is_stmt 0 view .LVU337
 940 0000 2DE9F041 		push	{r4, r5, r6, r7, r8, lr}
 941              	.LCFI2:
 942              		.cfi_def_cfa_offset 24
 943              		.cfi_offset 4, -24
 944              		.cfi_offset 5, -20
 945              		.cfi_offset 6, -16
 946              		.cfi_offset 7, -12
 947              		.cfi_offset 8, -8
 948              		.cfi_offset 14, -4
 190:Middlewares/Third_Party/ARM_CMSIS/CMSIS/DSP/Source/TransformFunctions/arm_bitreversal.c ****    q31_t *pSrc = (q31_t *) pSrc16;
 949              		.loc 2 190 4 is_stmt 1 view .LVU338
 950              	.LVL75:
 191:Middlewares/Third_Party/ARM_CMSIS/CMSIS/DSP/Source/TransformFunctions/arm_bitreversal.c ****    q31_t in;
 951              		.loc 2 191 4 view .LVU339
 192:Middlewares/Third_Party/ARM_CMSIS/CMSIS/DSP/Source/TransformFunctions/arm_bitreversal.c ****    uint32_t fftLenBy2, fftLenBy2p1;
ARM GAS  C:\Users\7636~1\AppData\Local\Temp\ccagWtKu.s 			page 27


 952              		.loc 2 192 4 view .LVU340
 193:Middlewares/Third_Party/ARM_CMSIS/CMSIS/DSP/Source/TransformFunctions/arm_bitreversal.c ****    uint32_t i, j;
 953              		.loc 2 193 4 view .LVU341
 194:Middlewares/Third_Party/ARM_CMSIS/CMSIS/DSP/Source/TransformFunctions/arm_bitreversal.c **** 
 195:Middlewares/Third_Party/ARM_CMSIS/CMSIS/DSP/Source/TransformFunctions/arm_bitreversal.c ****    /*  Initializations */
 196:Middlewares/Third_Party/ARM_CMSIS/CMSIS/DSP/Source/TransformFunctions/arm_bitreversal.c ****    j = 0U;
 954              		.loc 2 196 4 view .LVU342
 197:Middlewares/Third_Party/ARM_CMSIS/CMSIS/DSP/Source/TransformFunctions/arm_bitreversal.c ****    fftLenBy2 = fftLen / 2U;
 955              		.loc 2 197 4 view .LVU343
 956              		.loc 2 197 14 is_stmt 0 view .LVU344
 957 0004 4C08     		lsrs	r4, r1, #1
 958              	.LVL76:
 198:Middlewares/Third_Party/ARM_CMSIS/CMSIS/DSP/Source/TransformFunctions/arm_bitreversal.c ****    fftLenBy2p1 = (fftLen / 2U) + 1U;
 959              		.loc 2 198 4 is_stmt 1 view .LVU345
 960              		.loc 2 198 16 is_stmt 0 view .LVU346
 961 0006 661C     		adds	r6, r4, #1
 962              	.LVL77:
 199:Middlewares/Third_Party/ARM_CMSIS/CMSIS/DSP/Source/TransformFunctions/arm_bitreversal.c **** 
 200:Middlewares/Third_Party/ARM_CMSIS/CMSIS/DSP/Source/TransformFunctions/arm_bitreversal.c ****    /* Bit Reversal Implementation */
 201:Middlewares/Third_Party/ARM_CMSIS/CMSIS/DSP/Source/TransformFunctions/arm_bitreversal.c ****    for (i = 0U; i <= (fftLenBy2 - 2U); i += 2U)
 963              		.loc 2 201 4 is_stmt 1 view .LVU347
 196:Middlewares/Third_Party/ARM_CMSIS/CMSIS/DSP/Source/TransformFunctions/arm_bitreversal.c ****    fftLenBy2 = fftLen / 2U;
 964              		.loc 2 196 6 is_stmt 0 view .LVU348
 965 0008 4FF0000C 		mov	ip, #0
 966              		.loc 2 201 11 view .LVU349
 967 000c E646     		mov	lr, ip
 968              		.loc 2 201 4 view .LVU350
 969 000e 10E0     		b	.L54
 970              	.LVL78:
 971              	.L55:
 202:Middlewares/Third_Party/ARM_CMSIS/CMSIS/DSP/Source/TransformFunctions/arm_bitreversal.c ****    {
 203:Middlewares/Third_Party/ARM_CMSIS/CMSIS/DSP/Source/TransformFunctions/arm_bitreversal.c ****       if (i < j)
 204:Middlewares/Third_Party/ARM_CMSIS/CMSIS/DSP/Source/TransformFunctions/arm_bitreversal.c ****       {
 205:Middlewares/Third_Party/ARM_CMSIS/CMSIS/DSP/Source/TransformFunctions/arm_bitreversal.c ****          /*  pSrc[i] <-> pSrc[j]; */
 206:Middlewares/Third_Party/ARM_CMSIS/CMSIS/DSP/Source/TransformFunctions/arm_bitreversal.c ****          /*  pSrc[i+1U] <-> pSrc[j+1U] */
 207:Middlewares/Third_Party/ARM_CMSIS/CMSIS/DSP/Source/TransformFunctions/arm_bitreversal.c ****          in = pSrc[i];
 208:Middlewares/Third_Party/ARM_CMSIS/CMSIS/DSP/Source/TransformFunctions/arm_bitreversal.c ****          pSrc[i] = pSrc[j];
 209:Middlewares/Third_Party/ARM_CMSIS/CMSIS/DSP/Source/TransformFunctions/arm_bitreversal.c ****          pSrc[j] = in;
 210:Middlewares/Third_Party/ARM_CMSIS/CMSIS/DSP/Source/TransformFunctions/arm_bitreversal.c **** 
 211:Middlewares/Third_Party/ARM_CMSIS/CMSIS/DSP/Source/TransformFunctions/arm_bitreversal.c ****          /*  pSrc[i + fftLenBy2p1] <-> pSrc[j + fftLenBy2p1];  */
 212:Middlewares/Third_Party/ARM_CMSIS/CMSIS/DSP/Source/TransformFunctions/arm_bitreversal.c ****          /*  pSrc[i + fftLenBy2p1+1U] <-> pSrc[j + fftLenBy2p1+1U] */
 213:Middlewares/Third_Party/ARM_CMSIS/CMSIS/DSP/Source/TransformFunctions/arm_bitreversal.c ****          in = pSrc[i + fftLenBy2p1];
 214:Middlewares/Third_Party/ARM_CMSIS/CMSIS/DSP/Source/TransformFunctions/arm_bitreversal.c ****          pSrc[i + fftLenBy2p1] = pSrc[j + fftLenBy2p1];
 215:Middlewares/Third_Party/ARM_CMSIS/CMSIS/DSP/Source/TransformFunctions/arm_bitreversal.c ****          pSrc[j + fftLenBy2p1] = in;
 216:Middlewares/Third_Party/ARM_CMSIS/CMSIS/DSP/Source/TransformFunctions/arm_bitreversal.c ****       }
 217:Middlewares/Third_Party/ARM_CMSIS/CMSIS/DSP/Source/TransformFunctions/arm_bitreversal.c **** 
 218:Middlewares/Third_Party/ARM_CMSIS/CMSIS/DSP/Source/TransformFunctions/arm_bitreversal.c ****       /*  pSrc[i+1U] <-> pSrc[j+fftLenBy2];         */
 219:Middlewares/Third_Party/ARM_CMSIS/CMSIS/DSP/Source/TransformFunctions/arm_bitreversal.c ****       /*  pSrc[i+2] <-> pSrc[j+fftLenBy2+1U]  */
 220:Middlewares/Third_Party/ARM_CMSIS/CMSIS/DSP/Source/TransformFunctions/arm_bitreversal.c ****       in = pSrc[i + 1U];
 972              		.loc 2 220 7 is_stmt 1 discriminator 2 view .LVU351
 973              		.loc 2 220 16 is_stmt 0 discriminator 2 view .LVU352
 974 0010 0EF10101 		add	r1, lr, #1
 975              		.loc 2 220 10 discriminator 2 view .LVU353
 976 0014 50F82150 		ldr	r5, [r0, r1, lsl #2]
 977              	.LVL79:
 221:Middlewares/Third_Party/ARM_CMSIS/CMSIS/DSP/Source/TransformFunctions/arm_bitreversal.c ****       pSrc[i + 1U] = pSrc[j + fftLenBy2];
 978              		.loc 2 221 7 is_stmt 1 discriminator 2 view .LVU354
ARM GAS  C:\Users\7636~1\AppData\Local\Temp\ccagWtKu.s 			page 28


 979              		.loc 2 221 29 is_stmt 0 discriminator 2 view .LVU355
 980 0018 A444     		add	ip, ip, r4
 981              	.LVL80:
 982              		.loc 2 221 20 discriminator 2 view .LVU356
 983 001a 50F82C70 		ldr	r7, [r0, ip, lsl #2]
 984 001e 40F82170 		str	r7, [r0, r1, lsl #2]
 222:Middlewares/Third_Party/ARM_CMSIS/CMSIS/DSP/Source/TransformFunctions/arm_bitreversal.c ****       pSrc[j + fftLenBy2] = in;
 985              		.loc 2 222 7 is_stmt 1 discriminator 2 view .LVU357
 986              		.loc 2 222 27 is_stmt 0 discriminator 2 view .LVU358
 987 0022 40F82C50 		str	r5, [r0, ip, lsl #2]
 223:Middlewares/Third_Party/ARM_CMSIS/CMSIS/DSP/Source/TransformFunctions/arm_bitreversal.c **** 
 224:Middlewares/Third_Party/ARM_CMSIS/CMSIS/DSP/Source/TransformFunctions/arm_bitreversal.c ****       /*  Reading the index for the bit reversal */
 225:Middlewares/Third_Party/ARM_CMSIS/CMSIS/DSP/Source/TransformFunctions/arm_bitreversal.c ****       j = *pBitRevTab;
 988              		.loc 2 225 7 is_stmt 1 discriminator 2 view .LVU359
 989              		.loc 2 225 11 is_stmt 0 discriminator 2 view .LVU360
 990 0026 B3F800C0 		ldrh	ip, [r3]
 991              	.LVL81:
 226:Middlewares/Third_Party/ARM_CMSIS/CMSIS/DSP/Source/TransformFunctions/arm_bitreversal.c **** 
 227:Middlewares/Third_Party/ARM_CMSIS/CMSIS/DSP/Source/TransformFunctions/arm_bitreversal.c ****       /*  Updating the bit reversal index depending on the fft length  */
 228:Middlewares/Third_Party/ARM_CMSIS/CMSIS/DSP/Source/TransformFunctions/arm_bitreversal.c ****       pBitRevTab += bitRevFactor;
 992              		.loc 2 228 7 is_stmt 1 discriminator 2 view .LVU361
 993              		.loc 2 228 18 is_stmt 0 discriminator 2 view .LVU362
 994 002a 03EB4203 		add	r3, r3, r2, lsl #1
 995              	.LVL82:
 201:Middlewares/Third_Party/ARM_CMSIS/CMSIS/DSP/Source/TransformFunctions/arm_bitreversal.c ****    {
 996              		.loc 2 201 40 is_stmt 1 discriminator 2 view .LVU363
 201:Middlewares/Third_Party/ARM_CMSIS/CMSIS/DSP/Source/TransformFunctions/arm_bitreversal.c ****    {
 997              		.loc 2 201 42 is_stmt 0 discriminator 2 view .LVU364
 998 002e 0EF1020E 		add	lr, lr, #2
 999              	.LVL83:
 1000              	.L54:
 201:Middlewares/Third_Party/ARM_CMSIS/CMSIS/DSP/Source/TransformFunctions/arm_bitreversal.c ****    {
 1001              		.loc 2 201 17 is_stmt 1 discriminator 1 view .LVU365
 201:Middlewares/Third_Party/ARM_CMSIS/CMSIS/DSP/Source/TransformFunctions/arm_bitreversal.c ****    {
 1002              		.loc 2 201 33 is_stmt 0 discriminator 1 view .LVU366
 1003 0032 A11E     		subs	r1, r4, #2
 201:Middlewares/Third_Party/ARM_CMSIS/CMSIS/DSP/Source/TransformFunctions/arm_bitreversal.c ****    {
 1004              		.loc 2 201 4 discriminator 1 view .LVU367
 1005 0034 7145     		cmp	r1, lr
 1006 0036 16D3     		bcc	.L58
 203:Middlewares/Third_Party/ARM_CMSIS/CMSIS/DSP/Source/TransformFunctions/arm_bitreversal.c ****       {
 1007              		.loc 2 203 7 is_stmt 1 view .LVU368
 203:Middlewares/Third_Party/ARM_CMSIS/CMSIS/DSP/Source/TransformFunctions/arm_bitreversal.c ****       {
 1008              		.loc 2 203 10 is_stmt 0 view .LVU369
 1009 0038 E645     		cmp	lr, ip
 1010 003a E9D2     		bcs	.L55
 207:Middlewares/Third_Party/ARM_CMSIS/CMSIS/DSP/Source/TransformFunctions/arm_bitreversal.c ****          pSrc[i] = pSrc[j];
 1011              		.loc 2 207 10 is_stmt 1 view .LVU370
 207:Middlewares/Third_Party/ARM_CMSIS/CMSIS/DSP/Source/TransformFunctions/arm_bitreversal.c ****          pSrc[i] = pSrc[j];
 1012              		.loc 2 207 13 is_stmt 0 view .LVU371
 1013 003c 50F82E50 		ldr	r5, [r0, lr, lsl #2]
 1014              	.LVL84:
 208:Middlewares/Third_Party/ARM_CMSIS/CMSIS/DSP/Source/TransformFunctions/arm_bitreversal.c ****          pSrc[j] = in;
 1015              		.loc 2 208 10 is_stmt 1 view .LVU372
 208:Middlewares/Third_Party/ARM_CMSIS/CMSIS/DSP/Source/TransformFunctions/arm_bitreversal.c ****          pSrc[j] = in;
 1016              		.loc 2 208 24 is_stmt 0 view .LVU373
 1017 0040 50F82C10 		ldr	r1, [r0, ip, lsl #2]
ARM GAS  C:\Users\7636~1\AppData\Local\Temp\ccagWtKu.s 			page 29


 208:Middlewares/Third_Party/ARM_CMSIS/CMSIS/DSP/Source/TransformFunctions/arm_bitreversal.c ****          pSrc[j] = in;
 1018              		.loc 2 208 18 view .LVU374
 1019 0044 40F82E10 		str	r1, [r0, lr, lsl #2]
 209:Middlewares/Third_Party/ARM_CMSIS/CMSIS/DSP/Source/TransformFunctions/arm_bitreversal.c **** 
 1020              		.loc 2 209 10 is_stmt 1 view .LVU375
 209:Middlewares/Third_Party/ARM_CMSIS/CMSIS/DSP/Source/TransformFunctions/arm_bitreversal.c **** 
 1021              		.loc 2 209 18 is_stmt 0 view .LVU376
 1022 0048 40F82C50 		str	r5, [r0, ip, lsl #2]
 213:Middlewares/Third_Party/ARM_CMSIS/CMSIS/DSP/Source/TransformFunctions/arm_bitreversal.c ****          pSrc[i + fftLenBy2p1] = pSrc[j + fftLenBy2p1];
 1023              		.loc 2 213 10 is_stmt 1 view .LVU377
 213:Middlewares/Third_Party/ARM_CMSIS/CMSIS/DSP/Source/TransformFunctions/arm_bitreversal.c ****          pSrc[i + fftLenBy2p1] = pSrc[j + fftLenBy2p1];
 1024              		.loc 2 213 22 is_stmt 0 view .LVU378
 1025 004c 0EEB0607 		add	r7, lr, r6
 213:Middlewares/Third_Party/ARM_CMSIS/CMSIS/DSP/Source/TransformFunctions/arm_bitreversal.c ****          pSrc[i + fftLenBy2p1] = pSrc[j + fftLenBy2p1];
 1026              		.loc 2 213 13 view .LVU379
 1027 0050 50F82780 		ldr	r8, [r0, r7, lsl #2]
 1028              	.LVL85:
 214:Middlewares/Third_Party/ARM_CMSIS/CMSIS/DSP/Source/TransformFunctions/arm_bitreversal.c ****          pSrc[j + fftLenBy2p1] = in;
 1029              		.loc 2 214 10 is_stmt 1 view .LVU380
 214:Middlewares/Third_Party/ARM_CMSIS/CMSIS/DSP/Source/TransformFunctions/arm_bitreversal.c ****          pSrc[j + fftLenBy2p1] = in;
 1030              		.loc 2 214 41 is_stmt 0 view .LVU381
 1031 0054 0CEB0601 		add	r1, ip, r6
 214:Middlewares/Third_Party/ARM_CMSIS/CMSIS/DSP/Source/TransformFunctions/arm_bitreversal.c ****          pSrc[j + fftLenBy2p1] = in;
 1032              		.loc 2 214 32 view .LVU382
 1033 0058 50F82150 		ldr	r5, [r0, r1, lsl #2]
 1034 005c 40F82750 		str	r5, [r0, r7, lsl #2]
 215:Middlewares/Third_Party/ARM_CMSIS/CMSIS/DSP/Source/TransformFunctions/arm_bitreversal.c ****       }
 1035              		.loc 2 215 10 is_stmt 1 view .LVU383
 215:Middlewares/Third_Party/ARM_CMSIS/CMSIS/DSP/Source/TransformFunctions/arm_bitreversal.c ****       }
 1036              		.loc 2 215 32 is_stmt 0 view .LVU384
 1037 0060 40F82180 		str	r8, [r0, r1, lsl #2]
 1038 0064 D4E7     		b	.L55
 1039              	.LVL86:
 1040              	.L58:
 229:Middlewares/Third_Party/ARM_CMSIS/CMSIS/DSP/Source/TransformFunctions/arm_bitreversal.c ****    }
 230:Middlewares/Third_Party/ARM_CMSIS/CMSIS/DSP/Source/TransformFunctions/arm_bitreversal.c **** }
 1041              		.loc 2 230 1 view .LVU385
 1042 0066 BDE8F081 		pop	{r4, r5, r6, r7, r8, pc}
 1043              		.loc 2 230 1 view .LVU386
 1044              		.cfi_endproc
 1045              	.LFE122:
 1047              		.section	.text.arm_bitreversal_64,"ax",%progbits
 1048              		.align	1
 1049              		.global	arm_bitreversal_64
 1050              		.syntax unified
 1051              		.thumb
 1052              		.thumb_func
 1054              	arm_bitreversal_64:
 1055              	.LVL87:
 1056              	.LFB123:
 1057              		.file 3 "Middlewares/Third_Party/ARM_CMSIS/CMSIS/DSP/Source/TransformFunctions/arm_bitreversal2.c"
   1:Middlewares/Third_Party/ARM_CMSIS/CMSIS/DSP/Source/TransformFunctions/arm_bitreversal2.c **** /* ----------------------------------------------------------------------
   2:Middlewares/Third_Party/ARM_CMSIS/CMSIS/DSP/Source/TransformFunctions/arm_bitreversal2.c ****  * Project:      CMSIS DSP Library
   3:Middlewares/Third_Party/ARM_CMSIS/CMSIS/DSP/Source/TransformFunctions/arm_bitreversal2.c ****  * Title:        arm_bitreversal2.c
   4:Middlewares/Third_Party/ARM_CMSIS/CMSIS/DSP/Source/TransformFunctions/arm_bitreversal2.c ****  * Description:  Bitreversal functions
   5:Middlewares/Third_Party/ARM_CMSIS/CMSIS/DSP/Source/TransformFunctions/arm_bitreversal2.c ****  *
   6:Middlewares/Third_Party/ARM_CMSIS/CMSIS/DSP/Source/TransformFunctions/arm_bitreversal2.c ****  * $Date:        23 April 2021
ARM GAS  C:\Users\7636~1\AppData\Local\Temp\ccagWtKu.s 			page 30


   7:Middlewares/Third_Party/ARM_CMSIS/CMSIS/DSP/Source/TransformFunctions/arm_bitreversal2.c ****  * $Revision:    V1.9.0
   8:Middlewares/Third_Party/ARM_CMSIS/CMSIS/DSP/Source/TransformFunctions/arm_bitreversal2.c ****  *
   9:Middlewares/Third_Party/ARM_CMSIS/CMSIS/DSP/Source/TransformFunctions/arm_bitreversal2.c ****  * Target Processor: Cortex-M and Cortex-A cores
  10:Middlewares/Third_Party/ARM_CMSIS/CMSIS/DSP/Source/TransformFunctions/arm_bitreversal2.c ****  * -------------------------------------------------------------------- */
  11:Middlewares/Third_Party/ARM_CMSIS/CMSIS/DSP/Source/TransformFunctions/arm_bitreversal2.c **** /*
  12:Middlewares/Third_Party/ARM_CMSIS/CMSIS/DSP/Source/TransformFunctions/arm_bitreversal2.c ****  * Copyright (C) 2019 ARM Limited or its affiliates. All rights reserved.
  13:Middlewares/Third_Party/ARM_CMSIS/CMSIS/DSP/Source/TransformFunctions/arm_bitreversal2.c ****  *
  14:Middlewares/Third_Party/ARM_CMSIS/CMSIS/DSP/Source/TransformFunctions/arm_bitreversal2.c ****  * SPDX-License-Identifier: Apache-2.0
  15:Middlewares/Third_Party/ARM_CMSIS/CMSIS/DSP/Source/TransformFunctions/arm_bitreversal2.c ****  *
  16:Middlewares/Third_Party/ARM_CMSIS/CMSIS/DSP/Source/TransformFunctions/arm_bitreversal2.c ****  * Licensed under the Apache License, Version 2.0 (the License); you may
  17:Middlewares/Third_Party/ARM_CMSIS/CMSIS/DSP/Source/TransformFunctions/arm_bitreversal2.c ****  * not use this file except in compliance with the License.
  18:Middlewares/Third_Party/ARM_CMSIS/CMSIS/DSP/Source/TransformFunctions/arm_bitreversal2.c ****  * You may obtain a copy of the License at
  19:Middlewares/Third_Party/ARM_CMSIS/CMSIS/DSP/Source/TransformFunctions/arm_bitreversal2.c ****  *
  20:Middlewares/Third_Party/ARM_CMSIS/CMSIS/DSP/Source/TransformFunctions/arm_bitreversal2.c ****  * www.apache.org/licenses/LICENSE-2.0
  21:Middlewares/Third_Party/ARM_CMSIS/CMSIS/DSP/Source/TransformFunctions/arm_bitreversal2.c ****  *
  22:Middlewares/Third_Party/ARM_CMSIS/CMSIS/DSP/Source/TransformFunctions/arm_bitreversal2.c ****  * Unless required by applicable law or agreed to in writing, software
  23:Middlewares/Third_Party/ARM_CMSIS/CMSIS/DSP/Source/TransformFunctions/arm_bitreversal2.c ****  * distributed under the License is distributed on an AS IS BASIS, WITHOUT
  24:Middlewares/Third_Party/ARM_CMSIS/CMSIS/DSP/Source/TransformFunctions/arm_bitreversal2.c ****  * WARRANTIES OR CONDITIONS OF ANY KIND, either express or implied.
  25:Middlewares/Third_Party/ARM_CMSIS/CMSIS/DSP/Source/TransformFunctions/arm_bitreversal2.c ****  * See the License for the specific language governing permissions and
  26:Middlewares/Third_Party/ARM_CMSIS/CMSIS/DSP/Source/TransformFunctions/arm_bitreversal2.c ****  * limitations under the License.
  27:Middlewares/Third_Party/ARM_CMSIS/CMSIS/DSP/Source/TransformFunctions/arm_bitreversal2.c ****  */
  28:Middlewares/Third_Party/ARM_CMSIS/CMSIS/DSP/Source/TransformFunctions/arm_bitreversal2.c **** 
  29:Middlewares/Third_Party/ARM_CMSIS/CMSIS/DSP/Source/TransformFunctions/arm_bitreversal2.c **** #include "dsp/transform_functions.h"
  30:Middlewares/Third_Party/ARM_CMSIS/CMSIS/DSP/Source/TransformFunctions/arm_bitreversal2.c **** #include "arm_common_tables.h"
  31:Middlewares/Third_Party/ARM_CMSIS/CMSIS/DSP/Source/TransformFunctions/arm_bitreversal2.c **** 
  32:Middlewares/Third_Party/ARM_CMSIS/CMSIS/DSP/Source/TransformFunctions/arm_bitreversal2.c **** 
  33:Middlewares/Third_Party/ARM_CMSIS/CMSIS/DSP/Source/TransformFunctions/arm_bitreversal2.c **** /**
  34:Middlewares/Third_Party/ARM_CMSIS/CMSIS/DSP/Source/TransformFunctions/arm_bitreversal2.c ****   @brief         In-place 64 bit reversal function.
  35:Middlewares/Third_Party/ARM_CMSIS/CMSIS/DSP/Source/TransformFunctions/arm_bitreversal2.c ****   @param[in,out] pSrc        points to in-place buffer of unknown 64-bit data type
  36:Middlewares/Third_Party/ARM_CMSIS/CMSIS/DSP/Source/TransformFunctions/arm_bitreversal2.c ****   @param[in]     bitRevLen   bit reversal table length
  37:Middlewares/Third_Party/ARM_CMSIS/CMSIS/DSP/Source/TransformFunctions/arm_bitreversal2.c ****   @param[in]     pBitRevTab  points to bit reversal table
  38:Middlewares/Third_Party/ARM_CMSIS/CMSIS/DSP/Source/TransformFunctions/arm_bitreversal2.c ****   @return        none
  39:Middlewares/Third_Party/ARM_CMSIS/CMSIS/DSP/Source/TransformFunctions/arm_bitreversal2.c **** */
  40:Middlewares/Third_Party/ARM_CMSIS/CMSIS/DSP/Source/TransformFunctions/arm_bitreversal2.c **** 
  41:Middlewares/Third_Party/ARM_CMSIS/CMSIS/DSP/Source/TransformFunctions/arm_bitreversal2.c **** void arm_bitreversal_64(
  42:Middlewares/Third_Party/ARM_CMSIS/CMSIS/DSP/Source/TransformFunctions/arm_bitreversal2.c ****         uint64_t *pSrc,
  43:Middlewares/Third_Party/ARM_CMSIS/CMSIS/DSP/Source/TransformFunctions/arm_bitreversal2.c ****   const uint16_t bitRevLen,
  44:Middlewares/Third_Party/ARM_CMSIS/CMSIS/DSP/Source/TransformFunctions/arm_bitreversal2.c ****   const uint16_t *pBitRevTab)
  45:Middlewares/Third_Party/ARM_CMSIS/CMSIS/DSP/Source/TransformFunctions/arm_bitreversal2.c **** {
 1058              		.loc 3 45 1 is_stmt 1 view -0
 1059              		.cfi_startproc
 1060              		@ args = 0, pretend = 0, frame = 0
 1061              		@ frame_needed = 0, uses_anonymous_args = 0
 1062              		.loc 3 45 1 is_stmt 0 view .LVU388
 1063 0000 70B5     		push	{r4, r5, r6, lr}
 1064              	.LCFI3:
 1065              		.cfi_def_cfa_offset 16
 1066              		.cfi_offset 4, -16
 1067              		.cfi_offset 5, -12
 1068              		.cfi_offset 6, -8
 1069              		.cfi_offset 14, -4
  46:Middlewares/Third_Party/ARM_CMSIS/CMSIS/DSP/Source/TransformFunctions/arm_bitreversal2.c ****   uint64_t a, b, i, tmp;
 1070              		.loc 3 46 3 is_stmt 1 view .LVU389
  47:Middlewares/Third_Party/ARM_CMSIS/CMSIS/DSP/Source/TransformFunctions/arm_bitreversal2.c **** 
  48:Middlewares/Third_Party/ARM_CMSIS/CMSIS/DSP/Source/TransformFunctions/arm_bitreversal2.c ****   for (i = 0; i < bitRevLen; )
 1071              		.loc 3 48 3 view .LVU390
 1072              	.LVL88:
ARM GAS  C:\Users\7636~1\AppData\Local\Temp\ccagWtKu.s 			page 31


 1073              		.loc 3 48 10 is_stmt 0 view .LVU391
 1074 0002 4FF0000E 		mov	lr, #0
 1075 0006 7646     		mov	r6, lr
 1076              		.loc 3 48 3 view .LVU392
 1077 0008 27E0     		b	.L60
 1078              	.LVL89:
 1079              	.L61:
  49:Middlewares/Third_Party/ARM_CMSIS/CMSIS/DSP/Source/TransformFunctions/arm_bitreversal2.c ****   {
  50:Middlewares/Third_Party/ARM_CMSIS/CMSIS/DSP/Source/TransformFunctions/arm_bitreversal2.c ****      a = pBitRevTab[i    ] >> 2;
 1080              		.loc 3 50 6 is_stmt 1 view .LVU393
 1081              		.loc 3 50 20 is_stmt 0 view .LVU394
 1082 000a 32F81EC0 		ldrh	ip, [r2, lr, lsl #1]
 1083              		.loc 3 50 28 view .LVU395
 1084 000e 4FEA9C0C 		lsr	ip, ip, #2
 1085              	.LVL90:
  51:Middlewares/Third_Party/ARM_CMSIS/CMSIS/DSP/Source/TransformFunctions/arm_bitreversal2.c ****      b = pBitRevTab[i + 1] >> 2;
 1086              		.loc 3 51 6 is_stmt 1 view .LVU396
 1087              		.loc 3 51 23 is_stmt 0 view .LVU397
 1088 0012 0EF10103 		add	r3, lr, #1
 1089              		.loc 3 51 20 view .LVU398
 1090 0016 32F81330 		ldrh	r3, [r2, r3, lsl #1]
 1091              		.loc 3 51 28 view .LVU399
 1092 001a 9B08     		lsrs	r3, r3, #2
 1093              	.LVL91:
  52:Middlewares/Third_Party/ARM_CMSIS/CMSIS/DSP/Source/TransformFunctions/arm_bitreversal2.c **** 
  53:Middlewares/Third_Party/ARM_CMSIS/CMSIS/DSP/Source/TransformFunctions/arm_bitreversal2.c ****      //real
  54:Middlewares/Third_Party/ARM_CMSIS/CMSIS/DSP/Source/TransformFunctions/arm_bitreversal2.c ****      tmp = pSrc[a];
 1094              		.loc 3 54 6 is_stmt 1 view .LVU400
 1095              		.loc 3 54 16 is_stmt 0 view .LVU401
 1096 001c 00EBCC05 		add	r5, r0, ip, lsl #3
 1097              		.loc 3 54 10 view .LVU402
 1098 0020 95ED007B 		vldr.64	d7, [r5]	@ int
 1099              	.LVL92:
  55:Middlewares/Third_Party/ARM_CMSIS/CMSIS/DSP/Source/TransformFunctions/arm_bitreversal2.c ****      pSrc[a] = pSrc[b];
 1100              		.loc 3 55 6 is_stmt 1 view .LVU403
 1101              		.loc 3 55 20 is_stmt 0 view .LVU404
 1102 0024 00EBC304 		add	r4, r0, r3, lsl #3
 1103 0028 94ED006B 		vldr.64	d6, [r4]	@ int
 1104              		.loc 3 55 14 view .LVU405
 1105 002c 85ED006B 		vstr.64	d6, [r5]	@ int
  56:Middlewares/Third_Party/ARM_CMSIS/CMSIS/DSP/Source/TransformFunctions/arm_bitreversal2.c ****      pSrc[b] = tmp;
 1106              		.loc 3 56 6 is_stmt 1 view .LVU406
 1107              		.loc 3 56 14 is_stmt 0 view .LVU407
 1108 0030 84ED007B 		vstr.64	d7, [r4]	@ int
  57:Middlewares/Third_Party/ARM_CMSIS/CMSIS/DSP/Source/TransformFunctions/arm_bitreversal2.c **** 
  58:Middlewares/Third_Party/ARM_CMSIS/CMSIS/DSP/Source/TransformFunctions/arm_bitreversal2.c ****      //complex
  59:Middlewares/Third_Party/ARM_CMSIS/CMSIS/DSP/Source/TransformFunctions/arm_bitreversal2.c ****      tmp = pSrc[a+1];
 1109              		.loc 3 59 6 is_stmt 1 view .LVU408
 1110              		.loc 3 59 18 is_stmt 0 view .LVU409
 1111 0034 0CF1010C 		add	ip, ip, #1
 1112              	.LVL93:
 1113              		.loc 3 59 16 view .LVU410
 1114 0038 00EBCC0C 		add	ip, r0, ip, lsl #3
 1115              	.LVL94:
 1116              		.loc 3 59 10 view .LVU411
 1117 003c DCE90045 		ldrd	r4, [ip]
 1118              	.LVL95:
ARM GAS  C:\Users\7636~1\AppData\Local\Temp\ccagWtKu.s 			page 32


  60:Middlewares/Third_Party/ARM_CMSIS/CMSIS/DSP/Source/TransformFunctions/arm_bitreversal2.c ****      pSrc[a+1] = pSrc[b+1];
 1119              		.loc 3 60 6 is_stmt 1 view .LVU412
 1120              		.loc 3 60 24 is_stmt 0 view .LVU413
 1121 0040 0133     		adds	r3, r3, #1
 1122              	.LVL96:
 1123              		.loc 3 60 22 view .LVU414
 1124 0042 00EBC303 		add	r3, r0, r3, lsl #3
 1125              	.LVL97:
 1126              		.loc 3 60 22 view .LVU415
 1127 0046 93ED007B 		vldr.64	d7, [r3]	@ int
 1128              		.loc 3 60 16 view .LVU416
 1129 004a 8CED007B 		vstr.64	d7, [ip]	@ int
  61:Middlewares/Third_Party/ARM_CMSIS/CMSIS/DSP/Source/TransformFunctions/arm_bitreversal2.c ****      pSrc[b+1] = tmp;
 1130              		.loc 3 61 6 is_stmt 1 view .LVU417
 1131              		.loc 3 61 16 is_stmt 0 view .LVU418
 1132 004e C3E90045 		strd	r4, [r3]
  62:Middlewares/Third_Party/ARM_CMSIS/CMSIS/DSP/Source/TransformFunctions/arm_bitreversal2.c **** 
  63:Middlewares/Third_Party/ARM_CMSIS/CMSIS/DSP/Source/TransformFunctions/arm_bitreversal2.c ****     i += 2;
 1133              		.loc 3 63 5 is_stmt 1 view .LVU419
 1134              		.loc 3 63 7 is_stmt 0 view .LVU420
 1135 0052 1EF1020E 		adds	lr, lr, #2
 1136              	.LVL98:
 1137              		.loc 3 63 7 view .LVU421
 1138 0056 46F10006 		adc	r6, r6, #0
 1139              	.LVL99:
 1140              	.L60:
  48:Middlewares/Third_Party/ARM_CMSIS/CMSIS/DSP/Source/TransformFunctions/arm_bitreversal2.c ****   {
 1141              		.loc 3 48 15 is_stmt 1 discriminator 1 view .LVU422
  48:Middlewares/Third_Party/ARM_CMSIS/CMSIS/DSP/Source/TransformFunctions/arm_bitreversal2.c ****   {
 1142              		.loc 3 48 3 is_stmt 0 discriminator 1 view .LVU423
 1143 005a 8E45     		cmp	lr, r1
 1144 005c 76F10003 		sbcs	r3, r6, #0
 1145 0060 D3D3     		bcc	.L61
  64:Middlewares/Third_Party/ARM_CMSIS/CMSIS/DSP/Source/TransformFunctions/arm_bitreversal2.c ****   }
  65:Middlewares/Third_Party/ARM_CMSIS/CMSIS/DSP/Source/TransformFunctions/arm_bitreversal2.c **** }
 1146              		.loc 3 65 1 view .LVU424
 1147 0062 70BD     		pop	{r4, r5, r6, pc}
 1148              		.loc 3 65 1 view .LVU425
 1149              		.cfi_endproc
 1150              	.LFE123:
 1152              		.section	.text.arm_bitreversal_32,"ax",%progbits
 1153              		.align	1
 1154              		.global	arm_bitreversal_32
 1155              		.syntax unified
 1156              		.thumb
 1157              		.thumb_func
 1159              	arm_bitreversal_32:
 1160              	.LVL100:
 1161              	.LFB124:
  66:Middlewares/Third_Party/ARM_CMSIS/CMSIS/DSP/Source/TransformFunctions/arm_bitreversal2.c **** 
  67:Middlewares/Third_Party/ARM_CMSIS/CMSIS/DSP/Source/TransformFunctions/arm_bitreversal2.c **** /**
  68:Middlewares/Third_Party/ARM_CMSIS/CMSIS/DSP/Source/TransformFunctions/arm_bitreversal2.c ****   @brief         In-place 32 bit reversal function.
  69:Middlewares/Third_Party/ARM_CMSIS/CMSIS/DSP/Source/TransformFunctions/arm_bitreversal2.c ****   @param[in,out] pSrc        points to in-place buffer of unknown 32-bit data type
  70:Middlewares/Third_Party/ARM_CMSIS/CMSIS/DSP/Source/TransformFunctions/arm_bitreversal2.c ****   @param[in]     bitRevLen   bit reversal table length
  71:Middlewares/Third_Party/ARM_CMSIS/CMSIS/DSP/Source/TransformFunctions/arm_bitreversal2.c ****   @param[in]     pBitRevTab  points to bit reversal table
  72:Middlewares/Third_Party/ARM_CMSIS/CMSIS/DSP/Source/TransformFunctions/arm_bitreversal2.c ****   @return        none
  73:Middlewares/Third_Party/ARM_CMSIS/CMSIS/DSP/Source/TransformFunctions/arm_bitreversal2.c **** */
ARM GAS  C:\Users\7636~1\AppData\Local\Temp\ccagWtKu.s 			page 33


  74:Middlewares/Third_Party/ARM_CMSIS/CMSIS/DSP/Source/TransformFunctions/arm_bitreversal2.c **** 
  75:Middlewares/Third_Party/ARM_CMSIS/CMSIS/DSP/Source/TransformFunctions/arm_bitreversal2.c **** void arm_bitreversal_32(
  76:Middlewares/Third_Party/ARM_CMSIS/CMSIS/DSP/Source/TransformFunctions/arm_bitreversal2.c ****         uint32_t *pSrc,
  77:Middlewares/Third_Party/ARM_CMSIS/CMSIS/DSP/Source/TransformFunctions/arm_bitreversal2.c ****   const uint16_t bitRevLen,
  78:Middlewares/Third_Party/ARM_CMSIS/CMSIS/DSP/Source/TransformFunctions/arm_bitreversal2.c ****   const uint16_t *pBitRevTab)
  79:Middlewares/Third_Party/ARM_CMSIS/CMSIS/DSP/Source/TransformFunctions/arm_bitreversal2.c **** {
 1162              		.loc 3 79 1 is_stmt 1 view -0
 1163              		.cfi_startproc
 1164              		@ args = 0, pretend = 0, frame = 0
 1165              		@ frame_needed = 0, uses_anonymous_args = 0
 1166              		.loc 3 79 1 is_stmt 0 view .LVU427
 1167 0000 30B5     		push	{r4, r5, lr}
 1168              	.LCFI4:
 1169              		.cfi_def_cfa_offset 12
 1170              		.cfi_offset 4, -12
 1171              		.cfi_offset 5, -8
 1172              		.cfi_offset 14, -4
  80:Middlewares/Third_Party/ARM_CMSIS/CMSIS/DSP/Source/TransformFunctions/arm_bitreversal2.c ****   uint32_t a, b, i, tmp;
 1173              		.loc 3 80 3 is_stmt 1 view .LVU428
  81:Middlewares/Third_Party/ARM_CMSIS/CMSIS/DSP/Source/TransformFunctions/arm_bitreversal2.c **** 
  82:Middlewares/Third_Party/ARM_CMSIS/CMSIS/DSP/Source/TransformFunctions/arm_bitreversal2.c ****   for (i = 0; i < bitRevLen; )
 1174              		.loc 3 82 3 view .LVU429
 1175              	.LVL101:
 1176              		.loc 3 82 10 is_stmt 0 view .LVU430
 1177 0002 4FF0000E 		mov	lr, #0
 1178              		.loc 3 82 3 view .LVU431
 1179 0006 1DE0     		b	.L64
 1180              	.LVL102:
 1181              	.L65:
  83:Middlewares/Third_Party/ARM_CMSIS/CMSIS/DSP/Source/TransformFunctions/arm_bitreversal2.c ****   {
  84:Middlewares/Third_Party/ARM_CMSIS/CMSIS/DSP/Source/TransformFunctions/arm_bitreversal2.c ****      a = pBitRevTab[i    ] >> 2;
 1182              		.loc 3 84 6 is_stmt 1 view .LVU432
 1183              		.loc 3 84 20 is_stmt 0 view .LVU433
 1184 0008 32F81EC0 		ldrh	ip, [r2, lr, lsl #1]
 1185              		.loc 3 84 28 view .LVU434
 1186 000c 4FEA9C0C 		lsr	ip, ip, #2
 1187              	.LVL103:
  85:Middlewares/Third_Party/ARM_CMSIS/CMSIS/DSP/Source/TransformFunctions/arm_bitreversal2.c ****      b = pBitRevTab[i + 1] >> 2;
 1188              		.loc 3 85 6 is_stmt 1 view .LVU435
 1189              		.loc 3 85 20 is_stmt 0 view .LVU436
 1190 0010 0EF10103 		add	r3, lr, #1
 1191 0014 32F81330 		ldrh	r3, [r2, r3, lsl #1]
 1192              		.loc 3 85 28 view .LVU437
 1193 0018 9B08     		lsrs	r3, r3, #2
 1194              	.LVL104:
  86:Middlewares/Third_Party/ARM_CMSIS/CMSIS/DSP/Source/TransformFunctions/arm_bitreversal2.c **** 
  87:Middlewares/Third_Party/ARM_CMSIS/CMSIS/DSP/Source/TransformFunctions/arm_bitreversal2.c ****      //real
  88:Middlewares/Third_Party/ARM_CMSIS/CMSIS/DSP/Source/TransformFunctions/arm_bitreversal2.c ****      tmp = pSrc[a];
 1195              		.loc 3 88 6 is_stmt 1 view .LVU438
 1196              		.loc 3 88 10 is_stmt 0 view .LVU439
 1197 001a 50F82C40 		ldr	r4, [r0, ip, lsl #2]
 1198              	.LVL105:
  89:Middlewares/Third_Party/ARM_CMSIS/CMSIS/DSP/Source/TransformFunctions/arm_bitreversal2.c ****      pSrc[a] = pSrc[b];
 1199              		.loc 3 89 6 is_stmt 1 view .LVU440
 1200              		.loc 3 89 14 is_stmt 0 view .LVU441
 1201 001e 50F82350 		ldr	r5, [r0, r3, lsl #2]
 1202 0022 40F82C50 		str	r5, [r0, ip, lsl #2]
ARM GAS  C:\Users\7636~1\AppData\Local\Temp\ccagWtKu.s 			page 34


  90:Middlewares/Third_Party/ARM_CMSIS/CMSIS/DSP/Source/TransformFunctions/arm_bitreversal2.c ****      pSrc[b] = tmp;
 1203              		.loc 3 90 6 is_stmt 1 view .LVU442
 1204              		.loc 3 90 14 is_stmt 0 view .LVU443
 1205 0026 40F82340 		str	r4, [r0, r3, lsl #2]
  91:Middlewares/Third_Party/ARM_CMSIS/CMSIS/DSP/Source/TransformFunctions/arm_bitreversal2.c **** 
  92:Middlewares/Third_Party/ARM_CMSIS/CMSIS/DSP/Source/TransformFunctions/arm_bitreversal2.c ****      //complex
  93:Middlewares/Third_Party/ARM_CMSIS/CMSIS/DSP/Source/TransformFunctions/arm_bitreversal2.c ****      tmp = pSrc[a+1];
 1206              		.loc 3 93 6 is_stmt 1 view .LVU444
 1207              		.loc 3 93 16 is_stmt 0 view .LVU445
 1208 002a 0CF1010C 		add	ip, ip, #1
 1209              	.LVL106:
 1210              		.loc 3 93 10 view .LVU446
 1211 002e 50F82C40 		ldr	r4, [r0, ip, lsl #2]
 1212              	.LVL107:
  94:Middlewares/Third_Party/ARM_CMSIS/CMSIS/DSP/Source/TransformFunctions/arm_bitreversal2.c ****      pSrc[a+1] = pSrc[b+1];
 1213              		.loc 3 94 6 is_stmt 1 view .LVU447
 1214              		.loc 3 94 22 is_stmt 0 view .LVU448
 1215 0032 0133     		adds	r3, r3, #1
 1216              	.LVL108:
 1217              		.loc 3 94 16 view .LVU449
 1218 0034 50F82350 		ldr	r5, [r0, r3, lsl #2]
 1219 0038 40F82C50 		str	r5, [r0, ip, lsl #2]
  95:Middlewares/Third_Party/ARM_CMSIS/CMSIS/DSP/Source/TransformFunctions/arm_bitreversal2.c ****      pSrc[b+1] = tmp;
 1220              		.loc 3 95 6 is_stmt 1 view .LVU450
 1221              		.loc 3 95 16 is_stmt 0 view .LVU451
 1222 003c 40F82340 		str	r4, [r0, r3, lsl #2]
  96:Middlewares/Third_Party/ARM_CMSIS/CMSIS/DSP/Source/TransformFunctions/arm_bitreversal2.c **** 
  97:Middlewares/Third_Party/ARM_CMSIS/CMSIS/DSP/Source/TransformFunctions/arm_bitreversal2.c ****     i += 2;
 1223              		.loc 3 97 5 is_stmt 1 view .LVU452
 1224              		.loc 3 97 7 is_stmt 0 view .LVU453
 1225 0040 0EF1020E 		add	lr, lr, #2
 1226              	.LVL109:
 1227              	.L64:
  82:Middlewares/Third_Party/ARM_CMSIS/CMSIS/DSP/Source/TransformFunctions/arm_bitreversal2.c ****   {
 1228              		.loc 3 82 15 is_stmt 1 discriminator 1 view .LVU454
  82:Middlewares/Third_Party/ARM_CMSIS/CMSIS/DSP/Source/TransformFunctions/arm_bitreversal2.c ****   {
 1229              		.loc 3 82 3 is_stmt 0 discriminator 1 view .LVU455
 1230 0044 7145     		cmp	r1, lr
 1231 0046 DFD8     		bhi	.L65
  98:Middlewares/Third_Party/ARM_CMSIS/CMSIS/DSP/Source/TransformFunctions/arm_bitreversal2.c ****   }
  99:Middlewares/Third_Party/ARM_CMSIS/CMSIS/DSP/Source/TransformFunctions/arm_bitreversal2.c **** }
 1232              		.loc 3 99 1 view .LVU456
 1233 0048 30BD     		pop	{r4, r5, pc}
 1234              		.cfi_endproc
 1235              	.LFE124:
 1237              		.section	.text.arm_bitreversal_16,"ax",%progbits
 1238              		.align	1
 1239              		.global	arm_bitreversal_16
 1240              		.syntax unified
 1241              		.thumb
 1242              		.thumb_func
 1244              	arm_bitreversal_16:
 1245              	.LVL110:
 1246              	.LFB125:
 100:Middlewares/Third_Party/ARM_CMSIS/CMSIS/DSP/Source/TransformFunctions/arm_bitreversal2.c **** 
 101:Middlewares/Third_Party/ARM_CMSIS/CMSIS/DSP/Source/TransformFunctions/arm_bitreversal2.c **** 
 102:Middlewares/Third_Party/ARM_CMSIS/CMSIS/DSP/Source/TransformFunctions/arm_bitreversal2.c **** /**
ARM GAS  C:\Users\7636~1\AppData\Local\Temp\ccagWtKu.s 			page 35


 103:Middlewares/Third_Party/ARM_CMSIS/CMSIS/DSP/Source/TransformFunctions/arm_bitreversal2.c ****   @brief         In-place 16 bit reversal function.
 104:Middlewares/Third_Party/ARM_CMSIS/CMSIS/DSP/Source/TransformFunctions/arm_bitreversal2.c ****   @param[in,out] pSrc        points to in-place buffer of unknown 16-bit data type
 105:Middlewares/Third_Party/ARM_CMSIS/CMSIS/DSP/Source/TransformFunctions/arm_bitreversal2.c ****   @param[in]     bitRevLen   bit reversal table length
 106:Middlewares/Third_Party/ARM_CMSIS/CMSIS/DSP/Source/TransformFunctions/arm_bitreversal2.c ****   @param[in]     pBitRevTab  points to bit reversal table
 107:Middlewares/Third_Party/ARM_CMSIS/CMSIS/DSP/Source/TransformFunctions/arm_bitreversal2.c ****   @return        none
 108:Middlewares/Third_Party/ARM_CMSIS/CMSIS/DSP/Source/TransformFunctions/arm_bitreversal2.c **** */
 109:Middlewares/Third_Party/ARM_CMSIS/CMSIS/DSP/Source/TransformFunctions/arm_bitreversal2.c **** 
 110:Middlewares/Third_Party/ARM_CMSIS/CMSIS/DSP/Source/TransformFunctions/arm_bitreversal2.c **** void arm_bitreversal_16(
 111:Middlewares/Third_Party/ARM_CMSIS/CMSIS/DSP/Source/TransformFunctions/arm_bitreversal2.c ****         uint16_t *pSrc,
 112:Middlewares/Third_Party/ARM_CMSIS/CMSIS/DSP/Source/TransformFunctions/arm_bitreversal2.c ****   const uint16_t bitRevLen,
 113:Middlewares/Third_Party/ARM_CMSIS/CMSIS/DSP/Source/TransformFunctions/arm_bitreversal2.c ****   const uint16_t *pBitRevTab)
 114:Middlewares/Third_Party/ARM_CMSIS/CMSIS/DSP/Source/TransformFunctions/arm_bitreversal2.c **** {
 1247              		.loc 3 114 1 is_stmt 1 view -0
 1248              		.cfi_startproc
 1249              		@ args = 0, pretend = 0, frame = 0
 1250              		@ frame_needed = 0, uses_anonymous_args = 0
 1251              		.loc 3 114 1 is_stmt 0 view .LVU458
 1252 0000 30B5     		push	{r4, r5, lr}
 1253              	.LCFI5:
 1254              		.cfi_def_cfa_offset 12
 1255              		.cfi_offset 4, -12
 1256              		.cfi_offset 5, -8
 1257              		.cfi_offset 14, -4
 115:Middlewares/Third_Party/ARM_CMSIS/CMSIS/DSP/Source/TransformFunctions/arm_bitreversal2.c ****   uint16_t a, b, i, tmp;
 1258              		.loc 3 115 3 is_stmt 1 view .LVU459
 116:Middlewares/Third_Party/ARM_CMSIS/CMSIS/DSP/Source/TransformFunctions/arm_bitreversal2.c **** 
 117:Middlewares/Third_Party/ARM_CMSIS/CMSIS/DSP/Source/TransformFunctions/arm_bitreversal2.c ****   for (i = 0; i < bitRevLen; )
 1259              		.loc 3 117 3 view .LVU460
 1260              	.LVL111:
 1261              		.loc 3 117 10 is_stmt 0 view .LVU461
 1262 0002 4FF0000E 		mov	lr, #0
 1263              		.loc 3 117 3 view .LVU462
 1264 0006 1FE0     		b	.L68
 1265              	.LVL112:
 1266              	.L69:
 118:Middlewares/Third_Party/ARM_CMSIS/CMSIS/DSP/Source/TransformFunctions/arm_bitreversal2.c ****   {
 119:Middlewares/Third_Party/ARM_CMSIS/CMSIS/DSP/Source/TransformFunctions/arm_bitreversal2.c ****      a = pBitRevTab[i    ] >> 2;
 1267              		.loc 3 119 6 is_stmt 1 view .LVU463
 1268              		.loc 3 119 20 is_stmt 0 view .LVU464
 1269 0008 32F81EC0 		ldrh	ip, [r2, lr, lsl #1]
 1270              		.loc 3 119 8 view .LVU465
 1271 000c 4FEA9C0C 		lsr	ip, ip, #2
 1272              	.LVL113:
 120:Middlewares/Third_Party/ARM_CMSIS/CMSIS/DSP/Source/TransformFunctions/arm_bitreversal2.c ****      b = pBitRevTab[i + 1] >> 2;
 1273              		.loc 3 120 6 is_stmt 1 view .LVU466
 1274              		.loc 3 120 20 is_stmt 0 view .LVU467
 1275 0010 0EF10103 		add	r3, lr, #1
 1276 0014 32F81330 		ldrh	r3, [r2, r3, lsl #1]
 1277              		.loc 3 120 8 view .LVU468
 1278 0018 9B08     		lsrs	r3, r3, #2
 1279              	.LVL114:
 121:Middlewares/Third_Party/ARM_CMSIS/CMSIS/DSP/Source/TransformFunctions/arm_bitreversal2.c **** 
 122:Middlewares/Third_Party/ARM_CMSIS/CMSIS/DSP/Source/TransformFunctions/arm_bitreversal2.c ****      //real
 123:Middlewares/Third_Party/ARM_CMSIS/CMSIS/DSP/Source/TransformFunctions/arm_bitreversal2.c ****      tmp = pSrc[a];
 1280              		.loc 3 123 6 is_stmt 1 view .LVU469
 1281              		.loc 3 123 10 is_stmt 0 view .LVU470
 1282 001a 30F81C40 		ldrh	r4, [r0, ip, lsl #1]
ARM GAS  C:\Users\7636~1\AppData\Local\Temp\ccagWtKu.s 			page 36


 1283              	.LVL115:
 124:Middlewares/Third_Party/ARM_CMSIS/CMSIS/DSP/Source/TransformFunctions/arm_bitreversal2.c ****      pSrc[a] = pSrc[b];
 1284              		.loc 3 124 6 is_stmt 1 view .LVU471
 1285              		.loc 3 124 20 is_stmt 0 view .LVU472
 1286 001e 30F81350 		ldrh	r5, [r0, r3, lsl #1]
 1287              		.loc 3 124 14 view .LVU473
 1288 0022 20F81C50 		strh	r5, [r0, ip, lsl #1]	@ movhi
 125:Middlewares/Third_Party/ARM_CMSIS/CMSIS/DSP/Source/TransformFunctions/arm_bitreversal2.c ****      pSrc[b] = tmp;
 1289              		.loc 3 125 6 is_stmt 1 view .LVU474
 1290              		.loc 3 125 14 is_stmt 0 view .LVU475
 1291 0026 20F81340 		strh	r4, [r0, r3, lsl #1]	@ movhi
 126:Middlewares/Third_Party/ARM_CMSIS/CMSIS/DSP/Source/TransformFunctions/arm_bitreversal2.c **** 
 127:Middlewares/Third_Party/ARM_CMSIS/CMSIS/DSP/Source/TransformFunctions/arm_bitreversal2.c ****      //complex
 128:Middlewares/Third_Party/ARM_CMSIS/CMSIS/DSP/Source/TransformFunctions/arm_bitreversal2.c ****      tmp = pSrc[a+1];
 1292              		.loc 3 128 6 is_stmt 1 view .LVU476
 1293              		.loc 3 128 16 is_stmt 0 view .LVU477
 1294 002a 0CF1010C 		add	ip, ip, #1
 1295              	.LVL116:
 1296              		.loc 3 128 10 view .LVU478
 1297 002e 30F81C40 		ldrh	r4, [r0, ip, lsl #1]
 1298              	.LVL117:
 129:Middlewares/Third_Party/ARM_CMSIS/CMSIS/DSP/Source/TransformFunctions/arm_bitreversal2.c ****      pSrc[a+1] = pSrc[b+1];
 1299              		.loc 3 129 6 is_stmt 1 view .LVU479
 1300              		.loc 3 129 22 is_stmt 0 view .LVU480
 1301 0032 0133     		adds	r3, r3, #1
 1302              	.LVL118:
 1303              		.loc 3 129 22 view .LVU481
 1304 0034 30F81350 		ldrh	r5, [r0, r3, lsl #1]
 1305              		.loc 3 129 16 view .LVU482
 1306 0038 20F81C50 		strh	r5, [r0, ip, lsl #1]	@ movhi
 130:Middlewares/Third_Party/ARM_CMSIS/CMSIS/DSP/Source/TransformFunctions/arm_bitreversal2.c ****      pSrc[b+1] = tmp;
 1307              		.loc 3 130 6 is_stmt 1 view .LVU483
 1308              		.loc 3 130 16 is_stmt 0 view .LVU484
 1309 003c 20F81340 		strh	r4, [r0, r3, lsl #1]	@ movhi
 131:Middlewares/Third_Party/ARM_CMSIS/CMSIS/DSP/Source/TransformFunctions/arm_bitreversal2.c **** 
 132:Middlewares/Third_Party/ARM_CMSIS/CMSIS/DSP/Source/TransformFunctions/arm_bitreversal2.c ****     i += 2;
 1310              		.loc 3 132 5 is_stmt 1 view .LVU485
 1311              		.loc 3 132 7 is_stmt 0 view .LVU486
 1312 0040 0EF1020E 		add	lr, lr, #2
 1313              	.LVL119:
 1314              		.loc 3 132 7 view .LVU487
 1315 0044 1FFA8EFE 		uxth	lr, lr
 1316              	.LVL120:
 1317              	.L68:
 117:Middlewares/Third_Party/ARM_CMSIS/CMSIS/DSP/Source/TransformFunctions/arm_bitreversal2.c ****   {
 1318              		.loc 3 117 15 is_stmt 1 discriminator 1 view .LVU488
 117:Middlewares/Third_Party/ARM_CMSIS/CMSIS/DSP/Source/TransformFunctions/arm_bitreversal2.c ****   {
 1319              		.loc 3 117 3 is_stmt 0 discriminator 1 view .LVU489
 1320 0048 8E45     		cmp	lr, r1
 1321 004a DDD3     		bcc	.L69
 133:Middlewares/Third_Party/ARM_CMSIS/CMSIS/DSP/Source/TransformFunctions/arm_bitreversal2.c ****   }
 134:Middlewares/Third_Party/ARM_CMSIS/CMSIS/DSP/Source/TransformFunctions/arm_bitreversal2.c **** }
 1322              		.loc 3 134 1 view .LVU490
 1323 004c 30BD     		pop	{r4, r5, pc}
 1324              		.cfi_endproc
 1325              	.LFE125:
 1327              		.global	__aeabi_dadd
ARM GAS  C:\Users\7636~1\AppData\Local\Temp\ccagWtKu.s 			page 37


 1328              		.global	__aeabi_dsub
 1329              		.global	__aeabi_dmul
 1330              		.section	.text.arm_radix4_butterfly_f64,"ax",%progbits
 1331              		.align	1
 1332              		.global	arm_radix4_butterfly_f64
 1333              		.syntax unified
 1334              		.thumb
 1335              		.thumb_func
 1337              	arm_radix4_butterfly_f64:
 1338              	.LVL121:
 1339              	.LFB129:
 1340              		.file 4 "Middlewares/Third_Party/ARM_CMSIS/CMSIS/DSP/Source/TransformFunctions/arm_cfft_f64.c"
   1:Middlewares/Third_Party/ARM_CMSIS/CMSIS/DSP/Source/TransformFunctions/arm_cfft_f64.c **** /* ----------------------------------------------------------------------
   2:Middlewares/Third_Party/ARM_CMSIS/CMSIS/DSP/Source/TransformFunctions/arm_cfft_f64.c ****  * Project:      CMSIS DSP Library
   3:Middlewares/Third_Party/ARM_CMSIS/CMSIS/DSP/Source/TransformFunctions/arm_cfft_f64.c ****  * Title:        arm_cfft_f64.c
   4:Middlewares/Third_Party/ARM_CMSIS/CMSIS/DSP/Source/TransformFunctions/arm_cfft_f64.c ****  * Description:  Combined Radix Decimation in Frequency CFFT Double Precision Floating point proces
   5:Middlewares/Third_Party/ARM_CMSIS/CMSIS/DSP/Source/TransformFunctions/arm_cfft_f64.c ****  *
   6:Middlewares/Third_Party/ARM_CMSIS/CMSIS/DSP/Source/TransformFunctions/arm_cfft_f64.c ****  * $Date:        23 April 2021
   7:Middlewares/Third_Party/ARM_CMSIS/CMSIS/DSP/Source/TransformFunctions/arm_cfft_f64.c ****  * $Revision:    V1.9.0
   8:Middlewares/Third_Party/ARM_CMSIS/CMSIS/DSP/Source/TransformFunctions/arm_cfft_f64.c ****  *
   9:Middlewares/Third_Party/ARM_CMSIS/CMSIS/DSP/Source/TransformFunctions/arm_cfft_f64.c ****  * Target Processor: Cortex-M and Cortex-A cores
  10:Middlewares/Third_Party/ARM_CMSIS/CMSIS/DSP/Source/TransformFunctions/arm_cfft_f64.c ****  * -------------------------------------------------------------------- */
  11:Middlewares/Third_Party/ARM_CMSIS/CMSIS/DSP/Source/TransformFunctions/arm_cfft_f64.c **** /*
  12:Middlewares/Third_Party/ARM_CMSIS/CMSIS/DSP/Source/TransformFunctions/arm_cfft_f64.c ****  * Copyright (C) 2010-2021 ARM Limited or its affiliates. All rights reserved.
  13:Middlewares/Third_Party/ARM_CMSIS/CMSIS/DSP/Source/TransformFunctions/arm_cfft_f64.c ****  *
  14:Middlewares/Third_Party/ARM_CMSIS/CMSIS/DSP/Source/TransformFunctions/arm_cfft_f64.c ****  * SPDX-License-Identifier: Apache-2.0
  15:Middlewares/Third_Party/ARM_CMSIS/CMSIS/DSP/Source/TransformFunctions/arm_cfft_f64.c ****  *
  16:Middlewares/Third_Party/ARM_CMSIS/CMSIS/DSP/Source/TransformFunctions/arm_cfft_f64.c ****  * Licensed under the Apache License, Version 2.0 (the License); you may
  17:Middlewares/Third_Party/ARM_CMSIS/CMSIS/DSP/Source/TransformFunctions/arm_cfft_f64.c ****  * not use this file except in compliance with the License.
  18:Middlewares/Third_Party/ARM_CMSIS/CMSIS/DSP/Source/TransformFunctions/arm_cfft_f64.c ****  * You may obtain a copy of the License at
  19:Middlewares/Third_Party/ARM_CMSIS/CMSIS/DSP/Source/TransformFunctions/arm_cfft_f64.c ****  *
  20:Middlewares/Third_Party/ARM_CMSIS/CMSIS/DSP/Source/TransformFunctions/arm_cfft_f64.c ****  * www.apache.org/licenses/LICENSE-2.0
  21:Middlewares/Third_Party/ARM_CMSIS/CMSIS/DSP/Source/TransformFunctions/arm_cfft_f64.c ****  *
  22:Middlewares/Third_Party/ARM_CMSIS/CMSIS/DSP/Source/TransformFunctions/arm_cfft_f64.c ****  * Unless required by applicable law or agreed to in writing, software
  23:Middlewares/Third_Party/ARM_CMSIS/CMSIS/DSP/Source/TransformFunctions/arm_cfft_f64.c ****  * distributed under the License is distributed on an AS IS BASIS, WITHOUT
  24:Middlewares/Third_Party/ARM_CMSIS/CMSIS/DSP/Source/TransformFunctions/arm_cfft_f64.c ****  * WARRANTIES OR CONDITIONS OF ANY KIND, either express or implied.
  25:Middlewares/Third_Party/ARM_CMSIS/CMSIS/DSP/Source/TransformFunctions/arm_cfft_f64.c ****  * See the License for the specific language governing permissions and
  26:Middlewares/Third_Party/ARM_CMSIS/CMSIS/DSP/Source/TransformFunctions/arm_cfft_f64.c ****  * limitations under the License.
  27:Middlewares/Third_Party/ARM_CMSIS/CMSIS/DSP/Source/TransformFunctions/arm_cfft_f64.c ****  */
  28:Middlewares/Third_Party/ARM_CMSIS/CMSIS/DSP/Source/TransformFunctions/arm_cfft_f64.c **** 
  29:Middlewares/Third_Party/ARM_CMSIS/CMSIS/DSP/Source/TransformFunctions/arm_cfft_f64.c **** #include "dsp/transform_functions.h"
  30:Middlewares/Third_Party/ARM_CMSIS/CMSIS/DSP/Source/TransformFunctions/arm_cfft_f64.c **** #include "arm_common_tables.h"
  31:Middlewares/Third_Party/ARM_CMSIS/CMSIS/DSP/Source/TransformFunctions/arm_cfft_f64.c **** 
  32:Middlewares/Third_Party/ARM_CMSIS/CMSIS/DSP/Source/TransformFunctions/arm_cfft_f64.c **** 
  33:Middlewares/Third_Party/ARM_CMSIS/CMSIS/DSP/Source/TransformFunctions/arm_cfft_f64.c **** extern void arm_radix4_butterfly_f64(
  34:Middlewares/Third_Party/ARM_CMSIS/CMSIS/DSP/Source/TransformFunctions/arm_cfft_f64.c ****         float64_t * pSrc,
  35:Middlewares/Third_Party/ARM_CMSIS/CMSIS/DSP/Source/TransformFunctions/arm_cfft_f64.c ****         uint16_t fftLen,
  36:Middlewares/Third_Party/ARM_CMSIS/CMSIS/DSP/Source/TransformFunctions/arm_cfft_f64.c ****   const float64_t * pCoef,
  37:Middlewares/Third_Party/ARM_CMSIS/CMSIS/DSP/Source/TransformFunctions/arm_cfft_f64.c ****         uint16_t twidCoefModifier);
  38:Middlewares/Third_Party/ARM_CMSIS/CMSIS/DSP/Source/TransformFunctions/arm_cfft_f64.c **** 
  39:Middlewares/Third_Party/ARM_CMSIS/CMSIS/DSP/Source/TransformFunctions/arm_cfft_f64.c **** extern void arm_bitreversal_64(
  40:Middlewares/Third_Party/ARM_CMSIS/CMSIS/DSP/Source/TransformFunctions/arm_cfft_f64.c ****         uint64_t * pSrc,
  41:Middlewares/Third_Party/ARM_CMSIS/CMSIS/DSP/Source/TransformFunctions/arm_cfft_f64.c ****   const uint16_t   bitRevLen,
  42:Middlewares/Third_Party/ARM_CMSIS/CMSIS/DSP/Source/TransformFunctions/arm_cfft_f64.c ****   const uint16_t * pBitRevTable);
  43:Middlewares/Third_Party/ARM_CMSIS/CMSIS/DSP/Source/TransformFunctions/arm_cfft_f64.c **** 
  44:Middlewares/Third_Party/ARM_CMSIS/CMSIS/DSP/Source/TransformFunctions/arm_cfft_f64.c **** /**
  45:Middlewares/Third_Party/ARM_CMSIS/CMSIS/DSP/Source/TransformFunctions/arm_cfft_f64.c **** * @} end of ComplexFFT group
ARM GAS  C:\Users\7636~1\AppData\Local\Temp\ccagWtKu.s 			page 38


  46:Middlewares/Third_Party/ARM_CMSIS/CMSIS/DSP/Source/TransformFunctions/arm_cfft_f64.c **** */
  47:Middlewares/Third_Party/ARM_CMSIS/CMSIS/DSP/Source/TransformFunctions/arm_cfft_f64.c **** 
  48:Middlewares/Third_Party/ARM_CMSIS/CMSIS/DSP/Source/TransformFunctions/arm_cfft_f64.c **** /* ----------------------------------------------------------------------
  49:Middlewares/Third_Party/ARM_CMSIS/CMSIS/DSP/Source/TransformFunctions/arm_cfft_f64.c ****  * Internal helper function used by the FFTs
  50:Middlewares/Third_Party/ARM_CMSIS/CMSIS/DSP/Source/TransformFunctions/arm_cfft_f64.c ****  * ---------------------------------------------------------------------- */
  51:Middlewares/Third_Party/ARM_CMSIS/CMSIS/DSP/Source/TransformFunctions/arm_cfft_f64.c **** 
  52:Middlewares/Third_Party/ARM_CMSIS/CMSIS/DSP/Source/TransformFunctions/arm_cfft_f64.c **** /*
  53:Middlewares/Third_Party/ARM_CMSIS/CMSIS/DSP/Source/TransformFunctions/arm_cfft_f64.c **** * @brief  Core function for the Double Precision floating-point CFFT butterfly process.
  54:Middlewares/Third_Party/ARM_CMSIS/CMSIS/DSP/Source/TransformFunctions/arm_cfft_f64.c **** * @param[in, out] *pSrc            points to the in-place buffer of F64 data type.
  55:Middlewares/Third_Party/ARM_CMSIS/CMSIS/DSP/Source/TransformFunctions/arm_cfft_f64.c **** * @param[in]      fftLen           length of the FFT.
  56:Middlewares/Third_Party/ARM_CMSIS/CMSIS/DSP/Source/TransformFunctions/arm_cfft_f64.c **** * @param[in]      *pCoef           points to the twiddle coefficient buffer.
  57:Middlewares/Third_Party/ARM_CMSIS/CMSIS/DSP/Source/TransformFunctions/arm_cfft_f64.c **** * @param[in]      twidCoefModifier twiddle coefficient modifier that supports different size FFTs w
  58:Middlewares/Third_Party/ARM_CMSIS/CMSIS/DSP/Source/TransformFunctions/arm_cfft_f64.c **** * @return none.
  59:Middlewares/Third_Party/ARM_CMSIS/CMSIS/DSP/Source/TransformFunctions/arm_cfft_f64.c **** */
  60:Middlewares/Third_Party/ARM_CMSIS/CMSIS/DSP/Source/TransformFunctions/arm_cfft_f64.c **** 
  61:Middlewares/Third_Party/ARM_CMSIS/CMSIS/DSP/Source/TransformFunctions/arm_cfft_f64.c **** void arm_radix4_butterfly_f64(
  62:Middlewares/Third_Party/ARM_CMSIS/CMSIS/DSP/Source/TransformFunctions/arm_cfft_f64.c ****         float64_t * pSrc,
  63:Middlewares/Third_Party/ARM_CMSIS/CMSIS/DSP/Source/TransformFunctions/arm_cfft_f64.c ****         uint16_t fftLen,
  64:Middlewares/Third_Party/ARM_CMSIS/CMSIS/DSP/Source/TransformFunctions/arm_cfft_f64.c ****   const float64_t * pCoef,
  65:Middlewares/Third_Party/ARM_CMSIS/CMSIS/DSP/Source/TransformFunctions/arm_cfft_f64.c ****         uint16_t twidCoefModifier)
  66:Middlewares/Third_Party/ARM_CMSIS/CMSIS/DSP/Source/TransformFunctions/arm_cfft_f64.c **** {
 1341              		.loc 4 66 1 is_stmt 1 view -0
 1342              		.cfi_startproc
 1343              		@ args = 0, pretend = 0, frame = 136
 1344              		@ frame_needed = 0, uses_anonymous_args = 0
 1345              		.loc 4 66 1 is_stmt 0 view .LVU492
 1346 0000 2DE9F04F 		push	{r4, r5, r6, r7, r8, r9, r10, fp, lr}
 1347              	.LCFI6:
 1348              		.cfi_def_cfa_offset 36
 1349              		.cfi_offset 4, -36
 1350              		.cfi_offset 5, -32
 1351              		.cfi_offset 6, -28
 1352              		.cfi_offset 7, -24
 1353              		.cfi_offset 8, -20
 1354              		.cfi_offset 9, -16
 1355              		.cfi_offset 10, -12
 1356              		.cfi_offset 11, -8
 1357              		.cfi_offset 14, -4
 1358 0004 2DED028B 		vpush.64	{d8}
 1359              	.LCFI7:
 1360              		.cfi_def_cfa_offset 44
 1361              		.cfi_offset 80, -44
 1362              		.cfi_offset 81, -40
 1363 0008 A3B0     		sub	sp, sp, #140
 1364              	.LCFI8:
 1365              		.cfi_def_cfa_offset 184
 1366 000a 1C91     		str	r1, [sp, #112]
 1367 000c 2092     		str	r2, [sp, #128]
 1368 000e 1F93     		str	r3, [sp, #124]
  67:Middlewares/Third_Party/ARM_CMSIS/CMSIS/DSP/Source/TransformFunctions/arm_cfft_f64.c **** 
  68:Middlewares/Third_Party/ARM_CMSIS/CMSIS/DSP/Source/TransformFunctions/arm_cfft_f64.c ****    float64_t co1, co2, co3, si1, si2, si3;
 1369              		.loc 4 68 4 is_stmt 1 view .LVU493
  69:Middlewares/Third_Party/ARM_CMSIS/CMSIS/DSP/Source/TransformFunctions/arm_cfft_f64.c ****    uint32_t ia1, ia2, ia3;
 1370              		.loc 4 69 4 view .LVU494
  70:Middlewares/Third_Party/ARM_CMSIS/CMSIS/DSP/Source/TransformFunctions/arm_cfft_f64.c ****    uint32_t i0, i1, i2, i3;
 1371              		.loc 4 70 4 view .LVU495
  71:Middlewares/Third_Party/ARM_CMSIS/CMSIS/DSP/Source/TransformFunctions/arm_cfft_f64.c ****    uint32_t n1, n2, j, k;
ARM GAS  C:\Users\7636~1\AppData\Local\Temp\ccagWtKu.s 			page 39


 1372              		.loc 4 71 4 view .LVU496
  72:Middlewares/Third_Party/ARM_CMSIS/CMSIS/DSP/Source/TransformFunctions/arm_cfft_f64.c **** 
  73:Middlewares/Third_Party/ARM_CMSIS/CMSIS/DSP/Source/TransformFunctions/arm_cfft_f64.c ****    float64_t t1, t2, r1, r2, s1, s2;
 1373              		.loc 4 73 4 view .LVU497
  74:Middlewares/Third_Party/ARM_CMSIS/CMSIS/DSP/Source/TransformFunctions/arm_cfft_f64.c **** 
  75:Middlewares/Third_Party/ARM_CMSIS/CMSIS/DSP/Source/TransformFunctions/arm_cfft_f64.c **** 
  76:Middlewares/Third_Party/ARM_CMSIS/CMSIS/DSP/Source/TransformFunctions/arm_cfft_f64.c ****    /*  Initializations for the fft calculation */
  77:Middlewares/Third_Party/ARM_CMSIS/CMSIS/DSP/Source/TransformFunctions/arm_cfft_f64.c ****    n2 = fftLen;
 1374              		.loc 4 77 4 view .LVU498
 1375              	.LVL122:
  78:Middlewares/Third_Party/ARM_CMSIS/CMSIS/DSP/Source/TransformFunctions/arm_cfft_f64.c ****    n1 = n2;
 1376              		.loc 4 78 4 view .LVU499
  79:Middlewares/Third_Party/ARM_CMSIS/CMSIS/DSP/Source/TransformFunctions/arm_cfft_f64.c ****    for (k = fftLen; k > 1U; k >>= 2U)
 1377              		.loc 4 79 4 view .LVU500
 1378              		.loc 4 79 11 is_stmt 0 view .LVU501
 1379 0010 2191     		str	r1, [sp, #132]
  77:Middlewares/Third_Party/ARM_CMSIS/CMSIS/DSP/Source/TransformFunctions/arm_cfft_f64.c ****    n1 = n2;
 1380              		.loc 4 77 7 view .LVU502
 1381 0012 1B91     		str	r1, [sp, #108]
 1382 0014 0446     		mov	r4, r0
 1383              		.loc 4 79 4 view .LVU503
 1384 0016 92E1     		b	.L72
 1385              	.LVL123:
 1386              	.L75:
  80:Middlewares/Third_Party/ARM_CMSIS/CMSIS/DSP/Source/TransformFunctions/arm_cfft_f64.c ****    {
  81:Middlewares/Third_Party/ARM_CMSIS/CMSIS/DSP/Source/TransformFunctions/arm_cfft_f64.c ****       /*  Initializations for the fft calculation */
  82:Middlewares/Third_Party/ARM_CMSIS/CMSIS/DSP/Source/TransformFunctions/arm_cfft_f64.c ****       n1 = n2;
 1387              		.loc 4 82 7 is_stmt 1 view .LVU504
  83:Middlewares/Third_Party/ARM_CMSIS/CMSIS/DSP/Source/TransformFunctions/arm_cfft_f64.c ****       n2 >>= 2U;
 1388              		.loc 4 83 7 view .LVU505
 1389              		.loc 4 83 10 is_stmt 0 view .LVU506
 1390 0018 1B9B     		ldr	r3, [sp, #108]
 1391              	.LVL124:
 1392              		.loc 4 83 10 view .LVU507
 1393 001a 9B08     		lsrs	r3, r3, #2
 1394 001c 1A93     		str	r3, [sp, #104]
 1395              	.LVL125:
  84:Middlewares/Third_Party/ARM_CMSIS/CMSIS/DSP/Source/TransformFunctions/arm_cfft_f64.c ****       ia1 = 0U;
 1396              		.loc 4 84 7 is_stmt 1 view .LVU508
  85:Middlewares/Third_Party/ARM_CMSIS/CMSIS/DSP/Source/TransformFunctions/arm_cfft_f64.c **** 
  86:Middlewares/Third_Party/ARM_CMSIS/CMSIS/DSP/Source/TransformFunctions/arm_cfft_f64.c ****       /*  FFT Calculation */
  87:Middlewares/Third_Party/ARM_CMSIS/CMSIS/DSP/Source/TransformFunctions/arm_cfft_f64.c ****       j = 0;
 1397              		.loc 4 87 7 view .LVU509
 1398              		.loc 4 87 9 is_stmt 0 view .LVU510
 1399 001e 0023     		movs	r3, #0
 1400              	.LVL126:
 1401              		.loc 4 87 9 view .LVU511
 1402 0020 1D93     		str	r3, [sp, #116]
  84:Middlewares/Third_Party/ARM_CMSIS/CMSIS/DSP/Source/TransformFunctions/arm_cfft_f64.c ****       ia1 = 0U;
 1403              		.loc 4 84 11 view .LVU512
 1404 0022 1E93     		str	r3, [sp, #120]
 1405 0024 A346     		mov	fp, r4
 1406              	.LVL127:
 1407              	.L74:
  88:Middlewares/Third_Party/ARM_CMSIS/CMSIS/DSP/Source/TransformFunctions/arm_cfft_f64.c ****       do
 1408              		.loc 4 88 7 is_stmt 1 view .LVU513
  89:Middlewares/Third_Party/ARM_CMSIS/CMSIS/DSP/Source/TransformFunctions/arm_cfft_f64.c ****       {
ARM GAS  C:\Users\7636~1\AppData\Local\Temp\ccagWtKu.s 			page 40


  90:Middlewares/Third_Party/ARM_CMSIS/CMSIS/DSP/Source/TransformFunctions/arm_cfft_f64.c ****          /*  index calculation for the coefficients */
  91:Middlewares/Third_Party/ARM_CMSIS/CMSIS/DSP/Source/TransformFunctions/arm_cfft_f64.c ****          ia2 = ia1 + ia1;
 1409              		.loc 4 91 10 view .LVU514
  92:Middlewares/Third_Party/ARM_CMSIS/CMSIS/DSP/Source/TransformFunctions/arm_cfft_f64.c ****          ia3 = ia2 + ia1;
 1410              		.loc 4 92 10 view .LVU515
 1411              		.loc 4 92 14 is_stmt 0 view .LVU516
 1412 0026 1E98     		ldr	r0, [sp, #120]
 1413 0028 00EB4002 		add	r2, r0, r0, lsl #1
 1414              	.LVL128:
  93:Middlewares/Third_Party/ARM_CMSIS/CMSIS/DSP/Source/TransformFunctions/arm_cfft_f64.c ****          co1 = pCoef[ia1 * 2U];
 1415              		.loc 4 93 10 is_stmt 1 view .LVU517
 1416              		.loc 4 93 21 is_stmt 0 view .LVU518
 1417 002c 0301     		lsls	r3, r0, #4
 1418 002e 209C     		ldr	r4, [sp, #128]
 1419 0030 04EB0011 		add	r1, r4, r0, lsl #4
 1420              		.loc 4 93 14 view .LVU519
 1421 0034 91ED007B 		vldr.64	d7, [r1]
 1422 0038 8DED087B 		vstr.64	d7, [sp, #32]
 1423              	.LVL129:
  94:Middlewares/Third_Party/ARM_CMSIS/CMSIS/DSP/Source/TransformFunctions/arm_cfft_f64.c ****          si1 = pCoef[(ia1 * 2U) + 1U];
 1424              		.loc 4 94 10 is_stmt 1 view .LVU520
 1425              		.loc 4 94 21 is_stmt 0 view .LVU521
 1426 003c 0833     		adds	r3, r3, #8
 1427 003e 2344     		add	r3, r3, r4
 1428              		.loc 4 94 14 view .LVU522
 1429 0040 93ED007B 		vldr.64	d7, [r3]
 1430              	.LVL130:
 1431              		.loc 4 94 14 view .LVU523
 1432 0044 8DED0A7B 		vstr.64	d7, [sp, #40]
 1433              	.LVL131:
  95:Middlewares/Third_Party/ARM_CMSIS/CMSIS/DSP/Source/TransformFunctions/arm_cfft_f64.c ****          co2 = pCoef[ia2 * 2U];
 1434              		.loc 4 95 10 is_stmt 1 view .LVU524
 1435              		.loc 4 95 21 is_stmt 0 view .LVU525
 1436 0048 4301     		lsls	r3, r0, #5
 1437 004a 04EB4011 		add	r1, r4, r0, lsl #5
 1438              	.LVL132:
 1439              		.loc 4 95 14 view .LVU526
 1440 004e 91ED007B 		vldr.64	d7, [r1]
 1441              	.LVL133:
 1442              		.loc 4 95 14 view .LVU527
 1443 0052 8DED0C7B 		vstr.64	d7, [sp, #48]
 1444              	.LVL134:
  96:Middlewares/Third_Party/ARM_CMSIS/CMSIS/DSP/Source/TransformFunctions/arm_cfft_f64.c ****          si2 = pCoef[(ia2 * 2U) + 1U];
 1445              		.loc 4 96 10 is_stmt 1 view .LVU528
 1446              		.loc 4 96 21 is_stmt 0 view .LVU529
 1447 0056 0833     		adds	r3, r3, #8
 1448 0058 2344     		add	r3, r3, r4
 1449              		.loc 4 96 14 view .LVU530
 1450 005a 93ED007B 		vldr.64	d7, [r3]
 1451              	.LVL135:
 1452              		.loc 4 96 14 view .LVU531
 1453 005e 8DED0E7B 		vstr.64	d7, [sp, #56]
 1454              	.LVL136:
  97:Middlewares/Third_Party/ARM_CMSIS/CMSIS/DSP/Source/TransformFunctions/arm_cfft_f64.c ****          co3 = pCoef[ia3 * 2U];
 1455              		.loc 4 97 10 is_stmt 1 view .LVU532
 1456              		.loc 4 97 21 is_stmt 0 view .LVU533
 1457 0062 1301     		lsls	r3, r2, #4
ARM GAS  C:\Users\7636~1\AppData\Local\Temp\ccagWtKu.s 			page 41


 1458 0064 04EB0212 		add	r2, r4, r2, lsl #4
 1459              	.LVL137:
 1460              		.loc 4 97 14 view .LVU534
 1461 0068 92ED007B 		vldr.64	d7, [r2]
 1462              	.LVL138:
 1463              		.loc 4 97 14 view .LVU535
 1464 006c 8DED107B 		vstr.64	d7, [sp, #64]
 1465              	.LVL139:
  98:Middlewares/Third_Party/ARM_CMSIS/CMSIS/DSP/Source/TransformFunctions/arm_cfft_f64.c ****          si3 = pCoef[(ia3 * 2U) + 1U];
 1466              		.loc 4 98 10 is_stmt 1 view .LVU536
 1467              		.loc 4 98 21 is_stmt 0 view .LVU537
 1468 0070 0833     		adds	r3, r3, #8
 1469 0072 2344     		add	r3, r3, r4
 1470              		.loc 4 98 14 view .LVU538
 1471 0074 93ED007B 		vldr.64	d7, [r3]
 1472              	.LVL140:
 1473              		.loc 4 98 14 view .LVU539
 1474 0078 8DED187B 		vstr.64	d7, [sp, #96]
 1475              	.LVL141:
  99:Middlewares/Third_Party/ARM_CMSIS/CMSIS/DSP/Source/TransformFunctions/arm_cfft_f64.c **** 
 100:Middlewares/Third_Party/ARM_CMSIS/CMSIS/DSP/Source/TransformFunctions/arm_cfft_f64.c ****          /*  Twiddle coefficients index modifier */
 101:Middlewares/Third_Party/ARM_CMSIS/CMSIS/DSP/Source/TransformFunctions/arm_cfft_f64.c ****          ia1 = ia1 + twidCoefModifier;
 1476              		.loc 4 101 10 is_stmt 1 view .LVU540
 1477              		.loc 4 101 14 is_stmt 0 view .LVU541
 1478 007c 1F9B     		ldr	r3, [sp, #124]
 1479 007e C318     		adds	r3, r0, r3
 1480 0080 1E93     		str	r3, [sp, #120]
 1481              	.LVL142:
 102:Middlewares/Third_Party/ARM_CMSIS/CMSIS/DSP/Source/TransformFunctions/arm_cfft_f64.c **** 
 103:Middlewares/Third_Party/ARM_CMSIS/CMSIS/DSP/Source/TransformFunctions/arm_cfft_f64.c ****          i0 = j;
 1482              		.loc 4 103 10 is_stmt 1 view .LVU542
 1483              		.loc 4 103 13 is_stmt 0 view .LVU543
 1484 0082 1D9B     		ldr	r3, [sp, #116]
 1485              	.LVL143:
 1486              		.loc 4 103 13 view .LVU544
 1487 0084 9A46     		mov	r10, r3
 1488              	.LVL144:
 1489              	.L73:
 104:Middlewares/Third_Party/ARM_CMSIS/CMSIS/DSP/Source/TransformFunctions/arm_cfft_f64.c ****          do
 1490              		.loc 4 104 10 is_stmt 1 discriminator 1 view .LVU545
 105:Middlewares/Third_Party/ARM_CMSIS/CMSIS/DSP/Source/TransformFunctions/arm_cfft_f64.c ****          {
 106:Middlewares/Third_Party/ARM_CMSIS/CMSIS/DSP/Source/TransformFunctions/arm_cfft_f64.c ****             /*  index calculation for the input as, */
 107:Middlewares/Third_Party/ARM_CMSIS/CMSIS/DSP/Source/TransformFunctions/arm_cfft_f64.c ****             /*  pSrc[i0 + 0], pSrc[i0 + fftLen/4], pSrc[i0 + fftLen/2], pSrc[i0 + 3fftLen/4] */
 108:Middlewares/Third_Party/ARM_CMSIS/CMSIS/DSP/Source/TransformFunctions/arm_cfft_f64.c ****             i1 = i0 + n2;
 1491              		.loc 4 108 13 discriminator 1 view .LVU546
 1492              		.loc 4 108 16 is_stmt 0 discriminator 1 view .LVU547
 1493 0086 1A9A     		ldr	r2, [sp, #104]
 1494 0088 0AEB0205 		add	r5, r10, r2
 1495              	.LVL145:
 109:Middlewares/Third_Party/ARM_CMSIS/CMSIS/DSP/Source/TransformFunctions/arm_cfft_f64.c ****             i2 = i1 + n2;
 1496              		.loc 4 109 13 is_stmt 1 discriminator 1 view .LVU548
 1497              		.loc 4 109 16 is_stmt 0 discriminator 1 view .LVU549
 1498 008c 0AEB4203 		add	r3, r10, r2, lsl #1
 1499              	.LVL146:
 110:Middlewares/Third_Party/ARM_CMSIS/CMSIS/DSP/Source/TransformFunctions/arm_cfft_f64.c ****             i3 = i2 + n2;
 1500              		.loc 4 110 13 is_stmt 1 discriminator 1 view .LVU550
 1501              		.loc 4 110 16 is_stmt 0 discriminator 1 view .LVU551
ARM GAS  C:\Users\7636~1\AppData\Local\Temp\ccagWtKu.s 			page 42


 1502 0090 D618     		adds	r6, r2, r3
 1503              	.LVL147:
 111:Middlewares/Third_Party/ARM_CMSIS/CMSIS/DSP/Source/TransformFunctions/arm_cfft_f64.c **** 
 112:Middlewares/Third_Party/ARM_CMSIS/CMSIS/DSP/Source/TransformFunctions/arm_cfft_f64.c ****             /* xa + xc */
 113:Middlewares/Third_Party/ARM_CMSIS/CMSIS/DSP/Source/TransformFunctions/arm_cfft_f64.c ****             r1 = pSrc[(2U * i0)] + pSrc[(2U * i2)];
 1504              		.loc 4 113 13 is_stmt 1 discriminator 1 view .LVU552
 1505              		.loc 4 113 22 is_stmt 0 discriminator 1 view .LVU553
 1506 0092 4FEA0A12 		lsl	r2, r10, #4
 1507 0096 0292     		str	r2, [sp, #8]
 1508 0098 0BEB0A17 		add	r7, fp, r10, lsl #4
 1509 009c D7E90089 		ldrd	r8, [r7]
 1510              		.loc 4 113 40 discriminator 1 view .LVU554
 1511 00a0 1C01     		lsls	r4, r3, #4
 1512 00a2 0BEB0313 		add	r3, fp, r3, lsl #4
 1513              	.LVL148:
 1514              		.loc 4 113 40 discriminator 1 view .LVU555
 1515 00a6 1293     		str	r3, [sp, #72]
 1516 00a8 93ED007B 		vldr.64	d7, [r3]
 1517 00ac B0EE478A 		vmov.f32	s16, s14
 1518 00b0 F0EE678A 		vmov.f32	s17, s15
 1519              		.loc 4 113 16 discriminator 1 view .LVU556
 1520 00b4 53EC172B 		vmov	r2, r3, d7
 1521 00b8 4046     		mov	r0, r8
 1522 00ba 4946     		mov	r1, r9
 1523 00bc FFF7FEFF 		bl	__aeabi_dadd
 1524              	.LVL149:
 1525 00c0 CDE90001 		strd	r0, [sp]
 1526              	.LVL150:
 114:Middlewares/Third_Party/ARM_CMSIS/CMSIS/DSP/Source/TransformFunctions/arm_cfft_f64.c **** 
 115:Middlewares/Third_Party/ARM_CMSIS/CMSIS/DSP/Source/TransformFunctions/arm_cfft_f64.c ****             /* xa - xc */
 116:Middlewares/Third_Party/ARM_CMSIS/CMSIS/DSP/Source/TransformFunctions/arm_cfft_f64.c ****             r2 = pSrc[(2U * i0)] - pSrc[(2U * i2)];
 1527              		.loc 4 116 13 is_stmt 1 discriminator 1 view .LVU557
 1528              		.loc 4 116 16 is_stmt 0 discriminator 1 view .LVU558
 1529 00c4 53EC182B 		vmov	r2, r3, d8
 1530 00c8 4046     		mov	r0, r8
 1531              	.LVL151:
 1532              		.loc 4 116 16 discriminator 1 view .LVU559
 1533 00ca 4946     		mov	r1, r9
 1534 00cc FFF7FEFF 		bl	__aeabi_dsub
 1535              	.LVL152:
 1536 00d0 CDE91401 		strd	r0, [sp, #80]
 1537              	.LVL153:
 117:Middlewares/Third_Party/ARM_CMSIS/CMSIS/DSP/Source/TransformFunctions/arm_cfft_f64.c **** 
 118:Middlewares/Third_Party/ARM_CMSIS/CMSIS/DSP/Source/TransformFunctions/arm_cfft_f64.c ****             /* ya + yc */
 119:Middlewares/Third_Party/ARM_CMSIS/CMSIS/DSP/Source/TransformFunctions/arm_cfft_f64.c ****             s1 = pSrc[(2U * i0) + 1U] + pSrc[(2U * i2) + 1U];
 1538              		.loc 4 119 13 is_stmt 1 discriminator 1 view .LVU560
 1539              		.loc 4 119 22 is_stmt 0 discriminator 1 view .LVU561
 1540 00d4 029A     		ldr	r2, [sp, #8]
 1541 00d6 02F10808 		add	r8, r2, #8
 1542 00da 0BEB0802 		add	r2, fp, r8
 1543 00de 0692     		str	r2, [sp, #24]
 1544 00e0 D2E90089 		ldrd	r8, [r2]
 1545              		.loc 4 119 45 discriminator 1 view .LVU562
 1546 00e4 0834     		adds	r4, r4, #8
 1547 00e6 0BEB0401 		add	r1, fp, r4
 1548 00ea 1391     		str	r1, [sp, #76]
 1549 00ec 91ED007B 		vldr.64	d7, [r1]
ARM GAS  C:\Users\7636~1\AppData\Local\Temp\ccagWtKu.s 			page 43


 1550 00f0 B0EE478A 		vmov.f32	s16, s14
 1551 00f4 F0EE678A 		vmov.f32	s17, s15
 1552              		.loc 4 119 16 discriminator 1 view .LVU563
 1553 00f8 53EC172B 		vmov	r2, r3, d7
 1554 00fc 4046     		mov	r0, r8
 1555              	.LVL154:
 1556              		.loc 4 119 16 discriminator 1 view .LVU564
 1557 00fe 4946     		mov	r1, r9
 1558 0100 FFF7FEFF 		bl	__aeabi_dadd
 1559              	.LVL155:
 1560 0104 CDE90201 		strd	r0, [sp, #8]
 1561              	.LVL156:
 120:Middlewares/Third_Party/ARM_CMSIS/CMSIS/DSP/Source/TransformFunctions/arm_cfft_f64.c **** 
 121:Middlewares/Third_Party/ARM_CMSIS/CMSIS/DSP/Source/TransformFunctions/arm_cfft_f64.c ****             /* ya - yc */
 122:Middlewares/Third_Party/ARM_CMSIS/CMSIS/DSP/Source/TransformFunctions/arm_cfft_f64.c ****             s2 = pSrc[(2U * i0) + 1U] - pSrc[(2U * i2) + 1U];
 1562              		.loc 4 122 13 is_stmt 1 discriminator 1 view .LVU565
 1563              		.loc 4 122 16 is_stmt 0 discriminator 1 view .LVU566
 1564 0108 53EC182B 		vmov	r2, r3, d8
 1565 010c 4046     		mov	r0, r8
 1566              	.LVL157:
 1567              		.loc 4 122 16 discriminator 1 view .LVU567
 1568 010e 4946     		mov	r1, r9
 1569 0110 FFF7FEFF 		bl	__aeabi_dsub
 1570              	.LVL158:
 1571 0114 CDE90401 		strd	r0, [sp, #16]
 1572              	.LVL159:
 123:Middlewares/Third_Party/ARM_CMSIS/CMSIS/DSP/Source/TransformFunctions/arm_cfft_f64.c **** 
 124:Middlewares/Third_Party/ARM_CMSIS/CMSIS/DSP/Source/TransformFunctions/arm_cfft_f64.c ****             /* xb + xd */
 125:Middlewares/Third_Party/ARM_CMSIS/CMSIS/DSP/Source/TransformFunctions/arm_cfft_f64.c ****             t1 = pSrc[2U * i1] + pSrc[2U * i3];
 1573              		.loc 4 125 13 is_stmt 1 discriminator 1 view .LVU568
 1574              		.loc 4 125 22 is_stmt 0 discriminator 1 view .LVU569
 1575 0118 2C01     		lsls	r4, r5, #4
 1576 011a 0BEB0515 		add	r5, fp, r5, lsl #4
 1577              	.LVL160:
 1578              		.loc 4 125 38 discriminator 1 view .LVU570
 1579 011e 4FEA0619 		lsl	r9, r6, #4
 1580 0122 0BEB0618 		add	r8, fp, r6, lsl #4
 1581              		.loc 4 125 16 discriminator 1 view .LVU571
 1582 0126 D8E90023 		ldrd	r2, [r8]
 1583 012a D5E90001 		ldrd	r0, [r5]
 1584              	.LVL161:
 1585              		.loc 4 125 16 discriminator 1 view .LVU572
 1586 012e FFF7FEFF 		bl	__aeabi_dadd
 1587              	.LVL162:
 1588 0132 0A46     		mov	r2, r1
 1589 0134 0146     		mov	r1, r0
 1590              	.LVL163:
 126:Middlewares/Third_Party/ARM_CMSIS/CMSIS/DSP/Source/TransformFunctions/arm_cfft_f64.c **** 
 127:Middlewares/Third_Party/ARM_CMSIS/CMSIS/DSP/Source/TransformFunctions/arm_cfft_f64.c ****             /* xa' = xa + xb + xc + xd */
 128:Middlewares/Third_Party/ARM_CMSIS/CMSIS/DSP/Source/TransformFunctions/arm_cfft_f64.c ****             pSrc[2U * i0] = r1 + t1;
 1591              		.loc 4 128 13 is_stmt 1 discriminator 1 view .LVU573
 1592              		.loc 4 128 32 is_stmt 0 discriminator 1 view .LVU574
 1593 0136 CDE91612 		strd	r1, [sp, #88]
 1594 013a 1346     		mov	r3, r2
 1595 013c 0246     		mov	r2, r0
 1596 013e DDE90001 		ldrd	r0, [sp]
 1597 0142 FFF7FEFF 		bl	__aeabi_dadd
ARM GAS  C:\Users\7636~1\AppData\Local\Temp\ccagWtKu.s 			page 44


 1598              	.LVL164:
 1599              		.loc 4 128 27 discriminator 1 view .LVU575
 1600 0146 C7E90001 		strd	r0, [r7]
 129:Middlewares/Third_Party/ARM_CMSIS/CMSIS/DSP/Source/TransformFunctions/arm_cfft_f64.c **** 
 130:Middlewares/Third_Party/ARM_CMSIS/CMSIS/DSP/Source/TransformFunctions/arm_cfft_f64.c ****             /* xa + xc -(xb + xd) */
 131:Middlewares/Third_Party/ARM_CMSIS/CMSIS/DSP/Source/TransformFunctions/arm_cfft_f64.c ****             r1 = r1 - t1;
 1601              		.loc 4 131 13 is_stmt 1 discriminator 1 view .LVU576
 1602              		.loc 4 131 16 is_stmt 0 discriminator 1 view .LVU577
 1603 014a DDE91623 		ldrd	r2, [sp, #88]
 1604 014e DDE90001 		ldrd	r0, [sp]
 1605 0152 FFF7FEFF 		bl	__aeabi_dsub
 1606              	.LVL165:
 1607 0156 CDE90001 		strd	r0, [sp]
 1608              	.LVL166:
 132:Middlewares/Third_Party/ARM_CMSIS/CMSIS/DSP/Source/TransformFunctions/arm_cfft_f64.c **** 
 133:Middlewares/Third_Party/ARM_CMSIS/CMSIS/DSP/Source/TransformFunctions/arm_cfft_f64.c ****             /* yb + yd */
 134:Middlewares/Third_Party/ARM_CMSIS/CMSIS/DSP/Source/TransformFunctions/arm_cfft_f64.c ****             t2 = pSrc[(2U * i1) + 1U] + pSrc[(2U * i3) + 1U];
 1609              		.loc 4 134 13 is_stmt 1 discriminator 1 view .LVU578
 1610              		.loc 4 134 22 is_stmt 0 discriminator 1 view .LVU579
 1611 015a 0834     		adds	r4, r4, #8
 1612 015c 5C44     		add	r4, r4, fp
 1613              		.loc 4 134 45 discriminator 1 view .LVU580
 1614 015e 09F10809 		add	r9, r9, #8
 1615 0162 D944     		add	r9, r9, fp
 1616              		.loc 4 134 16 discriminator 1 view .LVU581
 1617 0164 D9E90023 		ldrd	r2, [r9]
 1618 0168 D4E90001 		ldrd	r0, [r4]
 1619              	.LVL167:
 1620              		.loc 4 134 16 discriminator 1 view .LVU582
 1621 016c FFF7FEFF 		bl	__aeabi_dadd
 1622              	.LVL168:
 1623 0170 0646     		mov	r6, r0
 1624              	.LVL169:
 1625              		.loc 4 134 16 discriminator 1 view .LVU583
 1626 0172 0F46     		mov	r7, r1
 1627              	.LVL170:
 135:Middlewares/Third_Party/ARM_CMSIS/CMSIS/DSP/Source/TransformFunctions/arm_cfft_f64.c **** 
 136:Middlewares/Third_Party/ARM_CMSIS/CMSIS/DSP/Source/TransformFunctions/arm_cfft_f64.c ****             /* ya' = ya + yb + yc + yd */
 137:Middlewares/Third_Party/ARM_CMSIS/CMSIS/DSP/Source/TransformFunctions/arm_cfft_f64.c ****             pSrc[(2U * i0) + 1U] = s1 + t2;
 1628              		.loc 4 137 13 is_stmt 1 discriminator 1 view .LVU584
 1629              		.loc 4 137 39 is_stmt 0 discriminator 1 view .LVU585
 1630 0174 0246     		mov	r2, r0
 1631 0176 0B46     		mov	r3, r1
 1632 0178 DDE90201 		ldrd	r0, [sp, #8]
 1633 017c FFF7FEFF 		bl	__aeabi_dadd
 1634              	.LVL171:
 1635              		.loc 4 137 34 discriminator 1 view .LVU586
 1636 0180 069A     		ldr	r2, [sp, #24]
 1637 0182 C2E90001 		strd	r0, [r2]
 138:Middlewares/Third_Party/ARM_CMSIS/CMSIS/DSP/Source/TransformFunctions/arm_cfft_f64.c **** 
 139:Middlewares/Third_Party/ARM_CMSIS/CMSIS/DSP/Source/TransformFunctions/arm_cfft_f64.c ****             /* (ya + yc) - (yb + yd) */
 140:Middlewares/Third_Party/ARM_CMSIS/CMSIS/DSP/Source/TransformFunctions/arm_cfft_f64.c ****             s1 = s1 - t2;
 1638              		.loc 4 140 13 is_stmt 1 discriminator 1 view .LVU587
 1639              		.loc 4 140 16 is_stmt 0 discriminator 1 view .LVU588
 1640 0186 3246     		mov	r2, r6
 1641 0188 3B46     		mov	r3, r7
 1642 018a DDE90201 		ldrd	r0, [sp, #8]
ARM GAS  C:\Users\7636~1\AppData\Local\Temp\ccagWtKu.s 			page 45


 1643 018e FFF7FEFF 		bl	__aeabi_dsub
 1644              	.LVL172:
 1645 0192 0646     		mov	r6, r0
 1646              	.LVL173:
 1647              		.loc 4 140 16 discriminator 1 view .LVU589
 1648 0194 0F46     		mov	r7, r1
 1649              	.LVL174:
 141:Middlewares/Third_Party/ARM_CMSIS/CMSIS/DSP/Source/TransformFunctions/arm_cfft_f64.c **** 
 142:Middlewares/Third_Party/ARM_CMSIS/CMSIS/DSP/Source/TransformFunctions/arm_cfft_f64.c ****             /* (yb - yd) */
 143:Middlewares/Third_Party/ARM_CMSIS/CMSIS/DSP/Source/TransformFunctions/arm_cfft_f64.c ****             t1 = pSrc[(2U * i1) + 1U] - pSrc[(2U * i3) + 1U];
 1650              		.loc 4 143 13 is_stmt 1 discriminator 1 view .LVU590
 1651              		.loc 4 143 16 is_stmt 0 discriminator 1 view .LVU591
 1652 0196 D9E90023 		ldrd	r2, [r9]
 1653 019a D4E90001 		ldrd	r0, [r4]
 1654 019e FFF7FEFF 		bl	__aeabi_dsub
 1655              	.LVL175:
 1656 01a2 CDE90201 		strd	r0, [sp, #8]
 1657              	.LVL176:
 144:Middlewares/Third_Party/ARM_CMSIS/CMSIS/DSP/Source/TransformFunctions/arm_cfft_f64.c **** 
 145:Middlewares/Third_Party/ARM_CMSIS/CMSIS/DSP/Source/TransformFunctions/arm_cfft_f64.c ****             /* (xb - xd) */
 146:Middlewares/Third_Party/ARM_CMSIS/CMSIS/DSP/Source/TransformFunctions/arm_cfft_f64.c ****             t2 = pSrc[2U * i1] - pSrc[2U * i3];
 1658              		.loc 4 146 13 is_stmt 1 discriminator 1 view .LVU592
 1659              		.loc 4 146 16 is_stmt 0 discriminator 1 view .LVU593
 1660 01a6 D8E90023 		ldrd	r2, [r8]
 1661 01aa D5E90001 		ldrd	r0, [r5]
 1662              	.LVL177:
 1663              		.loc 4 146 16 discriminator 1 view .LVU594
 1664 01ae FFF7FEFF 		bl	__aeabi_dsub
 1665              	.LVL178:
 1666 01b2 CDE90601 		strd	r0, [sp, #24]
 1667              	.LVL179:
 147:Middlewares/Third_Party/ARM_CMSIS/CMSIS/DSP/Source/TransformFunctions/arm_cfft_f64.c **** 
 148:Middlewares/Third_Party/ARM_CMSIS/CMSIS/DSP/Source/TransformFunctions/arm_cfft_f64.c ****             /* xc' = (xa-xb+xc-xd)co2 + (ya-yb+yc-yd)(si2) */
 149:Middlewares/Third_Party/ARM_CMSIS/CMSIS/DSP/Source/TransformFunctions/arm_cfft_f64.c ****             pSrc[2U * i1] = (r1 * co2) + (s1 * si2);
 1668              		.loc 4 149 13 is_stmt 1 discriminator 1 view .LVU595
 1669              		.loc 4 149 33 is_stmt 0 discriminator 1 view .LVU596
 1670 01b6 DDE90023 		ldrd	r2, [sp]
 1671 01ba DDE90C01 		ldrd	r0, [sp, #48]
 1672              	.LVL180:
 1673              		.loc 4 149 33 discriminator 1 view .LVU597
 1674 01be FFF7FEFF 		bl	__aeabi_dmul
 1675              	.LVL181:
 1676 01c2 CDE91601 		strd	r0, [sp, #88]
 1677              		.loc 4 149 46 discriminator 1 view .LVU598
 1678 01c6 3246     		mov	r2, r6
 1679 01c8 3B46     		mov	r3, r7
 1680 01ca DDE90E01 		ldrd	r0, [sp, #56]
 1681 01ce FFF7FEFF 		bl	__aeabi_dmul
 1682              	.LVL182:
 1683 01d2 0246     		mov	r2, r0
 1684 01d4 0B46     		mov	r3, r1
 1685              		.loc 4 149 40 discriminator 1 view .LVU599
 1686 01d6 DDE91601 		ldrd	r0, [sp, #88]
 1687 01da FFF7FEFF 		bl	__aeabi_dadd
 1688              	.LVL183:
 1689              		.loc 4 149 27 discriminator 1 view .LVU600
 1690 01de C5E90001 		strd	r0, [r5]
ARM GAS  C:\Users\7636~1\AppData\Local\Temp\ccagWtKu.s 			page 46


 150:Middlewares/Third_Party/ARM_CMSIS/CMSIS/DSP/Source/TransformFunctions/arm_cfft_f64.c **** 
 151:Middlewares/Third_Party/ARM_CMSIS/CMSIS/DSP/Source/TransformFunctions/arm_cfft_f64.c ****             /* yc' = (ya-yb+yc-yd)co2 - (xa-xb+xc-xd)(si2) */
 152:Middlewares/Third_Party/ARM_CMSIS/CMSIS/DSP/Source/TransformFunctions/arm_cfft_f64.c ****             pSrc[(2U * i1) + 1U] = (s1 * co2) - (r1 * si2);
 1691              		.loc 4 152 13 is_stmt 1 discriminator 1 view .LVU601
 1692              		.loc 4 152 40 is_stmt 0 discriminator 1 view .LVU602
 1693 01e2 3246     		mov	r2, r6
 1694 01e4 3B46     		mov	r3, r7
 1695 01e6 DDE90C01 		ldrd	r0, [sp, #48]
 1696 01ea FFF7FEFF 		bl	__aeabi_dmul
 1697              	.LVL184:
 1698 01ee 0646     		mov	r6, r0
 1699              	.LVL185:
 1700              		.loc 4 152 40 discriminator 1 view .LVU603
 1701 01f0 0F46     		mov	r7, r1
 1702              		.loc 4 152 53 discriminator 1 view .LVU604
 1703 01f2 DDE90023 		ldrd	r2, [sp]
 1704 01f6 DDE90E01 		ldrd	r0, [sp, #56]
 1705 01fa FFF7FEFF 		bl	__aeabi_dmul
 1706              	.LVL186:
 1707 01fe 0246     		mov	r2, r0
 1708 0200 0B46     		mov	r3, r1
 1709              		.loc 4 152 47 discriminator 1 view .LVU605
 1710 0202 3046     		mov	r0, r6
 1711 0204 3946     		mov	r1, r7
 1712 0206 FFF7FEFF 		bl	__aeabi_dsub
 1713              	.LVL187:
 1714              		.loc 4 152 34 discriminator 1 view .LVU606
 1715 020a C4E90001 		strd	r0, [r4]
 153:Middlewares/Third_Party/ARM_CMSIS/CMSIS/DSP/Source/TransformFunctions/arm_cfft_f64.c **** 
 154:Middlewares/Third_Party/ARM_CMSIS/CMSIS/DSP/Source/TransformFunctions/arm_cfft_f64.c ****             /* (xa - xc) + (yb - yd) */
 155:Middlewares/Third_Party/ARM_CMSIS/CMSIS/DSP/Source/TransformFunctions/arm_cfft_f64.c ****             r1 = r2 + t1;
 1716              		.loc 4 155 13 is_stmt 1 discriminator 1 view .LVU607
 1717              		.loc 4 155 16 is_stmt 0 discriminator 1 view .LVU608
 1718 020e DDE90223 		ldrd	r2, [sp, #8]
 1719 0212 DDE91467 		ldrd	r6, [sp, #80]
 1720 0216 3046     		mov	r0, r6
 1721 0218 3946     		mov	r1, r7
 1722 021a FFF7FEFF 		bl	__aeabi_dadd
 1723              	.LVL188:
 1724 021e 0446     		mov	r4, r0
 1725 0220 0D46     		mov	r5, r1
 1726              	.LVL189:
 156:Middlewares/Third_Party/ARM_CMSIS/CMSIS/DSP/Source/TransformFunctions/arm_cfft_f64.c **** 
 157:Middlewares/Third_Party/ARM_CMSIS/CMSIS/DSP/Source/TransformFunctions/arm_cfft_f64.c ****             /* (xa - xc) - (yb - yd) */
 158:Middlewares/Third_Party/ARM_CMSIS/CMSIS/DSP/Source/TransformFunctions/arm_cfft_f64.c ****             r2 = r2 - t1;
 1727              		.loc 4 158 13 is_stmt 1 discriminator 1 view .LVU609
 1728              		.loc 4 158 16 is_stmt 0 discriminator 1 view .LVU610
 1729 0222 DDE90223 		ldrd	r2, [sp, #8]
 1730 0226 3046     		mov	r0, r6
 1731 0228 3946     		mov	r1, r7
 1732 022a FFF7FEFF 		bl	__aeabi_dsub
 1733              	.LVL190:
 1734 022e CDE90001 		strd	r0, [sp]
 1735              	.LVL191:
 159:Middlewares/Third_Party/ARM_CMSIS/CMSIS/DSP/Source/TransformFunctions/arm_cfft_f64.c **** 
 160:Middlewares/Third_Party/ARM_CMSIS/CMSIS/DSP/Source/TransformFunctions/arm_cfft_f64.c ****             /* (ya - yc) -  (xb - xd) */
 161:Middlewares/Third_Party/ARM_CMSIS/CMSIS/DSP/Source/TransformFunctions/arm_cfft_f64.c ****             s1 = s2 - t2;
ARM GAS  C:\Users\7636~1\AppData\Local\Temp\ccagWtKu.s 			page 47


 1736              		.loc 4 161 13 is_stmt 1 discriminator 1 view .LVU611
 1737              		.loc 4 161 16 is_stmt 0 discriminator 1 view .LVU612
 1738 0232 DDE90623 		ldrd	r2, [sp, #24]
 1739 0236 DDE90401 		ldrd	r0, [sp, #16]
 1740              	.LVL192:
 1741              		.loc 4 161 16 discriminator 1 view .LVU613
 1742 023a FFF7FEFF 		bl	__aeabi_dsub
 1743              	.LVL193:
 1744 023e 0646     		mov	r6, r0
 1745 0240 0F46     		mov	r7, r1
 1746              	.LVL194:
 162:Middlewares/Third_Party/ARM_CMSIS/CMSIS/DSP/Source/TransformFunctions/arm_cfft_f64.c **** 
 163:Middlewares/Third_Party/ARM_CMSIS/CMSIS/DSP/Source/TransformFunctions/arm_cfft_f64.c ****             /* (ya - yc) +  (xb - xd) */
 164:Middlewares/Third_Party/ARM_CMSIS/CMSIS/DSP/Source/TransformFunctions/arm_cfft_f64.c ****             s2 = s2 + t2;
 1747              		.loc 4 164 13 is_stmt 1 discriminator 1 view .LVU614
 1748              		.loc 4 164 16 is_stmt 0 discriminator 1 view .LVU615
 1749 0242 DDE90623 		ldrd	r2, [sp, #24]
 1750 0246 DDE90401 		ldrd	r0, [sp, #16]
 1751 024a FFF7FEFF 		bl	__aeabi_dadd
 1752              	.LVL195:
 1753 024e CDE90201 		strd	r0, [sp, #8]
 1754              	.LVL196:
 165:Middlewares/Third_Party/ARM_CMSIS/CMSIS/DSP/Source/TransformFunctions/arm_cfft_f64.c **** 
 166:Middlewares/Third_Party/ARM_CMSIS/CMSIS/DSP/Source/TransformFunctions/arm_cfft_f64.c ****             /* xb' = (xa+yb-xc-yd)co1 + (ya-xb-yc+xd)(si1) */
 167:Middlewares/Third_Party/ARM_CMSIS/CMSIS/DSP/Source/TransformFunctions/arm_cfft_f64.c ****             pSrc[2U * i2] = (r1 * co1) + (s1 * si1);
 1755              		.loc 4 167 13 is_stmt 1 discriminator 1 view .LVU616
 1756              		.loc 4 167 33 is_stmt 0 discriminator 1 view .LVU617
 1757 0252 CDE90445 		strd	r4, [sp, #16]
 1758 0256 2246     		mov	r2, r4
 1759 0258 2B46     		mov	r3, r5
 1760 025a DDE90801 		ldrd	r0, [sp, #32]
 1761              	.LVL197:
 1762              		.loc 4 167 33 discriminator 1 view .LVU618
 1763 025e FFF7FEFF 		bl	__aeabi_dmul
 1764              	.LVL198:
 1765 0262 0446     		mov	r4, r0
 1766              	.LVL199:
 1767              		.loc 4 167 33 discriminator 1 view .LVU619
 1768 0264 0D46     		mov	r5, r1
 1769              		.loc 4 167 46 discriminator 1 view .LVU620
 1770 0266 3246     		mov	r2, r6
 1771 0268 3B46     		mov	r3, r7
 1772 026a DDE90A01 		ldrd	r0, [sp, #40]
 1773 026e FFF7FEFF 		bl	__aeabi_dmul
 1774              	.LVL200:
 1775 0272 0246     		mov	r2, r0
 1776 0274 0B46     		mov	r3, r1
 1777              		.loc 4 167 40 discriminator 1 view .LVU621
 1778 0276 2046     		mov	r0, r4
 1779 0278 2946     		mov	r1, r5
 1780 027a FFF7FEFF 		bl	__aeabi_dadd
 1781              	.LVL201:
 1782              		.loc 4 167 27 discriminator 1 view .LVU622
 1783 027e 129B     		ldr	r3, [sp, #72]
 1784 0280 C3E90001 		strd	r0, [r3]
 168:Middlewares/Third_Party/ARM_CMSIS/CMSIS/DSP/Source/TransformFunctions/arm_cfft_f64.c **** 
 169:Middlewares/Third_Party/ARM_CMSIS/CMSIS/DSP/Source/TransformFunctions/arm_cfft_f64.c ****             /* yb' = (ya-xb-yc+xd)co1 - (xa+yb-xc-yd)(si1) */
ARM GAS  C:\Users\7636~1\AppData\Local\Temp\ccagWtKu.s 			page 48


 170:Middlewares/Third_Party/ARM_CMSIS/CMSIS/DSP/Source/TransformFunctions/arm_cfft_f64.c ****             pSrc[(2U * i2) + 1U] = (s1 * co1) - (r1 * si1);
 1785              		.loc 4 170 13 is_stmt 1 discriminator 1 view .LVU623
 1786              		.loc 4 170 40 is_stmt 0 discriminator 1 view .LVU624
 1787 0284 3246     		mov	r2, r6
 1788 0286 3B46     		mov	r3, r7
 1789 0288 DDE90801 		ldrd	r0, [sp, #32]
 1790 028c FFF7FEFF 		bl	__aeabi_dmul
 1791              	.LVL202:
 1792 0290 0446     		mov	r4, r0
 1793 0292 0D46     		mov	r5, r1
 1794              		.loc 4 170 53 discriminator 1 view .LVU625
 1795 0294 DDE90423 		ldrd	r2, [sp, #16]
 1796 0298 DDE90A01 		ldrd	r0, [sp, #40]
 1797 029c FFF7FEFF 		bl	__aeabi_dmul
 1798              	.LVL203:
 1799 02a0 0246     		mov	r2, r0
 1800 02a2 0B46     		mov	r3, r1
 1801              		.loc 4 170 47 discriminator 1 view .LVU626
 1802 02a4 2046     		mov	r0, r4
 1803 02a6 2946     		mov	r1, r5
 1804 02a8 FFF7FEFF 		bl	__aeabi_dsub
 1805              	.LVL204:
 1806              		.loc 4 170 34 discriminator 1 view .LVU627
 1807 02ac 139B     		ldr	r3, [sp, #76]
 1808 02ae C3E90001 		strd	r0, [r3]
 171:Middlewares/Third_Party/ARM_CMSIS/CMSIS/DSP/Source/TransformFunctions/arm_cfft_f64.c **** 
 172:Middlewares/Third_Party/ARM_CMSIS/CMSIS/DSP/Source/TransformFunctions/arm_cfft_f64.c ****             /* xd' = (xa-yb-xc+yd)co3 + (ya+xb-yc-xd)(si3) */
 173:Middlewares/Third_Party/ARM_CMSIS/CMSIS/DSP/Source/TransformFunctions/arm_cfft_f64.c ****             pSrc[2U * i3] = (r2 * co3) + (s2 * si3);
 1809              		.loc 4 173 13 is_stmt 1 discriminator 1 view .LVU628
 1810              		.loc 4 173 33 is_stmt 0 discriminator 1 view .LVU629
 1811 02b2 DDE90023 		ldrd	r2, [sp]
 1812 02b6 DDE91001 		ldrd	r0, [sp, #64]
 1813 02ba FFF7FEFF 		bl	__aeabi_dmul
 1814              	.LVL205:
 1815 02be 0446     		mov	r4, r0
 1816 02c0 0D46     		mov	r5, r1
 1817              		.loc 4 173 46 discriminator 1 view .LVU630
 1818 02c2 DDE90223 		ldrd	r2, [sp, #8]
 1819 02c6 DDE91867 		ldrd	r6, [sp, #96]
 1820              	.LVL206:
 1821              		.loc 4 173 46 discriminator 1 view .LVU631
 1822 02ca 3046     		mov	r0, r6
 1823 02cc 3946     		mov	r1, r7
 1824 02ce FFF7FEFF 		bl	__aeabi_dmul
 1825              	.LVL207:
 1826 02d2 0246     		mov	r2, r0
 1827 02d4 0B46     		mov	r3, r1
 1828              		.loc 4 173 40 discriminator 1 view .LVU632
 1829 02d6 2046     		mov	r0, r4
 1830 02d8 2946     		mov	r1, r5
 1831 02da FFF7FEFF 		bl	__aeabi_dadd
 1832              	.LVL208:
 1833              		.loc 4 173 27 discriminator 1 view .LVU633
 1834 02de C8E90001 		strd	r0, [r8]
 174:Middlewares/Third_Party/ARM_CMSIS/CMSIS/DSP/Source/TransformFunctions/arm_cfft_f64.c **** 
 175:Middlewares/Third_Party/ARM_CMSIS/CMSIS/DSP/Source/TransformFunctions/arm_cfft_f64.c ****             /* yd' = (ya+xb-yc-xd)co3 - (xa-yb-xc+yd)(si3) */
 176:Middlewares/Third_Party/ARM_CMSIS/CMSIS/DSP/Source/TransformFunctions/arm_cfft_f64.c ****             pSrc[(2U * i3) + 1U] = (s2 * co3) - (r2 * si3);
ARM GAS  C:\Users\7636~1\AppData\Local\Temp\ccagWtKu.s 			page 49


 1835              		.loc 4 176 13 is_stmt 1 discriminator 1 view .LVU634
 1836              		.loc 4 176 40 is_stmt 0 discriminator 1 view .LVU635
 1837 02e2 DDE90223 		ldrd	r2, [sp, #8]
 1838 02e6 DDE91001 		ldrd	r0, [sp, #64]
 1839 02ea FFF7FEFF 		bl	__aeabi_dmul
 1840              	.LVL209:
 1841 02ee 0446     		mov	r4, r0
 1842 02f0 0D46     		mov	r5, r1
 1843              		.loc 4 176 53 discriminator 1 view .LVU636
 1844 02f2 DDE90023 		ldrd	r2, [sp]
 1845 02f6 3046     		mov	r0, r6
 1846 02f8 3946     		mov	r1, r7
 1847 02fa FFF7FEFF 		bl	__aeabi_dmul
 1848              	.LVL210:
 1849 02fe 0246     		mov	r2, r0
 1850 0300 0B46     		mov	r3, r1
 1851              		.loc 4 176 47 discriminator 1 view .LVU637
 1852 0302 2046     		mov	r0, r4
 1853 0304 2946     		mov	r1, r5
 1854 0306 FFF7FEFF 		bl	__aeabi_dsub
 1855              	.LVL211:
 1856              		.loc 4 176 34 discriminator 1 view .LVU638
 1857 030a C9E90001 		strd	r0, [r9]
 177:Middlewares/Third_Party/ARM_CMSIS/CMSIS/DSP/Source/TransformFunctions/arm_cfft_f64.c **** 
 178:Middlewares/Third_Party/ARM_CMSIS/CMSIS/DSP/Source/TransformFunctions/arm_cfft_f64.c ****             i0 += n1;
 1858              		.loc 4 178 13 is_stmt 1 discriminator 1 view .LVU639
 1859              		.loc 4 178 16 is_stmt 0 discriminator 1 view .LVU640
 1860 030e 1B9B     		ldr	r3, [sp, #108]
 1861 0310 9A44     		add	r10, r10, r3
 1862              	.LVL212:
 179:Middlewares/Third_Party/ARM_CMSIS/CMSIS/DSP/Source/TransformFunctions/arm_cfft_f64.c ****          } while ( i0 < fftLen);
 1863              		.loc 4 179 18 is_stmt 1 discriminator 1 view .LVU641
 1864              		.loc 4 179 10 is_stmt 0 discriminator 1 view .LVU642
 1865 0312 1C9B     		ldr	r3, [sp, #112]
 1866 0314 5345     		cmp	r3, r10
 1867 0316 3FF6B6AE 		bhi	.L73
 180:Middlewares/Third_Party/ARM_CMSIS/CMSIS/DSP/Source/TransformFunctions/arm_cfft_f64.c ****          j++;
 1868              		.loc 4 180 10 is_stmt 1 view .LVU643
 1869              		.loc 4 180 11 is_stmt 0 view .LVU644
 1870 031a 1D9A     		ldr	r2, [sp, #116]
 1871 031c 0132     		adds	r2, r2, #1
 1872 031e 1D92     		str	r2, [sp, #116]
 1873              	.LVL213:
 181:Middlewares/Third_Party/ARM_CMSIS/CMSIS/DSP/Source/TransformFunctions/arm_cfft_f64.c ****       } while (j <= (n2 - 1U));
 1874              		.loc 4 181 15 is_stmt 1 view .LVU645
 1875              		.loc 4 181 25 is_stmt 0 view .LVU646
 1876 0320 1A9B     		ldr	r3, [sp, #104]
 1877 0322 013B     		subs	r3, r3, #1
 1878              		.loc 4 181 7 view .LVU647
 1879 0324 9342     		cmp	r3, r2
 1880 0326 BFF47EAE 		bcs	.L74
 182:Middlewares/Third_Party/ARM_CMSIS/CMSIS/DSP/Source/TransformFunctions/arm_cfft_f64.c ****       twidCoefModifier <<= 2U;
 1881              		.loc 4 182 24 discriminator 2 view .LVU648
 1882 032a 5C46     		mov	r4, fp
 1883              		.loc 4 182 7 is_stmt 1 discriminator 2 view .LVU649
 1884              		.loc 4 182 24 is_stmt 0 discriminator 2 view .LVU650
 1885 032c 1F9B     		ldr	r3, [sp, #124]
ARM GAS  C:\Users\7636~1\AppData\Local\Temp\ccagWtKu.s 			page 50


 1886 032e 9B00     		lsls	r3, r3, #2
 1887 0330 9BB2     		uxth	r3, r3
 1888 0332 1F93     		str	r3, [sp, #124]
 1889              	.LVL214:
  79:Middlewares/Third_Party/ARM_CMSIS/CMSIS/DSP/Source/TransformFunctions/arm_cfft_f64.c ****    {
 1890              		.loc 4 79 29 is_stmt 1 discriminator 2 view .LVU651
  79:Middlewares/Third_Party/ARM_CMSIS/CMSIS/DSP/Source/TransformFunctions/arm_cfft_f64.c ****    {
 1891              		.loc 4 79 31 is_stmt 0 discriminator 2 view .LVU652
 1892 0334 219B     		ldr	r3, [sp, #132]
 1893 0336 9B08     		lsrs	r3, r3, #2
 1894 0338 2193     		str	r3, [sp, #132]
 1895              	.LVL215:
  83:Middlewares/Third_Party/ARM_CMSIS/CMSIS/DSP/Source/TransformFunctions/arm_cfft_f64.c ****       ia1 = 0U;
 1896              		.loc 4 83 10 discriminator 2 view .LVU653
 1897 033a 1A9B     		ldr	r3, [sp, #104]
 1898              	.LVL216:
  83:Middlewares/Third_Party/ARM_CMSIS/CMSIS/DSP/Source/TransformFunctions/arm_cfft_f64.c ****       ia1 = 0U;
 1899              		.loc 4 83 10 discriminator 2 view .LVU654
 1900 033c 1B93     		str	r3, [sp, #108]
 1901              	.LVL217:
 1902              	.L72:
  79:Middlewares/Third_Party/ARM_CMSIS/CMSIS/DSP/Source/TransformFunctions/arm_cfft_f64.c ****    {
 1903              		.loc 4 79 21 is_stmt 1 discriminator 1 view .LVU655
  79:Middlewares/Third_Party/ARM_CMSIS/CMSIS/DSP/Source/TransformFunctions/arm_cfft_f64.c ****    {
 1904              		.loc 4 79 4 is_stmt 0 discriminator 1 view .LVU656
 1905 033e 219B     		ldr	r3, [sp, #132]
 1906 0340 012B     		cmp	r3, #1
 1907 0342 3FF669AE 		bhi	.L75
 183:Middlewares/Third_Party/ARM_CMSIS/CMSIS/DSP/Source/TransformFunctions/arm_cfft_f64.c ****    }
 184:Middlewares/Third_Party/ARM_CMSIS/CMSIS/DSP/Source/TransformFunctions/arm_cfft_f64.c **** }
 1908              		.loc 4 184 1 view .LVU657
 1909 0346 23B0     		add	sp, sp, #140
 1910              	.LCFI9:
 1911              		.cfi_def_cfa_offset 44
 1912              		@ sp needed
 1913 0348 BDEC028B 		vldm	sp!, {d8}
 1914              	.LCFI10:
 1915              		.cfi_restore 80
 1916              		.cfi_restore 81
 1917              		.cfi_def_cfa_offset 36
 1918 034c BDE8F08F 		pop	{r4, r5, r6, r7, r8, r9, r10, fp, pc}
 1919              		.loc 4 184 1 view .LVU658
 1920              		.cfi_endproc
 1921              	.LFE129:
 1923              		.section	.text.arm_cfft_radix4by2_f64,"ax",%progbits
 1924              		.align	1
 1925              		.global	arm_cfft_radix4by2_f64
 1926              		.syntax unified
 1927              		.thumb
 1928              		.thumb_func
 1930              	arm_cfft_radix4by2_f64:
 1931              	.LVL218:
 1932              	.LFB130:
 185:Middlewares/Third_Party/ARM_CMSIS/CMSIS/DSP/Source/TransformFunctions/arm_cfft_f64.c **** 
 186:Middlewares/Third_Party/ARM_CMSIS/CMSIS/DSP/Source/TransformFunctions/arm_cfft_f64.c **** /*
 187:Middlewares/Third_Party/ARM_CMSIS/CMSIS/DSP/Source/TransformFunctions/arm_cfft_f64.c **** * @brief  Core function for the Double Precision floating-point CFFT butterfly process.
 188:Middlewares/Third_Party/ARM_CMSIS/CMSIS/DSP/Source/TransformFunctions/arm_cfft_f64.c **** * @param[in, out] *pSrc            points to the in-place buffer of F64 data type.
ARM GAS  C:\Users\7636~1\AppData\Local\Temp\ccagWtKu.s 			page 51


 189:Middlewares/Third_Party/ARM_CMSIS/CMSIS/DSP/Source/TransformFunctions/arm_cfft_f64.c **** * @param[in]      fftLen           length of the FFT.
 190:Middlewares/Third_Party/ARM_CMSIS/CMSIS/DSP/Source/TransformFunctions/arm_cfft_f64.c **** * @param[in]      *pCoef           points to the twiddle coefficient buffer.
 191:Middlewares/Third_Party/ARM_CMSIS/CMSIS/DSP/Source/TransformFunctions/arm_cfft_f64.c **** * @param[in]      twidCoefModifier twiddle coefficient modifier that supports different size FFTs w
 192:Middlewares/Third_Party/ARM_CMSIS/CMSIS/DSP/Source/TransformFunctions/arm_cfft_f64.c **** * @return none.
 193:Middlewares/Third_Party/ARM_CMSIS/CMSIS/DSP/Source/TransformFunctions/arm_cfft_f64.c **** */
 194:Middlewares/Third_Party/ARM_CMSIS/CMSIS/DSP/Source/TransformFunctions/arm_cfft_f64.c **** 
 195:Middlewares/Third_Party/ARM_CMSIS/CMSIS/DSP/Source/TransformFunctions/arm_cfft_f64.c **** void arm_cfft_radix4by2_f64(
 196:Middlewares/Third_Party/ARM_CMSIS/CMSIS/DSP/Source/TransformFunctions/arm_cfft_f64.c ****     float64_t * pSrc,
 197:Middlewares/Third_Party/ARM_CMSIS/CMSIS/DSP/Source/TransformFunctions/arm_cfft_f64.c ****     uint32_t fftLen,
 198:Middlewares/Third_Party/ARM_CMSIS/CMSIS/DSP/Source/TransformFunctions/arm_cfft_f64.c ****     const float64_t * pCoef)
 199:Middlewares/Third_Party/ARM_CMSIS/CMSIS/DSP/Source/TransformFunctions/arm_cfft_f64.c **** {
 1933              		.loc 4 199 1 is_stmt 1 view -0
 1934              		.cfi_startproc
 1935              		@ args = 0, pretend = 0, frame = 48
 1936              		@ frame_needed = 0, uses_anonymous_args = 0
 1937              		.loc 4 199 1 is_stmt 0 view .LVU660
 1938 0000 2DE9F04F 		push	{r4, r5, r6, r7, r8, r9, r10, fp, lr}
 1939              	.LCFI11:
 1940              		.cfi_def_cfa_offset 36
 1941              		.cfi_offset 4, -36
 1942              		.cfi_offset 5, -32
 1943              		.cfi_offset 6, -28
 1944              		.cfi_offset 7, -24
 1945              		.cfi_offset 8, -20
 1946              		.cfi_offset 9, -16
 1947              		.cfi_offset 10, -12
 1948              		.cfi_offset 11, -8
 1949              		.cfi_offset 14, -4
 1950 0004 2DED088B 		vpush.64	{d8, d9, d10, d11}
 1951              	.LCFI12:
 1952              		.cfi_def_cfa_offset 68
 1953              		.cfi_offset 80, -68
 1954              		.cfi_offset 81, -64
 1955              		.cfi_offset 82, -60
 1956              		.cfi_offset 83, -56
 1957              		.cfi_offset 84, -52
 1958              		.cfi_offset 85, -48
 1959              		.cfi_offset 86, -44
 1960              		.cfi_offset 87, -40
 1961 0008 8DB0     		sub	sp, sp, #52
 1962              	.LCFI13:
 1963              		.cfi_def_cfa_offset 120
 1964 000a 0546     		mov	r5, r0
 1965 000c 0B91     		str	r1, [sp, #44]
 1966 000e 0A92     		str	r2, [sp, #40]
 200:Middlewares/Third_Party/ARM_CMSIS/CMSIS/DSP/Source/TransformFunctions/arm_cfft_f64.c ****     uint32_t i, l;
 1967              		.loc 4 200 5 is_stmt 1 view .LVU661
 201:Middlewares/Third_Party/ARM_CMSIS/CMSIS/DSP/Source/TransformFunctions/arm_cfft_f64.c ****     uint32_t n2, ia;
 1968              		.loc 4 201 5 view .LVU662
 202:Middlewares/Third_Party/ARM_CMSIS/CMSIS/DSP/Source/TransformFunctions/arm_cfft_f64.c ****     float64_t xt, yt, cosVal, sinVal;
 1969              		.loc 4 202 5 view .LVU663
 203:Middlewares/Third_Party/ARM_CMSIS/CMSIS/DSP/Source/TransformFunctions/arm_cfft_f64.c ****     float64_t p0, p1,p2,p3,a0,a1;
 1970              		.loc 4 203 5 view .LVU664
 204:Middlewares/Third_Party/ARM_CMSIS/CMSIS/DSP/Source/TransformFunctions/arm_cfft_f64.c **** 
 205:Middlewares/Third_Party/ARM_CMSIS/CMSIS/DSP/Source/TransformFunctions/arm_cfft_f64.c ****     n2 = fftLen >> 1;
 1971              		.loc 4 205 5 view .LVU665
 1972              		.loc 4 205 8 is_stmt 0 view .LVU666
ARM GAS  C:\Users\7636~1\AppData\Local\Temp\ccagWtKu.s 			page 52


 1973 0010 4B08     		lsrs	r3, r1, #1
 1974 0012 0493     		str	r3, [sp, #16]
 1975              	.LVL219:
 206:Middlewares/Third_Party/ARM_CMSIS/CMSIS/DSP/Source/TransformFunctions/arm_cfft_f64.c ****     ia = 0;
 1976              		.loc 4 206 5 is_stmt 1 view .LVU667
 207:Middlewares/Third_Party/ARM_CMSIS/CMSIS/DSP/Source/TransformFunctions/arm_cfft_f64.c ****     for (i = 0; i < n2; i++)
 1977              		.loc 4 207 5 view .LVU668
 206:Middlewares/Third_Party/ARM_CMSIS/CMSIS/DSP/Source/TransformFunctions/arm_cfft_f64.c ****     ia = 0;
 1978              		.loc 4 206 8 is_stmt 0 view .LVU669
 1979 0014 0027     		movs	r7, #0
 1980              		.loc 4 207 12 view .LVU670
 1981 0016 3E46     		mov	r6, r7
 1982              		.loc 4 207 5 view .LVU671
 1983 0018 77E0     		b	.L78
 1984              	.LVL220:
 1985              	.L79:
 208:Middlewares/Third_Party/ARM_CMSIS/CMSIS/DSP/Source/TransformFunctions/arm_cfft_f64.c ****     {
 209:Middlewares/Third_Party/ARM_CMSIS/CMSIS/DSP/Source/TransformFunctions/arm_cfft_f64.c ****         cosVal = pCoef[2*ia];
 1986              		.loc 4 209 9 is_stmt 1 discriminator 3 view .LVU672
 1987              		.loc 4 209 23 is_stmt 0 discriminator 3 view .LVU673
 1988 001a 3B01     		lsls	r3, r7, #4
 1989 001c 0A99     		ldr	r1, [sp, #40]
 1990 001e 01EB0712 		add	r2, r1, r7, lsl #4
 1991              		.loc 4 209 16 discriminator 3 view .LVU674
 1992 0022 D2E900AB 		ldrd	r10, [r2]
 1993              	.LVL221:
 210:Middlewares/Third_Party/ARM_CMSIS/CMSIS/DSP/Source/TransformFunctions/arm_cfft_f64.c ****         sinVal = pCoef[2*ia + 1];
 1994              		.loc 4 210 9 is_stmt 1 discriminator 3 view .LVU675
 1995              		.loc 4 210 23 is_stmt 0 discriminator 3 view .LVU676
 1996 0026 0833     		adds	r3, r3, #8
 1997 0028 0B44     		add	r3, r3, r1
 1998              		.loc 4 210 16 discriminator 3 view .LVU677
 1999 002a 93ED00BB 		vldr.64	d11, [r3]
 2000              	.LVL222:
 211:Middlewares/Third_Party/ARM_CMSIS/CMSIS/DSP/Source/TransformFunctions/arm_cfft_f64.c ****         ia++;
 2001              		.loc 4 211 9 is_stmt 1 discriminator 3 view .LVU678
 2002              		.loc 4 211 11 is_stmt 0 discriminator 3 view .LVU679
 2003 002e 0137     		adds	r7, r7, #1
 2004              	.LVL223:
 212:Middlewares/Third_Party/ARM_CMSIS/CMSIS/DSP/Source/TransformFunctions/arm_cfft_f64.c **** 
 213:Middlewares/Third_Party/ARM_CMSIS/CMSIS/DSP/Source/TransformFunctions/arm_cfft_f64.c ****         l = i + n2;
 2005              		.loc 4 213 9 is_stmt 1 discriminator 3 view .LVU680
 2006              		.loc 4 213 11 is_stmt 0 discriminator 3 view .LVU681
 2007 0030 049B     		ldr	r3, [sp, #16]
 2008 0032 F318     		adds	r3, r6, r3
 2009              	.LVL224:
 214:Middlewares/Third_Party/ARM_CMSIS/CMSIS/DSP/Source/TransformFunctions/arm_cfft_f64.c **** 
 215:Middlewares/Third_Party/ARM_CMSIS/CMSIS/DSP/Source/TransformFunctions/arm_cfft_f64.c ****         /*  Butterfly implementation */
 216:Middlewares/Third_Party/ARM_CMSIS/CMSIS/DSP/Source/TransformFunctions/arm_cfft_f64.c ****         a0 = pSrc[2 * i] + pSrc[2 * l];
 2010              		.loc 4 216 9 is_stmt 1 discriminator 3 view .LVU682
 2011              		.loc 4 216 18 is_stmt 0 discriminator 3 view .LVU683
 2012 0034 4FEA0618 		lsl	r8, r6, #4
 2013 0038 05EB0619 		add	r9, r5, r6, lsl #4
 2014 003c 99ED008B 		vldr.64	d8, [r9]
 2015              		.loc 4 216 32 discriminator 3 view .LVU684
 2016 0040 1C01     		lsls	r4, r3, #4
 2017 0042 05EB0313 		add	r3, r5, r3, lsl #4
ARM GAS  C:\Users\7636~1\AppData\Local\Temp\ccagWtKu.s 			page 53


 2018              	.LVL225:
 2019              		.loc 4 216 32 discriminator 3 view .LVU685
 2020 0046 0593     		str	r3, [sp, #20]
 2021 0048 93ED009B 		vldr.64	d9, [r3]
 2022              		.loc 4 216 12 discriminator 3 view .LVU686
 2023 004c 53EC192B 		vmov	r2, r3, d9
 2024 0050 51EC180B 		vmov	r0, r1, d8
 2025 0054 FFF7FEFF 		bl	__aeabi_dadd
 2026              	.LVL226:
 2027 0058 41EC1A0B 		vmov	d10, r0, r1
 2028              	.LVL227:
 217:Middlewares/Third_Party/ARM_CMSIS/CMSIS/DSP/Source/TransformFunctions/arm_cfft_f64.c ****         xt = pSrc[2 * i] - pSrc[2 * l];
 2029              		.loc 4 217 9 is_stmt 1 discriminator 3 view .LVU687
 2030              		.loc 4 217 12 is_stmt 0 discriminator 3 view .LVU688
 2031 005c 53EC192B 		vmov	r2, r3, d9
 2032 0060 51EC180B 		vmov	r0, r1, d8
 2033              	.LVL228:
 2034              		.loc 4 217 12 discriminator 3 view .LVU689
 2035 0064 FFF7FEFF 		bl	__aeabi_dsub
 2036              	.LVL229:
 2037 0068 CDE90001 		strd	r0, [sp]
 2038              	.LVL230:
 218:Middlewares/Third_Party/ARM_CMSIS/CMSIS/DSP/Source/TransformFunctions/arm_cfft_f64.c **** 
 219:Middlewares/Third_Party/ARM_CMSIS/CMSIS/DSP/Source/TransformFunctions/arm_cfft_f64.c ****         yt = pSrc[2 * i + 1] - pSrc[2 * l + 1];
 2039              		.loc 4 219 9 is_stmt 1 discriminator 3 view .LVU690
 2040              		.loc 4 219 18 is_stmt 0 discriminator 3 view .LVU691
 2041 006c 08F10808 		add	r8, r8, #8
 2042 0070 A844     		add	r8, r8, r5
 2043 0072 98ED008B 		vldr.64	d8, [r8]
 2044              		.loc 4 219 36 discriminator 3 view .LVU692
 2045 0076 0834     		adds	r4, r4, #8
 2046 0078 2C44     		add	r4, r4, r5
 2047 007a 94ED009B 		vldr.64	d9, [r4]
 2048              		.loc 4 219 12 discriminator 3 view .LVU693
 2049 007e 53EC192B 		vmov	r2, r3, d9
 2050 0082 51EC180B 		vmov	r0, r1, d8
 2051              	.LVL231:
 2052              		.loc 4 219 12 discriminator 3 view .LVU694
 2053 0086 FFF7FEFF 		bl	__aeabi_dsub
 2054              	.LVL232:
 2055 008a CDE90201 		strd	r0, [sp, #8]
 2056              	.LVL233:
 220:Middlewares/Third_Party/ARM_CMSIS/CMSIS/DSP/Source/TransformFunctions/arm_cfft_f64.c ****         a1 = pSrc[2 * l + 1] + pSrc[2 * i + 1];
 2057              		.loc 4 220 9 is_stmt 1 discriminator 3 view .LVU695
 2058              		.loc 4 220 12 is_stmt 0 discriminator 3 view .LVU696
 2059 008e 53EC192B 		vmov	r2, r3, d9
 2060 0092 51EC180B 		vmov	r0, r1, d8
 2061              	.LVL234:
 2062              		.loc 4 220 12 discriminator 3 view .LVU697
 2063 0096 FFF7FEFF 		bl	__aeabi_dadd
 2064              	.LVL235:
 2065 009a 41EC180B 		vmov	d8, r0, r1
 2066              	.LVL236:
 221:Middlewares/Third_Party/ARM_CMSIS/CMSIS/DSP/Source/TransformFunctions/arm_cfft_f64.c **** 
 222:Middlewares/Third_Party/ARM_CMSIS/CMSIS/DSP/Source/TransformFunctions/arm_cfft_f64.c ****         p0 = xt * cosVal;
 2067              		.loc 4 222 9 is_stmt 1 discriminator 3 view .LVU698
 2068              		.loc 4 222 12 is_stmt 0 discriminator 3 view .LVU699
ARM GAS  C:\Users\7636~1\AppData\Local\Temp\ccagWtKu.s 			page 54


 2069 009e DDE90023 		ldrd	r2, [sp]
 2070 00a2 5046     		mov	r0, r10
 2071              	.LVL237:
 2072              		.loc 4 222 12 discriminator 3 view .LVU700
 2073 00a4 5946     		mov	r1, fp
 2074 00a6 FFF7FEFF 		bl	__aeabi_dmul
 2075              	.LVL238:
 2076 00aa CDE90601 		strd	r0, [sp, #24]
 2077              	.LVL239:
 223:Middlewares/Third_Party/ARM_CMSIS/CMSIS/DSP/Source/TransformFunctions/arm_cfft_f64.c ****         p1 = yt * sinVal;
 2078              		.loc 4 223 9 is_stmt 1 discriminator 3 view .LVU701
 2079              		.loc 4 223 12 is_stmt 0 discriminator 3 view .LVU702
 2080 00ae DDE90223 		ldrd	r2, [sp, #8]
 2081 00b2 51EC1B0B 		vmov	r0, r1, d11
 2082              	.LVL240:
 2083              		.loc 4 223 12 discriminator 3 view .LVU703
 2084 00b6 FFF7FEFF 		bl	__aeabi_dmul
 2085              	.LVL241:
 2086 00ba CDE90801 		strd	r0, [sp, #32]
 2087              	.LVL242:
 224:Middlewares/Third_Party/ARM_CMSIS/CMSIS/DSP/Source/TransformFunctions/arm_cfft_f64.c ****         p2 = yt * cosVal;
 2088              		.loc 4 224 9 is_stmt 1 discriminator 3 view .LVU704
 2089              		.loc 4 224 12 is_stmt 0 discriminator 3 view .LVU705
 2090 00be DDE90223 		ldrd	r2, [sp, #8]
 2091 00c2 5046     		mov	r0, r10
 2092              	.LVL243:
 2093              		.loc 4 224 12 discriminator 3 view .LVU706
 2094 00c4 5946     		mov	r1, fp
 2095 00c6 FFF7FEFF 		bl	__aeabi_dmul
 2096              	.LVL244:
 2097 00ca CDE90201 		strd	r0, [sp, #8]
 2098              	.LVL245:
 225:Middlewares/Third_Party/ARM_CMSIS/CMSIS/DSP/Source/TransformFunctions/arm_cfft_f64.c ****         p3 = xt * sinVal;
 2099              		.loc 4 225 9 is_stmt 1 discriminator 3 view .LVU707
 2100              		.loc 4 225 12 is_stmt 0 discriminator 3 view .LVU708
 2101 00ce DDE90023 		ldrd	r2, [sp]
 2102 00d2 51EC1B0B 		vmov	r0, r1, d11
 2103              	.LVL246:
 2104              		.loc 4 225 12 discriminator 3 view .LVU709
 2105 00d6 FFF7FEFF 		bl	__aeabi_dmul
 2106              	.LVL247:
 2107 00da 8246     		mov	r10, r0
 2108              	.LVL248:
 2109              		.loc 4 225 12 discriminator 3 view .LVU710
 2110 00dc 8B46     		mov	fp, r1
 2111              	.LVL249:
 226:Middlewares/Third_Party/ARM_CMSIS/CMSIS/DSP/Source/TransformFunctions/arm_cfft_f64.c **** 
 227:Middlewares/Third_Party/ARM_CMSIS/CMSIS/DSP/Source/TransformFunctions/arm_cfft_f64.c ****         pSrc[2 * i]     = a0;
 2112              		.loc 4 227 9 is_stmt 1 discriminator 3 view .LVU711
 2113              		.loc 4 227 25 is_stmt 0 discriminator 3 view .LVU712
 2114 00de 89ED00AB 		vstr.64	d10, [r9]
 228:Middlewares/Third_Party/ARM_CMSIS/CMSIS/DSP/Source/TransformFunctions/arm_cfft_f64.c ****         pSrc[2 * i + 1] = a1;
 2115              		.loc 4 228 9 is_stmt 1 discriminator 3 view .LVU713
 2116              		.loc 4 228 25 is_stmt 0 discriminator 3 view .LVU714
 2117 00e2 88ED008B 		vstr.64	d8, [r8]
 229:Middlewares/Third_Party/ARM_CMSIS/CMSIS/DSP/Source/TransformFunctions/arm_cfft_f64.c **** 
 230:Middlewares/Third_Party/ARM_CMSIS/CMSIS/DSP/Source/TransformFunctions/arm_cfft_f64.c ****         pSrc[2 * l]     = p0 + p1;
ARM GAS  C:\Users\7636~1\AppData\Local\Temp\ccagWtKu.s 			page 55


 2118              		.loc 4 230 9 is_stmt 1 discriminator 3 view .LVU715
 2119              		.loc 4 230 30 is_stmt 0 discriminator 3 view .LVU716
 2120 00e6 DDE90823 		ldrd	r2, [sp, #32]
 2121 00ea DDE90601 		ldrd	r0, [sp, #24]
 2122 00ee FFF7FEFF 		bl	__aeabi_dadd
 2123              	.LVL250:
 2124              		.loc 4 230 25 discriminator 3 view .LVU717
 2125 00f2 059B     		ldr	r3, [sp, #20]
 2126 00f4 C3E90001 		strd	r0, [r3]
 231:Middlewares/Third_Party/ARM_CMSIS/CMSIS/DSP/Source/TransformFunctions/arm_cfft_f64.c ****         pSrc[2 * l + 1] = p2 - p3;
 2127              		.loc 4 231 9 is_stmt 1 discriminator 3 view .LVU718
 2128              		.loc 4 231 30 is_stmt 0 discriminator 3 view .LVU719
 2129 00f8 5246     		mov	r2, r10
 2130 00fa 5B46     		mov	r3, fp
 2131 00fc DDE90201 		ldrd	r0, [sp, #8]
 2132 0100 FFF7FEFF 		bl	__aeabi_dsub
 2133              	.LVL251:
 2134              		.loc 4 231 25 discriminator 3 view .LVU720
 2135 0104 C4E90001 		strd	r0, [r4]
 207:Middlewares/Third_Party/ARM_CMSIS/CMSIS/DSP/Source/TransformFunctions/arm_cfft_f64.c ****     {
 2136              		.loc 4 207 25 is_stmt 1 discriminator 3 view .LVU721
 207:Middlewares/Third_Party/ARM_CMSIS/CMSIS/DSP/Source/TransformFunctions/arm_cfft_f64.c ****     {
 2137              		.loc 4 207 26 is_stmt 0 discriminator 3 view .LVU722
 2138 0108 0136     		adds	r6, r6, #1
 2139              	.LVL252:
 2140              	.L78:
 207:Middlewares/Third_Party/ARM_CMSIS/CMSIS/DSP/Source/TransformFunctions/arm_cfft_f64.c ****     {
 2141              		.loc 4 207 17 is_stmt 1 discriminator 1 view .LVU723
 207:Middlewares/Third_Party/ARM_CMSIS/CMSIS/DSP/Source/TransformFunctions/arm_cfft_f64.c ****     {
 2142              		.loc 4 207 5 is_stmt 0 discriminator 1 view .LVU724
 2143 010a 049B     		ldr	r3, [sp, #16]
 2144 010c 9E42     		cmp	r6, r3
 2145 010e 84D3     		bcc	.L79
 232:Middlewares/Third_Party/ARM_CMSIS/CMSIS/DSP/Source/TransformFunctions/arm_cfft_f64.c **** 
 233:Middlewares/Third_Party/ARM_CMSIS/CMSIS/DSP/Source/TransformFunctions/arm_cfft_f64.c ****     }
 234:Middlewares/Third_Party/ARM_CMSIS/CMSIS/DSP/Source/TransformFunctions/arm_cfft_f64.c **** 
 235:Middlewares/Third_Party/ARM_CMSIS/CMSIS/DSP/Source/TransformFunctions/arm_cfft_f64.c ****     // first col
 236:Middlewares/Third_Party/ARM_CMSIS/CMSIS/DSP/Source/TransformFunctions/arm_cfft_f64.c ****     arm_radix4_butterfly_f64( pSrc, n2, (float64_t*)pCoef, 2U);
 2146              		.loc 4 236 5 is_stmt 1 view .LVU725
 2147 0110 BDF81040 		ldrh	r4, [sp, #16]
 2148 0114 0223     		movs	r3, #2
 2149 0116 0A9E     		ldr	r6, [sp, #40]
 2150              	.LVL253:
 2151              		.loc 4 236 5 is_stmt 0 view .LVU726
 2152 0118 3246     		mov	r2, r6
 2153 011a 2146     		mov	r1, r4
 2154 011c 2846     		mov	r0, r5
 2155 011e FFF7FEFF 		bl	arm_radix4_butterfly_f64
 2156              	.LVL254:
 237:Middlewares/Third_Party/ARM_CMSIS/CMSIS/DSP/Source/TransformFunctions/arm_cfft_f64.c ****     // second col
 238:Middlewares/Third_Party/ARM_CMSIS/CMSIS/DSP/Source/TransformFunctions/arm_cfft_f64.c ****     arm_radix4_butterfly_f64( pSrc + fftLen, n2, (float64_t*)pCoef, 2U);
 2157              		.loc 4 238 5 is_stmt 1 view .LVU727
 2158 0122 0223     		movs	r3, #2
 2159 0124 3246     		mov	r2, r6
 2160 0126 2146     		mov	r1, r4
 2161 0128 0B98     		ldr	r0, [sp, #44]
 2162 012a 05EBC000 		add	r0, r5, r0, lsl #3
ARM GAS  C:\Users\7636~1\AppData\Local\Temp\ccagWtKu.s 			page 56


 2163 012e FFF7FEFF 		bl	arm_radix4_butterfly_f64
 2164              	.LVL255:
 239:Middlewares/Third_Party/ARM_CMSIS/CMSIS/DSP/Source/TransformFunctions/arm_cfft_f64.c **** 
 240:Middlewares/Third_Party/ARM_CMSIS/CMSIS/DSP/Source/TransformFunctions/arm_cfft_f64.c **** }
 2165              		.loc 4 240 1 is_stmt 0 view .LVU728
 2166 0132 0DB0     		add	sp, sp, #52
 2167              	.LCFI14:
 2168              		.cfi_def_cfa_offset 68
 2169              		@ sp needed
 2170 0134 BDEC088B 		vldm	sp!, {d8-d11}
 2171              	.LCFI15:
 2172              		.cfi_restore 86
 2173              		.cfi_restore 87
 2174              		.cfi_restore 84
 2175              		.cfi_restore 85
 2176              		.cfi_restore 82
 2177              		.cfi_restore 83
 2178              		.cfi_restore 80
 2179              		.cfi_restore 81
 2180              		.cfi_def_cfa_offset 36
 2181 0138 BDE8F08F 		pop	{r4, r5, r6, r7, r8, r9, r10, fp, pc}
 2182              		.loc 4 240 1 view .LVU729
 2183              		.cfi_endproc
 2184              	.LFE130:
 2186              		.global	__aeabi_ui2d
 2187              		.global	__aeabi_ddiv
 2188              		.section	.text.arm_cfft_f64,"ax",%progbits
 2189              		.align	1
 2190              		.global	arm_cfft_f64
 2191              		.syntax unified
 2192              		.thumb
 2193              		.thumb_func
 2195              	arm_cfft_f64:
 2196              	.LVL256:
 2197              	.LFB131:
 241:Middlewares/Third_Party/ARM_CMSIS/CMSIS/DSP/Source/TransformFunctions/arm_cfft_f64.c **** 
 242:Middlewares/Third_Party/ARM_CMSIS/CMSIS/DSP/Source/TransformFunctions/arm_cfft_f64.c **** /**
 243:Middlewares/Third_Party/ARM_CMSIS/CMSIS/DSP/Source/TransformFunctions/arm_cfft_f64.c ****   @addtogroup ComplexFFT
 244:Middlewares/Third_Party/ARM_CMSIS/CMSIS/DSP/Source/TransformFunctions/arm_cfft_f64.c ****   @{
 245:Middlewares/Third_Party/ARM_CMSIS/CMSIS/DSP/Source/TransformFunctions/arm_cfft_f64.c ****  */
 246:Middlewares/Third_Party/ARM_CMSIS/CMSIS/DSP/Source/TransformFunctions/arm_cfft_f64.c **** 
 247:Middlewares/Third_Party/ARM_CMSIS/CMSIS/DSP/Source/TransformFunctions/arm_cfft_f64.c **** /**
 248:Middlewares/Third_Party/ARM_CMSIS/CMSIS/DSP/Source/TransformFunctions/arm_cfft_f64.c ****   @brief         Processing function for the Double Precision floating-point complex FFT.
 249:Middlewares/Third_Party/ARM_CMSIS/CMSIS/DSP/Source/TransformFunctions/arm_cfft_f64.c ****   @param[in]     S              points to an instance of the Double Precision floating-point CFFT s
 250:Middlewares/Third_Party/ARM_CMSIS/CMSIS/DSP/Source/TransformFunctions/arm_cfft_f64.c ****   @param[in,out] p1             points to the complex data buffer of size <code>2*fftLen</code>. Pr
 251:Middlewares/Third_Party/ARM_CMSIS/CMSIS/DSP/Source/TransformFunctions/arm_cfft_f64.c ****   @param[in]     ifftFlag       flag that selects transform direction
 252:Middlewares/Third_Party/ARM_CMSIS/CMSIS/DSP/Source/TransformFunctions/arm_cfft_f64.c ****                    - value = 0: forward transform
 253:Middlewares/Third_Party/ARM_CMSIS/CMSIS/DSP/Source/TransformFunctions/arm_cfft_f64.c ****                    - value = 1: inverse transform
 254:Middlewares/Third_Party/ARM_CMSIS/CMSIS/DSP/Source/TransformFunctions/arm_cfft_f64.c ****   @param[in]     bitReverseFlag flag that enables / disables bit reversal of output
 255:Middlewares/Third_Party/ARM_CMSIS/CMSIS/DSP/Source/TransformFunctions/arm_cfft_f64.c ****                    - value = 0: disables bit reversal of output
 256:Middlewares/Third_Party/ARM_CMSIS/CMSIS/DSP/Source/TransformFunctions/arm_cfft_f64.c ****                    - value = 1: enables bit reversal of output
 257:Middlewares/Third_Party/ARM_CMSIS/CMSIS/DSP/Source/TransformFunctions/arm_cfft_f64.c ****   @return        none
 258:Middlewares/Third_Party/ARM_CMSIS/CMSIS/DSP/Source/TransformFunctions/arm_cfft_f64.c ****  */
 259:Middlewares/Third_Party/ARM_CMSIS/CMSIS/DSP/Source/TransformFunctions/arm_cfft_f64.c **** 
 260:Middlewares/Third_Party/ARM_CMSIS/CMSIS/DSP/Source/TransformFunctions/arm_cfft_f64.c **** void arm_cfft_f64(
 261:Middlewares/Third_Party/ARM_CMSIS/CMSIS/DSP/Source/TransformFunctions/arm_cfft_f64.c ****   const arm_cfft_instance_f64 * S,
 262:Middlewares/Third_Party/ARM_CMSIS/CMSIS/DSP/Source/TransformFunctions/arm_cfft_f64.c ****         float64_t * p1,
ARM GAS  C:\Users\7636~1\AppData\Local\Temp\ccagWtKu.s 			page 57


 263:Middlewares/Third_Party/ARM_CMSIS/CMSIS/DSP/Source/TransformFunctions/arm_cfft_f64.c ****         uint8_t ifftFlag,
 264:Middlewares/Third_Party/ARM_CMSIS/CMSIS/DSP/Source/TransformFunctions/arm_cfft_f64.c ****         uint8_t bitReverseFlag)
 265:Middlewares/Third_Party/ARM_CMSIS/CMSIS/DSP/Source/TransformFunctions/arm_cfft_f64.c **** {
 2198              		.loc 4 265 1 is_stmt 1 view -0
 2199              		.cfi_startproc
 2200              		@ args = 0, pretend = 0, frame = 8
 2201              		@ frame_needed = 0, uses_anonymous_args = 0
 2202              		.loc 4 265 1 is_stmt 0 view .LVU731
 2203 0000 2DE9F04F 		push	{r4, r5, r6, r7, r8, r9, r10, fp, lr}
 2204              	.LCFI16:
 2205              		.cfi_def_cfa_offset 36
 2206              		.cfi_offset 4, -36
 2207              		.cfi_offset 5, -32
 2208              		.cfi_offset 6, -28
 2209              		.cfi_offset 7, -24
 2210              		.cfi_offset 8, -20
 2211              		.cfi_offset 9, -16
 2212              		.cfi_offset 10, -12
 2213              		.cfi_offset 11, -8
 2214              		.cfi_offset 14, -4
 2215 0004 83B0     		sub	sp, sp, #12
 2216              	.LCFI17:
 2217              		.cfi_def_cfa_offset 48
 2218 0006 8246     		mov	r10, r0
 2219 0008 0C46     		mov	r4, r1
 2220 000a 9346     		mov	fp, r2
 2221 000c 0193     		str	r3, [sp, #4]
 266:Middlewares/Third_Party/ARM_CMSIS/CMSIS/DSP/Source/TransformFunctions/arm_cfft_f64.c ****     uint32_t  L = S->fftLen, l;
 2222              		.loc 4 266 5 is_stmt 1 view .LVU732
 2223              		.loc 4 266 20 is_stmt 0 view .LVU733
 2224 000e 0588     		ldrh	r5, [r0]
 2225              	.LVL257:
 267:Middlewares/Third_Party/ARM_CMSIS/CMSIS/DSP/Source/TransformFunctions/arm_cfft_f64.c ****     float64_t invL, * pSrc;
 2226              		.loc 4 267 5 is_stmt 1 view .LVU734
 268:Middlewares/Third_Party/ARM_CMSIS/CMSIS/DSP/Source/TransformFunctions/arm_cfft_f64.c **** 
 269:Middlewares/Third_Party/ARM_CMSIS/CMSIS/DSP/Source/TransformFunctions/arm_cfft_f64.c ****     if (ifftFlag == 1U)
 2227              		.loc 4 269 5 view .LVU735
 2228              		.loc 4 269 8 is_stmt 0 view .LVU736
 2229 0010 012A     		cmp	r2, #1
 2230 0012 12D0     		beq	.L96
 2231              	.LVL258:
 2232              	.L82:
 270:Middlewares/Third_Party/ARM_CMSIS/CMSIS/DSP/Source/TransformFunctions/arm_cfft_f64.c ****     {
 271:Middlewares/Third_Party/ARM_CMSIS/CMSIS/DSP/Source/TransformFunctions/arm_cfft_f64.c ****         /*  Conjugate input data  */
 272:Middlewares/Third_Party/ARM_CMSIS/CMSIS/DSP/Source/TransformFunctions/arm_cfft_f64.c ****         pSrc = p1 + 1;
 273:Middlewares/Third_Party/ARM_CMSIS/CMSIS/DSP/Source/TransformFunctions/arm_cfft_f64.c ****         for(l=0; l<L; l++)
 274:Middlewares/Third_Party/ARM_CMSIS/CMSIS/DSP/Source/TransformFunctions/arm_cfft_f64.c ****         {
 275:Middlewares/Third_Party/ARM_CMSIS/CMSIS/DSP/Source/TransformFunctions/arm_cfft_f64.c ****             *pSrc = -*pSrc;
 276:Middlewares/Third_Party/ARM_CMSIS/CMSIS/DSP/Source/TransformFunctions/arm_cfft_f64.c ****             pSrc += 2;
 277:Middlewares/Third_Party/ARM_CMSIS/CMSIS/DSP/Source/TransformFunctions/arm_cfft_f64.c ****         }
 278:Middlewares/Third_Party/ARM_CMSIS/CMSIS/DSP/Source/TransformFunctions/arm_cfft_f64.c ****     }
 279:Middlewares/Third_Party/ARM_CMSIS/CMSIS/DSP/Source/TransformFunctions/arm_cfft_f64.c **** 
 280:Middlewares/Third_Party/ARM_CMSIS/CMSIS/DSP/Source/TransformFunctions/arm_cfft_f64.c ****     switch (L)
 2233              		.loc 4 280 5 is_stmt 1 view .LVU737
 2234 0014 B5F5807F 		cmp	r5, #256
 2235 0018 34D0     		beq	.L85
 2236 001a 1CD9     		bls	.L97
ARM GAS  C:\Users\7636~1\AppData\Local\Temp\ccagWtKu.s 			page 58


 2237 001c B5F5006F 		cmp	r5, #2048
 2238 0020 23D0     		beq	.L88
 2239 0022 29D9     		bls	.L98
 2240 0024 B5F5805F 		cmp	r5, #4096
 2241 0028 2CD0     		beq	.L85
 2242              	.LVL259:
 2243              	.L89:
 281:Middlewares/Third_Party/ARM_CMSIS/CMSIS/DSP/Source/TransformFunctions/arm_cfft_f64.c ****     {
 282:Middlewares/Third_Party/ARM_CMSIS/CMSIS/DSP/Source/TransformFunctions/arm_cfft_f64.c ****         case 16:
 283:Middlewares/Third_Party/ARM_CMSIS/CMSIS/DSP/Source/TransformFunctions/arm_cfft_f64.c ****         case 64:
 284:Middlewares/Third_Party/ARM_CMSIS/CMSIS/DSP/Source/TransformFunctions/arm_cfft_f64.c ****         case 256:
 285:Middlewares/Third_Party/ARM_CMSIS/CMSIS/DSP/Source/TransformFunctions/arm_cfft_f64.c ****         case 1024:
 286:Middlewares/Third_Party/ARM_CMSIS/CMSIS/DSP/Source/TransformFunctions/arm_cfft_f64.c ****         case 4096:
 287:Middlewares/Third_Party/ARM_CMSIS/CMSIS/DSP/Source/TransformFunctions/arm_cfft_f64.c ****         arm_radix4_butterfly_f64  (p1, L, (float64_t*)S->pTwiddle, 1U);
 288:Middlewares/Third_Party/ARM_CMSIS/CMSIS/DSP/Source/TransformFunctions/arm_cfft_f64.c ****         break;
 289:Middlewares/Third_Party/ARM_CMSIS/CMSIS/DSP/Source/TransformFunctions/arm_cfft_f64.c **** 
 290:Middlewares/Third_Party/ARM_CMSIS/CMSIS/DSP/Source/TransformFunctions/arm_cfft_f64.c ****         case 32:
 291:Middlewares/Third_Party/ARM_CMSIS/CMSIS/DSP/Source/TransformFunctions/arm_cfft_f64.c ****         case 128:
 292:Middlewares/Third_Party/ARM_CMSIS/CMSIS/DSP/Source/TransformFunctions/arm_cfft_f64.c ****         case 512:
 293:Middlewares/Third_Party/ARM_CMSIS/CMSIS/DSP/Source/TransformFunctions/arm_cfft_f64.c ****         case 2048:
 294:Middlewares/Third_Party/ARM_CMSIS/CMSIS/DSP/Source/TransformFunctions/arm_cfft_f64.c ****         arm_cfft_radix4by2_f64  ( p1, L, (float64_t*)S->pTwiddle);
 295:Middlewares/Third_Party/ARM_CMSIS/CMSIS/DSP/Source/TransformFunctions/arm_cfft_f64.c ****         break;
 296:Middlewares/Third_Party/ARM_CMSIS/CMSIS/DSP/Source/TransformFunctions/arm_cfft_f64.c **** 
 297:Middlewares/Third_Party/ARM_CMSIS/CMSIS/DSP/Source/TransformFunctions/arm_cfft_f64.c ****     }
 298:Middlewares/Third_Party/ARM_CMSIS/CMSIS/DSP/Source/TransformFunctions/arm_cfft_f64.c **** 
 299:Middlewares/Third_Party/ARM_CMSIS/CMSIS/DSP/Source/TransformFunctions/arm_cfft_f64.c ****     if ( bitReverseFlag )
 2244              		.loc 4 299 5 view .LVU738
 2245              		.loc 4 299 8 is_stmt 0 view .LVU739
 2246 002a 019B     		ldr	r3, [sp, #4]
 2247 002c 93BB     		cbnz	r3, .L99
 2248              	.L91:
 300:Middlewares/Third_Party/ARM_CMSIS/CMSIS/DSP/Source/TransformFunctions/arm_cfft_f64.c ****         arm_bitreversal_64((uint64_t*)p1, S->bitRevLength,S->pBitRevTable);
 301:Middlewares/Third_Party/ARM_CMSIS/CMSIS/DSP/Source/TransformFunctions/arm_cfft_f64.c **** 
 302:Middlewares/Third_Party/ARM_CMSIS/CMSIS/DSP/Source/TransformFunctions/arm_cfft_f64.c ****     if (ifftFlag == 1U)
 2249              		.loc 4 302 5 is_stmt 1 view .LVU740
 2250              		.loc 4 302 8 is_stmt 0 view .LVU741
 2251 002e BBF1010F 		cmp	fp, #1
 2252 0032 37D0     		beq	.L100
 2253              	.LVL260:
 2254              	.L81:
 303:Middlewares/Third_Party/ARM_CMSIS/CMSIS/DSP/Source/TransformFunctions/arm_cfft_f64.c ****     {
 304:Middlewares/Third_Party/ARM_CMSIS/CMSIS/DSP/Source/TransformFunctions/arm_cfft_f64.c ****         invL = 1.0 / (float64_t)L;
 305:Middlewares/Third_Party/ARM_CMSIS/CMSIS/DSP/Source/TransformFunctions/arm_cfft_f64.c ****         /*  Conjugate and scale output data */
 306:Middlewares/Third_Party/ARM_CMSIS/CMSIS/DSP/Source/TransformFunctions/arm_cfft_f64.c ****         pSrc = p1;
 307:Middlewares/Third_Party/ARM_CMSIS/CMSIS/DSP/Source/TransformFunctions/arm_cfft_f64.c ****         for(l=0; l<L; l++)
 308:Middlewares/Third_Party/ARM_CMSIS/CMSIS/DSP/Source/TransformFunctions/arm_cfft_f64.c ****         {
 309:Middlewares/Third_Party/ARM_CMSIS/CMSIS/DSP/Source/TransformFunctions/arm_cfft_f64.c ****             *pSrc++ *=   invL ;
 310:Middlewares/Third_Party/ARM_CMSIS/CMSIS/DSP/Source/TransformFunctions/arm_cfft_f64.c ****             *pSrc  = -(*pSrc) * invL;
 311:Middlewares/Third_Party/ARM_CMSIS/CMSIS/DSP/Source/TransformFunctions/arm_cfft_f64.c ****             pSrc++;
 312:Middlewares/Third_Party/ARM_CMSIS/CMSIS/DSP/Source/TransformFunctions/arm_cfft_f64.c ****         }
 313:Middlewares/Third_Party/ARM_CMSIS/CMSIS/DSP/Source/TransformFunctions/arm_cfft_f64.c ****     }
 314:Middlewares/Third_Party/ARM_CMSIS/CMSIS/DSP/Source/TransformFunctions/arm_cfft_f64.c **** }
 2255              		.loc 4 314 1 view .LVU742
 2256 0034 03B0     		add	sp, sp, #12
 2257              	.LCFI18:
 2258              		.cfi_remember_state
 2259              		.cfi_def_cfa_offset 36
ARM GAS  C:\Users\7636~1\AppData\Local\Temp\ccagWtKu.s 			page 59


 2260              		@ sp needed
 2261 0036 BDE8F08F 		pop	{r4, r5, r6, r7, r8, r9, r10, fp, pc}
 2262              	.LVL261:
 2263              	.L96:
 2264              	.LCFI19:
 2265              		.cfi_restore_state
 272:Middlewares/Third_Party/ARM_CMSIS/CMSIS/DSP/Source/TransformFunctions/arm_cfft_f64.c ****         for(l=0; l<L; l++)
 2266              		.loc 4 272 9 is_stmt 1 view .LVU743
 272:Middlewares/Third_Party/ARM_CMSIS/CMSIS/DSP/Source/TransformFunctions/arm_cfft_f64.c ****         for(l=0; l<L; l++)
 2267              		.loc 4 272 14 is_stmt 0 view .LVU744
 2268 003a 01F10800 		add	r0, r1, #8
 2269              	.LVL262:
 273:Middlewares/Third_Party/ARM_CMSIS/CMSIS/DSP/Source/TransformFunctions/arm_cfft_f64.c ****         {
 2270              		.loc 4 273 9 is_stmt 1 view .LVU745
 273:Middlewares/Third_Party/ARM_CMSIS/CMSIS/DSP/Source/TransformFunctions/arm_cfft_f64.c ****         {
 2271              		.loc 4 273 14 is_stmt 0 view .LVU746
 2272 003e 0021     		movs	r1, #0
 2273              	.LVL263:
 2274              	.L83:
 273:Middlewares/Third_Party/ARM_CMSIS/CMSIS/DSP/Source/TransformFunctions/arm_cfft_f64.c ****         {
 2275              		.loc 4 273 18 is_stmt 1 discriminator 1 view .LVU747
 273:Middlewares/Third_Party/ARM_CMSIS/CMSIS/DSP/Source/TransformFunctions/arm_cfft_f64.c ****         {
 2276              		.loc 4 273 9 is_stmt 0 discriminator 1 view .LVU748
 2277 0040 A942     		cmp	r1, r5
 2278 0042 E7D2     		bcs	.L82
 275:Middlewares/Third_Party/ARM_CMSIS/CMSIS/DSP/Source/TransformFunctions/arm_cfft_f64.c ****             pSrc += 2;
 2279              		.loc 4 275 13 is_stmt 1 discriminator 3 view .LVU749
 275:Middlewares/Third_Party/ARM_CMSIS/CMSIS/DSP/Source/TransformFunctions/arm_cfft_f64.c ****             pSrc += 2;
 2280              		.loc 4 275 22 is_stmt 0 discriminator 3 view .LVU750
 2281 0044 D0E90023 		ldrd	r2, [r0]
 275:Middlewares/Third_Party/ARM_CMSIS/CMSIS/DSP/Source/TransformFunctions/arm_cfft_f64.c ****             pSrc += 2;
 2282              		.loc 4 275 21 discriminator 3 view .LVU751
 2283 0048 9046     		mov	r8, r2
 2284 004a 03F10049 		add	r9, r3, #-2147483648
 275:Middlewares/Third_Party/ARM_CMSIS/CMSIS/DSP/Source/TransformFunctions/arm_cfft_f64.c ****             pSrc += 2;
 2285              		.loc 4 275 19 discriminator 3 view .LVU752
 2286 004e E0E80489 		strd	r8, [r0], #16
 2287              	.LVL264:
 276:Middlewares/Third_Party/ARM_CMSIS/CMSIS/DSP/Source/TransformFunctions/arm_cfft_f64.c ****         }
 2288              		.loc 4 276 13 is_stmt 1 discriminator 3 view .LVU753
 273:Middlewares/Third_Party/ARM_CMSIS/CMSIS/DSP/Source/TransformFunctions/arm_cfft_f64.c ****         {
 2289              		.loc 4 273 23 discriminator 3 view .LVU754
 273:Middlewares/Third_Party/ARM_CMSIS/CMSIS/DSP/Source/TransformFunctions/arm_cfft_f64.c ****         {
 2290              		.loc 4 273 24 is_stmt 0 discriminator 3 view .LVU755
 2291 0052 0131     		adds	r1, r1, #1
 2292              	.LVL265:
 273:Middlewares/Third_Party/ARM_CMSIS/CMSIS/DSP/Source/TransformFunctions/arm_cfft_f64.c ****         {
 2293              		.loc 4 273 24 discriminator 3 view .LVU756
 2294 0054 F4E7     		b	.L83
 2295              	.LVL266:
 2296              	.L97:
 280:Middlewares/Third_Party/ARM_CMSIS/CMSIS/DSP/Source/TransformFunctions/arm_cfft_f64.c ****     {
 2297              		.loc 4 280 5 view .LVU757
 2298 0056 402D     		cmp	r5, #64
 2299 0058 14D0     		beq	.L85
 2300 005a 02D9     		bls	.L101
 2301 005c 802D     		cmp	r5, #128
ARM GAS  C:\Users\7636~1\AppData\Local\Temp\ccagWtKu.s 			page 60


 2302 005e 04D0     		beq	.L88
 2303 0060 E3E7     		b	.L89
 2304              	.L101:
 2305 0062 102D     		cmp	r5, #16
 2306 0064 0ED0     		beq	.L85
 2307 0066 202D     		cmp	r5, #32
 2308 0068 DFD1     		bne	.L89
 2309              	.L88:
 294:Middlewares/Third_Party/ARM_CMSIS/CMSIS/DSP/Source/TransformFunctions/arm_cfft_f64.c ****         break;
 2310              		.loc 4 294 9 is_stmt 1 view .LVU758
 2311 006a DAF80420 		ldr	r2, [r10, #4]
 2312 006e 2946     		mov	r1, r5
 2313 0070 2046     		mov	r0, r4
 2314 0072 FFF7FEFF 		bl	arm_cfft_radix4by2_f64
 2315              	.LVL267:
 295:Middlewares/Third_Party/ARM_CMSIS/CMSIS/DSP/Source/TransformFunctions/arm_cfft_f64.c **** 
 2316              		.loc 4 295 9 view .LVU759
 2317 0076 D8E7     		b	.L89
 2318              	.LVL268:
 2319              	.L98:
 280:Middlewares/Third_Party/ARM_CMSIS/CMSIS/DSP/Source/TransformFunctions/arm_cfft_f64.c ****     {
 2320              		.loc 4 280 5 is_stmt 0 view .LVU760
 2321 0078 B5F5007F 		cmp	r5, #512
 2322 007c F5D0     		beq	.L88
 2323 007e B5F5806F 		cmp	r5, #1024
 2324 0082 D2D1     		bne	.L89
 2325              	.L85:
 287:Middlewares/Third_Party/ARM_CMSIS/CMSIS/DSP/Source/TransformFunctions/arm_cfft_f64.c ****         break;
 2326              		.loc 4 287 9 is_stmt 1 view .LVU761
 2327 0084 0123     		movs	r3, #1
 2328              	.LVL269:
 287:Middlewares/Third_Party/ARM_CMSIS/CMSIS/DSP/Source/TransformFunctions/arm_cfft_f64.c ****         break;
 2329              		.loc 4 287 9 is_stmt 0 view .LVU762
 2330 0086 DAF80420 		ldr	r2, [r10, #4]
 2331 008a 2946     		mov	r1, r5
 2332 008c 2046     		mov	r0, r4
 2333 008e FFF7FEFF 		bl	arm_radix4_butterfly_f64
 2334              	.LVL270:
 288:Middlewares/Third_Party/ARM_CMSIS/CMSIS/DSP/Source/TransformFunctions/arm_cfft_f64.c **** 
 2335              		.loc 4 288 9 is_stmt 1 view .LVU763
 2336 0092 CAE7     		b	.L89
 2337              	.L99:
 300:Middlewares/Third_Party/ARM_CMSIS/CMSIS/DSP/Source/TransformFunctions/arm_cfft_f64.c **** 
 2338              		.loc 4 300 9 view .LVU764
 2339 0094 DAF80820 		ldr	r2, [r10, #8]
 2340 0098 BAF80C10 		ldrh	r1, [r10, #12]
 2341 009c 2046     		mov	r0, r4
 2342 009e FFF7FEFF 		bl	arm_bitreversal_64
 2343              	.LVL271:
 2344 00a2 C4E7     		b	.L91
 2345              	.L100:
 304:Middlewares/Third_Party/ARM_CMSIS/CMSIS/DSP/Source/TransformFunctions/arm_cfft_f64.c ****         /*  Conjugate and scale output data */
 2346              		.loc 4 304 9 view .LVU765
 304:Middlewares/Third_Party/ARM_CMSIS/CMSIS/DSP/Source/TransformFunctions/arm_cfft_f64.c ****         /*  Conjugate and scale output data */
 2347              		.loc 4 304 22 is_stmt 0 view .LVU766
 2348 00a4 2846     		mov	r0, r5
 2349 00a6 FFF7FEFF 		bl	__aeabi_ui2d
ARM GAS  C:\Users\7636~1\AppData\Local\Temp\ccagWtKu.s 			page 61


 2350              	.LVL272:
 2351 00aa 0246     		mov	r2, r0
 2352 00ac 0B46     		mov	r3, r1
 304:Middlewares/Third_Party/ARM_CMSIS/CMSIS/DSP/Source/TransformFunctions/arm_cfft_f64.c ****         /*  Conjugate and scale output data */
 2353              		.loc 4 304 14 view .LVU767
 2354 00ae 0020     		movs	r0, #0
 2355 00b0 1149     		ldr	r1, .L102
 2356 00b2 FFF7FEFF 		bl	__aeabi_ddiv
 2357              	.LVL273:
 2358 00b6 8046     		mov	r8, r0
 2359 00b8 8946     		mov	r9, r1
 2360              	.LVL274:
 306:Middlewares/Third_Party/ARM_CMSIS/CMSIS/DSP/Source/TransformFunctions/arm_cfft_f64.c ****         for(l=0; l<L; l++)
 2361              		.loc 4 306 9 is_stmt 1 view .LVU768
 307:Middlewares/Third_Party/ARM_CMSIS/CMSIS/DSP/Source/TransformFunctions/arm_cfft_f64.c ****         {
 2362              		.loc 4 307 9 view .LVU769
 307:Middlewares/Third_Party/ARM_CMSIS/CMSIS/DSP/Source/TransformFunctions/arm_cfft_f64.c ****         {
 2363              		.loc 4 307 14 is_stmt 0 view .LVU770
 2364 00ba 4FF0000A 		mov	r10, #0
 2365              	.LVL275:
 307:Middlewares/Third_Party/ARM_CMSIS/CMSIS/DSP/Source/TransformFunctions/arm_cfft_f64.c ****         {
 2366              		.loc 4 307 9 view .LVU771
 2367 00be 17E0     		b	.L93
 2368              	.LVL276:
 2369              	.L94:
 309:Middlewares/Third_Party/ARM_CMSIS/CMSIS/DSP/Source/TransformFunctions/arm_cfft_f64.c ****             *pSrc  = -(*pSrc) * invL;
 2370              		.loc 4 309 13 is_stmt 1 discriminator 3 view .LVU772
 309:Middlewares/Third_Party/ARM_CMSIS/CMSIS/DSP/Source/TransformFunctions/arm_cfft_f64.c ****             *pSrc  = -(*pSrc) * invL;
 2371              		.loc 4 309 21 is_stmt 0 discriminator 3 view .LVU773
 2372 00c0 4246     		mov	r2, r8
 2373 00c2 4B46     		mov	r3, r9
 2374 00c4 D4E90001 		ldrd	r0, [r4]
 2375 00c8 FFF7FEFF 		bl	__aeabi_dmul
 2376              	.LVL277:
 2377 00cc C4E90001 		strd	r0, [r4]
 310:Middlewares/Third_Party/ARM_CMSIS/CMSIS/DSP/Source/TransformFunctions/arm_cfft_f64.c ****             pSrc++;
 2378              		.loc 4 310 13 is_stmt 1 discriminator 3 view .LVU774
 310:Middlewares/Third_Party/ARM_CMSIS/CMSIS/DSP/Source/TransformFunctions/arm_cfft_f64.c ****             pSrc++;
 2379              		.loc 4 310 24 is_stmt 0 discriminator 3 view .LVU775
 2380 00d0 D4E90223 		ldrd	r2, [r4, #8]
 310:Middlewares/Third_Party/ARM_CMSIS/CMSIS/DSP/Source/TransformFunctions/arm_cfft_f64.c ****             pSrc++;
 2381              		.loc 4 310 22 discriminator 3 view .LVU776
 2382 00d4 1646     		mov	r6, r2
 2383 00d6 03F10047 		add	r7, r3, #-2147483648
 310:Middlewares/Third_Party/ARM_CMSIS/CMSIS/DSP/Source/TransformFunctions/arm_cfft_f64.c ****             pSrc++;
 2384              		.loc 4 310 31 discriminator 3 view .LVU777
 2385 00da 4246     		mov	r2, r8
 2386 00dc 4B46     		mov	r3, r9
 2387 00de 3046     		mov	r0, r6
 2388 00e0 3946     		mov	r1, r7
 2389 00e2 FFF7FEFF 		bl	__aeabi_dmul
 2390              	.LVL278:
 310:Middlewares/Third_Party/ARM_CMSIS/CMSIS/DSP/Source/TransformFunctions/arm_cfft_f64.c ****             pSrc++;
 2391              		.loc 4 310 20 discriminator 3 view .LVU778
 2392 00e6 C4E90201 		strd	r0, [r4, #8]
 311:Middlewares/Third_Party/ARM_CMSIS/CMSIS/DSP/Source/TransformFunctions/arm_cfft_f64.c ****         }
 2393              		.loc 4 311 13 is_stmt 1 discriminator 3 view .LVU779
ARM GAS  C:\Users\7636~1\AppData\Local\Temp\ccagWtKu.s 			page 62


