ARM GAS  C:\Users\7636~1\AppData\Local\Temp\cc0eDT2w.s 			page 1


   1              		.cpu cortex-m4
   2              		.arch armv7e-m
   3              		.fpu fpv4-sp-d16
   4              		.eabi_attribute 27, 1
   5              		.eabi_attribute 28, 1
   6              		.eabi_attribute 20, 1
   7              		.eabi_attribute 21, 1
   8              		.eabi_attribute 23, 3
   9              		.eabi_attribute 24, 1
  10              		.eabi_attribute 25, 1
  11              		.eabi_attribute 26, 1
  12              		.eabi_attribute 30, 1
  13              		.eabi_attribute 34, 1
  14              		.eabi_attribute 18, 4
  15              		.file	"usbd_cdc_if.c"
  16              		.text
  17              	.Ltext0:
  18              		.cfi_sections	.debug_frame
  19              		.section	.text.CDC_DeInit_FS,"ax",%progbits
  20              		.align	1
  21              		.syntax unified
  22              		.thumb
  23              		.thumb_func
  25              	CDC_DeInit_FS:
  26              	.LFB640:
  27              		.file 1 "Src/usbd_cdc_if.c"
   1:Src/usbd_cdc_if.c **** /* USER CODE BEGIN Header */
   2:Src/usbd_cdc_if.c **** /**
   3:Src/usbd_cdc_if.c ****   ******************************************************************************
   4:Src/usbd_cdc_if.c ****   * @file           : usbd_cdc_if.c
   5:Src/usbd_cdc_if.c ****   * @version        : v1.0_Cube
   6:Src/usbd_cdc_if.c ****   * @brief          : Usb device for Virtual Com Port.
   7:Src/usbd_cdc_if.c ****   ******************************************************************************
   8:Src/usbd_cdc_if.c ****   * @attention
   9:Src/usbd_cdc_if.c ****   *
  10:Src/usbd_cdc_if.c ****   * <h2><center>&copy; Copyright (c) 2021 STMicroelectronics.
  11:Src/usbd_cdc_if.c ****   * All rights reserved.</center></h2>
  12:Src/usbd_cdc_if.c ****   *
  13:Src/usbd_cdc_if.c ****   * This software component is licensed by ST under Ultimate Liberty license
  14:Src/usbd_cdc_if.c ****   * SLA0044, the "License"; You may not use this file except in compliance with
  15:Src/usbd_cdc_if.c ****   * the License. You may obtain a copy of the License at:
  16:Src/usbd_cdc_if.c ****   *                             www.st.com/SLA0044
  17:Src/usbd_cdc_if.c ****   *
  18:Src/usbd_cdc_if.c ****   ******************************************************************************
  19:Src/usbd_cdc_if.c ****   */
  20:Src/usbd_cdc_if.c **** /* USER CODE END Header */
  21:Src/usbd_cdc_if.c **** 
  22:Src/usbd_cdc_if.c **** /* Includes ------------------------------------------------------------------*/
  23:Src/usbd_cdc_if.c **** #include "usbd_cdc_if.h"
  24:Src/usbd_cdc_if.c **** 
  25:Src/usbd_cdc_if.c **** /* USER CODE BEGIN INCLUDE */
  26:Src/usbd_cdc_if.c **** #include "usbd_def.h"
  27:Src/usbd_cdc_if.c **** /* USER CODE END INCLUDE */
  28:Src/usbd_cdc_if.c **** 
  29:Src/usbd_cdc_if.c **** /* Private typedef -----------------------------------------------------------*/
  30:Src/usbd_cdc_if.c **** /* Private define ------------------------------------------------------------*/
  31:Src/usbd_cdc_if.c **** /* Private macro -------------------------------------------------------------*/
ARM GAS  C:\Users\7636~1\AppData\Local\Temp\cc0eDT2w.s 			page 2


  32:Src/usbd_cdc_if.c **** 
  33:Src/usbd_cdc_if.c **** /* USER CODE BEGIN PV */
  34:Src/usbd_cdc_if.c **** /* Private variables ---------------------------------------------------------*/
  35:Src/usbd_cdc_if.c **** 
  36:Src/usbd_cdc_if.c **** /* USER CODE END PV */
  37:Src/usbd_cdc_if.c **** 
  38:Src/usbd_cdc_if.c **** /** @addtogroup STM32_USB_OTG_DEVICE_LIBRARY
  39:Src/usbd_cdc_if.c ****   * @brief Usb device library.
  40:Src/usbd_cdc_if.c ****   * @{
  41:Src/usbd_cdc_if.c ****   */
  42:Src/usbd_cdc_if.c **** 
  43:Src/usbd_cdc_if.c **** /** @addtogroup USBD_CDC_IF
  44:Src/usbd_cdc_if.c ****   * @{
  45:Src/usbd_cdc_if.c ****   */
  46:Src/usbd_cdc_if.c **** 
  47:Src/usbd_cdc_if.c **** /** @defgroup USBD_CDC_IF_Private_TypesDefinitions USBD_CDC_IF_Private_TypesDefinitions
  48:Src/usbd_cdc_if.c ****   * @brief Private types.
  49:Src/usbd_cdc_if.c ****   * @{
  50:Src/usbd_cdc_if.c ****   */
  51:Src/usbd_cdc_if.c **** 
  52:Src/usbd_cdc_if.c **** /* USER CODE BEGIN PRIVATE_TYPES */
  53:Src/usbd_cdc_if.c **** 
  54:Src/usbd_cdc_if.c **** /* USER CODE END PRIVATE_TYPES */
  55:Src/usbd_cdc_if.c **** 
  56:Src/usbd_cdc_if.c **** /**
  57:Src/usbd_cdc_if.c ****   * @}
  58:Src/usbd_cdc_if.c ****   */
  59:Src/usbd_cdc_if.c **** 
  60:Src/usbd_cdc_if.c **** /** @defgroup USBD_CDC_IF_Private_Defines USBD_CDC_IF_Private_Defines
  61:Src/usbd_cdc_if.c ****   * @brief Private defines.
  62:Src/usbd_cdc_if.c ****   * @{
  63:Src/usbd_cdc_if.c ****   */
  64:Src/usbd_cdc_if.c **** 
  65:Src/usbd_cdc_if.c **** /* USER CODE BEGIN PRIVATE_DEFINES */
  66:Src/usbd_cdc_if.c **** 
  67:Src/usbd_cdc_if.c **** #define CDC_DTR_MASK 0x01
  68:Src/usbd_cdc_if.c **** 
  69:Src/usbd_cdc_if.c **** /* USER CODE END PRIVATE_DEFINES */
  70:Src/usbd_cdc_if.c **** 
  71:Src/usbd_cdc_if.c **** /**
  72:Src/usbd_cdc_if.c ****   * @}
  73:Src/usbd_cdc_if.c ****   */
  74:Src/usbd_cdc_if.c **** 
  75:Src/usbd_cdc_if.c **** /** @defgroup USBD_CDC_IF_Private_Macros USBD_CDC_IF_Private_Macros
  76:Src/usbd_cdc_if.c ****   * @brief Private macros.
  77:Src/usbd_cdc_if.c ****   * @{
  78:Src/usbd_cdc_if.c ****   */
  79:Src/usbd_cdc_if.c **** 
  80:Src/usbd_cdc_if.c **** /* USER CODE BEGIN PRIVATE_MACRO */
  81:Src/usbd_cdc_if.c **** /* USER CODE END PRIVATE_MACRO */
  82:Src/usbd_cdc_if.c **** 
  83:Src/usbd_cdc_if.c **** /**
  84:Src/usbd_cdc_if.c ****   * @}
  85:Src/usbd_cdc_if.c ****   */
  86:Src/usbd_cdc_if.c **** 
  87:Src/usbd_cdc_if.c **** /** @defgroup USBD_CDC_IF_Private_Variables USBD_CDC_IF_Private_Variables
  88:Src/usbd_cdc_if.c ****   * @brief Private variables.
ARM GAS  C:\Users\7636~1\AppData\Local\Temp\cc0eDT2w.s 			page 3


  89:Src/usbd_cdc_if.c ****   * @{
  90:Src/usbd_cdc_if.c ****   */
  91:Src/usbd_cdc_if.c **** /* Create buffer for reception and transmission           */
  92:Src/usbd_cdc_if.c **** /* It's up to user to redefine and/or remove those define */
  93:Src/usbd_cdc_if.c **** /** Received data over USB are stored in this buffer      */
  94:Src/usbd_cdc_if.c **** uint8_t UserRxBufferFS[APP_RX_DATA_SIZE];
  95:Src/usbd_cdc_if.c **** 
  96:Src/usbd_cdc_if.c **** /** Data to send over USB CDC are stored in this buffer   */
  97:Src/usbd_cdc_if.c **** uint8_t UserTxBufferFS[APP_TX_DATA_SIZE];
  98:Src/usbd_cdc_if.c **** 
  99:Src/usbd_cdc_if.c **** /* USER CODE BEGIN PRIVATE_VARIABLES */
 100:Src/usbd_cdc_if.c **** 
 101:Src/usbd_cdc_if.c **** uint8_t dtr_detected = USBD_FAIL;
 102:Src/usbd_cdc_if.c **** void (*user_rx_callback)(uint8_t* buf, uint32_t* len) = NULL;
 103:Src/usbd_cdc_if.c **** 
 104:Src/usbd_cdc_if.c **** /* USER CODE END PRIVATE_VARIABLES */
 105:Src/usbd_cdc_if.c **** 
 106:Src/usbd_cdc_if.c **** /**
 107:Src/usbd_cdc_if.c ****   * @}
 108:Src/usbd_cdc_if.c ****   */
 109:Src/usbd_cdc_if.c **** 
 110:Src/usbd_cdc_if.c **** /** @defgroup USBD_CDC_IF_Exported_Variables USBD_CDC_IF_Exported_Variables
 111:Src/usbd_cdc_if.c ****   * @brief Public variables.
 112:Src/usbd_cdc_if.c ****   * @{
 113:Src/usbd_cdc_if.c ****   */
 114:Src/usbd_cdc_if.c **** 
 115:Src/usbd_cdc_if.c **** extern USBD_HandleTypeDef hUsbDeviceFS;
 116:Src/usbd_cdc_if.c **** 
 117:Src/usbd_cdc_if.c **** /* USER CODE BEGIN EXPORTED_VARIABLES */
 118:Src/usbd_cdc_if.c **** 
 119:Src/usbd_cdc_if.c **** /* USER CODE END EXPORTED_VARIABLES */
 120:Src/usbd_cdc_if.c **** 
 121:Src/usbd_cdc_if.c **** /**
 122:Src/usbd_cdc_if.c ****   * @}
 123:Src/usbd_cdc_if.c ****   */
 124:Src/usbd_cdc_if.c **** 
 125:Src/usbd_cdc_if.c **** /** @defgroup USBD_CDC_IF_Private_FunctionPrototypes USBD_CDC_IF_Private_FunctionPrototypes
 126:Src/usbd_cdc_if.c ****   * @brief Private functions declaration.
 127:Src/usbd_cdc_if.c ****   * @{
 128:Src/usbd_cdc_if.c ****   */
 129:Src/usbd_cdc_if.c **** 
 130:Src/usbd_cdc_if.c **** static int8_t CDC_Init_FS(void);
 131:Src/usbd_cdc_if.c **** static int8_t CDC_DeInit_FS(void);
 132:Src/usbd_cdc_if.c **** static int8_t CDC_Control_FS(uint8_t cmd, uint8_t* pbuf, uint16_t length);
 133:Src/usbd_cdc_if.c **** static int8_t CDC_Receive_FS(uint8_t* pbuf, uint32_t *Len);
 134:Src/usbd_cdc_if.c **** static int8_t CDC_TransmitCplt_FS(uint8_t *pbuf, uint32_t *Len, uint8_t epnum);
 135:Src/usbd_cdc_if.c **** 
 136:Src/usbd_cdc_if.c **** /* USER CODE BEGIN PRIVATE_FUNCTIONS_DECLARATION */
 137:Src/usbd_cdc_if.c **** 
 138:Src/usbd_cdc_if.c **** /* USER CODE END PRIVATE_FUNCTIONS_DECLARATION */
 139:Src/usbd_cdc_if.c **** 
 140:Src/usbd_cdc_if.c **** /**
 141:Src/usbd_cdc_if.c ****   * @}
 142:Src/usbd_cdc_if.c ****   */
 143:Src/usbd_cdc_if.c **** 
 144:Src/usbd_cdc_if.c **** USBD_CDC_ItfTypeDef USBD_Interface_fops_FS =
 145:Src/usbd_cdc_if.c **** {
ARM GAS  C:\Users\7636~1\AppData\Local\Temp\cc0eDT2w.s 			page 4


 146:Src/usbd_cdc_if.c ****   CDC_Init_FS,
 147:Src/usbd_cdc_if.c ****   CDC_DeInit_FS,
 148:Src/usbd_cdc_if.c ****   CDC_Control_FS,
 149:Src/usbd_cdc_if.c ****   CDC_Receive_FS,
 150:Src/usbd_cdc_if.c ****   CDC_TransmitCplt_FS
 151:Src/usbd_cdc_if.c **** };
 152:Src/usbd_cdc_if.c **** 
 153:Src/usbd_cdc_if.c **** /* Private functions ---------------------------------------------------------*/
 154:Src/usbd_cdc_if.c **** /**
 155:Src/usbd_cdc_if.c ****   * @brief  Initializes the CDC media low layer over the FS USB IP
 156:Src/usbd_cdc_if.c ****   * @retval USBD_OK if all operations are OK else USBD_FAIL
 157:Src/usbd_cdc_if.c ****   */
 158:Src/usbd_cdc_if.c **** static int8_t CDC_Init_FS(void)
 159:Src/usbd_cdc_if.c **** {
 160:Src/usbd_cdc_if.c ****   /* USER CODE BEGIN 3 */
 161:Src/usbd_cdc_if.c ****   /* Set Application Buffers */
 162:Src/usbd_cdc_if.c ****   USBD_CDC_SetTxBuffer(&hUsbDeviceFS, UserTxBufferFS, 0);
 163:Src/usbd_cdc_if.c ****   USBD_CDC_SetRxBuffer(&hUsbDeviceFS, UserRxBufferFS);
 164:Src/usbd_cdc_if.c ****   return (USBD_OK);
 165:Src/usbd_cdc_if.c ****   /* USER CODE END 3 */
 166:Src/usbd_cdc_if.c **** }
 167:Src/usbd_cdc_if.c **** 
 168:Src/usbd_cdc_if.c **** /**
 169:Src/usbd_cdc_if.c ****   * @brief  DeInitializes the CDC media low layer
 170:Src/usbd_cdc_if.c ****   * @retval USBD_OK if all operations are OK else USBD_FAIL
 171:Src/usbd_cdc_if.c ****   */
 172:Src/usbd_cdc_if.c **** static int8_t CDC_DeInit_FS(void)
 173:Src/usbd_cdc_if.c **** {
  28              		.loc 1 173 1 view -0
  29              		.cfi_startproc
  30              		@ args = 0, pretend = 0, frame = 0
  31              		@ frame_needed = 0, uses_anonymous_args = 0
  32              		@ link register save eliminated.
 174:Src/usbd_cdc_if.c ****   /* USER CODE BEGIN 4 */
 175:Src/usbd_cdc_if.c ****   return (USBD_OK);
  33              		.loc 1 175 3 view .LVU1
 176:Src/usbd_cdc_if.c ****   /* USER CODE END 4 */
 177:Src/usbd_cdc_if.c **** }
  34              		.loc 1 177 1 is_stmt 0 view .LVU2
  35 0000 0020     		movs	r0, #0
  36 0002 7047     		bx	lr
  37              		.cfi_endproc
  38              	.LFE640:
  40              		.section	.text.CDC_Control_FS,"ax",%progbits
  41              		.align	1
  42              		.syntax unified
  43              		.thumb
  44              		.thumb_func
  46              	CDC_Control_FS:
  47              	.LVL0:
  48              	.LFB641:
 178:Src/usbd_cdc_if.c **** 
 179:Src/usbd_cdc_if.c **** /**
 180:Src/usbd_cdc_if.c ****   * @brief  Manage the CDC class requests
 181:Src/usbd_cdc_if.c ****   * @param  cmd: Command code
 182:Src/usbd_cdc_if.c ****   * @param  pbuf: Buffer containing command data (request parameters)
 183:Src/usbd_cdc_if.c ****   * @param  length: Number of data to be sent (in bytes)
ARM GAS  C:\Users\7636~1\AppData\Local\Temp\cc0eDT2w.s 			page 5


 184:Src/usbd_cdc_if.c ****   * @retval Result of the operation: USBD_OK if all operations are OK else USBD_FAIL
 185:Src/usbd_cdc_if.c ****   */
 186:Src/usbd_cdc_if.c **** static int8_t CDC_Control_FS(uint8_t cmd, uint8_t* pbuf, uint16_t length)
 187:Src/usbd_cdc_if.c **** {
  49              		.loc 1 187 1 is_stmt 1 view -0
  50              		.cfi_startproc
  51              		@ args = 0, pretend = 0, frame = 0
  52              		@ frame_needed = 0, uses_anonymous_args = 0
  53              		@ link register save eliminated.
 188:Src/usbd_cdc_if.c ****   /* USER CODE BEGIN 5 */
 189:Src/usbd_cdc_if.c ****   switch(cmd)
  54              		.loc 1 189 3 view .LVU4
  55 0000 2228     		cmp	r0, #34
  56 0002 01D0     		beq	.L4
  57              	.LVL1:
  58              	.L3:
 190:Src/usbd_cdc_if.c ****   {
 191:Src/usbd_cdc_if.c ****     case CDC_SEND_ENCAPSULATED_COMMAND:
 192:Src/usbd_cdc_if.c **** 
 193:Src/usbd_cdc_if.c ****     break;
 194:Src/usbd_cdc_if.c **** 
 195:Src/usbd_cdc_if.c ****     case CDC_GET_ENCAPSULATED_RESPONSE:
 196:Src/usbd_cdc_if.c **** 
 197:Src/usbd_cdc_if.c ****     break;
 198:Src/usbd_cdc_if.c **** 
 199:Src/usbd_cdc_if.c ****     case CDC_SET_COMM_FEATURE:
 200:Src/usbd_cdc_if.c **** 
 201:Src/usbd_cdc_if.c ****     break;
 202:Src/usbd_cdc_if.c **** 
 203:Src/usbd_cdc_if.c ****     case CDC_GET_COMM_FEATURE:
 204:Src/usbd_cdc_if.c **** 
 205:Src/usbd_cdc_if.c ****     break;
 206:Src/usbd_cdc_if.c **** 
 207:Src/usbd_cdc_if.c ****     case CDC_CLEAR_COMM_FEATURE:
 208:Src/usbd_cdc_if.c **** 
 209:Src/usbd_cdc_if.c ****     break;
 210:Src/usbd_cdc_if.c **** 
 211:Src/usbd_cdc_if.c ****   /*******************************************************************************/
 212:Src/usbd_cdc_if.c ****   /* Line Coding Structure                                                       */
 213:Src/usbd_cdc_if.c ****   /*-----------------------------------------------------------------------------*/
 214:Src/usbd_cdc_if.c ****   /* Offset | Field       | Size | Value  | Description                          */
 215:Src/usbd_cdc_if.c ****   /* 0      | dwDTERate   |   4  | Number |Data terminal rate, in bits per second*/
 216:Src/usbd_cdc_if.c ****   /* 4      | bCharFormat |   1  | Number | Stop bits                            */
 217:Src/usbd_cdc_if.c ****   /*                                        0 - 1 Stop bit                       */
 218:Src/usbd_cdc_if.c ****   /*                                        1 - 1.5 Stop bits                    */
 219:Src/usbd_cdc_if.c ****   /*                                        2 - 2 Stop bits                      */
 220:Src/usbd_cdc_if.c ****   /* 5      | bParityType |  1   | Number | Parity                               */
 221:Src/usbd_cdc_if.c ****   /*                                        0 - None                             */
 222:Src/usbd_cdc_if.c ****   /*                                        1 - Odd                              */
 223:Src/usbd_cdc_if.c ****   /*                                        2 - Even                             */
 224:Src/usbd_cdc_if.c ****   /*                                        3 - Mark                             */
 225:Src/usbd_cdc_if.c ****   /*                                        4 - Space                            */
 226:Src/usbd_cdc_if.c ****   /* 6      | bDataBits  |   1   | Number Data bits (5, 6, 7, 8 or 16).          */
 227:Src/usbd_cdc_if.c ****   /*******************************************************************************/
 228:Src/usbd_cdc_if.c ****     case CDC_SET_LINE_CODING:
 229:Src/usbd_cdc_if.c **** 
 230:Src/usbd_cdc_if.c ****     break;
ARM GAS  C:\Users\7636~1\AppData\Local\Temp\cc0eDT2w.s 			page 6


 231:Src/usbd_cdc_if.c **** 
 232:Src/usbd_cdc_if.c ****     case CDC_GET_LINE_CODING:
 233:Src/usbd_cdc_if.c **** 
 234:Src/usbd_cdc_if.c ****     break;
 235:Src/usbd_cdc_if.c **** 
 236:Src/usbd_cdc_if.c ****     case CDC_SET_CONTROL_LINE_STATE:
 237:Src/usbd_cdc_if.c ****       if (((USBD_SetupReqTypedef*)pbuf)->wValue & CDC_DTR_MASK) dtr_detected = USBD_OK;
 238:Src/usbd_cdc_if.c ****     break;
 239:Src/usbd_cdc_if.c **** 
 240:Src/usbd_cdc_if.c ****     case CDC_SEND_BREAK:
 241:Src/usbd_cdc_if.c **** 
 242:Src/usbd_cdc_if.c ****     break;
 243:Src/usbd_cdc_if.c **** 
 244:Src/usbd_cdc_if.c ****   default:
 245:Src/usbd_cdc_if.c ****     break;
 246:Src/usbd_cdc_if.c ****   }
 247:Src/usbd_cdc_if.c **** 
 248:Src/usbd_cdc_if.c ****   return (USBD_OK);
  59              		.loc 1 248 3 view .LVU5
 249:Src/usbd_cdc_if.c ****   /* USER CODE END 5 */
 250:Src/usbd_cdc_if.c **** }
  60              		.loc 1 250 1 is_stmt 0 view .LVU6
  61 0004 0020     		movs	r0, #0
  62              	.LVL2:
  63              		.loc 1 250 1 view .LVU7
  64 0006 7047     		bx	lr
  65              	.LVL3:
  66              	.L4:
 237:Src/usbd_cdc_if.c ****     break;
  67              		.loc 1 237 7 is_stmt 1 view .LVU8
 237:Src/usbd_cdc_if.c ****     break;
  68              		.loc 1 237 40 is_stmt 0 view .LVU9
  69 0008 4B88     		ldrh	r3, [r1, #2]
 237:Src/usbd_cdc_if.c ****     break;
  70              		.loc 1 237 10 view .LVU10
  71 000a 13F0010F 		tst	r3, #1
  72 000e F9D0     		beq	.L3
 237:Src/usbd_cdc_if.c ****     break;
  73              		.loc 1 237 65 is_stmt 1 discriminator 1 view .LVU11
 237:Src/usbd_cdc_if.c ****     break;
  74              		.loc 1 237 78 is_stmt 0 discriminator 1 view .LVU12
  75 0010 014B     		ldr	r3, .L5
  76 0012 0022     		movs	r2, #0
  77              	.LVL4:
 237:Src/usbd_cdc_if.c ****     break;
  78              		.loc 1 237 78 discriminator 1 view .LVU13
  79 0014 1A70     		strb	r2, [r3]
  80 0016 F5E7     		b	.L3
  81              	.L6:
  82              		.align	2
  83              	.L5:
  84 0018 00000000 		.word	.LANCHOR0
  85              		.cfi_endproc
  86              	.LFE641:
  88              		.section	.text.CDC_TransmitCplt_FS,"ax",%progbits
  89              		.align	1
  90              		.syntax unified
ARM GAS  C:\Users\7636~1\AppData\Local\Temp\cc0eDT2w.s 			page 7


  91              		.thumb
  92              		.thumb_func
  94              	CDC_TransmitCplt_FS:
  95              	.LVL5:
  96              	.LFB644:
 251:Src/usbd_cdc_if.c **** 
 252:Src/usbd_cdc_if.c **** /**
 253:Src/usbd_cdc_if.c ****   * @brief  Data received over USB OUT endpoint are sent over CDC interface
 254:Src/usbd_cdc_if.c ****   *         through this function.
 255:Src/usbd_cdc_if.c ****   *
 256:Src/usbd_cdc_if.c ****   *         @note
 257:Src/usbd_cdc_if.c ****   *         This function will issue a NAK packet on any OUT packet received on
 258:Src/usbd_cdc_if.c ****   *         USB endpoint until exiting this function. If you exit this function
 259:Src/usbd_cdc_if.c ****   *         before transfer is complete on CDC interface (ie. using DMA controller)
 260:Src/usbd_cdc_if.c ****   *         it will result in receiving more data while previous ones are still
 261:Src/usbd_cdc_if.c ****   *         not sent.
 262:Src/usbd_cdc_if.c ****   *
 263:Src/usbd_cdc_if.c ****   * @param  Buf: Buffer of data to be received
 264:Src/usbd_cdc_if.c ****   * @param  Len: Number of data received (in bytes)
 265:Src/usbd_cdc_if.c ****   * @retval Result of the operation: USBD_OK if all operations are OK else USBD_FAIL
 266:Src/usbd_cdc_if.c ****   */
 267:Src/usbd_cdc_if.c **** static int8_t CDC_Receive_FS(uint8_t* Buf, uint32_t *Len)
 268:Src/usbd_cdc_if.c **** {
 269:Src/usbd_cdc_if.c ****   /* USER CODE BEGIN 6 */
 270:Src/usbd_cdc_if.c ****   USBD_CDC_SetRxBuffer(&hUsbDeviceFS, &Buf[0]);
 271:Src/usbd_cdc_if.c ****   USBD_CDC_ReceivePacket(&hUsbDeviceFS);
 272:Src/usbd_cdc_if.c ****   if (user_rx_callback != NULL) user_rx_callback(Buf, Len);
 273:Src/usbd_cdc_if.c ****   return (USBD_OK);
 274:Src/usbd_cdc_if.c ****   /* USER CODE END 6 */
 275:Src/usbd_cdc_if.c **** }
 276:Src/usbd_cdc_if.c **** 
 277:Src/usbd_cdc_if.c **** /**
 278:Src/usbd_cdc_if.c ****   * @brief  CDC_Transmit_FS
 279:Src/usbd_cdc_if.c ****   *         Data to send over USB IN endpoint are sent over CDC interface
 280:Src/usbd_cdc_if.c ****   *         through this function.
 281:Src/usbd_cdc_if.c ****   *         @note
 282:Src/usbd_cdc_if.c ****   *
 283:Src/usbd_cdc_if.c ****   *
 284:Src/usbd_cdc_if.c ****   * @param  Buf: Buffer of data to be sent
 285:Src/usbd_cdc_if.c ****   * @param  Len: Number of data to be sent (in bytes)
 286:Src/usbd_cdc_if.c ****   * @retval USBD_OK if all operations are OK else USBD_FAIL or USBD_BUSY
 287:Src/usbd_cdc_if.c ****   */
 288:Src/usbd_cdc_if.c **** uint8_t CDC_Transmit_FS(uint8_t* Buf, uint16_t Len)
 289:Src/usbd_cdc_if.c **** {
 290:Src/usbd_cdc_if.c ****   uint8_t result = USBD_OK;
 291:Src/usbd_cdc_if.c ****   /* USER CODE BEGIN 7 */
 292:Src/usbd_cdc_if.c ****   USBD_CDC_HandleTypeDef *hcdc = (USBD_CDC_HandleTypeDef*)hUsbDeviceFS.pClassData;
 293:Src/usbd_cdc_if.c ****   if (hcdc->TxState != 0){
 294:Src/usbd_cdc_if.c ****     return USBD_BUSY;
 295:Src/usbd_cdc_if.c ****   }
 296:Src/usbd_cdc_if.c ****   USBD_CDC_SetTxBuffer(&hUsbDeviceFS, Buf, Len);
 297:Src/usbd_cdc_if.c ****   result = USBD_CDC_TransmitPacket(&hUsbDeviceFS);
 298:Src/usbd_cdc_if.c ****   /* USER CODE END 7 */
 299:Src/usbd_cdc_if.c ****   return result;
 300:Src/usbd_cdc_if.c **** }
 301:Src/usbd_cdc_if.c **** 
 302:Src/usbd_cdc_if.c **** /**
ARM GAS  C:\Users\7636~1\AppData\Local\Temp\cc0eDT2w.s 			page 8


 303:Src/usbd_cdc_if.c ****   * @brief  CDC_TransmitCplt_FS
 304:Src/usbd_cdc_if.c ****   *         Data transmited callback
 305:Src/usbd_cdc_if.c ****   *
 306:Src/usbd_cdc_if.c ****   *         @note
 307:Src/usbd_cdc_if.c ****   *         This function is IN transfer complete callback used to inform user that
 308:Src/usbd_cdc_if.c ****   *         the submitted Data is successfully sent over USB.
 309:Src/usbd_cdc_if.c ****   *
 310:Src/usbd_cdc_if.c ****   * @param  Buf: Buffer of data to be received
 311:Src/usbd_cdc_if.c ****   * @param  Len: Number of data received (in bytes)
 312:Src/usbd_cdc_if.c ****   * @retval Result of the operation: USBD_OK if all operations are OK else USBD_FAIL
 313:Src/usbd_cdc_if.c ****   */
 314:Src/usbd_cdc_if.c **** static int8_t CDC_TransmitCplt_FS(uint8_t *Buf, uint32_t *Len, uint8_t epnum)
 315:Src/usbd_cdc_if.c **** {
  97              		.loc 1 315 1 is_stmt 1 view -0
  98              		.cfi_startproc
  99              		@ args = 0, pretend = 0, frame = 0
 100              		@ frame_needed = 0, uses_anonymous_args = 0
 101              		@ link register save eliminated.
 316:Src/usbd_cdc_if.c ****   uint8_t result = USBD_OK;
 102              		.loc 1 316 3 view .LVU15
 317:Src/usbd_cdc_if.c ****   /* USER CODE BEGIN 13 */
 318:Src/usbd_cdc_if.c ****   UNUSED(Buf);
 103              		.loc 1 318 3 view .LVU16
 319:Src/usbd_cdc_if.c ****   UNUSED(Len);
 104              		.loc 1 319 3 view .LVU17
 320:Src/usbd_cdc_if.c ****   UNUSED(epnum);
 105              		.loc 1 320 3 view .LVU18
 321:Src/usbd_cdc_if.c ****   /* USER CODE END 13 */
 322:Src/usbd_cdc_if.c ****   return result;
 106              		.loc 1 322 3 view .LVU19
 323:Src/usbd_cdc_if.c **** }
 107              		.loc 1 323 1 is_stmt 0 view .LVU20
 108 0000 0020     		movs	r0, #0
 109              	.LVL6:
 110              		.loc 1 323 1 view .LVU21
 111 0002 7047     		bx	lr
 112              		.cfi_endproc
 113              	.LFE644:
 115              		.section	.text.CDC_Receive_FS,"ax",%progbits
 116              		.align	1
 117              		.syntax unified
 118              		.thumb
 119              		.thumb_func
 121              	CDC_Receive_FS:
 122              	.LVL7:
 123              	.LFB642:
 268:Src/usbd_cdc_if.c ****   /* USER CODE BEGIN 6 */
 124              		.loc 1 268 1 is_stmt 1 view -0
 125              		.cfi_startproc
 126              		@ args = 0, pretend = 0, frame = 0
 127              		@ frame_needed = 0, uses_anonymous_args = 0
 268:Src/usbd_cdc_if.c ****   /* USER CODE BEGIN 6 */
 128              		.loc 1 268 1 is_stmt 0 view .LVU23
 129 0000 70B5     		push	{r4, r5, r6, lr}
 130              	.LCFI0:
 131              		.cfi_def_cfa_offset 16
 132              		.cfi_offset 4, -16
ARM GAS  C:\Users\7636~1\AppData\Local\Temp\cc0eDT2w.s 			page 9


 133              		.cfi_offset 5, -12
 134              		.cfi_offset 6, -8
 135              		.cfi_offset 14, -4
 136 0002 0446     		mov	r4, r0
 137 0004 0D46     		mov	r5, r1
 270:Src/usbd_cdc_if.c ****   USBD_CDC_ReceivePacket(&hUsbDeviceFS);
 138              		.loc 1 270 3 is_stmt 1 view .LVU24
 139 0006 084E     		ldr	r6, .L11
 140 0008 0146     		mov	r1, r0
 141              	.LVL8:
 270:Src/usbd_cdc_if.c ****   USBD_CDC_ReceivePacket(&hUsbDeviceFS);
 142              		.loc 1 270 3 is_stmt 0 view .LVU25
 143 000a 3046     		mov	r0, r6
 144              	.LVL9:
 270:Src/usbd_cdc_if.c ****   USBD_CDC_ReceivePacket(&hUsbDeviceFS);
 145              		.loc 1 270 3 view .LVU26
 146 000c FFF7FEFF 		bl	USBD_CDC_SetRxBuffer
 147              	.LVL10:
 271:Src/usbd_cdc_if.c ****   if (user_rx_callback != NULL) user_rx_callback(Buf, Len);
 148              		.loc 1 271 3 is_stmt 1 view .LVU27
 149 0010 3046     		mov	r0, r6
 150 0012 FFF7FEFF 		bl	USBD_CDC_ReceivePacket
 151              	.LVL11:
 272:Src/usbd_cdc_if.c ****   return (USBD_OK);
 152              		.loc 1 272 3 view .LVU28
 272:Src/usbd_cdc_if.c ****   return (USBD_OK);
 153              		.loc 1 272 24 is_stmt 0 view .LVU29
 154 0016 054B     		ldr	r3, .L11+4
 155 0018 1B68     		ldr	r3, [r3]
 272:Src/usbd_cdc_if.c ****   return (USBD_OK);
 156              		.loc 1 272 6 view .LVU30
 157 001a 13B1     		cbz	r3, .L9
 272:Src/usbd_cdc_if.c ****   return (USBD_OK);
 158              		.loc 1 272 33 is_stmt 1 discriminator 1 view .LVU31
 159 001c 2946     		mov	r1, r5
 160 001e 2046     		mov	r0, r4
 161 0020 9847     		blx	r3
 162              	.LVL12:
 163              	.L9:
 273:Src/usbd_cdc_if.c ****   /* USER CODE END 6 */
 164              		.loc 1 273 3 view .LVU32
 275:Src/usbd_cdc_if.c **** 
 165              		.loc 1 275 1 is_stmt 0 view .LVU33
 166 0022 0020     		movs	r0, #0
 167 0024 70BD     		pop	{r4, r5, r6, pc}
 168              	.LVL13:
 169              	.L12:
 275:Src/usbd_cdc_if.c **** 
 170              		.loc 1 275 1 view .LVU34
 171 0026 00BF     		.align	2
 172              	.L11:
 173 0028 00000000 		.word	hUsbDeviceFS
 174 002c 00000000 		.word	.LANCHOR1
 175              		.cfi_endproc
 176              	.LFE642:
 178              		.section	.text.CDC_Init_FS,"ax",%progbits
 179              		.align	1
ARM GAS  C:\Users\7636~1\AppData\Local\Temp\cc0eDT2w.s 			page 10


 180              		.syntax unified
 181              		.thumb
 182              		.thumb_func
 184              	CDC_Init_FS:
 185              	.LFB639:
 159:Src/usbd_cdc_if.c ****   /* USER CODE BEGIN 3 */
 186              		.loc 1 159 1 is_stmt 1 view -0
 187              		.cfi_startproc
 188              		@ args = 0, pretend = 0, frame = 0
 189              		@ frame_needed = 0, uses_anonymous_args = 0
 190 0000 10B5     		push	{r4, lr}
 191              	.LCFI1:
 192              		.cfi_def_cfa_offset 8
 193              		.cfi_offset 4, -8
 194              		.cfi_offset 14, -4
 162:Src/usbd_cdc_if.c ****   USBD_CDC_SetRxBuffer(&hUsbDeviceFS, UserRxBufferFS);
 195              		.loc 1 162 3 view .LVU36
 196 0002 064C     		ldr	r4, .L15
 197 0004 0022     		movs	r2, #0
 198 0006 0649     		ldr	r1, .L15+4
 199 0008 2046     		mov	r0, r4
 200 000a FFF7FEFF 		bl	USBD_CDC_SetTxBuffer
 201              	.LVL14:
 163:Src/usbd_cdc_if.c ****   return (USBD_OK);
 202              		.loc 1 163 3 view .LVU37
 203 000e 0549     		ldr	r1, .L15+8
 204 0010 2046     		mov	r0, r4
 205 0012 FFF7FEFF 		bl	USBD_CDC_SetRxBuffer
 206              	.LVL15:
 164:Src/usbd_cdc_if.c ****   /* USER CODE END 3 */
 207              		.loc 1 164 3 view .LVU38
 166:Src/usbd_cdc_if.c **** 
 208              		.loc 1 166 1 is_stmt 0 view .LVU39
 209 0016 0020     		movs	r0, #0
 210 0018 10BD     		pop	{r4, pc}
 211              	.L16:
 212 001a 00BF     		.align	2
 213              	.L15:
 214 001c 00000000 		.word	hUsbDeviceFS
 215 0020 00000000 		.word	.LANCHOR2
 216 0024 00000000 		.word	.LANCHOR3
 217              		.cfi_endproc
 218              	.LFE639:
 220              		.section	.text.CDC_Transmit_FS,"ax",%progbits
 221              		.align	1
 222              		.global	CDC_Transmit_FS
 223              		.syntax unified
 224              		.thumb
 225              		.thumb_func
 227              	CDC_Transmit_FS:
 228              	.LVL16:
 229              	.LFB643:
 289:Src/usbd_cdc_if.c ****   uint8_t result = USBD_OK;
 230              		.loc 1 289 1 is_stmt 1 view -0
 231              		.cfi_startproc
 232              		@ args = 0, pretend = 0, frame = 0
 233              		@ frame_needed = 0, uses_anonymous_args = 0
ARM GAS  C:\Users\7636~1\AppData\Local\Temp\cc0eDT2w.s 			page 11


 290:Src/usbd_cdc_if.c ****   /* USER CODE BEGIN 7 */
 234              		.loc 1 290 3 view .LVU41
 292:Src/usbd_cdc_if.c ****   if (hcdc->TxState != 0){
 235              		.loc 1 292 3 view .LVU42
 292:Src/usbd_cdc_if.c ****   if (hcdc->TxState != 0){
 236              		.loc 1 292 27 is_stmt 0 view .LVU43
 237 0000 094B     		ldr	r3, .L25
 238 0002 D3F8BC32 		ldr	r3, [r3, #700]
 239              	.LVL17:
 293:Src/usbd_cdc_if.c ****     return USBD_BUSY;
 240              		.loc 1 293 3 is_stmt 1 view .LVU44
 293:Src/usbd_cdc_if.c ****     return USBD_BUSY;
 241              		.loc 1 293 11 is_stmt 0 view .LVU45
 242 0006 D3F81432 		ldr	r3, [r3, #532]
 243              	.LVL18:
 293:Src/usbd_cdc_if.c ****     return USBD_BUSY;
 244              		.loc 1 293 6 view .LVU46
 245 000a 0BB1     		cbz	r3, .L24
 294:Src/usbd_cdc_if.c ****   }
 246              		.loc 1 294 12 view .LVU47
 247 000c 0120     		movs	r0, #1
 248              	.LVL19:
 300:Src/usbd_cdc_if.c **** 
 249              		.loc 1 300 1 view .LVU48
 250 000e 7047     		bx	lr
 251              	.LVL20:
 252              	.L24:
 289:Src/usbd_cdc_if.c ****   uint8_t result = USBD_OK;
 253              		.loc 1 289 1 view .LVU49
 254 0010 10B5     		push	{r4, lr}
 255              	.LCFI2:
 256              		.cfi_def_cfa_offset 8
 257              		.cfi_offset 4, -8
 258              		.cfi_offset 14, -4
 296:Src/usbd_cdc_if.c ****   result = USBD_CDC_TransmitPacket(&hUsbDeviceFS);
 259              		.loc 1 296 3 is_stmt 1 view .LVU50
 260 0012 054C     		ldr	r4, .L25
 261              	.LVL21:
 296:Src/usbd_cdc_if.c ****   result = USBD_CDC_TransmitPacket(&hUsbDeviceFS);
 262              		.loc 1 296 3 is_stmt 0 view .LVU51
 263 0014 0A46     		mov	r2, r1
 264 0016 0146     		mov	r1, r0
 265              	.LVL22:
 296:Src/usbd_cdc_if.c ****   result = USBD_CDC_TransmitPacket(&hUsbDeviceFS);
 266              		.loc 1 296 3 view .LVU52
 267 0018 2046     		mov	r0, r4
 268              	.LVL23:
 296:Src/usbd_cdc_if.c ****   result = USBD_CDC_TransmitPacket(&hUsbDeviceFS);
 269              		.loc 1 296 3 view .LVU53
 270 001a FFF7FEFF 		bl	USBD_CDC_SetTxBuffer
 271              	.LVL24:
 297:Src/usbd_cdc_if.c ****   /* USER CODE END 7 */
 272              		.loc 1 297 3 is_stmt 1 view .LVU54
 297:Src/usbd_cdc_if.c ****   /* USER CODE END 7 */
 273              		.loc 1 297 12 is_stmt 0 view .LVU55
 274 001e 2046     		mov	r0, r4
 275 0020 FFF7FEFF 		bl	USBD_CDC_TransmitPacket
ARM GAS  C:\Users\7636~1\AppData\Local\Temp\cc0eDT2w.s 			page 12


 276              	.LVL25:
 299:Src/usbd_cdc_if.c **** }
 277              		.loc 1 299 3 is_stmt 1 view .LVU56
 300:Src/usbd_cdc_if.c **** 
 278              		.loc 1 300 1 is_stmt 0 view .LVU57
 279 0024 10BD     		pop	{r4, pc}
 280              	.L26:
 281 0026 00BF     		.align	2
 282              	.L25:
 283 0028 00000000 		.word	hUsbDeviceFS
 284              		.cfi_endproc
 285              	.LFE643:
 287              		.section	.text.CDC_IsConnected,"ax",%progbits
 288              		.align	1
 289              		.global	CDC_IsConnected
 290              		.syntax unified
 291              		.thumb
 292              		.thumb_func
 294              	CDC_IsConnected:
 295              	.LFB645:
 324:Src/usbd_cdc_if.c **** 
 325:Src/usbd_cdc_if.c **** /* USER CODE BEGIN PRIVATE_FUNCTIONS_IMPLEMENTATION */
 326:Src/usbd_cdc_if.c **** 
 327:Src/usbd_cdc_if.c **** uint8_t CDC_IsConnected()
 328:Src/usbd_cdc_if.c **** {
 296              		.loc 1 328 1 is_stmt 1 view -0
 297              		.cfi_startproc
 298              		@ args = 0, pretend = 0, frame = 0
 299              		@ frame_needed = 0, uses_anonymous_args = 0
 300              		@ link register save eliminated.
 329:Src/usbd_cdc_if.c ****   if ((hUsbDeviceFS.dev_state != USBD_STATE_CONFIGURED) ||
 301              		.loc 1 329 3 view .LVU59
 302              		.loc 1 329 20 is_stmt 0 view .LVU60
 303 0000 084B     		ldr	r3, .L31
 304 0002 93F89C32 		ldrb	r3, [r3, #668]	@ zero_extendqisi2
 305 0006 DBB2     		uxtb	r3, r3
 306              		.loc 1 329 6 view .LVU61
 307 0008 032B     		cmp	r3, #3
 308 000a 05D0     		beq	.L30
 309              	.L28:
 330:Src/usbd_cdc_if.c ****     (hUsbDeviceFS.ep0_state != USBD_EP0_STATUS_IN)) 
 331:Src/usbd_cdc_if.c ****     dtr_detected = USBD_FAIL;
 310              		.loc 1 331 5 is_stmt 1 view .LVU62
 311              		.loc 1 331 18 is_stmt 0 view .LVU63
 312 000c 064B     		ldr	r3, .L31+4
 313 000e 0322     		movs	r2, #3
 314 0010 1A70     		strb	r2, [r3]
 315              	.L29:
 332:Src/usbd_cdc_if.c ****   return dtr_detected;
 316              		.loc 1 332 3 is_stmt 1 view .LVU64
 333:Src/usbd_cdc_if.c **** }
 317              		.loc 1 333 1 is_stmt 0 view .LVU65
 318 0012 054B     		ldr	r3, .L31+4
 319 0014 1878     		ldrb	r0, [r3]	@ zero_extendqisi2
 320 0016 7047     		bx	lr
 321              	.L30:
 330:Src/usbd_cdc_if.c ****     (hUsbDeviceFS.ep0_state != USBD_EP0_STATUS_IN)) 
ARM GAS  C:\Users\7636~1\AppData\Local\Temp\cc0eDT2w.s 			page 13


 322              		.loc 1 330 18 discriminator 1 view .LVU66
 323 0018 024B     		ldr	r3, .L31
 324 001a D3F89432 		ldr	r3, [r3, #660]
 329:Src/usbd_cdc_if.c ****     (hUsbDeviceFS.ep0_state != USBD_EP0_STATUS_IN)) 
 325              		.loc 1 329 57 discriminator 1 view .LVU67
 326 001e 042B     		cmp	r3, #4
 327 0020 F4D1     		bne	.L28
 328 0022 F6E7     		b	.L29
 329              	.L32:
 330              		.align	2
 331              	.L31:
 332 0024 00000000 		.word	hUsbDeviceFS
 333 0028 00000000 		.word	.LANCHOR0
 334              		.cfi_endproc
 335              	.LFE645:
 337              		.section	.text.CDC_Register_RX_Callback,"ax",%progbits
 338              		.align	1
 339              		.global	CDC_Register_RX_Callback
 340              		.syntax unified
 341              		.thumb
 342              		.thumb_func
 344              	CDC_Register_RX_Callback:
 345              	.LVL26:
 346              	.LFB646:
 334:Src/usbd_cdc_if.c **** 
 335:Src/usbd_cdc_if.c **** void CDC_Register_RX_Callback(void (*func)(uint8_t*, uint32_t*))
 336:Src/usbd_cdc_if.c **** {
 347              		.loc 1 336 1 is_stmt 1 view -0
 348              		.cfi_startproc
 349              		@ args = 0, pretend = 0, frame = 0
 350              		@ frame_needed = 0, uses_anonymous_args = 0
 351              		@ link register save eliminated.
 337:Src/usbd_cdc_if.c ****   user_rx_callback = func;
 352              		.loc 1 337 3 view .LVU69
 353              		.loc 1 337 20 is_stmt 0 view .LVU70
 354 0000 014B     		ldr	r3, .L34
 355 0002 1860     		str	r0, [r3]
 338:Src/usbd_cdc_if.c **** }
 356              		.loc 1 338 1 view .LVU71
 357 0004 7047     		bx	lr
 358              	.L35:
 359 0006 00BF     		.align	2
 360              	.L34:
 361 0008 00000000 		.word	.LANCHOR1
 362              		.cfi_endproc
 363              	.LFE646:
 365              		.section	.text.CDC_Can_Transmit,"ax",%progbits
 366              		.align	1
 367              		.global	CDC_Can_Transmit
 368              		.syntax unified
 369              		.thumb
 370              		.thumb_func
 372              	CDC_Can_Transmit:
 373              	.LFB647:
 339:Src/usbd_cdc_if.c **** 
 340:Src/usbd_cdc_if.c **** uint8_t CDC_Can_Transmit()
 341:Src/usbd_cdc_if.c **** {
ARM GAS  C:\Users\7636~1\AppData\Local\Temp\cc0eDT2w.s 			page 14


 374              		.loc 1 341 1 is_stmt 1 view -0
 375              		.cfi_startproc
 376              		@ args = 0, pretend = 0, frame = 0
 377              		@ frame_needed = 0, uses_anonymous_args = 0
 378              		@ link register save eliminated.
 342:Src/usbd_cdc_if.c ****   USBD_CDC_HandleTypeDef *hcdc = (USBD_CDC_HandleTypeDef*)hUsbDeviceFS.pClassData;
 379              		.loc 1 342 3 view .LVU73
 380              		.loc 1 342 27 is_stmt 0 view .LVU74
 381 0000 044B     		ldr	r3, .L39
 382 0002 D3F8BC32 		ldr	r3, [r3, #700]
 383              	.LVL27:
 343:Src/usbd_cdc_if.c ****   if (hcdc->TxState != 0){
 384              		.loc 1 343 3 is_stmt 1 view .LVU75
 385              		.loc 1 343 11 is_stmt 0 view .LVU76
 386 0006 D3F81432 		ldr	r3, [r3, #532]
 387              	.LVL28:
 388              		.loc 1 343 6 view .LVU77
 389 000a 0BB9     		cbnz	r3, .L38
 344:Src/usbd_cdc_if.c ****     return USBD_BUSY;
 345:Src/usbd_cdc_if.c ****   }
 346:Src/usbd_cdc_if.c ****   return USBD_OK;
 390              		.loc 1 346 10 view .LVU78
 391 000c 0020     		movs	r0, #0
 392 000e 7047     		bx	lr
 393              	.L38:
 344:Src/usbd_cdc_if.c ****     return USBD_BUSY;
 394              		.loc 1 344 12 view .LVU79
 395 0010 0120     		movs	r0, #1
 347:Src/usbd_cdc_if.c **** }
 396              		.loc 1 347 1 view .LVU80
 397 0012 7047     		bx	lr
 398              	.L40:
 399              		.align	2
 400              	.L39:
 401 0014 00000000 		.word	hUsbDeviceFS
 402              		.cfi_endproc
 403              	.LFE647:
 405              		.global	USBD_Interface_fops_FS
 406              		.global	user_rx_callback
 407              		.global	dtr_detected
 408              		.global	UserTxBufferFS
 409              		.global	UserRxBufferFS
 410              		.section	.bss.UserRxBufferFS,"aw",%nobits
 411              		.align	2
 412              		.set	.LANCHOR3,. + 0
 415              	UserRxBufferFS:
 416 0000 00000000 		.space	512
 416      00000000 
 416      00000000 
 416      00000000 
 416      00000000 
 417              		.section	.bss.UserTxBufferFS,"aw",%nobits
 418              		.align	2
 419              		.set	.LANCHOR2,. + 0
 422              	UserTxBufferFS:
 423 0000 00000000 		.space	512
 423      00000000 
ARM GAS  C:\Users\7636~1\AppData\Local\Temp\cc0eDT2w.s 			page 15


 423      00000000 
 423      00000000 
 423      00000000 
 424              		.section	.bss.user_rx_callback,"aw",%nobits
 425              		.align	2
 426              		.set	.LANCHOR1,. + 0
 429              	user_rx_callback:
 430 0000 00000000 		.space	4
 431              		.section	.data.USBD_Interface_fops_FS,"aw"
 432              		.align	2
 435              	USBD_Interface_fops_FS:
 436 0000 00000000 		.word	CDC_Init_FS
 437 0004 00000000 		.word	CDC_DeInit_FS
 438 0008 00000000 		.word	CDC_Control_FS
 439 000c 00000000 		.word	CDC_Receive_FS
 440 0010 00000000 		.word	CDC_TransmitCplt_FS
 441              		.section	.data.dtr_detected,"aw"
 442              		.set	.LANCHOR0,. + 0
 445              	dtr_detected:
 446 0000 03       		.byte	3
 447              		.text
 448              	.Letext0:
 449              		.file 2 "c:\\arm-none-eabi-gcc\\arm-none-eabi\\include\\machine\\_default_types.h"
 450              		.file 3 "c:\\arm-none-eabi-gcc\\arm-none-eabi\\include\\sys\\_stdint.h"
 451              		.file 4 "Middlewares/ST/STM32_USB_Device_Library/Core/Inc/usbd_def.h"
 452              		.file 5 "Middlewares/ST/STM32_USB_Device_Library/Class/CDC/Inc/usbd_cdc.h"
 453              		.file 6 "Inc/usbd_cdc_if.h"
 454              		.file 7 "Drivers/STM32F4xx_HAL_Driver/Inc/stm32f4xx_ll_dma.h"
ARM GAS  C:\Users\7636~1\AppData\Local\Temp\cc0eDT2w.s 			page 16

