ARM GAS  C:\Users\7636~1\AppData\Local\Temp\cc5ssthl.s 			page 1


   1              		.cpu cortex-m4
   2              		.arch armv7e-m
   3              		.fpu fpv4-sp-d16
   4              		.eabi_attribute 27, 1
   5              		.eabi_attribute 28, 1
   6              		.eabi_attribute 20, 1
   7              		.eabi_attribute 21, 1
   8              		.eabi_attribute 23, 3
   9              		.eabi_attribute 24, 1
  10              		.eabi_attribute 25, 1
  11              		.eabi_attribute 26, 1
  12              		.eabi_attribute 30, 1
  13              		.eabi_attribute 34, 1
  14              		.eabi_attribute 18, 4
  15              		.file	"usbd_conf.c"
  16              		.text
  17              	.Ltext0:
  18              		.cfi_sections	.debug_frame
  19              		.section	.text.HAL_PCD_MspInit,"ax",%progbits
  20              		.align	1
  21              		.global	HAL_PCD_MspInit
  22              		.syntax unified
  23              		.thumb
  24              		.thumb_func
  26              	HAL_PCD_MspInit:
  27              	.LVL0:
  28              	.LFB639:
  29              		.file 1 "Src/usbd_conf.c"
   1:Src/usbd_conf.c **** /* USER CODE BEGIN Header */
   2:Src/usbd_conf.c **** /**
   3:Src/usbd_conf.c ****   ******************************************************************************
   4:Src/usbd_conf.c ****   * @file           : usbd_conf.c
   5:Src/usbd_conf.c ****   * @version        : v1.0_Cube
   6:Src/usbd_conf.c ****   * @brief          : This file implements the board support package for the USB device library
   7:Src/usbd_conf.c ****   ******************************************************************************
   8:Src/usbd_conf.c ****   * @attention
   9:Src/usbd_conf.c ****   *
  10:Src/usbd_conf.c ****   * <h2><center>&copy; Copyright (c) 2022 STMicroelectronics.
  11:Src/usbd_conf.c ****   * All rights reserved.</center></h2>
  12:Src/usbd_conf.c ****   *
  13:Src/usbd_conf.c ****   * This software component is licensed by ST under Ultimate Liberty license
  14:Src/usbd_conf.c ****   * SLA0044, the "License"; You may not use this file except in compliance with
  15:Src/usbd_conf.c ****   * the License. You may obtain a copy of the License at:
  16:Src/usbd_conf.c ****   *                             www.st.com/SLA0044
  17:Src/usbd_conf.c ****   *
  18:Src/usbd_conf.c ****   ******************************************************************************
  19:Src/usbd_conf.c ****   */
  20:Src/usbd_conf.c **** /* USER CODE END Header */
  21:Src/usbd_conf.c **** 
  22:Src/usbd_conf.c **** /* Includes ------------------------------------------------------------------*/
  23:Src/usbd_conf.c **** #include "stm32f4xx.h"
  24:Src/usbd_conf.c **** #include "stm32f4xx_hal.h"
  25:Src/usbd_conf.c **** #include "usbd_def.h"
  26:Src/usbd_conf.c **** #include "usbd_core.h"
  27:Src/usbd_conf.c **** 
  28:Src/usbd_conf.c **** #include "usbd_cdc.h"
  29:Src/usbd_conf.c **** 
ARM GAS  C:\Users\7636~1\AppData\Local\Temp\cc5ssthl.s 			page 2


  30:Src/usbd_conf.c **** /* USER CODE BEGIN Includes */
  31:Src/usbd_conf.c **** 
  32:Src/usbd_conf.c **** /* USER CODE END Includes */
  33:Src/usbd_conf.c **** 
  34:Src/usbd_conf.c **** /* Private typedef -----------------------------------------------------------*/
  35:Src/usbd_conf.c **** /* Private define ------------------------------------------------------------*/
  36:Src/usbd_conf.c **** /* Private macro -------------------------------------------------------------*/
  37:Src/usbd_conf.c **** 
  38:Src/usbd_conf.c **** /* USER CODE BEGIN PV */
  39:Src/usbd_conf.c **** /* Private variables ---------------------------------------------------------*/
  40:Src/usbd_conf.c **** 
  41:Src/usbd_conf.c **** /* USER CODE END PV */
  42:Src/usbd_conf.c **** 
  43:Src/usbd_conf.c **** PCD_HandleTypeDef hpcd_USB_OTG_FS;
  44:Src/usbd_conf.c **** void Error_Handler(void);
  45:Src/usbd_conf.c **** 
  46:Src/usbd_conf.c **** /* External functions --------------------------------------------------------*/
  47:Src/usbd_conf.c **** void SystemClock_Config(void);
  48:Src/usbd_conf.c **** 
  49:Src/usbd_conf.c **** /* USER CODE BEGIN 0 */
  50:Src/usbd_conf.c **** 
  51:Src/usbd_conf.c **** /* USER CODE END 0 */
  52:Src/usbd_conf.c **** 
  53:Src/usbd_conf.c **** /* USER CODE BEGIN PFP */
  54:Src/usbd_conf.c **** /* Private function prototypes -----------------------------------------------*/
  55:Src/usbd_conf.c **** USBD_StatusTypeDef USBD_Get_USB_Status(HAL_StatusTypeDef hal_status);
  56:Src/usbd_conf.c **** 
  57:Src/usbd_conf.c **** /* USER CODE END PFP */
  58:Src/usbd_conf.c **** 
  59:Src/usbd_conf.c **** /* Private functions ---------------------------------------------------------*/
  60:Src/usbd_conf.c **** 
  61:Src/usbd_conf.c **** /* USER CODE BEGIN 1 */
  62:Src/usbd_conf.c **** 
  63:Src/usbd_conf.c **** /* USER CODE END 1 */
  64:Src/usbd_conf.c **** 
  65:Src/usbd_conf.c **** /*******************************************************************************
  66:Src/usbd_conf.c ****                        LL Driver Callbacks (PCD -> USB Device Library)
  67:Src/usbd_conf.c **** *******************************************************************************/
  68:Src/usbd_conf.c **** /* MSP Init */
  69:Src/usbd_conf.c **** 
  70:Src/usbd_conf.c **** void HAL_PCD_MspInit(PCD_HandleTypeDef* pcdHandle)
  71:Src/usbd_conf.c **** {
  30              		.loc 1 71 1 view -0
  31              		.cfi_startproc
  32              		@ args = 0, pretend = 0, frame = 32
  33              		@ frame_needed = 0, uses_anonymous_args = 0
  34              		.loc 1 71 1 is_stmt 0 view .LVU1
  35 0000 30B5     		push	{r4, r5, lr}
  36              	.LCFI0:
  37              		.cfi_def_cfa_offset 12
  38              		.cfi_offset 4, -12
  39              		.cfi_offset 5, -8
  40              		.cfi_offset 14, -4
  41 0002 89B0     		sub	sp, sp, #36
  42              	.LCFI1:
  43              		.cfi_def_cfa_offset 48
  72:Src/usbd_conf.c ****   GPIO_InitTypeDef GPIO_InitStruct = {0};
ARM GAS  C:\Users\7636~1\AppData\Local\Temp\cc5ssthl.s 			page 3


  44              		.loc 1 72 3 is_stmt 1 view .LVU2
  45              		.loc 1 72 20 is_stmt 0 view .LVU3
  46 0004 0023     		movs	r3, #0
  47 0006 0393     		str	r3, [sp, #12]
  48 0008 0493     		str	r3, [sp, #16]
  49 000a 0593     		str	r3, [sp, #20]
  50 000c 0693     		str	r3, [sp, #24]
  51 000e 0793     		str	r3, [sp, #28]
  73:Src/usbd_conf.c ****   if(pcdHandle->Instance==USB_OTG_FS)
  52              		.loc 1 73 3 is_stmt 1 view .LVU4
  53              		.loc 1 73 15 is_stmt 0 view .LVU5
  54 0010 0368     		ldr	r3, [r0]
  55              		.loc 1 73 5 view .LVU6
  56 0012 B3F1A04F 		cmp	r3, #1342177280
  57 0016 01D0     		beq	.L4
  58              	.LVL1:
  59              	.L1:
  74:Src/usbd_conf.c ****   {
  75:Src/usbd_conf.c ****   /* USER CODE BEGIN USB_OTG_FS_MspInit 0 */
  76:Src/usbd_conf.c **** 
  77:Src/usbd_conf.c ****   /* USER CODE END USB_OTG_FS_MspInit 0 */
  78:Src/usbd_conf.c **** 
  79:Src/usbd_conf.c ****     __HAL_RCC_GPIOA_CLK_ENABLE();
  80:Src/usbd_conf.c ****     /**USB_OTG_FS GPIO Configuration
  81:Src/usbd_conf.c ****     PA11     ------> USB_OTG_FS_DM
  82:Src/usbd_conf.c ****     PA12     ------> USB_OTG_FS_DP
  83:Src/usbd_conf.c ****     */
  84:Src/usbd_conf.c ****     GPIO_InitStruct.Pin = GPIO_PIN_11|GPIO_PIN_12;
  85:Src/usbd_conf.c ****     GPIO_InitStruct.Mode = GPIO_MODE_AF_PP;
  86:Src/usbd_conf.c ****     GPIO_InitStruct.Pull = GPIO_NOPULL;
  87:Src/usbd_conf.c ****     GPIO_InitStruct.Speed = GPIO_SPEED_FREQ_HIGH;
  88:Src/usbd_conf.c ****     GPIO_InitStruct.Alternate = GPIO_AF10_OTG_FS;
  89:Src/usbd_conf.c ****     HAL_GPIO_Init(GPIOA, &GPIO_InitStruct);
  90:Src/usbd_conf.c **** 
  91:Src/usbd_conf.c ****     /* Peripheral clock enable */
  92:Src/usbd_conf.c ****     __HAL_RCC_USB_OTG_FS_CLK_ENABLE();
  93:Src/usbd_conf.c **** 
  94:Src/usbd_conf.c ****     /* Peripheral interrupt init */
  95:Src/usbd_conf.c ****     HAL_NVIC_SetPriority(OTG_FS_IRQn, 0, 0);
  96:Src/usbd_conf.c ****     HAL_NVIC_EnableIRQ(OTG_FS_IRQn);
  97:Src/usbd_conf.c ****   /* USER CODE BEGIN USB_OTG_FS_MspInit 1 */
  98:Src/usbd_conf.c **** 
  99:Src/usbd_conf.c ****   /* USER CODE END USB_OTG_FS_MspInit 1 */
 100:Src/usbd_conf.c ****   }
 101:Src/usbd_conf.c **** }
  60              		.loc 1 101 1 view .LVU7
  61 0018 09B0     		add	sp, sp, #36
  62              	.LCFI2:
  63              		.cfi_remember_state
  64              		.cfi_def_cfa_offset 12
  65              		@ sp needed
  66 001a 30BD     		pop	{r4, r5, pc}
  67              	.LVL2:
  68              	.L4:
  69              	.LCFI3:
  70              		.cfi_restore_state
  79:Src/usbd_conf.c ****     /**USB_OTG_FS GPIO Configuration
ARM GAS  C:\Users\7636~1\AppData\Local\Temp\cc5ssthl.s 			page 4


  71              		.loc 1 79 5 is_stmt 1 view .LVU8
  72              	.LBB2:
  79:Src/usbd_conf.c ****     /**USB_OTG_FS GPIO Configuration
  73              		.loc 1 79 5 view .LVU9
  74 001c 0025     		movs	r5, #0
  75 001e 0195     		str	r5, [sp, #4]
  79:Src/usbd_conf.c ****     /**USB_OTG_FS GPIO Configuration
  76              		.loc 1 79 5 view .LVU10
  77 0020 164C     		ldr	r4, .L5
  78 0022 236B     		ldr	r3, [r4, #48]
  79 0024 43F00103 		orr	r3, r3, #1
  80 0028 2363     		str	r3, [r4, #48]
  79:Src/usbd_conf.c ****     /**USB_OTG_FS GPIO Configuration
  81              		.loc 1 79 5 view .LVU11
  82 002a 236B     		ldr	r3, [r4, #48]
  83 002c 03F00103 		and	r3, r3, #1
  84 0030 0193     		str	r3, [sp, #4]
  79:Src/usbd_conf.c ****     /**USB_OTG_FS GPIO Configuration
  85              		.loc 1 79 5 view .LVU12
  86 0032 019B     		ldr	r3, [sp, #4]
  87              	.LBE2:
  79:Src/usbd_conf.c ****     /**USB_OTG_FS GPIO Configuration
  88              		.loc 1 79 5 view .LVU13
  84:Src/usbd_conf.c ****     GPIO_InitStruct.Mode = GPIO_MODE_AF_PP;
  89              		.loc 1 84 5 view .LVU14
  84:Src/usbd_conf.c ****     GPIO_InitStruct.Mode = GPIO_MODE_AF_PP;
  90              		.loc 1 84 25 is_stmt 0 view .LVU15
  91 0034 4FF4C053 		mov	r3, #6144
  92 0038 0393     		str	r3, [sp, #12]
  85:Src/usbd_conf.c ****     GPIO_InitStruct.Pull = GPIO_NOPULL;
  93              		.loc 1 85 5 is_stmt 1 view .LVU16
  85:Src/usbd_conf.c ****     GPIO_InitStruct.Pull = GPIO_NOPULL;
  94              		.loc 1 85 26 is_stmt 0 view .LVU17
  95 003a 0223     		movs	r3, #2
  96 003c 0493     		str	r3, [sp, #16]
  86:Src/usbd_conf.c ****     GPIO_InitStruct.Speed = GPIO_SPEED_FREQ_HIGH;
  97              		.loc 1 86 5 is_stmt 1 view .LVU18
  87:Src/usbd_conf.c ****     GPIO_InitStruct.Alternate = GPIO_AF10_OTG_FS;
  98              		.loc 1 87 5 view .LVU19
  87:Src/usbd_conf.c ****     GPIO_InitStruct.Alternate = GPIO_AF10_OTG_FS;
  99              		.loc 1 87 27 is_stmt 0 view .LVU20
 100 003e 0693     		str	r3, [sp, #24]
  88:Src/usbd_conf.c ****     HAL_GPIO_Init(GPIOA, &GPIO_InitStruct);
 101              		.loc 1 88 5 is_stmt 1 view .LVU21
  88:Src/usbd_conf.c ****     HAL_GPIO_Init(GPIOA, &GPIO_InitStruct);
 102              		.loc 1 88 31 is_stmt 0 view .LVU22
 103 0040 0A23     		movs	r3, #10
 104 0042 0793     		str	r3, [sp, #28]
  89:Src/usbd_conf.c **** 
 105              		.loc 1 89 5 is_stmt 1 view .LVU23
 106 0044 03A9     		add	r1, sp, #12
 107 0046 0E48     		ldr	r0, .L5+4
 108              	.LVL3:
  89:Src/usbd_conf.c **** 
 109              		.loc 1 89 5 is_stmt 0 view .LVU24
 110 0048 FFF7FEFF 		bl	HAL_GPIO_Init
 111              	.LVL4:
ARM GAS  C:\Users\7636~1\AppData\Local\Temp\cc5ssthl.s 			page 5


  92:Src/usbd_conf.c **** 
 112              		.loc 1 92 5 is_stmt 1 view .LVU25
  92:Src/usbd_conf.c **** 
 113              		.loc 1 92 5 view .LVU26
 114 004c 636B     		ldr	r3, [r4, #52]
 115 004e 43F08003 		orr	r3, r3, #128
 116 0052 6363     		str	r3, [r4, #52]
  92:Src/usbd_conf.c **** 
 117              		.loc 1 92 5 view .LVU27
 118              	.LBB3:
  92:Src/usbd_conf.c **** 
 119              		.loc 1 92 5 view .LVU28
 120 0054 0295     		str	r5, [sp, #8]
  92:Src/usbd_conf.c **** 
 121              		.loc 1 92 5 view .LVU29
 122 0056 636C     		ldr	r3, [r4, #68]
 123 0058 43F48043 		orr	r3, r3, #16384
 124 005c 6364     		str	r3, [r4, #68]
  92:Src/usbd_conf.c **** 
 125              		.loc 1 92 5 view .LVU30
 126 005e 636C     		ldr	r3, [r4, #68]
 127 0060 03F48043 		and	r3, r3, #16384
 128 0064 0293     		str	r3, [sp, #8]
  92:Src/usbd_conf.c **** 
 129              		.loc 1 92 5 view .LVU31
 130 0066 029B     		ldr	r3, [sp, #8]
 131              	.LBE3:
  92:Src/usbd_conf.c **** 
 132              		.loc 1 92 5 view .LVU32
  92:Src/usbd_conf.c **** 
 133              		.loc 1 92 5 view .LVU33
  95:Src/usbd_conf.c ****     HAL_NVIC_EnableIRQ(OTG_FS_IRQn);
 134              		.loc 1 95 5 view .LVU34
 135 0068 2A46     		mov	r2, r5
 136 006a 2946     		mov	r1, r5
 137 006c 4320     		movs	r0, #67
 138 006e FFF7FEFF 		bl	HAL_NVIC_SetPriority
 139              	.LVL5:
  96:Src/usbd_conf.c ****   /* USER CODE BEGIN USB_OTG_FS_MspInit 1 */
 140              		.loc 1 96 5 view .LVU35
 141 0072 4320     		movs	r0, #67
 142 0074 FFF7FEFF 		bl	HAL_NVIC_EnableIRQ
 143              	.LVL6:
 144              		.loc 1 101 1 is_stmt 0 view .LVU36
 145 0078 CEE7     		b	.L1
 146              	.L6:
 147 007a 00BF     		.align	2
 148              	.L5:
 149 007c 00380240 		.word	1073887232
 150 0080 00000240 		.word	1073872896
 151              		.cfi_endproc
 152              	.LFE639:
 154              		.section	.text.HAL_PCD_MspDeInit,"ax",%progbits
 155              		.align	1
 156              		.global	HAL_PCD_MspDeInit
 157              		.syntax unified
 158              		.thumb
ARM GAS  C:\Users\7636~1\AppData\Local\Temp\cc5ssthl.s 			page 6


 159              		.thumb_func
 161              	HAL_PCD_MspDeInit:
 162              	.LVL7:
 163              	.LFB640:
 102:Src/usbd_conf.c **** 
 103:Src/usbd_conf.c **** void HAL_PCD_MspDeInit(PCD_HandleTypeDef* pcdHandle)
 104:Src/usbd_conf.c **** {
 164              		.loc 1 104 1 is_stmt 1 view -0
 165              		.cfi_startproc
 166              		@ args = 0, pretend = 0, frame = 0
 167              		@ frame_needed = 0, uses_anonymous_args = 0
 168              		.loc 1 104 1 is_stmt 0 view .LVU38
 169 0000 08B5     		push	{r3, lr}
 170              	.LCFI4:
 171              		.cfi_def_cfa_offset 8
 172              		.cfi_offset 3, -8
 173              		.cfi_offset 14, -4
 105:Src/usbd_conf.c ****   if(pcdHandle->Instance==USB_OTG_FS)
 174              		.loc 1 105 3 is_stmt 1 view .LVU39
 175              		.loc 1 105 15 is_stmt 0 view .LVU40
 176 0002 0368     		ldr	r3, [r0]
 177              		.loc 1 105 5 view .LVU41
 178 0004 B3F1A04F 		cmp	r3, #1342177280
 179 0008 00D0     		beq	.L10
 180              	.LVL8:
 181              	.L7:
 106:Src/usbd_conf.c ****   {
 107:Src/usbd_conf.c ****   /* USER CODE BEGIN USB_OTG_FS_MspDeInit 0 */
 108:Src/usbd_conf.c **** 
 109:Src/usbd_conf.c ****   /* USER CODE END USB_OTG_FS_MspDeInit 0 */
 110:Src/usbd_conf.c ****     /* Peripheral clock disable */
 111:Src/usbd_conf.c ****     __HAL_RCC_USB_OTG_FS_CLK_DISABLE();
 112:Src/usbd_conf.c **** 
 113:Src/usbd_conf.c ****     /**USB_OTG_FS GPIO Configuration
 114:Src/usbd_conf.c ****     PA11     ------> USB_OTG_FS_DM
 115:Src/usbd_conf.c ****     PA12     ------> USB_OTG_FS_DP
 116:Src/usbd_conf.c ****     */
 117:Src/usbd_conf.c ****     HAL_GPIO_DeInit(GPIOA, GPIO_PIN_11|GPIO_PIN_12);
 118:Src/usbd_conf.c **** 
 119:Src/usbd_conf.c ****     /* Peripheral interrupt Deinit*/
 120:Src/usbd_conf.c ****     HAL_NVIC_DisableIRQ(OTG_FS_IRQn);
 121:Src/usbd_conf.c **** 
 122:Src/usbd_conf.c ****   /* USER CODE BEGIN USB_OTG_FS_MspDeInit 1 */
 123:Src/usbd_conf.c **** 
 124:Src/usbd_conf.c ****   /* USER CODE END USB_OTG_FS_MspDeInit 1 */
 125:Src/usbd_conf.c ****   }
 126:Src/usbd_conf.c **** }
 182              		.loc 1 126 1 view .LVU42
 183 000a 08BD     		pop	{r3, pc}
 184              	.LVL9:
 185              	.L10:
 111:Src/usbd_conf.c **** 
 186              		.loc 1 111 5 is_stmt 1 view .LVU43
 187 000c 064A     		ldr	r2, .L11
 188 000e 536B     		ldr	r3, [r2, #52]
 189 0010 23F08003 		bic	r3, r3, #128
 190 0014 5363     		str	r3, [r2, #52]
ARM GAS  C:\Users\7636~1\AppData\Local\Temp\cc5ssthl.s 			page 7


 117:Src/usbd_conf.c **** 
 191              		.loc 1 117 5 view .LVU44
 192 0016 4FF4C051 		mov	r1, #6144
 193 001a 0448     		ldr	r0, .L11+4
 194              	.LVL10:
 117:Src/usbd_conf.c **** 
 195              		.loc 1 117 5 is_stmt 0 view .LVU45
 196 001c FFF7FEFF 		bl	HAL_GPIO_DeInit
 197              	.LVL11:
 120:Src/usbd_conf.c **** 
 198              		.loc 1 120 5 is_stmt 1 view .LVU46
 199 0020 4320     		movs	r0, #67
 200 0022 FFF7FEFF 		bl	HAL_NVIC_DisableIRQ
 201              	.LVL12:
 202              		.loc 1 126 1 is_stmt 0 view .LVU47
 203 0026 F0E7     		b	.L7
 204              	.L12:
 205              		.align	2
 206              	.L11:
 207 0028 00380240 		.word	1073887232
 208 002c 00000240 		.word	1073872896
 209              		.cfi_endproc
 210              	.LFE640:
 212              		.section	.text.HAL_PCD_SetupStageCallback,"ax",%progbits
 213              		.align	1
 214              		.global	HAL_PCD_SetupStageCallback
 215              		.syntax unified
 216              		.thumb
 217              		.thumb_func
 219              	HAL_PCD_SetupStageCallback:
 220              	.LVL13:
 221              	.LFB641:
 127:Src/usbd_conf.c **** 
 128:Src/usbd_conf.c **** /**
 129:Src/usbd_conf.c ****   * @brief  Setup stage callback
 130:Src/usbd_conf.c ****   * @param  hpcd: PCD handle
 131:Src/usbd_conf.c ****   * @retval None
 132:Src/usbd_conf.c ****   */
 133:Src/usbd_conf.c **** #if (USE_HAL_PCD_REGISTER_CALLBACKS == 1U)
 134:Src/usbd_conf.c **** static void PCD_SetupStageCallback(PCD_HandleTypeDef *hpcd)
 135:Src/usbd_conf.c **** #else
 136:Src/usbd_conf.c **** void HAL_PCD_SetupStageCallback(PCD_HandleTypeDef *hpcd)
 137:Src/usbd_conf.c **** #endif /* USE_HAL_PCD_REGISTER_CALLBACKS */
 138:Src/usbd_conf.c **** {
 222              		.loc 1 138 1 is_stmt 1 view -0
 223              		.cfi_startproc
 224              		@ args = 0, pretend = 0, frame = 0
 225              		@ frame_needed = 0, uses_anonymous_args = 0
 226              		.loc 1 138 1 is_stmt 0 view .LVU49
 227 0000 08B5     		push	{r3, lr}
 228              	.LCFI5:
 229              		.cfi_def_cfa_offset 8
 230              		.cfi_offset 3, -8
 231              		.cfi_offset 14, -4
 139:Src/usbd_conf.c ****   USBD_LL_SetupStage((USBD_HandleTypeDef*)hpcd->pData, (uint8_t *)hpcd->Setup);
 232              		.loc 1 139 3 is_stmt 1 view .LVU50
 233 0002 00F57171 		add	r1, r0, #964
ARM GAS  C:\Users\7636~1\AppData\Local\Temp\cc5ssthl.s 			page 8


 234 0006 D0F80404 		ldr	r0, [r0, #1028]
 235              	.LVL14:
 236              		.loc 1 139 3 is_stmt 0 view .LVU51
 237 000a FFF7FEFF 		bl	USBD_LL_SetupStage
 238              	.LVL15:
 140:Src/usbd_conf.c **** }
 239              		.loc 1 140 1 view .LVU52
 240 000e 08BD     		pop	{r3, pc}
 241              		.cfi_endproc
 242              	.LFE641:
 244              		.section	.text.HAL_PCD_DataOutStageCallback,"ax",%progbits
 245              		.align	1
 246              		.global	HAL_PCD_DataOutStageCallback
 247              		.syntax unified
 248              		.thumb
 249              		.thumb_func
 251              	HAL_PCD_DataOutStageCallback:
 252              	.LVL16:
 253              	.LFB642:
 141:Src/usbd_conf.c **** 
 142:Src/usbd_conf.c **** /**
 143:Src/usbd_conf.c ****   * @brief  Data Out stage callback.
 144:Src/usbd_conf.c ****   * @param  hpcd: PCD handle
 145:Src/usbd_conf.c ****   * @param  epnum: Endpoint number
 146:Src/usbd_conf.c ****   * @retval None
 147:Src/usbd_conf.c ****   */
 148:Src/usbd_conf.c **** #if (USE_HAL_PCD_REGISTER_CALLBACKS == 1U)
 149:Src/usbd_conf.c **** static void PCD_DataOutStageCallback(PCD_HandleTypeDef *hpcd, uint8_t epnum)
 150:Src/usbd_conf.c **** #else
 151:Src/usbd_conf.c **** void HAL_PCD_DataOutStageCallback(PCD_HandleTypeDef *hpcd, uint8_t epnum)
 152:Src/usbd_conf.c **** #endif /* USE_HAL_PCD_REGISTER_CALLBACKS */
 153:Src/usbd_conf.c **** {
 254              		.loc 1 153 1 is_stmt 1 view -0
 255              		.cfi_startproc
 256              		@ args = 0, pretend = 0, frame = 0
 257              		@ frame_needed = 0, uses_anonymous_args = 0
 258              		.loc 1 153 1 is_stmt 0 view .LVU54
 259 0000 08B5     		push	{r3, lr}
 260              	.LCFI6:
 261              		.cfi_def_cfa_offset 8
 262              		.cfi_offset 3, -8
 263              		.cfi_offset 14, -4
 154:Src/usbd_conf.c ****   USBD_LL_DataOutStage((USBD_HandleTypeDef*)hpcd->pData, epnum, hpcd->OUT_ep[epnum].xfer_buff);
 264              		.loc 1 154 3 is_stmt 1 view .LVU55
 265 0002 C1EBC103 		rsb	r3, r1, r1, lsl #3
 266 0006 00EB8303 		add	r3, r0, r3, lsl #2
 267 000a D3F80822 		ldr	r2, [r3, #520]
 268 000e D0F80404 		ldr	r0, [r0, #1028]
 269              	.LVL17:
 270              		.loc 1 154 3 is_stmt 0 view .LVU56
 271 0012 FFF7FEFF 		bl	USBD_LL_DataOutStage
 272              	.LVL18:
 155:Src/usbd_conf.c **** }
 273              		.loc 1 155 1 view .LVU57
 274 0016 08BD     		pop	{r3, pc}
 275              		.cfi_endproc
 276              	.LFE642:
ARM GAS  C:\Users\7636~1\AppData\Local\Temp\cc5ssthl.s 			page 9


 278              		.section	.text.HAL_PCD_DataInStageCallback,"ax",%progbits
 279              		.align	1
 280              		.global	HAL_PCD_DataInStageCallback
 281              		.syntax unified
 282              		.thumb
 283              		.thumb_func
 285              	HAL_PCD_DataInStageCallback:
 286              	.LVL19:
 287              	.LFB643:
 156:Src/usbd_conf.c **** 
 157:Src/usbd_conf.c **** /**
 158:Src/usbd_conf.c ****   * @brief  Data In stage callback.
 159:Src/usbd_conf.c ****   * @param  hpcd: PCD handle
 160:Src/usbd_conf.c ****   * @param  epnum: Endpoint number
 161:Src/usbd_conf.c ****   * @retval None
 162:Src/usbd_conf.c ****   */
 163:Src/usbd_conf.c **** #if (USE_HAL_PCD_REGISTER_CALLBACKS == 1U)
 164:Src/usbd_conf.c **** static void PCD_DataInStageCallback(PCD_HandleTypeDef *hpcd, uint8_t epnum)
 165:Src/usbd_conf.c **** #else
 166:Src/usbd_conf.c **** void HAL_PCD_DataInStageCallback(PCD_HandleTypeDef *hpcd, uint8_t epnum)
 167:Src/usbd_conf.c **** #endif /* USE_HAL_PCD_REGISTER_CALLBACKS */
 168:Src/usbd_conf.c **** {
 288              		.loc 1 168 1 is_stmt 1 view -0
 289              		.cfi_startproc
 290              		@ args = 0, pretend = 0, frame = 0
 291              		@ frame_needed = 0, uses_anonymous_args = 0
 292              		.loc 1 168 1 is_stmt 0 view .LVU59
 293 0000 08B5     		push	{r3, lr}
 294              	.LCFI7:
 295              		.cfi_def_cfa_offset 8
 296              		.cfi_offset 3, -8
 297              		.cfi_offset 14, -4
 169:Src/usbd_conf.c ****   USBD_LL_DataInStage((USBD_HandleTypeDef*)hpcd->pData, epnum, hpcd->IN_ep[epnum].xfer_buff);
 298              		.loc 1 169 3 is_stmt 1 view .LVU60
 299 0002 C1EBC103 		rsb	r3, r1, r1, lsl #3
 300 0006 00EB8303 		add	r3, r0, r3, lsl #2
 301 000a 9A6C     		ldr	r2, [r3, #72]
 302 000c D0F80404 		ldr	r0, [r0, #1028]
 303              	.LVL20:
 304              		.loc 1 169 3 is_stmt 0 view .LVU61
 305 0010 FFF7FEFF 		bl	USBD_LL_DataInStage
 306              	.LVL21:
 170:Src/usbd_conf.c **** }
 307              		.loc 1 170 1 view .LVU62
 308 0014 08BD     		pop	{r3, pc}
 309              		.cfi_endproc
 310              	.LFE643:
 312              		.section	.text.HAL_PCD_SOFCallback,"ax",%progbits
 313              		.align	1
 314              		.global	HAL_PCD_SOFCallback
 315              		.syntax unified
 316              		.thumb
 317              		.thumb_func
 319              	HAL_PCD_SOFCallback:
 320              	.LVL22:
 321              	.LFB644:
 171:Src/usbd_conf.c **** 
ARM GAS  C:\Users\7636~1\AppData\Local\Temp\cc5ssthl.s 			page 10


 172:Src/usbd_conf.c **** /**
 173:Src/usbd_conf.c ****   * @brief  SOF callback.
 174:Src/usbd_conf.c ****   * @param  hpcd: PCD handle
 175:Src/usbd_conf.c ****   * @retval None
 176:Src/usbd_conf.c ****   */
 177:Src/usbd_conf.c **** #if (USE_HAL_PCD_REGISTER_CALLBACKS == 1U)
 178:Src/usbd_conf.c **** static void PCD_SOFCallback(PCD_HandleTypeDef *hpcd)
 179:Src/usbd_conf.c **** #else
 180:Src/usbd_conf.c **** void HAL_PCD_SOFCallback(PCD_HandleTypeDef *hpcd)
 181:Src/usbd_conf.c **** #endif /* USE_HAL_PCD_REGISTER_CALLBACKS */
 182:Src/usbd_conf.c **** {
 322              		.loc 1 182 1 is_stmt 1 view -0
 323              		.cfi_startproc
 324              		@ args = 0, pretend = 0, frame = 0
 325              		@ frame_needed = 0, uses_anonymous_args = 0
 326              		.loc 1 182 1 is_stmt 0 view .LVU64
 327 0000 08B5     		push	{r3, lr}
 328              	.LCFI8:
 329              		.cfi_def_cfa_offset 8
 330              		.cfi_offset 3, -8
 331              		.cfi_offset 14, -4
 183:Src/usbd_conf.c ****   USBD_LL_SOF((USBD_HandleTypeDef*)hpcd->pData);
 332              		.loc 1 183 3 is_stmt 1 view .LVU65
 333 0002 D0F80404 		ldr	r0, [r0, #1028]
 334              	.LVL23:
 335              		.loc 1 183 3 is_stmt 0 view .LVU66
 336 0006 FFF7FEFF 		bl	USBD_LL_SOF
 337              	.LVL24:
 184:Src/usbd_conf.c **** }
 338              		.loc 1 184 1 view .LVU67
 339 000a 08BD     		pop	{r3, pc}
 340              		.cfi_endproc
 341              	.LFE644:
 343              		.section	.text.HAL_PCD_ResetCallback,"ax",%progbits
 344              		.align	1
 345              		.global	HAL_PCD_ResetCallback
 346              		.syntax unified
 347              		.thumb
 348              		.thumb_func
 350              	HAL_PCD_ResetCallback:
 351              	.LVL25:
 352              	.LFB645:
 185:Src/usbd_conf.c **** 
 186:Src/usbd_conf.c **** /**
 187:Src/usbd_conf.c ****   * @brief  Reset callback.
 188:Src/usbd_conf.c ****   * @param  hpcd: PCD handle
 189:Src/usbd_conf.c ****   * @retval None
 190:Src/usbd_conf.c ****   */
 191:Src/usbd_conf.c **** #if (USE_HAL_PCD_REGISTER_CALLBACKS == 1U)
 192:Src/usbd_conf.c **** static void PCD_ResetCallback(PCD_HandleTypeDef *hpcd)
 193:Src/usbd_conf.c **** #else
 194:Src/usbd_conf.c **** void HAL_PCD_ResetCallback(PCD_HandleTypeDef *hpcd)
 195:Src/usbd_conf.c **** #endif /* USE_HAL_PCD_REGISTER_CALLBACKS */
 196:Src/usbd_conf.c **** {
 353              		.loc 1 196 1 is_stmt 1 view -0
 354              		.cfi_startproc
 355              		@ args = 0, pretend = 0, frame = 0
ARM GAS  C:\Users\7636~1\AppData\Local\Temp\cc5ssthl.s 			page 11


 356              		@ frame_needed = 0, uses_anonymous_args = 0
 357              		.loc 1 196 1 is_stmt 0 view .LVU69
 358 0000 10B5     		push	{r4, lr}
 359              	.LCFI9:
 360              		.cfi_def_cfa_offset 8
 361              		.cfi_offset 4, -8
 362              		.cfi_offset 14, -4
 363 0002 0446     		mov	r4, r0
 197:Src/usbd_conf.c ****    USBD_SpeedTypeDef speed = USBD_SPEED_FULL;
 364              		.loc 1 197 4 is_stmt 1 view .LVU70
 365              	.LVL26:
 198:Src/usbd_conf.c **** 
 199:Src/usbd_conf.c ****   if ( hpcd->Init.speed != PCD_SPEED_FULL)
 366              		.loc 1 199 3 view .LVU71
 367              		.loc 1 199 18 is_stmt 0 view .LVU72
 368 0004 C368     		ldr	r3, [r0, #12]
 369              		.loc 1 199 6 view .LVU73
 370 0006 022B     		cmp	r3, #2
 371 0008 09D1     		bne	.L24
 372              	.LVL27:
 373              	.L22:
 200:Src/usbd_conf.c ****   {
 201:Src/usbd_conf.c ****     Error_Handler();
 202:Src/usbd_conf.c ****   }
 203:Src/usbd_conf.c ****     /* Set Speed. */
 204:Src/usbd_conf.c ****   USBD_LL_SetSpeed((USBD_HandleTypeDef*)hpcd->pData, speed);
 374              		.loc 1 204 3 is_stmt 1 view .LVU74
 375 000a 0121     		movs	r1, #1
 376 000c D4F80404 		ldr	r0, [r4, #1028]
 377 0010 FFF7FEFF 		bl	USBD_LL_SetSpeed
 378              	.LVL28:
 205:Src/usbd_conf.c **** 
 206:Src/usbd_conf.c ****   /* Reset Device. */
 207:Src/usbd_conf.c ****   USBD_LL_Reset((USBD_HandleTypeDef*)hpcd->pData);
 379              		.loc 1 207 3 view .LVU75
 380 0014 D4F80404 		ldr	r0, [r4, #1028]
 381 0018 FFF7FEFF 		bl	USBD_LL_Reset
 382              	.LVL29:
 208:Src/usbd_conf.c **** }
 383              		.loc 1 208 1 is_stmt 0 view .LVU76
 384 001c 10BD     		pop	{r4, pc}
 385              	.LVL30:
 386              	.L24:
 201:Src/usbd_conf.c ****   }
 387              		.loc 1 201 5 is_stmt 1 view .LVU77
 388 001e FFF7FEFF 		bl	Error_Handler
 389              	.LVL31:
 201:Src/usbd_conf.c ****   }
 390              		.loc 1 201 5 is_stmt 0 view .LVU78
 391 0022 F2E7     		b	.L22
 392              		.cfi_endproc
 393              	.LFE645:
 395              		.section	.text.HAL_PCD_SuspendCallback,"ax",%progbits
 396              		.align	1
 397              		.global	HAL_PCD_SuspendCallback
 398              		.syntax unified
 399              		.thumb
ARM GAS  C:\Users\7636~1\AppData\Local\Temp\cc5ssthl.s 			page 12


 400              		.thumb_func
 402              	HAL_PCD_SuspendCallback:
 403              	.LVL32:
 404              	.LFB646:
 209:Src/usbd_conf.c **** 
 210:Src/usbd_conf.c **** /**
 211:Src/usbd_conf.c ****   * @brief  Suspend callback.
 212:Src/usbd_conf.c ****   * When Low power mode is enabled the debug cannot be used (IAR, Keil doesn't support it)
 213:Src/usbd_conf.c ****   * @param  hpcd: PCD handle
 214:Src/usbd_conf.c ****   * @retval None
 215:Src/usbd_conf.c ****   */
 216:Src/usbd_conf.c **** #if (USE_HAL_PCD_REGISTER_CALLBACKS == 1U)
 217:Src/usbd_conf.c **** static void PCD_SuspendCallback(PCD_HandleTypeDef *hpcd)
 218:Src/usbd_conf.c **** #else
 219:Src/usbd_conf.c **** void HAL_PCD_SuspendCallback(PCD_HandleTypeDef *hpcd)
 220:Src/usbd_conf.c **** #endif /* USE_HAL_PCD_REGISTER_CALLBACKS */
 221:Src/usbd_conf.c **** {
 405              		.loc 1 221 1 is_stmt 1 view -0
 406              		.cfi_startproc
 407              		@ args = 0, pretend = 0, frame = 0
 408              		@ frame_needed = 0, uses_anonymous_args = 0
 409              		.loc 1 221 1 is_stmt 0 view .LVU80
 410 0000 10B5     		push	{r4, lr}
 411              	.LCFI10:
 412              		.cfi_def_cfa_offset 8
 413              		.cfi_offset 4, -8
 414              		.cfi_offset 14, -4
 415 0002 0446     		mov	r4, r0
 222:Src/usbd_conf.c ****   /* Inform USB library that core enters in suspend Mode. */
 223:Src/usbd_conf.c ****   USBD_LL_Suspend((USBD_HandleTypeDef*)hpcd->pData);
 416              		.loc 1 223 3 is_stmt 1 view .LVU81
 417 0004 D0F80404 		ldr	r0, [r0, #1028]
 418              	.LVL33:
 419              		.loc 1 223 3 is_stmt 0 view .LVU82
 420 0008 FFF7FEFF 		bl	USBD_LL_Suspend
 421              	.LVL34:
 224:Src/usbd_conf.c ****   __HAL_PCD_GATE_PHYCLOCK(hpcd);
 422              		.loc 1 224 3 is_stmt 1 view .LVU83
 423 000c 2268     		ldr	r2, [r4]
 424 000e D2F8003E 		ldr	r3, [r2, #3584]
 425 0012 43F00103 		orr	r3, r3, #1
 426 0016 C2F8003E 		str	r3, [r2, #3584]
 225:Src/usbd_conf.c ****   /* Enter in STOP mode. */
 226:Src/usbd_conf.c ****   /* USER CODE BEGIN 2 */
 227:Src/usbd_conf.c ****   if (hpcd->Init.low_power_enable)
 427              		.loc 1 227 3 view .LVU84
 428              		.loc 1 227 17 is_stmt 0 view .LVU85
 429 001a 236A     		ldr	r3, [r4, #32]
 430              		.loc 1 227 6 view .LVU86
 431 001c 23B1     		cbz	r3, .L25
 228:Src/usbd_conf.c ****   {
 229:Src/usbd_conf.c ****     /* Set SLEEPDEEP bit and SleepOnExit of Cortex System Control Register. */
 230:Src/usbd_conf.c ****     SCB->SCR |= (uint32_t)((uint32_t)(SCB_SCR_SLEEPDEEP_Msk | SCB_SCR_SLEEPONEXIT_Msk));
 432              		.loc 1 230 5 is_stmt 1 view .LVU87
 433              		.loc 1 230 14 is_stmt 0 view .LVU88
 434 001e 034A     		ldr	r2, .L28
 435 0020 1369     		ldr	r3, [r2, #16]
ARM GAS  C:\Users\7636~1\AppData\Local\Temp\cc5ssthl.s 			page 13


 436 0022 43F00603 		orr	r3, r3, #6
 437 0026 1361     		str	r3, [r2, #16]
 438              	.L25:
 231:Src/usbd_conf.c ****   }
 232:Src/usbd_conf.c ****   /* USER CODE END 2 */
 233:Src/usbd_conf.c **** }
 439              		.loc 1 233 1 view .LVU89
 440 0028 10BD     		pop	{r4, pc}
 441              	.LVL35:
 442              	.L29:
 443              		.loc 1 233 1 view .LVU90
 444 002a 00BF     		.align	2
 445              	.L28:
 446 002c 00ED00E0 		.word	-536810240
 447              		.cfi_endproc
 448              	.LFE646:
 450              		.section	.text.HAL_PCD_ResumeCallback,"ax",%progbits
 451              		.align	1
 452              		.global	HAL_PCD_ResumeCallback
 453              		.syntax unified
 454              		.thumb
 455              		.thumb_func
 457              	HAL_PCD_ResumeCallback:
 458              	.LVL36:
 459              	.LFB647:
 234:Src/usbd_conf.c **** 
 235:Src/usbd_conf.c **** /**
 236:Src/usbd_conf.c ****   * @brief  Resume callback.
 237:Src/usbd_conf.c ****   * When Low power mode is enabled the debug cannot be used (IAR, Keil doesn't support it)
 238:Src/usbd_conf.c ****   * @param  hpcd: PCD handle
 239:Src/usbd_conf.c ****   * @retval None
 240:Src/usbd_conf.c ****   */
 241:Src/usbd_conf.c **** #if (USE_HAL_PCD_REGISTER_CALLBACKS == 1U)
 242:Src/usbd_conf.c **** static void PCD_ResumeCallback(PCD_HandleTypeDef *hpcd)
 243:Src/usbd_conf.c **** #else
 244:Src/usbd_conf.c **** void HAL_PCD_ResumeCallback(PCD_HandleTypeDef *hpcd)
 245:Src/usbd_conf.c **** #endif /* USE_HAL_PCD_REGISTER_CALLBACKS */
 246:Src/usbd_conf.c **** {
 460              		.loc 1 246 1 is_stmt 1 view -0
 461              		.cfi_startproc
 462              		@ args = 0, pretend = 0, frame = 0
 463              		@ frame_needed = 0, uses_anonymous_args = 0
 464              		.loc 1 246 1 is_stmt 0 view .LVU92
 465 0000 08B5     		push	{r3, lr}
 466              	.LCFI11:
 467              		.cfi_def_cfa_offset 8
 468              		.cfi_offset 3, -8
 469              		.cfi_offset 14, -4
 247:Src/usbd_conf.c ****   /* USER CODE BEGIN 3 */
 248:Src/usbd_conf.c **** 
 249:Src/usbd_conf.c ****   /* USER CODE END 3 */
 250:Src/usbd_conf.c ****   USBD_LL_Resume((USBD_HandleTypeDef*)hpcd->pData);
 470              		.loc 1 250 3 is_stmt 1 view .LVU93
 471 0002 D0F80404 		ldr	r0, [r0, #1028]
 472              	.LVL37:
 473              		.loc 1 250 3 is_stmt 0 view .LVU94
 474 0006 FFF7FEFF 		bl	USBD_LL_Resume
ARM GAS  C:\Users\7636~1\AppData\Local\Temp\cc5ssthl.s 			page 14


 475              	.LVL38:
 251:Src/usbd_conf.c **** }
 476              		.loc 1 251 1 view .LVU95
 477 000a 08BD     		pop	{r3, pc}
 478              		.cfi_endproc
 479              	.LFE647:
 481              		.section	.text.HAL_PCD_ISOOUTIncompleteCallback,"ax",%progbits
 482              		.align	1
 483              		.global	HAL_PCD_ISOOUTIncompleteCallback
 484              		.syntax unified
 485              		.thumb
 486              		.thumb_func
 488              	HAL_PCD_ISOOUTIncompleteCallback:
 489              	.LVL39:
 490              	.LFB648:
 252:Src/usbd_conf.c **** 
 253:Src/usbd_conf.c **** /**
 254:Src/usbd_conf.c ****   * @brief  ISOOUTIncomplete callback.
 255:Src/usbd_conf.c ****   * @param  hpcd: PCD handle
 256:Src/usbd_conf.c ****   * @param  epnum: Endpoint number
 257:Src/usbd_conf.c ****   * @retval None
 258:Src/usbd_conf.c ****   */
 259:Src/usbd_conf.c **** #if (USE_HAL_PCD_REGISTER_CALLBACKS == 1U)
 260:Src/usbd_conf.c **** static void PCD_ISOOUTIncompleteCallback(PCD_HandleTypeDef *hpcd, uint8_t epnum)
 261:Src/usbd_conf.c **** #else
 262:Src/usbd_conf.c **** void HAL_PCD_ISOOUTIncompleteCallback(PCD_HandleTypeDef *hpcd, uint8_t epnum)
 263:Src/usbd_conf.c **** #endif /* USE_HAL_PCD_REGISTER_CALLBACKS */
 264:Src/usbd_conf.c **** {
 491              		.loc 1 264 1 is_stmt 1 view -0
 492              		.cfi_startproc
 493              		@ args = 0, pretend = 0, frame = 0
 494              		@ frame_needed = 0, uses_anonymous_args = 0
 495              		.loc 1 264 1 is_stmt 0 view .LVU97
 496 0000 08B5     		push	{r3, lr}
 497              	.LCFI12:
 498              		.cfi_def_cfa_offset 8
 499              		.cfi_offset 3, -8
 500              		.cfi_offset 14, -4
 265:Src/usbd_conf.c ****   USBD_LL_IsoOUTIncomplete((USBD_HandleTypeDef*)hpcd->pData, epnum);
 501              		.loc 1 265 3 is_stmt 1 view .LVU98
 502 0002 D0F80404 		ldr	r0, [r0, #1028]
 503              	.LVL40:
 504              		.loc 1 265 3 is_stmt 0 view .LVU99
 505 0006 FFF7FEFF 		bl	USBD_LL_IsoOUTIncomplete
 506              	.LVL41:
 266:Src/usbd_conf.c **** }
 507              		.loc 1 266 1 view .LVU100
 508 000a 08BD     		pop	{r3, pc}
 509              		.cfi_endproc
 510              	.LFE648:
 512              		.section	.text.HAL_PCD_ISOINIncompleteCallback,"ax",%progbits
 513              		.align	1
 514              		.global	HAL_PCD_ISOINIncompleteCallback
 515              		.syntax unified
 516              		.thumb
 517              		.thumb_func
 519              	HAL_PCD_ISOINIncompleteCallback:
ARM GAS  C:\Users\7636~1\AppData\Local\Temp\cc5ssthl.s 			page 15


 520              	.LVL42:
 521              	.LFB649:
 267:Src/usbd_conf.c **** 
 268:Src/usbd_conf.c **** /**
 269:Src/usbd_conf.c ****   * @brief  ISOINIncomplete callback.
 270:Src/usbd_conf.c ****   * @param  hpcd: PCD handle
 271:Src/usbd_conf.c ****   * @param  epnum: Endpoint number
 272:Src/usbd_conf.c ****   * @retval None
 273:Src/usbd_conf.c ****   */
 274:Src/usbd_conf.c **** #if (USE_HAL_PCD_REGISTER_CALLBACKS == 1U)
 275:Src/usbd_conf.c **** static void PCD_ISOINIncompleteCallback(PCD_HandleTypeDef *hpcd, uint8_t epnum)
 276:Src/usbd_conf.c **** #else
 277:Src/usbd_conf.c **** void HAL_PCD_ISOINIncompleteCallback(PCD_HandleTypeDef *hpcd, uint8_t epnum)
 278:Src/usbd_conf.c **** #endif /* USE_HAL_PCD_REGISTER_CALLBACKS */
 279:Src/usbd_conf.c **** {
 522              		.loc 1 279 1 is_stmt 1 view -0
 523              		.cfi_startproc
 524              		@ args = 0, pretend = 0, frame = 0
 525              		@ frame_needed = 0, uses_anonymous_args = 0
 526              		.loc 1 279 1 is_stmt 0 view .LVU102
 527 0000 08B5     		push	{r3, lr}
 528              	.LCFI13:
 529              		.cfi_def_cfa_offset 8
 530              		.cfi_offset 3, -8
 531              		.cfi_offset 14, -4
 280:Src/usbd_conf.c ****   USBD_LL_IsoINIncomplete((USBD_HandleTypeDef*)hpcd->pData, epnum);
 532              		.loc 1 280 3 is_stmt 1 view .LVU103
 533 0002 D0F80404 		ldr	r0, [r0, #1028]
 534              	.LVL43:
 535              		.loc 1 280 3 is_stmt 0 view .LVU104
 536 0006 FFF7FEFF 		bl	USBD_LL_IsoINIncomplete
 537              	.LVL44:
 281:Src/usbd_conf.c **** }
 538              		.loc 1 281 1 view .LVU105
 539 000a 08BD     		pop	{r3, pc}
 540              		.cfi_endproc
 541              	.LFE649:
 543              		.section	.text.HAL_PCD_ConnectCallback,"ax",%progbits
 544              		.align	1
 545              		.global	HAL_PCD_ConnectCallback
 546              		.syntax unified
 547              		.thumb
 548              		.thumb_func
 550              	HAL_PCD_ConnectCallback:
 551              	.LVL45:
 552              	.LFB650:
 282:Src/usbd_conf.c **** 
 283:Src/usbd_conf.c **** /**
 284:Src/usbd_conf.c ****   * @brief  Connect callback.
 285:Src/usbd_conf.c ****   * @param  hpcd: PCD handle
 286:Src/usbd_conf.c ****   * @retval None
 287:Src/usbd_conf.c ****   */
 288:Src/usbd_conf.c **** #if (USE_HAL_PCD_REGISTER_CALLBACKS == 1U)
 289:Src/usbd_conf.c **** static void PCD_ConnectCallback(PCD_HandleTypeDef *hpcd)
 290:Src/usbd_conf.c **** #else
 291:Src/usbd_conf.c **** void HAL_PCD_ConnectCallback(PCD_HandleTypeDef *hpcd)
 292:Src/usbd_conf.c **** #endif /* USE_HAL_PCD_REGISTER_CALLBACKS */
ARM GAS  C:\Users\7636~1\AppData\Local\Temp\cc5ssthl.s 			page 16


 293:Src/usbd_conf.c **** {
 553              		.loc 1 293 1 is_stmt 1 view -0
 554              		.cfi_startproc
 555              		@ args = 0, pretend = 0, frame = 0
 556              		@ frame_needed = 0, uses_anonymous_args = 0
 557              		.loc 1 293 1 is_stmt 0 view .LVU107
 558 0000 08B5     		push	{r3, lr}
 559              	.LCFI14:
 560              		.cfi_def_cfa_offset 8
 561              		.cfi_offset 3, -8
 562              		.cfi_offset 14, -4
 294:Src/usbd_conf.c ****   USBD_LL_DevConnected((USBD_HandleTypeDef*)hpcd->pData);
 563              		.loc 1 294 3 is_stmt 1 view .LVU108
 564 0002 D0F80404 		ldr	r0, [r0, #1028]
 565              	.LVL46:
 566              		.loc 1 294 3 is_stmt 0 view .LVU109
 567 0006 FFF7FEFF 		bl	USBD_LL_DevConnected
 568              	.LVL47:
 295:Src/usbd_conf.c **** }
 569              		.loc 1 295 1 view .LVU110
 570 000a 08BD     		pop	{r3, pc}
 571              		.cfi_endproc
 572              	.LFE650:
 574              		.section	.text.HAL_PCD_DisconnectCallback,"ax",%progbits
 575              		.align	1
 576              		.global	HAL_PCD_DisconnectCallback
 577              		.syntax unified
 578              		.thumb
 579              		.thumb_func
 581              	HAL_PCD_DisconnectCallback:
 582              	.LVL48:
 583              	.LFB651:
 296:Src/usbd_conf.c **** 
 297:Src/usbd_conf.c **** /**
 298:Src/usbd_conf.c ****   * @brief  Disconnect callback.
 299:Src/usbd_conf.c ****   * @param  hpcd: PCD handle
 300:Src/usbd_conf.c ****   * @retval None
 301:Src/usbd_conf.c ****   */
 302:Src/usbd_conf.c **** #if (USE_HAL_PCD_REGISTER_CALLBACKS == 1U)
 303:Src/usbd_conf.c **** static void PCD_DisconnectCallback(PCD_HandleTypeDef *hpcd)
 304:Src/usbd_conf.c **** #else
 305:Src/usbd_conf.c **** void HAL_PCD_DisconnectCallback(PCD_HandleTypeDef *hpcd)
 306:Src/usbd_conf.c **** #endif /* USE_HAL_PCD_REGISTER_CALLBACKS */
 307:Src/usbd_conf.c **** {
 584              		.loc 1 307 1 is_stmt 1 view -0
 585              		.cfi_startproc
 586              		@ args = 0, pretend = 0, frame = 0
 587              		@ frame_needed = 0, uses_anonymous_args = 0
 588              		.loc 1 307 1 is_stmt 0 view .LVU112
 589 0000 08B5     		push	{r3, lr}
 590              	.LCFI15:
 591              		.cfi_def_cfa_offset 8
 592              		.cfi_offset 3, -8
 593              		.cfi_offset 14, -4
 308:Src/usbd_conf.c ****   USBD_LL_DevDisconnected((USBD_HandleTypeDef*)hpcd->pData);
 594              		.loc 1 308 3 is_stmt 1 view .LVU113
 595 0002 D0F80404 		ldr	r0, [r0, #1028]
ARM GAS  C:\Users\7636~1\AppData\Local\Temp\cc5ssthl.s 			page 17


 596              	.LVL49:
 597              		.loc 1 308 3 is_stmt 0 view .LVU114
 598 0006 FFF7FEFF 		bl	USBD_LL_DevDisconnected
 599              	.LVL50:
 309:Src/usbd_conf.c **** }
 600              		.loc 1 309 1 view .LVU115
 601 000a 08BD     		pop	{r3, pc}
 602              		.cfi_endproc
 603              	.LFE651:
 605              		.section	.text.USBD_LL_Init,"ax",%progbits
 606              		.align	1
 607              		.global	USBD_LL_Init
 608              		.syntax unified
 609              		.thumb
 610              		.thumb_func
 612              	USBD_LL_Init:
 613              	.LVL51:
 614              	.LFB652:
 310:Src/usbd_conf.c **** 
 311:Src/usbd_conf.c **** /*******************************************************************************
 312:Src/usbd_conf.c ****                        LL Driver Interface (USB Device Library --> PCD)
 313:Src/usbd_conf.c **** *******************************************************************************/
 314:Src/usbd_conf.c **** 
 315:Src/usbd_conf.c **** /**
 316:Src/usbd_conf.c ****   * @brief  Initializes the low level portion of the device driver.
 317:Src/usbd_conf.c ****   * @param  pdev: Device handle
 318:Src/usbd_conf.c ****   * @retval USBD status
 319:Src/usbd_conf.c ****   */
 320:Src/usbd_conf.c **** USBD_StatusTypeDef USBD_LL_Init(USBD_HandleTypeDef *pdev)
 321:Src/usbd_conf.c **** {
 615              		.loc 1 321 1 is_stmt 1 view -0
 616              		.cfi_startproc
 617              		@ args = 0, pretend = 0, frame = 0
 618              		@ frame_needed = 0, uses_anonymous_args = 0
 322:Src/usbd_conf.c ****   /* Init USB Ip. */
 323:Src/usbd_conf.c ****   if (pdev->id == DEVICE_FS) {
 619              		.loc 1 323 3 view .LVU117
 620              		.loc 1 323 11 is_stmt 0 view .LVU118
 621 0000 0278     		ldrb	r2, [r0]	@ zero_extendqisi2
 622              		.loc 1 323 6 view .LVU119
 623 0002 0AB1     		cbz	r2, .L47
 324:Src/usbd_conf.c ****   /* Link the driver to the stack. */
 325:Src/usbd_conf.c ****   hpcd_USB_OTG_FS.pData = pdev;
 326:Src/usbd_conf.c ****   pdev->pData = &hpcd_USB_OTG_FS;
 327:Src/usbd_conf.c **** 
 328:Src/usbd_conf.c ****   hpcd_USB_OTG_FS.Instance = USB_OTG_FS;
 329:Src/usbd_conf.c ****   hpcd_USB_OTG_FS.Init.dev_endpoints = 4;
 330:Src/usbd_conf.c ****   hpcd_USB_OTG_FS.Init.speed = PCD_SPEED_FULL;
 331:Src/usbd_conf.c ****   hpcd_USB_OTG_FS.Init.dma_enable = DISABLE;
 332:Src/usbd_conf.c ****   hpcd_USB_OTG_FS.Init.phy_itface = PCD_PHY_EMBEDDED;
 333:Src/usbd_conf.c ****   hpcd_USB_OTG_FS.Init.Sof_enable = DISABLE;
 334:Src/usbd_conf.c ****   hpcd_USB_OTG_FS.Init.low_power_enable = DISABLE;
 335:Src/usbd_conf.c ****   hpcd_USB_OTG_FS.Init.lpm_enable = DISABLE;
 336:Src/usbd_conf.c ****   hpcd_USB_OTG_FS.Init.vbus_sensing_enable = DISABLE;
 337:Src/usbd_conf.c ****   hpcd_USB_OTG_FS.Init.use_dedicated_ep1 = DISABLE;
 338:Src/usbd_conf.c ****   if (HAL_PCD_Init(&hpcd_USB_OTG_FS) != HAL_OK)
 339:Src/usbd_conf.c ****   {
ARM GAS  C:\Users\7636~1\AppData\Local\Temp\cc5ssthl.s 			page 18


 340:Src/usbd_conf.c ****     Error_Handler( );
 341:Src/usbd_conf.c ****   }
 342:Src/usbd_conf.c **** 
 343:Src/usbd_conf.c **** #if (USE_HAL_PCD_REGISTER_CALLBACKS == 1U)
 344:Src/usbd_conf.c ****   /* Register USB PCD CallBacks */
 345:Src/usbd_conf.c ****   HAL_PCD_RegisterCallback(&hpcd_USB_OTG_FS, HAL_PCD_SOF_CB_ID, PCD_SOFCallback);
 346:Src/usbd_conf.c ****   HAL_PCD_RegisterCallback(&hpcd_USB_OTG_FS, HAL_PCD_SETUPSTAGE_CB_ID, PCD_SetupStageCallback);
 347:Src/usbd_conf.c ****   HAL_PCD_RegisterCallback(&hpcd_USB_OTG_FS, HAL_PCD_RESET_CB_ID, PCD_ResetCallback);
 348:Src/usbd_conf.c ****   HAL_PCD_RegisterCallback(&hpcd_USB_OTG_FS, HAL_PCD_SUSPEND_CB_ID, PCD_SuspendCallback);
 349:Src/usbd_conf.c ****   HAL_PCD_RegisterCallback(&hpcd_USB_OTG_FS, HAL_PCD_RESUME_CB_ID, PCD_ResumeCallback);
 350:Src/usbd_conf.c ****   HAL_PCD_RegisterCallback(&hpcd_USB_OTG_FS, HAL_PCD_CONNECT_CB_ID, PCD_ConnectCallback);
 351:Src/usbd_conf.c ****   HAL_PCD_RegisterCallback(&hpcd_USB_OTG_FS, HAL_PCD_DISCONNECT_CB_ID, PCD_DisconnectCallback);
 352:Src/usbd_conf.c **** 
 353:Src/usbd_conf.c ****   HAL_PCD_RegisterDataOutStageCallback(&hpcd_USB_OTG_FS, PCD_DataOutStageCallback);
 354:Src/usbd_conf.c ****   HAL_PCD_RegisterDataInStageCallback(&hpcd_USB_OTG_FS, PCD_DataInStageCallback);
 355:Src/usbd_conf.c ****   HAL_PCD_RegisterIsoOutIncpltCallback(&hpcd_USB_OTG_FS, PCD_ISOOUTIncompleteCallback);
 356:Src/usbd_conf.c ****   HAL_PCD_RegisterIsoInIncpltCallback(&hpcd_USB_OTG_FS, PCD_ISOINIncompleteCallback);
 357:Src/usbd_conf.c **** #endif /* USE_HAL_PCD_REGISTER_CALLBACKS */
 358:Src/usbd_conf.c ****   HAL_PCDEx_SetRxFiFo(&hpcd_USB_OTG_FS, 0x80);
 359:Src/usbd_conf.c ****   HAL_PCDEx_SetTxFiFo(&hpcd_USB_OTG_FS, 0, 0x40);
 360:Src/usbd_conf.c ****   HAL_PCDEx_SetTxFiFo(&hpcd_USB_OTG_FS, 1, 0x80);
 361:Src/usbd_conf.c ****   }
 362:Src/usbd_conf.c ****   return USBD_OK;
 624              		.loc 1 362 3 is_stmt 1 view .LVU120
 363:Src/usbd_conf.c **** }
 625              		.loc 1 363 1 is_stmt 0 view .LVU121
 626 0004 0020     		movs	r0, #0
 627              	.LVL52:
 628              		.loc 1 363 1 view .LVU122
 629 0006 7047     		bx	lr
 630              	.LVL53:
 631              	.L47:
 321:Src/usbd_conf.c ****   /* Init USB Ip. */
 632              		.loc 1 321 1 view .LVU123
 633 0008 10B5     		push	{r4, lr}
 634              	.LCFI16:
 635              		.cfi_def_cfa_offset 8
 636              		.cfi_offset 4, -8
 637              		.cfi_offset 14, -4
 638 000a 0346     		mov	r3, r0
 325:Src/usbd_conf.c ****   pdev->pData = &hpcd_USB_OTG_FS;
 639              		.loc 1 325 3 is_stmt 1 view .LVU124
 325:Src/usbd_conf.c ****   pdev->pData = &hpcd_USB_OTG_FS;
 640              		.loc 1 325 25 is_stmt 0 view .LVU125
 641 000c 1548     		ldr	r0, .L49
 642              	.LVL54:
 325:Src/usbd_conf.c ****   pdev->pData = &hpcd_USB_OTG_FS;
 643              		.loc 1 325 25 view .LVU126
 644 000e C0F80434 		str	r3, [r0, #1028]
 326:Src/usbd_conf.c **** 
 645              		.loc 1 326 3 is_stmt 1 view .LVU127
 326:Src/usbd_conf.c **** 
 646              		.loc 1 326 15 is_stmt 0 view .LVU128
 647 0012 C3F8C402 		str	r0, [r3, #708]
 328:Src/usbd_conf.c ****   hpcd_USB_OTG_FS.Init.dev_endpoints = 4;
 648              		.loc 1 328 3 is_stmt 1 view .LVU129
 328:Src/usbd_conf.c ****   hpcd_USB_OTG_FS.Init.dev_endpoints = 4;
ARM GAS  C:\Users\7636~1\AppData\Local\Temp\cc5ssthl.s 			page 19


 649              		.loc 1 328 28 is_stmt 0 view .LVU130
 650 0016 4FF0A043 		mov	r3, #1342177280
 651              	.LVL55:
 328:Src/usbd_conf.c ****   hpcd_USB_OTG_FS.Init.dev_endpoints = 4;
 652              		.loc 1 328 28 view .LVU131
 653 001a 0360     		str	r3, [r0]
 329:Src/usbd_conf.c ****   hpcd_USB_OTG_FS.Init.speed = PCD_SPEED_FULL;
 654              		.loc 1 329 3 is_stmt 1 view .LVU132
 329:Src/usbd_conf.c ****   hpcd_USB_OTG_FS.Init.speed = PCD_SPEED_FULL;
 655              		.loc 1 329 38 is_stmt 0 view .LVU133
 656 001c 0423     		movs	r3, #4
 657 001e 4360     		str	r3, [r0, #4]
 330:Src/usbd_conf.c ****   hpcd_USB_OTG_FS.Init.dma_enable = DISABLE;
 658              		.loc 1 330 3 is_stmt 1 view .LVU134
 330:Src/usbd_conf.c ****   hpcd_USB_OTG_FS.Init.dma_enable = DISABLE;
 659              		.loc 1 330 30 is_stmt 0 view .LVU135
 660 0020 0222     		movs	r2, #2
 661 0022 C260     		str	r2, [r0, #12]
 331:Src/usbd_conf.c ****   hpcd_USB_OTG_FS.Init.phy_itface = PCD_PHY_EMBEDDED;
 662              		.loc 1 331 3 is_stmt 1 view .LVU136
 331:Src/usbd_conf.c ****   hpcd_USB_OTG_FS.Init.phy_itface = PCD_PHY_EMBEDDED;
 663              		.loc 1 331 35 is_stmt 0 view .LVU137
 664 0024 0023     		movs	r3, #0
 665 0026 0361     		str	r3, [r0, #16]
 332:Src/usbd_conf.c ****   hpcd_USB_OTG_FS.Init.Sof_enable = DISABLE;
 666              		.loc 1 332 3 is_stmt 1 view .LVU138
 332:Src/usbd_conf.c ****   hpcd_USB_OTG_FS.Init.Sof_enable = DISABLE;
 667              		.loc 1 332 35 is_stmt 0 view .LVU139
 668 0028 8261     		str	r2, [r0, #24]
 333:Src/usbd_conf.c ****   hpcd_USB_OTG_FS.Init.low_power_enable = DISABLE;
 669              		.loc 1 333 3 is_stmt 1 view .LVU140
 333:Src/usbd_conf.c ****   hpcd_USB_OTG_FS.Init.low_power_enable = DISABLE;
 670              		.loc 1 333 35 is_stmt 0 view .LVU141
 671 002a C361     		str	r3, [r0, #28]
 334:Src/usbd_conf.c ****   hpcd_USB_OTG_FS.Init.lpm_enable = DISABLE;
 672              		.loc 1 334 3 is_stmt 1 view .LVU142
 334:Src/usbd_conf.c ****   hpcd_USB_OTG_FS.Init.lpm_enable = DISABLE;
 673              		.loc 1 334 41 is_stmt 0 view .LVU143
 674 002c 0362     		str	r3, [r0, #32]
 335:Src/usbd_conf.c ****   hpcd_USB_OTG_FS.Init.vbus_sensing_enable = DISABLE;
 675              		.loc 1 335 3 is_stmt 1 view .LVU144
 335:Src/usbd_conf.c ****   hpcd_USB_OTG_FS.Init.vbus_sensing_enable = DISABLE;
 676              		.loc 1 335 35 is_stmt 0 view .LVU145
 677 002e 4362     		str	r3, [r0, #36]
 336:Src/usbd_conf.c ****   hpcd_USB_OTG_FS.Init.use_dedicated_ep1 = DISABLE;
 678              		.loc 1 336 3 is_stmt 1 view .LVU146
 336:Src/usbd_conf.c ****   hpcd_USB_OTG_FS.Init.use_dedicated_ep1 = DISABLE;
 679              		.loc 1 336 44 is_stmt 0 view .LVU147
 680 0030 C362     		str	r3, [r0, #44]
 337:Src/usbd_conf.c ****   if (HAL_PCD_Init(&hpcd_USB_OTG_FS) != HAL_OK)
 681              		.loc 1 337 3 is_stmt 1 view .LVU148
 337:Src/usbd_conf.c ****   if (HAL_PCD_Init(&hpcd_USB_OTG_FS) != HAL_OK)
 682              		.loc 1 337 42 is_stmt 0 view .LVU149
 683 0032 0363     		str	r3, [r0, #48]
 338:Src/usbd_conf.c ****   {
 684              		.loc 1 338 3 is_stmt 1 view .LVU150
 338:Src/usbd_conf.c ****   {
ARM GAS  C:\Users\7636~1\AppData\Local\Temp\cc5ssthl.s 			page 20


 685              		.loc 1 338 7 is_stmt 0 view .LVU151
 686 0034 FFF7FEFF 		bl	HAL_PCD_Init
 687              	.LVL56:
 338:Src/usbd_conf.c ****   {
 688              		.loc 1 338 6 view .LVU152
 689 0038 80B9     		cbnz	r0, .L48
 690              	.L42:
 358:Src/usbd_conf.c ****   HAL_PCDEx_SetTxFiFo(&hpcd_USB_OTG_FS, 0, 0x40);
 691              		.loc 1 358 3 is_stmt 1 view .LVU153
 692 003a 0A4C     		ldr	r4, .L49
 693 003c 8021     		movs	r1, #128
 694 003e 2046     		mov	r0, r4
 695 0040 FFF7FEFF 		bl	HAL_PCDEx_SetRxFiFo
 696              	.LVL57:
 359:Src/usbd_conf.c ****   HAL_PCDEx_SetTxFiFo(&hpcd_USB_OTG_FS, 1, 0x80);
 697              		.loc 1 359 3 view .LVU154
 698 0044 4022     		movs	r2, #64
 699 0046 0021     		movs	r1, #0
 700 0048 2046     		mov	r0, r4
 701 004a FFF7FEFF 		bl	HAL_PCDEx_SetTxFiFo
 702              	.LVL58:
 360:Src/usbd_conf.c ****   }
 703              		.loc 1 360 3 view .LVU155
 704 004e 8022     		movs	r2, #128
 705 0050 0121     		movs	r1, #1
 706 0052 2046     		mov	r0, r4
 707 0054 FFF7FEFF 		bl	HAL_PCDEx_SetTxFiFo
 708              	.LVL59:
 362:Src/usbd_conf.c **** }
 709              		.loc 1 362 3 view .LVU156
 710              		.loc 1 363 1 is_stmt 0 view .LVU157
 711 0058 0020     		movs	r0, #0
 712 005a 10BD     		pop	{r4, pc}
 713              	.L48:
 340:Src/usbd_conf.c ****   }
 714              		.loc 1 340 5 is_stmt 1 view .LVU158
 715 005c FFF7FEFF 		bl	Error_Handler
 716              	.LVL60:
 717 0060 EBE7     		b	.L42
 718              	.L50:
 719 0062 00BF     		.align	2
 720              	.L49:
 721 0064 00000000 		.word	.LANCHOR0
 722              		.cfi_endproc
 723              	.LFE652:
 725              		.section	.text.USBD_LL_IsStallEP,"ax",%progbits
 726              		.align	1
 727              		.global	USBD_LL_IsStallEP
 728              		.syntax unified
 729              		.thumb
 730              		.thumb_func
 732              	USBD_LL_IsStallEP:
 733              	.LVL61:
 734              	.LFB661:
 364:Src/usbd_conf.c **** 
 365:Src/usbd_conf.c **** /**
 366:Src/usbd_conf.c ****   * @brief  De-Initializes the low level portion of the device driver.
ARM GAS  C:\Users\7636~1\AppData\Local\Temp\cc5ssthl.s 			page 21


 367:Src/usbd_conf.c ****   * @param  pdev: Device handle
 368:Src/usbd_conf.c ****   * @retval USBD status
 369:Src/usbd_conf.c ****   */
 370:Src/usbd_conf.c **** USBD_StatusTypeDef USBD_LL_DeInit(USBD_HandleTypeDef *pdev)
 371:Src/usbd_conf.c **** {
 372:Src/usbd_conf.c ****   HAL_StatusTypeDef hal_status = HAL_OK;
 373:Src/usbd_conf.c ****   USBD_StatusTypeDef usb_status = USBD_OK;
 374:Src/usbd_conf.c **** 
 375:Src/usbd_conf.c ****   hal_status = HAL_PCD_DeInit(pdev->pData);
 376:Src/usbd_conf.c **** 
 377:Src/usbd_conf.c ****   usb_status =  USBD_Get_USB_Status(hal_status);
 378:Src/usbd_conf.c **** 
 379:Src/usbd_conf.c ****   return usb_status;
 380:Src/usbd_conf.c **** }
 381:Src/usbd_conf.c **** 
 382:Src/usbd_conf.c **** /**
 383:Src/usbd_conf.c ****   * @brief  Starts the low level portion of the device driver.
 384:Src/usbd_conf.c ****   * @param  pdev: Device handle
 385:Src/usbd_conf.c ****   * @retval USBD status
 386:Src/usbd_conf.c ****   */
 387:Src/usbd_conf.c **** USBD_StatusTypeDef USBD_LL_Start(USBD_HandleTypeDef *pdev)
 388:Src/usbd_conf.c **** {
 389:Src/usbd_conf.c ****   HAL_StatusTypeDef hal_status = HAL_OK;
 390:Src/usbd_conf.c ****   USBD_StatusTypeDef usb_status = USBD_OK;
 391:Src/usbd_conf.c **** 
 392:Src/usbd_conf.c ****   hal_status = HAL_PCD_Start(pdev->pData);
 393:Src/usbd_conf.c **** 
 394:Src/usbd_conf.c ****   usb_status =  USBD_Get_USB_Status(hal_status);
 395:Src/usbd_conf.c **** 
 396:Src/usbd_conf.c ****   return usb_status;
 397:Src/usbd_conf.c **** }
 398:Src/usbd_conf.c **** 
 399:Src/usbd_conf.c **** /**
 400:Src/usbd_conf.c ****   * @brief  Stops the low level portion of the device driver.
 401:Src/usbd_conf.c ****   * @param  pdev: Device handle
 402:Src/usbd_conf.c ****   * @retval USBD status
 403:Src/usbd_conf.c ****   */
 404:Src/usbd_conf.c **** USBD_StatusTypeDef USBD_LL_Stop(USBD_HandleTypeDef *pdev)
 405:Src/usbd_conf.c **** {
 406:Src/usbd_conf.c ****   HAL_StatusTypeDef hal_status = HAL_OK;
 407:Src/usbd_conf.c ****   USBD_StatusTypeDef usb_status = USBD_OK;
 408:Src/usbd_conf.c **** 
 409:Src/usbd_conf.c ****   hal_status = HAL_PCD_Stop(pdev->pData);
 410:Src/usbd_conf.c **** 
 411:Src/usbd_conf.c ****   usb_status =  USBD_Get_USB_Status(hal_status);
 412:Src/usbd_conf.c **** 
 413:Src/usbd_conf.c ****   return usb_status;
 414:Src/usbd_conf.c **** }
 415:Src/usbd_conf.c **** 
 416:Src/usbd_conf.c **** /**
 417:Src/usbd_conf.c ****   * @brief  Opens an endpoint of the low level driver.
 418:Src/usbd_conf.c ****   * @param  pdev: Device handle
 419:Src/usbd_conf.c ****   * @param  ep_addr: Endpoint number
 420:Src/usbd_conf.c ****   * @param  ep_type: Endpoint type
 421:Src/usbd_conf.c ****   * @param  ep_mps: Endpoint max packet size
 422:Src/usbd_conf.c ****   * @retval USBD status
 423:Src/usbd_conf.c ****   */
ARM GAS  C:\Users\7636~1\AppData\Local\Temp\cc5ssthl.s 			page 22


 424:Src/usbd_conf.c **** USBD_StatusTypeDef USBD_LL_OpenEP(USBD_HandleTypeDef *pdev, uint8_t ep_addr, uint8_t ep_type, uint1
 425:Src/usbd_conf.c **** {
 426:Src/usbd_conf.c ****   HAL_StatusTypeDef hal_status = HAL_OK;
 427:Src/usbd_conf.c ****   USBD_StatusTypeDef usb_status = USBD_OK;
 428:Src/usbd_conf.c **** 
 429:Src/usbd_conf.c ****   hal_status = HAL_PCD_EP_Open(pdev->pData, ep_addr, ep_mps, ep_type);
 430:Src/usbd_conf.c **** 
 431:Src/usbd_conf.c ****   usb_status =  USBD_Get_USB_Status(hal_status);
 432:Src/usbd_conf.c **** 
 433:Src/usbd_conf.c ****   return usb_status;
 434:Src/usbd_conf.c **** }
 435:Src/usbd_conf.c **** 
 436:Src/usbd_conf.c **** /**
 437:Src/usbd_conf.c ****   * @brief  Closes an endpoint of the low level driver.
 438:Src/usbd_conf.c ****   * @param  pdev: Device handle
 439:Src/usbd_conf.c ****   * @param  ep_addr: Endpoint number
 440:Src/usbd_conf.c ****   * @retval USBD status
 441:Src/usbd_conf.c ****   */
 442:Src/usbd_conf.c **** USBD_StatusTypeDef USBD_LL_CloseEP(USBD_HandleTypeDef *pdev, uint8_t ep_addr)
 443:Src/usbd_conf.c **** {
 444:Src/usbd_conf.c ****   HAL_StatusTypeDef hal_status = HAL_OK;
 445:Src/usbd_conf.c ****   USBD_StatusTypeDef usb_status = USBD_OK;
 446:Src/usbd_conf.c **** 
 447:Src/usbd_conf.c ****   hal_status = HAL_PCD_EP_Close(pdev->pData, ep_addr);
 448:Src/usbd_conf.c **** 
 449:Src/usbd_conf.c ****   usb_status =  USBD_Get_USB_Status(hal_status);
 450:Src/usbd_conf.c **** 
 451:Src/usbd_conf.c ****   return usb_status;
 452:Src/usbd_conf.c **** }
 453:Src/usbd_conf.c **** 
 454:Src/usbd_conf.c **** /**
 455:Src/usbd_conf.c ****   * @brief  Flushes an endpoint of the Low Level Driver.
 456:Src/usbd_conf.c ****   * @param  pdev: Device handle
 457:Src/usbd_conf.c ****   * @param  ep_addr: Endpoint number
 458:Src/usbd_conf.c ****   * @retval USBD status
 459:Src/usbd_conf.c ****   */
 460:Src/usbd_conf.c **** USBD_StatusTypeDef USBD_LL_FlushEP(USBD_HandleTypeDef *pdev, uint8_t ep_addr)
 461:Src/usbd_conf.c **** {
 462:Src/usbd_conf.c ****   HAL_StatusTypeDef hal_status = HAL_OK;
 463:Src/usbd_conf.c ****   USBD_StatusTypeDef usb_status = USBD_OK;
 464:Src/usbd_conf.c **** 
 465:Src/usbd_conf.c ****   hal_status = HAL_PCD_EP_Flush(pdev->pData, ep_addr);
 466:Src/usbd_conf.c **** 
 467:Src/usbd_conf.c ****   usb_status =  USBD_Get_USB_Status(hal_status);
 468:Src/usbd_conf.c **** 
 469:Src/usbd_conf.c ****   return usb_status;
 470:Src/usbd_conf.c **** }
 471:Src/usbd_conf.c **** 
 472:Src/usbd_conf.c **** /**
 473:Src/usbd_conf.c ****   * @brief  Sets a Stall condition on an endpoint of the Low Level Driver.
 474:Src/usbd_conf.c ****   * @param  pdev: Device handle
 475:Src/usbd_conf.c ****   * @param  ep_addr: Endpoint number
 476:Src/usbd_conf.c ****   * @retval USBD status
 477:Src/usbd_conf.c ****   */
 478:Src/usbd_conf.c **** USBD_StatusTypeDef USBD_LL_StallEP(USBD_HandleTypeDef *pdev, uint8_t ep_addr)
 479:Src/usbd_conf.c **** {
 480:Src/usbd_conf.c ****   HAL_StatusTypeDef hal_status = HAL_OK;
ARM GAS  C:\Users\7636~1\AppData\Local\Temp\cc5ssthl.s 			page 23


 481:Src/usbd_conf.c ****   USBD_StatusTypeDef usb_status = USBD_OK;
 482:Src/usbd_conf.c **** 
 483:Src/usbd_conf.c ****   hal_status = HAL_PCD_EP_SetStall(pdev->pData, ep_addr);
 484:Src/usbd_conf.c **** 
 485:Src/usbd_conf.c ****   usb_status =  USBD_Get_USB_Status(hal_status);
 486:Src/usbd_conf.c **** 
 487:Src/usbd_conf.c ****   return usb_status;
 488:Src/usbd_conf.c **** }
 489:Src/usbd_conf.c **** 
 490:Src/usbd_conf.c **** /**
 491:Src/usbd_conf.c ****   * @brief  Clears a Stall condition on an endpoint of the Low Level Driver.
 492:Src/usbd_conf.c ****   * @param  pdev: Device handle
 493:Src/usbd_conf.c ****   * @param  ep_addr: Endpoint number
 494:Src/usbd_conf.c ****   * @retval USBD status
 495:Src/usbd_conf.c ****   */
 496:Src/usbd_conf.c **** USBD_StatusTypeDef USBD_LL_ClearStallEP(USBD_HandleTypeDef *pdev, uint8_t ep_addr)
 497:Src/usbd_conf.c **** {
 498:Src/usbd_conf.c ****   HAL_StatusTypeDef hal_status = HAL_OK;
 499:Src/usbd_conf.c ****   USBD_StatusTypeDef usb_status = USBD_OK;
 500:Src/usbd_conf.c **** 
 501:Src/usbd_conf.c ****   hal_status = HAL_PCD_EP_ClrStall(pdev->pData, ep_addr);
 502:Src/usbd_conf.c **** 
 503:Src/usbd_conf.c ****   usb_status =  USBD_Get_USB_Status(hal_status);
 504:Src/usbd_conf.c **** 
 505:Src/usbd_conf.c ****   return usb_status;
 506:Src/usbd_conf.c **** }
 507:Src/usbd_conf.c **** 
 508:Src/usbd_conf.c **** /**
 509:Src/usbd_conf.c ****   * @brief  Returns Stall condition.
 510:Src/usbd_conf.c ****   * @param  pdev: Device handle
 511:Src/usbd_conf.c ****   * @param  ep_addr: Endpoint number
 512:Src/usbd_conf.c ****   * @retval Stall (1: Yes, 0: No)
 513:Src/usbd_conf.c ****   */
 514:Src/usbd_conf.c **** uint8_t USBD_LL_IsStallEP(USBD_HandleTypeDef *pdev, uint8_t ep_addr)
 515:Src/usbd_conf.c **** {
 735              		.loc 1 515 1 view -0
 736              		.cfi_startproc
 737              		@ args = 0, pretend = 0, frame = 0
 738              		@ frame_needed = 0, uses_anonymous_args = 0
 739              		@ link register save eliminated.
 516:Src/usbd_conf.c ****   PCD_HandleTypeDef *hpcd = (PCD_HandleTypeDef*) pdev->pData;
 740              		.loc 1 516 3 view .LVU160
 741              		.loc 1 516 22 is_stmt 0 view .LVU161
 742 0000 D0F8C432 		ldr	r3, [r0, #708]
 743              	.LVL62:
 517:Src/usbd_conf.c **** 
 518:Src/usbd_conf.c ****   if((ep_addr & 0x80) == 0x80)
 744              		.loc 1 518 3 is_stmt 1 view .LVU162
 745              		.loc 1 518 5 is_stmt 0 view .LVU163
 746 0004 11F0800F 		tst	r1, #128
 747 0008 08D1     		bne	.L54
 519:Src/usbd_conf.c ****   {
 520:Src/usbd_conf.c ****     return hpcd->IN_ep[ep_addr & 0x7F].is_stall;
 521:Src/usbd_conf.c ****   }
 522:Src/usbd_conf.c ****   else
 523:Src/usbd_conf.c ****   {
 524:Src/usbd_conf.c ****     return hpcd->OUT_ep[ep_addr & 0x7F].is_stall;
ARM GAS  C:\Users\7636~1\AppData\Local\Temp\cc5ssthl.s 			page 24


 748              		.loc 1 524 5 is_stmt 1 view .LVU164
 749              		.loc 1 524 33 is_stmt 0 view .LVU165
 750 000a 01F07F01 		and	r1, r1, #127
 751              	.LVL63:
 752              		.loc 1 524 40 view .LVU166
 753 000e C1EBC101 		rsb	r1, r1, r1, lsl #3
 754 0012 03EB8101 		add	r1, r3, r1, lsl #2
 755 0016 91F8FE01 		ldrb	r0, [r1, #510]	@ zero_extendqisi2
 756              	.LVL64:
 525:Src/usbd_conf.c ****   }
 526:Src/usbd_conf.c **** }
 757              		.loc 1 526 1 view .LVU167
 758 001a 7047     		bx	lr
 759              	.LVL65:
 760              	.L54:
 520:Src/usbd_conf.c ****   }
 761              		.loc 1 520 5 is_stmt 1 view .LVU168
 520:Src/usbd_conf.c ****   }
 762              		.loc 1 520 32 is_stmt 0 view .LVU169
 763 001c 01F07F01 		and	r1, r1, #127
 764              	.LVL66:
 520:Src/usbd_conf.c ****   }
 765              		.loc 1 520 39 view .LVU170
 766 0020 C1EBC101 		rsb	r1, r1, r1, lsl #3
 767 0024 03EB8101 		add	r1, r3, r1, lsl #2
 768 0028 91F83E00 		ldrb	r0, [r1, #62]	@ zero_extendqisi2
 769              	.LVL67:
 520:Src/usbd_conf.c ****   }
 770              		.loc 1 520 39 view .LVU171
 771 002c 7047     		bx	lr
 772              		.cfi_endproc
 773              	.LFE661:
 775              		.section	.text.USBD_LL_GetRxDataSize,"ax",%progbits
 776              		.align	1
 777              		.global	USBD_LL_GetRxDataSize
 778              		.syntax unified
 779              		.thumb
 780              		.thumb_func
 782              	USBD_LL_GetRxDataSize:
 783              	.LVL68:
 784              	.LFB665:
 527:Src/usbd_conf.c **** 
 528:Src/usbd_conf.c **** /**
 529:Src/usbd_conf.c ****   * @brief  Assigns a USB address to the device.
 530:Src/usbd_conf.c ****   * @param  pdev: Device handle
 531:Src/usbd_conf.c ****   * @param  dev_addr: Device address
 532:Src/usbd_conf.c ****   * @retval USBD status
 533:Src/usbd_conf.c ****   */
 534:Src/usbd_conf.c **** USBD_StatusTypeDef USBD_LL_SetUSBAddress(USBD_HandleTypeDef *pdev, uint8_t dev_addr)
 535:Src/usbd_conf.c **** {
 536:Src/usbd_conf.c ****   HAL_StatusTypeDef hal_status = HAL_OK;
 537:Src/usbd_conf.c ****   USBD_StatusTypeDef usb_status = USBD_OK;
 538:Src/usbd_conf.c **** 
 539:Src/usbd_conf.c ****   hal_status = HAL_PCD_SetAddress(pdev->pData, dev_addr);
 540:Src/usbd_conf.c **** 
 541:Src/usbd_conf.c ****   usb_status =  USBD_Get_USB_Status(hal_status);
 542:Src/usbd_conf.c **** 
ARM GAS  C:\Users\7636~1\AppData\Local\Temp\cc5ssthl.s 			page 25


 543:Src/usbd_conf.c ****   return usb_status;
 544:Src/usbd_conf.c **** }
 545:Src/usbd_conf.c **** 
 546:Src/usbd_conf.c **** /**
 547:Src/usbd_conf.c ****   * @brief  Transmits data over an endpoint.
 548:Src/usbd_conf.c ****   * @param  pdev: Device handle
 549:Src/usbd_conf.c ****   * @param  ep_addr: Endpoint number
 550:Src/usbd_conf.c ****   * @param  pbuf: Pointer to data to be sent
 551:Src/usbd_conf.c ****   * @param  size: Data size
 552:Src/usbd_conf.c ****   * @retval USBD status
 553:Src/usbd_conf.c ****   */
 554:Src/usbd_conf.c **** USBD_StatusTypeDef USBD_LL_Transmit(USBD_HandleTypeDef *pdev, uint8_t ep_addr, uint8_t *pbuf, uint3
 555:Src/usbd_conf.c **** {
 556:Src/usbd_conf.c ****   HAL_StatusTypeDef hal_status = HAL_OK;
 557:Src/usbd_conf.c ****   USBD_StatusTypeDef usb_status = USBD_OK;
 558:Src/usbd_conf.c **** 
 559:Src/usbd_conf.c ****   hal_status = HAL_PCD_EP_Transmit(pdev->pData, ep_addr, pbuf, size);
 560:Src/usbd_conf.c **** 
 561:Src/usbd_conf.c ****   usb_status =  USBD_Get_USB_Status(hal_status);
 562:Src/usbd_conf.c **** 
 563:Src/usbd_conf.c ****   return usb_status;
 564:Src/usbd_conf.c **** }
 565:Src/usbd_conf.c **** 
 566:Src/usbd_conf.c **** /**
 567:Src/usbd_conf.c ****   * @brief  Prepares an endpoint for reception.
 568:Src/usbd_conf.c ****   * @param  pdev: Device handle
 569:Src/usbd_conf.c ****   * @param  ep_addr: Endpoint number
 570:Src/usbd_conf.c ****   * @param  pbuf: Pointer to data to be received
 571:Src/usbd_conf.c ****   * @param  size: Data size
 572:Src/usbd_conf.c ****   * @retval USBD status
 573:Src/usbd_conf.c ****   */
 574:Src/usbd_conf.c **** USBD_StatusTypeDef USBD_LL_PrepareReceive(USBD_HandleTypeDef *pdev, uint8_t ep_addr, uint8_t *pbuf,
 575:Src/usbd_conf.c **** {
 576:Src/usbd_conf.c ****   HAL_StatusTypeDef hal_status = HAL_OK;
 577:Src/usbd_conf.c ****   USBD_StatusTypeDef usb_status = USBD_OK;
 578:Src/usbd_conf.c **** 
 579:Src/usbd_conf.c ****   hal_status = HAL_PCD_EP_Receive(pdev->pData, ep_addr, pbuf, size);
 580:Src/usbd_conf.c **** 
 581:Src/usbd_conf.c ****   usb_status =  USBD_Get_USB_Status(hal_status);
 582:Src/usbd_conf.c **** 
 583:Src/usbd_conf.c ****   return usb_status;
 584:Src/usbd_conf.c **** }
 585:Src/usbd_conf.c **** 
 586:Src/usbd_conf.c **** /**
 587:Src/usbd_conf.c ****   * @brief  Returns the last transfered packet size.
 588:Src/usbd_conf.c ****   * @param  pdev: Device handle
 589:Src/usbd_conf.c ****   * @param  ep_addr: Endpoint number
 590:Src/usbd_conf.c ****   * @retval Recived Data Size
 591:Src/usbd_conf.c ****   */
 592:Src/usbd_conf.c **** uint32_t USBD_LL_GetRxDataSize(USBD_HandleTypeDef *pdev, uint8_t ep_addr)
 593:Src/usbd_conf.c **** {
 785              		.loc 1 593 1 is_stmt 1 view -0
 786              		.cfi_startproc
 787              		@ args = 0, pretend = 0, frame = 0
 788              		@ frame_needed = 0, uses_anonymous_args = 0
 789              		.loc 1 593 1 is_stmt 0 view .LVU173
 790 0000 08B5     		push	{r3, lr}
ARM GAS  C:\Users\7636~1\AppData\Local\Temp\cc5ssthl.s 			page 26


 791              	.LCFI17:
 792              		.cfi_def_cfa_offset 8
 793              		.cfi_offset 3, -8
 794              		.cfi_offset 14, -4
 594:Src/usbd_conf.c ****   return HAL_PCD_EP_GetRxCount((PCD_HandleTypeDef*) pdev->pData, ep_addr);
 795              		.loc 1 594 3 is_stmt 1 view .LVU174
 796              		.loc 1 594 10 is_stmt 0 view .LVU175
 797 0002 D0F8C402 		ldr	r0, [r0, #708]
 798              	.LVL69:
 799              		.loc 1 594 10 view .LVU176
 800 0006 FFF7FEFF 		bl	HAL_PCD_EP_GetRxCount
 801              	.LVL70:
 595:Src/usbd_conf.c **** }
 802              		.loc 1 595 1 view .LVU177
 803 000a 08BD     		pop	{r3, pc}
 804              		.cfi_endproc
 805              	.LFE665:
 807              		.section	.text.USBD_static_malloc,"ax",%progbits
 808              		.align	1
 809              		.global	USBD_static_malloc
 810              		.syntax unified
 811              		.thumb
 812              		.thumb_func
 814              	USBD_static_malloc:
 815              	.LVL71:
 816              	.LFB666:
 596:Src/usbd_conf.c **** 
 597:Src/usbd_conf.c **** /**
 598:Src/usbd_conf.c ****   * @brief  Static single allocation.
 599:Src/usbd_conf.c ****   * @param  size: Size of allocated memory
 600:Src/usbd_conf.c ****   * @retval None
 601:Src/usbd_conf.c ****   */
 602:Src/usbd_conf.c **** void *USBD_static_malloc(uint32_t size)
 603:Src/usbd_conf.c **** {
 817              		.loc 1 603 1 is_stmt 1 view -0
 818              		.cfi_startproc
 819              		@ args = 0, pretend = 0, frame = 0
 820              		@ frame_needed = 0, uses_anonymous_args = 0
 821              		@ link register save eliminated.
 604:Src/usbd_conf.c ****   static uint32_t mem[(sizeof(USBD_CDC_HandleTypeDef)/4)+1];/* On 32-bit boundary */
 822              		.loc 1 604 3 view .LVU179
 605:Src/usbd_conf.c ****   return mem;
 823              		.loc 1 605 3 view .LVU180
 606:Src/usbd_conf.c **** }
 824              		.loc 1 606 1 is_stmt 0 view .LVU181
 825 0000 0048     		ldr	r0, .L58
 826              	.LVL72:
 827              		.loc 1 606 1 view .LVU182
 828 0002 7047     		bx	lr
 829              	.L59:
 830              		.align	2
 831              	.L58:
 832 0004 00000000 		.word	.LANCHOR1
 833              		.cfi_endproc
 834              	.LFE666:
 836              		.section	.text.USBD_static_free,"ax",%progbits
 837              		.align	1
ARM GAS  C:\Users\7636~1\AppData\Local\Temp\cc5ssthl.s 			page 27


 838              		.global	USBD_static_free
 839              		.syntax unified
 840              		.thumb
 841              		.thumb_func
 843              	USBD_static_free:
 844              	.LVL73:
 845              	.LFB667:
 607:Src/usbd_conf.c **** 
 608:Src/usbd_conf.c **** /**
 609:Src/usbd_conf.c ****   * @brief  Dummy memory free
 610:Src/usbd_conf.c ****   * @param  p: Pointer to allocated  memory address
 611:Src/usbd_conf.c ****   * @retval None
 612:Src/usbd_conf.c ****   */
 613:Src/usbd_conf.c **** void USBD_static_free(void *p)
 614:Src/usbd_conf.c **** {
 846              		.loc 1 614 1 is_stmt 1 view -0
 847              		.cfi_startproc
 848              		@ args = 0, pretend = 0, frame = 0
 849              		@ frame_needed = 0, uses_anonymous_args = 0
 850              		@ link register save eliminated.
 615:Src/usbd_conf.c **** 
 616:Src/usbd_conf.c **** }
 851              		.loc 1 616 1 view .LVU184
 852 0000 7047     		bx	lr
 853              		.cfi_endproc
 854              	.LFE667:
 856              		.section	.text.USBD_LL_Delay,"ax",%progbits
 857              		.align	1
 858              		.global	USBD_LL_Delay
 859              		.syntax unified
 860              		.thumb
 861              		.thumb_func
 863              	USBD_LL_Delay:
 864              	.LVL74:
 865              	.LFB668:
 617:Src/usbd_conf.c **** 
 618:Src/usbd_conf.c **** /**
 619:Src/usbd_conf.c ****   * @brief  Delays routine for the USB Device Library.
 620:Src/usbd_conf.c ****   * @param  Delay: Delay in ms
 621:Src/usbd_conf.c ****   * @retval None
 622:Src/usbd_conf.c ****   */
 623:Src/usbd_conf.c **** void USBD_LL_Delay(uint32_t Delay)
 624:Src/usbd_conf.c **** {
 866              		.loc 1 624 1 view -0
 867              		.cfi_startproc
 868              		@ args = 0, pretend = 0, frame = 0
 869              		@ frame_needed = 0, uses_anonymous_args = 0
 870              		.loc 1 624 1 is_stmt 0 view .LVU186
 871 0000 08B5     		push	{r3, lr}
 872              	.LCFI18:
 873              		.cfi_def_cfa_offset 8
 874              		.cfi_offset 3, -8
 875              		.cfi_offset 14, -4
 625:Src/usbd_conf.c ****   HAL_Delay(Delay);
 876              		.loc 1 625 3 is_stmt 1 view .LVU187
 877 0002 FFF7FEFF 		bl	HAL_Delay
 878              	.LVL75:
ARM GAS  C:\Users\7636~1\AppData\Local\Temp\cc5ssthl.s 			page 28


 626:Src/usbd_conf.c **** }
 879              		.loc 1 626 1 is_stmt 0 view .LVU188
 880 0006 08BD     		pop	{r3, pc}
 881              		.cfi_endproc
 882              	.LFE668:
 884              		.section	.text.USBD_Get_USB_Status,"ax",%progbits
 885              		.align	1
 886              		.global	USBD_Get_USB_Status
 887              		.syntax unified
 888              		.thumb
 889              		.thumb_func
 891              	USBD_Get_USB_Status:
 892              	.LVL76:
 893              	.LFB669:
 627:Src/usbd_conf.c **** 
 628:Src/usbd_conf.c **** /**
 629:Src/usbd_conf.c ****   * @brief  Retuns the USB status depending on the HAL status:
 630:Src/usbd_conf.c ****   * @param  hal_status: HAL status
 631:Src/usbd_conf.c ****   * @retval USB status
 632:Src/usbd_conf.c ****   */
 633:Src/usbd_conf.c **** USBD_StatusTypeDef USBD_Get_USB_Status(HAL_StatusTypeDef hal_status)
 634:Src/usbd_conf.c **** {
 894              		.loc 1 634 1 is_stmt 1 view -0
 895              		.cfi_startproc
 896              		@ args = 0, pretend = 0, frame = 0
 897              		@ frame_needed = 0, uses_anonymous_args = 0
 898              		@ link register save eliminated.
 635:Src/usbd_conf.c ****   USBD_StatusTypeDef usb_status = USBD_OK;
 899              		.loc 1 635 3 view .LVU190
 636:Src/usbd_conf.c **** 
 637:Src/usbd_conf.c ****   switch (hal_status)
 900              		.loc 1 637 3 view .LVU191
 901 0000 0328     		cmp	r0, #3
 902 0002 05D8     		bhi	.L69
 903 0004 DFE800F0 		tbb	[pc, r0]
 904              	.L66:
 905 0008 05       		.byte	(.L64-.L66)/2
 906 0009 04       		.byte	(.L69-.L66)/2
 907 000a 02       		.byte	(.L67-.L66)/2
 908 000b 05       		.byte	(.L64-.L66)/2
 909              		.p2align 1
 910              	.L67:
 638:Src/usbd_conf.c ****   {
 639:Src/usbd_conf.c ****     case HAL_OK :
 640:Src/usbd_conf.c ****       usb_status = USBD_OK;
 641:Src/usbd_conf.c ****     break;
 642:Src/usbd_conf.c ****     case HAL_ERROR :
 643:Src/usbd_conf.c ****       usb_status = USBD_FAIL;
 644:Src/usbd_conf.c ****     break;
 645:Src/usbd_conf.c ****     case HAL_BUSY :
 646:Src/usbd_conf.c ****       usb_status = USBD_BUSY;
 911              		.loc 1 646 7 view .LVU192
 912              	.LVL77:
 647:Src/usbd_conf.c ****     break;
 913              		.loc 1 647 5 view .LVU193
 646:Src/usbd_conf.c ****     break;
 914              		.loc 1 646 18 is_stmt 0 view .LVU194
ARM GAS  C:\Users\7636~1\AppData\Local\Temp\cc5ssthl.s 			page 29


 915 000c 0120     		movs	r0, #1
 916              	.LVL78:
 917              		.loc 1 647 5 view .LVU195
 918 000e 7047     		bx	lr
 919              	.LVL79:
 920              	.L69:
 643:Src/usbd_conf.c ****     break;
 921              		.loc 1 643 18 view .LVU196
 922 0010 0320     		movs	r0, #3
 923              	.LVL80:
 924              	.L64:
 648:Src/usbd_conf.c ****     case HAL_TIMEOUT :
 649:Src/usbd_conf.c ****       usb_status = USBD_FAIL;
 650:Src/usbd_conf.c ****     break;
 651:Src/usbd_conf.c ****     default :
 652:Src/usbd_conf.c ****       usb_status = USBD_FAIL;
 653:Src/usbd_conf.c ****     break;
 654:Src/usbd_conf.c ****   }
 655:Src/usbd_conf.c ****   return usb_status;
 925              		.loc 1 655 3 is_stmt 1 view .LVU197
 656:Src/usbd_conf.c **** }
 926              		.loc 1 656 1 is_stmt 0 view .LVU198
 927 0012 7047     		bx	lr
 928              		.cfi_endproc
 929              	.LFE669:
 931              		.section	.text.USBD_LL_DeInit,"ax",%progbits
 932              		.align	1
 933              		.global	USBD_LL_DeInit
 934              		.syntax unified
 935              		.thumb
 936              		.thumb_func
 938              	USBD_LL_DeInit:
 939              	.LVL81:
 940              	.LFB653:
 371:Src/usbd_conf.c ****   HAL_StatusTypeDef hal_status = HAL_OK;
 941              		.loc 1 371 1 is_stmt 1 view -0
 942              		.cfi_startproc
 943              		@ args = 0, pretend = 0, frame = 0
 944              		@ frame_needed = 0, uses_anonymous_args = 0
 371:Src/usbd_conf.c ****   HAL_StatusTypeDef hal_status = HAL_OK;
 945              		.loc 1 371 1 is_stmt 0 view .LVU200
 946 0000 08B5     		push	{r3, lr}
 947              	.LCFI19:
 948              		.cfi_def_cfa_offset 8
 949              		.cfi_offset 3, -8
 950              		.cfi_offset 14, -4
 372:Src/usbd_conf.c ****   USBD_StatusTypeDef usb_status = USBD_OK;
 951              		.loc 1 372 3 is_stmt 1 view .LVU201
 952              	.LVL82:
 373:Src/usbd_conf.c **** 
 953              		.loc 1 373 3 view .LVU202
 375:Src/usbd_conf.c **** 
 954              		.loc 1 375 3 view .LVU203
 375:Src/usbd_conf.c **** 
 955              		.loc 1 375 16 is_stmt 0 view .LVU204
 956 0002 D0F8C402 		ldr	r0, [r0, #708]
 957              	.LVL83:
ARM GAS  C:\Users\7636~1\AppData\Local\Temp\cc5ssthl.s 			page 30


 375:Src/usbd_conf.c **** 
 958              		.loc 1 375 16 view .LVU205
 959 0006 FFF7FEFF 		bl	HAL_PCD_DeInit
 960              	.LVL84:
 377:Src/usbd_conf.c **** 
 961              		.loc 1 377 3 is_stmt 1 view .LVU206
 377:Src/usbd_conf.c **** 
 962              		.loc 1 377 17 is_stmt 0 view .LVU207
 963 000a FFF7FEFF 		bl	USBD_Get_USB_Status
 964              	.LVL85:
 379:Src/usbd_conf.c **** }
 965              		.loc 1 379 3 is_stmt 1 view .LVU208
 380:Src/usbd_conf.c **** 
 966              		.loc 1 380 1 is_stmt 0 view .LVU209
 967 000e 08BD     		pop	{r3, pc}
 968              		.cfi_endproc
 969              	.LFE653:
 971              		.section	.text.USBD_LL_Start,"ax",%progbits
 972              		.align	1
 973              		.global	USBD_LL_Start
 974              		.syntax unified
 975              		.thumb
 976              		.thumb_func
 978              	USBD_LL_Start:
 979              	.LVL86:
 980              	.LFB654:
 388:Src/usbd_conf.c ****   HAL_StatusTypeDef hal_status = HAL_OK;
 981              		.loc 1 388 1 is_stmt 1 view -0
 982              		.cfi_startproc
 983              		@ args = 0, pretend = 0, frame = 0
 984              		@ frame_needed = 0, uses_anonymous_args = 0
 388:Src/usbd_conf.c ****   HAL_StatusTypeDef hal_status = HAL_OK;
 985              		.loc 1 388 1 is_stmt 0 view .LVU211
 986 0000 08B5     		push	{r3, lr}
 987              	.LCFI20:
 988              		.cfi_def_cfa_offset 8
 989              		.cfi_offset 3, -8
 990              		.cfi_offset 14, -4
 389:Src/usbd_conf.c ****   USBD_StatusTypeDef usb_status = USBD_OK;
 991              		.loc 1 389 3 is_stmt 1 view .LVU212
 992              	.LVL87:
 390:Src/usbd_conf.c **** 
 993              		.loc 1 390 3 view .LVU213
 392:Src/usbd_conf.c **** 
 994              		.loc 1 392 3 view .LVU214
 392:Src/usbd_conf.c **** 
 995              		.loc 1 392 16 is_stmt 0 view .LVU215
 996 0002 D0F8C402 		ldr	r0, [r0, #708]
 997              	.LVL88:
 392:Src/usbd_conf.c **** 
 998              		.loc 1 392 16 view .LVU216
 999 0006 FFF7FEFF 		bl	HAL_PCD_Start
 1000              	.LVL89:
 394:Src/usbd_conf.c **** 
 1001              		.loc 1 394 3 is_stmt 1 view .LVU217
 394:Src/usbd_conf.c **** 
 1002              		.loc 1 394 17 is_stmt 0 view .LVU218
ARM GAS  C:\Users\7636~1\AppData\Local\Temp\cc5ssthl.s 			page 31


 1003 000a FFF7FEFF 		bl	USBD_Get_USB_Status
 1004              	.LVL90:
 396:Src/usbd_conf.c **** }
 1005              		.loc 1 396 3 is_stmt 1 view .LVU219
 397:Src/usbd_conf.c **** 
 1006              		.loc 1 397 1 is_stmt 0 view .LVU220
 1007 000e 08BD     		pop	{r3, pc}
 1008              		.cfi_endproc
 1009              	.LFE654:
 1011              		.section	.text.USBD_LL_Stop,"ax",%progbits
 1012              		.align	1
 1013              		.global	USBD_LL_Stop
 1014              		.syntax unified
 1015              		.thumb
 1016              		.thumb_func
 1018              	USBD_LL_Stop:
 1019              	.LVL91:
 1020              	.LFB655:
 405:Src/usbd_conf.c ****   HAL_StatusTypeDef hal_status = HAL_OK;
 1021              		.loc 1 405 1 is_stmt 1 view -0
 1022              		.cfi_startproc
 1023              		@ args = 0, pretend = 0, frame = 0
 1024              		@ frame_needed = 0, uses_anonymous_args = 0
 405:Src/usbd_conf.c ****   HAL_StatusTypeDef hal_status = HAL_OK;
 1025              		.loc 1 405 1 is_stmt 0 view .LVU222
 1026 0000 08B5     		push	{r3, lr}
 1027              	.LCFI21:
 1028              		.cfi_def_cfa_offset 8
 1029              		.cfi_offset 3, -8
 1030              		.cfi_offset 14, -4
 406:Src/usbd_conf.c ****   USBD_StatusTypeDef usb_status = USBD_OK;
 1031              		.loc 1 406 3 is_stmt 1 view .LVU223
 1032              	.LVL92:
 407:Src/usbd_conf.c **** 
 1033              		.loc 1 407 3 view .LVU224
 409:Src/usbd_conf.c **** 
 1034              		.loc 1 409 3 view .LVU225
 409:Src/usbd_conf.c **** 
 1035              		.loc 1 409 16 is_stmt 0 view .LVU226
 1036 0002 D0F8C402 		ldr	r0, [r0, #708]
 1037              	.LVL93:
 409:Src/usbd_conf.c **** 
 1038              		.loc 1 409 16 view .LVU227
 1039 0006 FFF7FEFF 		bl	HAL_PCD_Stop
 1040              	.LVL94:
 411:Src/usbd_conf.c **** 
 1041              		.loc 1 411 3 is_stmt 1 view .LVU228
 411:Src/usbd_conf.c **** 
 1042              		.loc 1 411 17 is_stmt 0 view .LVU229
 1043 000a FFF7FEFF 		bl	USBD_Get_USB_Status
 1044              	.LVL95:
 413:Src/usbd_conf.c **** }
 1045              		.loc 1 413 3 is_stmt 1 view .LVU230
 414:Src/usbd_conf.c **** 
 1046              		.loc 1 414 1 is_stmt 0 view .LVU231
 1047 000e 08BD     		pop	{r3, pc}
 1048              		.cfi_endproc
ARM GAS  C:\Users\7636~1\AppData\Local\Temp\cc5ssthl.s 			page 32


 1049              	.LFE655:
 1051              		.section	.text.USBD_LL_OpenEP,"ax",%progbits
 1052              		.align	1
 1053              		.global	USBD_LL_OpenEP
 1054              		.syntax unified
 1055              		.thumb
 1056              		.thumb_func
 1058              	USBD_LL_OpenEP:
 1059              	.LVL96:
 1060              	.LFB656:
 425:Src/usbd_conf.c ****   HAL_StatusTypeDef hal_status = HAL_OK;
 1061              		.loc 1 425 1 is_stmt 1 view -0
 1062              		.cfi_startproc
 1063              		@ args = 0, pretend = 0, frame = 0
 1064              		@ frame_needed = 0, uses_anonymous_args = 0
 425:Src/usbd_conf.c ****   HAL_StatusTypeDef hal_status = HAL_OK;
 1065              		.loc 1 425 1 is_stmt 0 view .LVU233
 1066 0000 08B5     		push	{r3, lr}
 1067              	.LCFI22:
 1068              		.cfi_def_cfa_offset 8
 1069              		.cfi_offset 3, -8
 1070              		.cfi_offset 14, -4
 1071 0002 9446     		mov	ip, r2
 1072 0004 1A46     		mov	r2, r3
 1073              	.LVL97:
 426:Src/usbd_conf.c ****   USBD_StatusTypeDef usb_status = USBD_OK;
 1074              		.loc 1 426 3 is_stmt 1 view .LVU234
 427:Src/usbd_conf.c **** 
 1075              		.loc 1 427 3 view .LVU235
 429:Src/usbd_conf.c **** 
 1076              		.loc 1 429 3 view .LVU236
 429:Src/usbd_conf.c **** 
 1077              		.loc 1 429 16 is_stmt 0 view .LVU237
 1078 0006 6346     		mov	r3, ip
 1079              	.LVL98:
 429:Src/usbd_conf.c **** 
 1080              		.loc 1 429 16 view .LVU238
 1081 0008 D0F8C402 		ldr	r0, [r0, #708]
 1082              	.LVL99:
 429:Src/usbd_conf.c **** 
 1083              		.loc 1 429 16 view .LVU239
 1084 000c FFF7FEFF 		bl	HAL_PCD_EP_Open
 1085              	.LVL100:
 431:Src/usbd_conf.c **** 
 1086              		.loc 1 431 3 is_stmt 1 view .LVU240
 431:Src/usbd_conf.c **** 
 1087              		.loc 1 431 17 is_stmt 0 view .LVU241
 1088 0010 FFF7FEFF 		bl	USBD_Get_USB_Status
 1089              	.LVL101:
 433:Src/usbd_conf.c **** }
 1090              		.loc 1 433 3 is_stmt 1 view .LVU242
 434:Src/usbd_conf.c **** 
 1091              		.loc 1 434 1 is_stmt 0 view .LVU243
 1092 0014 08BD     		pop	{r3, pc}
 1093              		.cfi_endproc
 1094              	.LFE656:
 1096              		.section	.text.USBD_LL_CloseEP,"ax",%progbits
ARM GAS  C:\Users\7636~1\AppData\Local\Temp\cc5ssthl.s 			page 33


 1097              		.align	1
 1098              		.global	USBD_LL_CloseEP
 1099              		.syntax unified
 1100              		.thumb
 1101              		.thumb_func
 1103              	USBD_LL_CloseEP:
 1104              	.LVL102:
 1105              	.LFB657:
 443:Src/usbd_conf.c ****   HAL_StatusTypeDef hal_status = HAL_OK;
 1106              		.loc 1 443 1 is_stmt 1 view -0
 1107              		.cfi_startproc
 1108              		@ args = 0, pretend = 0, frame = 0
 1109              		@ frame_needed = 0, uses_anonymous_args = 0
 443:Src/usbd_conf.c ****   HAL_StatusTypeDef hal_status = HAL_OK;
 1110              		.loc 1 443 1 is_stmt 0 view .LVU245
 1111 0000 08B5     		push	{r3, lr}
 1112              	.LCFI23:
 1113              		.cfi_def_cfa_offset 8
 1114              		.cfi_offset 3, -8
 1115              		.cfi_offset 14, -4
 444:Src/usbd_conf.c ****   USBD_StatusTypeDef usb_status = USBD_OK;
 1116              		.loc 1 444 3 is_stmt 1 view .LVU246
 1117              	.LVL103:
 445:Src/usbd_conf.c **** 
 1118              		.loc 1 445 3 view .LVU247
 447:Src/usbd_conf.c **** 
 1119              		.loc 1 447 3 view .LVU248
 447:Src/usbd_conf.c **** 
 1120              		.loc 1 447 16 is_stmt 0 view .LVU249
 1121 0002 D0F8C402 		ldr	r0, [r0, #708]
 1122              	.LVL104:
 447:Src/usbd_conf.c **** 
 1123              		.loc 1 447 16 view .LVU250
 1124 0006 FFF7FEFF 		bl	HAL_PCD_EP_Close
 1125              	.LVL105:
 449:Src/usbd_conf.c **** 
 1126              		.loc 1 449 3 is_stmt 1 view .LVU251
 449:Src/usbd_conf.c **** 
 1127              		.loc 1 449 17 is_stmt 0 view .LVU252
 1128 000a FFF7FEFF 		bl	USBD_Get_USB_Status
 1129              	.LVL106:
 451:Src/usbd_conf.c **** }
 1130              		.loc 1 451 3 is_stmt 1 view .LVU253
 452:Src/usbd_conf.c **** 
 1131              		.loc 1 452 1 is_stmt 0 view .LVU254
 1132 000e 08BD     		pop	{r3, pc}
 1133              		.cfi_endproc
 1134              	.LFE657:
 1136              		.section	.text.USBD_LL_FlushEP,"ax",%progbits
 1137              		.align	1
 1138              		.global	USBD_LL_FlushEP
 1139              		.syntax unified
 1140              		.thumb
 1141              		.thumb_func
 1143              	USBD_LL_FlushEP:
 1144              	.LVL107:
 1145              	.LFB658:
ARM GAS  C:\Users\7636~1\AppData\Local\Temp\cc5ssthl.s 			page 34


 461:Src/usbd_conf.c ****   HAL_StatusTypeDef hal_status = HAL_OK;
 1146              		.loc 1 461 1 is_stmt 1 view -0
 1147              		.cfi_startproc
 1148              		@ args = 0, pretend = 0, frame = 0
 1149              		@ frame_needed = 0, uses_anonymous_args = 0
 461:Src/usbd_conf.c ****   HAL_StatusTypeDef hal_status = HAL_OK;
 1150              		.loc 1 461 1 is_stmt 0 view .LVU256
 1151 0000 08B5     		push	{r3, lr}
 1152              	.LCFI24:
 1153              		.cfi_def_cfa_offset 8
 1154              		.cfi_offset 3, -8
 1155              		.cfi_offset 14, -4
 462:Src/usbd_conf.c ****   USBD_StatusTypeDef usb_status = USBD_OK;
 1156              		.loc 1 462 3 is_stmt 1 view .LVU257
 1157              	.LVL108:
 463:Src/usbd_conf.c **** 
 1158              		.loc 1 463 3 view .LVU258
 465:Src/usbd_conf.c **** 
 1159              		.loc 1 465 3 view .LVU259
 465:Src/usbd_conf.c **** 
 1160              		.loc 1 465 16 is_stmt 0 view .LVU260
 1161 0002 D0F8C402 		ldr	r0, [r0, #708]
 1162              	.LVL109:
 465:Src/usbd_conf.c **** 
 1163              		.loc 1 465 16 view .LVU261
 1164 0006 FFF7FEFF 		bl	HAL_PCD_EP_Flush
 1165              	.LVL110:
 467:Src/usbd_conf.c **** 
 1166              		.loc 1 467 3 is_stmt 1 view .LVU262
 467:Src/usbd_conf.c **** 
 1167              		.loc 1 467 17 is_stmt 0 view .LVU263
 1168 000a FFF7FEFF 		bl	USBD_Get_USB_Status
 1169              	.LVL111:
 469:Src/usbd_conf.c **** }
 1170              		.loc 1 469 3 is_stmt 1 view .LVU264
 470:Src/usbd_conf.c **** 
 1171              		.loc 1 470 1 is_stmt 0 view .LVU265
 1172 000e 08BD     		pop	{r3, pc}
 1173              		.cfi_endproc
 1174              	.LFE658:
 1176              		.section	.text.USBD_LL_StallEP,"ax",%progbits
 1177              		.align	1
 1178              		.global	USBD_LL_StallEP
 1179              		.syntax unified
 1180              		.thumb
 1181              		.thumb_func
 1183              	USBD_LL_StallEP:
 1184              	.LVL112:
 1185              	.LFB659:
 479:Src/usbd_conf.c ****   HAL_StatusTypeDef hal_status = HAL_OK;
 1186              		.loc 1 479 1 is_stmt 1 view -0
 1187              		.cfi_startproc
 1188              		@ args = 0, pretend = 0, frame = 0
 1189              		@ frame_needed = 0, uses_anonymous_args = 0
 479:Src/usbd_conf.c ****   HAL_StatusTypeDef hal_status = HAL_OK;
 1190              		.loc 1 479 1 is_stmt 0 view .LVU267
 1191 0000 08B5     		push	{r3, lr}
ARM GAS  C:\Users\7636~1\AppData\Local\Temp\cc5ssthl.s 			page 35


 1192              	.LCFI25:
 1193              		.cfi_def_cfa_offset 8
 1194              		.cfi_offset 3, -8
 1195              		.cfi_offset 14, -4
 480:Src/usbd_conf.c ****   USBD_StatusTypeDef usb_status = USBD_OK;
 1196              		.loc 1 480 3 is_stmt 1 view .LVU268
 1197              	.LVL113:
 481:Src/usbd_conf.c **** 
 1198              		.loc 1 481 3 view .LVU269
 483:Src/usbd_conf.c **** 
 1199              		.loc 1 483 3 view .LVU270
 483:Src/usbd_conf.c **** 
 1200              		.loc 1 483 16 is_stmt 0 view .LVU271
 1201 0002 D0F8C402 		ldr	r0, [r0, #708]
 1202              	.LVL114:
 483:Src/usbd_conf.c **** 
 1203              		.loc 1 483 16 view .LVU272
 1204 0006 FFF7FEFF 		bl	HAL_PCD_EP_SetStall
 1205              	.LVL115:
 485:Src/usbd_conf.c **** 
 1206              		.loc 1 485 3 is_stmt 1 view .LVU273
 485:Src/usbd_conf.c **** 
 1207              		.loc 1 485 17 is_stmt 0 view .LVU274
 1208 000a FFF7FEFF 		bl	USBD_Get_USB_Status
 1209              	.LVL116:
 487:Src/usbd_conf.c **** }
 1210              		.loc 1 487 3 is_stmt 1 view .LVU275
 488:Src/usbd_conf.c **** 
 1211              		.loc 1 488 1 is_stmt 0 view .LVU276
 1212 000e 08BD     		pop	{r3, pc}
 1213              		.cfi_endproc
 1214              	.LFE659:
 1216              		.section	.text.USBD_LL_ClearStallEP,"ax",%progbits
 1217              		.align	1
 1218              		.global	USBD_LL_ClearStallEP
 1219              		.syntax unified
 1220              		.thumb
 1221              		.thumb_func
 1223              	USBD_LL_ClearStallEP:
 1224              	.LVL117:
 1225              	.LFB660:
 497:Src/usbd_conf.c ****   HAL_StatusTypeDef hal_status = HAL_OK;
 1226              		.loc 1 497 1 is_stmt 1 view -0
 1227              		.cfi_startproc
 1228              		@ args = 0, pretend = 0, frame = 0
 1229              		@ frame_needed = 0, uses_anonymous_args = 0
 497:Src/usbd_conf.c ****   HAL_StatusTypeDef hal_status = HAL_OK;
 1230              		.loc 1 497 1 is_stmt 0 view .LVU278
 1231 0000 08B5     		push	{r3, lr}
 1232              	.LCFI26:
 1233              		.cfi_def_cfa_offset 8
 1234              		.cfi_offset 3, -8
 1235              		.cfi_offset 14, -4
 498:Src/usbd_conf.c ****   USBD_StatusTypeDef usb_status = USBD_OK;
 1236              		.loc 1 498 3 is_stmt 1 view .LVU279
 1237              	.LVL118:
 499:Src/usbd_conf.c **** 
ARM GAS  C:\Users\7636~1\AppData\Local\Temp\cc5ssthl.s 			page 36


 1238              		.loc 1 499 3 view .LVU280
 501:Src/usbd_conf.c **** 
 1239              		.loc 1 501 3 view .LVU281
 501:Src/usbd_conf.c **** 
 1240              		.loc 1 501 16 is_stmt 0 view .LVU282
 1241 0002 D0F8C402 		ldr	r0, [r0, #708]
 1242              	.LVL119:
 501:Src/usbd_conf.c **** 
 1243              		.loc 1 501 16 view .LVU283
 1244 0006 FFF7FEFF 		bl	HAL_PCD_EP_ClrStall
 1245              	.LVL120:
 503:Src/usbd_conf.c **** 
 1246              		.loc 1 503 3 is_stmt 1 view .LVU284
 503:Src/usbd_conf.c **** 
 1247              		.loc 1 503 17 is_stmt 0 view .LVU285
 1248 000a FFF7FEFF 		bl	USBD_Get_USB_Status
 1249              	.LVL121:
 505:Src/usbd_conf.c **** }
 1250              		.loc 1 505 3 is_stmt 1 view .LVU286
 506:Src/usbd_conf.c **** 
 1251              		.loc 1 506 1 is_stmt 0 view .LVU287
 1252 000e 08BD     		pop	{r3, pc}
 1253              		.cfi_endproc
 1254              	.LFE660:
 1256              		.section	.text.USBD_LL_SetUSBAddress,"ax",%progbits
 1257              		.align	1
 1258              		.global	USBD_LL_SetUSBAddress
 1259              		.syntax unified
 1260              		.thumb
 1261              		.thumb_func
 1263              	USBD_LL_SetUSBAddress:
 1264              	.LVL122:
 1265              	.LFB662:
 535:Src/usbd_conf.c ****   HAL_StatusTypeDef hal_status = HAL_OK;
 1266              		.loc 1 535 1 is_stmt 1 view -0
 1267              		.cfi_startproc
 1268              		@ args = 0, pretend = 0, frame = 0
 1269              		@ frame_needed = 0, uses_anonymous_args = 0
 535:Src/usbd_conf.c ****   HAL_StatusTypeDef hal_status = HAL_OK;
 1270              		.loc 1 535 1 is_stmt 0 view .LVU289
 1271 0000 08B5     		push	{r3, lr}
 1272              	.LCFI27:
 1273              		.cfi_def_cfa_offset 8
 1274              		.cfi_offset 3, -8
 1275              		.cfi_offset 14, -4
 536:Src/usbd_conf.c ****   USBD_StatusTypeDef usb_status = USBD_OK;
 1276              		.loc 1 536 3 is_stmt 1 view .LVU290
 1277              	.LVL123:
 537:Src/usbd_conf.c **** 
 1278              		.loc 1 537 3 view .LVU291
 539:Src/usbd_conf.c **** 
 1279              		.loc 1 539 3 view .LVU292
 539:Src/usbd_conf.c **** 
 1280              		.loc 1 539 16 is_stmt 0 view .LVU293
 1281 0002 D0F8C402 		ldr	r0, [r0, #708]
 1282              	.LVL124:
 539:Src/usbd_conf.c **** 
ARM GAS  C:\Users\7636~1\AppData\Local\Temp\cc5ssthl.s 			page 37


 1283              		.loc 1 539 16 view .LVU294
 1284 0006 FFF7FEFF 		bl	HAL_PCD_SetAddress
 1285              	.LVL125:
 541:Src/usbd_conf.c **** 
 1286              		.loc 1 541 3 is_stmt 1 view .LVU295
 541:Src/usbd_conf.c **** 
 1287              		.loc 1 541 17 is_stmt 0 view .LVU296
 1288 000a FFF7FEFF 		bl	USBD_Get_USB_Status
 1289              	.LVL126:
 543:Src/usbd_conf.c **** }
 1290              		.loc 1 543 3 is_stmt 1 view .LVU297
 544:Src/usbd_conf.c **** 
 1291              		.loc 1 544 1 is_stmt 0 view .LVU298
 1292 000e 08BD     		pop	{r3, pc}
 1293              		.cfi_endproc
 1294              	.LFE662:
 1296              		.section	.text.USBD_LL_Transmit,"ax",%progbits
 1297              		.align	1
 1298              		.global	USBD_LL_Transmit
 1299              		.syntax unified
 1300              		.thumb
 1301              		.thumb_func
 1303              	USBD_LL_Transmit:
 1304              	.LVL127:
 1305              	.LFB663:
 555:Src/usbd_conf.c ****   HAL_StatusTypeDef hal_status = HAL_OK;
 1306              		.loc 1 555 1 is_stmt 1 view -0
 1307              		.cfi_startproc
 1308              		@ args = 0, pretend = 0, frame = 0
 1309              		@ frame_needed = 0, uses_anonymous_args = 0
 555:Src/usbd_conf.c ****   HAL_StatusTypeDef hal_status = HAL_OK;
 1310              		.loc 1 555 1 is_stmt 0 view .LVU300
 1311 0000 08B5     		push	{r3, lr}
 1312              	.LCFI28:
 1313              		.cfi_def_cfa_offset 8
 1314              		.cfi_offset 3, -8
 1315              		.cfi_offset 14, -4
 556:Src/usbd_conf.c ****   USBD_StatusTypeDef usb_status = USBD_OK;
 1316              		.loc 1 556 3 is_stmt 1 view .LVU301
 1317              	.LVL128:
 557:Src/usbd_conf.c **** 
 1318              		.loc 1 557 3 view .LVU302
 559:Src/usbd_conf.c **** 
 1319              		.loc 1 559 3 view .LVU303
 559:Src/usbd_conf.c **** 
 1320              		.loc 1 559 16 is_stmt 0 view .LVU304
 1321 0002 D0F8C402 		ldr	r0, [r0, #708]
 1322              	.LVL129:
 559:Src/usbd_conf.c **** 
 1323              		.loc 1 559 16 view .LVU305
 1324 0006 FFF7FEFF 		bl	HAL_PCD_EP_Transmit
 1325              	.LVL130:
 561:Src/usbd_conf.c **** 
 1326              		.loc 1 561 3 is_stmt 1 view .LVU306
 561:Src/usbd_conf.c **** 
 1327              		.loc 1 561 17 is_stmt 0 view .LVU307
 1328 000a FFF7FEFF 		bl	USBD_Get_USB_Status
ARM GAS  C:\Users\7636~1\AppData\Local\Temp\cc5ssthl.s 			page 38


 1329              	.LVL131:
 563:Src/usbd_conf.c **** }
 1330              		.loc 1 563 3 is_stmt 1 view .LVU308
 564:Src/usbd_conf.c **** 
 1331              		.loc 1 564 1 is_stmt 0 view .LVU309
 1332 000e 08BD     		pop	{r3, pc}
 1333              		.cfi_endproc
 1334              	.LFE663:
 1336              		.section	.text.USBD_LL_PrepareReceive,"ax",%progbits
 1337              		.align	1
 1338              		.global	USBD_LL_PrepareReceive
 1339              		.syntax unified
 1340              		.thumb
 1341              		.thumb_func
 1343              	USBD_LL_PrepareReceive:
 1344              	.LVL132:
 1345              	.LFB664:
 575:Src/usbd_conf.c ****   HAL_StatusTypeDef hal_status = HAL_OK;
 1346              		.loc 1 575 1 is_stmt 1 view -0
 1347              		.cfi_startproc
 1348              		@ args = 0, pretend = 0, frame = 0
 1349              		@ frame_needed = 0, uses_anonymous_args = 0
 575:Src/usbd_conf.c ****   HAL_StatusTypeDef hal_status = HAL_OK;
 1350              		.loc 1 575 1 is_stmt 0 view .LVU311
 1351 0000 08B5     		push	{r3, lr}
 1352              	.LCFI29:
 1353              		.cfi_def_cfa_offset 8
 1354              		.cfi_offset 3, -8
 1355              		.cfi_offset 14, -4
 576:Src/usbd_conf.c ****   USBD_StatusTypeDef usb_status = USBD_OK;
 1356              		.loc 1 576 3 is_stmt 1 view .LVU312
 1357              	.LVL133:
 577:Src/usbd_conf.c **** 
 1358              		.loc 1 577 3 view .LVU313
 579:Src/usbd_conf.c **** 
 1359              		.loc 1 579 3 view .LVU314
 579:Src/usbd_conf.c **** 
 1360              		.loc 1 579 16 is_stmt 0 view .LVU315
 1361 0002 D0F8C402 		ldr	r0, [r0, #708]
 1362              	.LVL134:
 579:Src/usbd_conf.c **** 
 1363              		.loc 1 579 16 view .LVU316
 1364 0006 FFF7FEFF 		bl	HAL_PCD_EP_Receive
 1365              	.LVL135:
 581:Src/usbd_conf.c **** 
 1366              		.loc 1 581 3 is_stmt 1 view .LVU317
 581:Src/usbd_conf.c **** 
 1367              		.loc 1 581 17 is_stmt 0 view .LVU318
 1368 000a FFF7FEFF 		bl	USBD_Get_USB_Status
 1369              	.LVL136:
 583:Src/usbd_conf.c **** }
 1370              		.loc 1 583 3 is_stmt 1 view .LVU319
 584:Src/usbd_conf.c **** 
 1371              		.loc 1 584 1 is_stmt 0 view .LVU320
 1372 000e 08BD     		pop	{r3, pc}
 1373              		.cfi_endproc
 1374              	.LFE664:
ARM GAS  C:\Users\7636~1\AppData\Local\Temp\cc5ssthl.s 			page 39


 1376              		.global	hpcd_USB_OTG_FS
 1377              		.section	.bss.hpcd_USB_OTG_FS,"aw",%nobits
 1378              		.align	2
 1379              		.set	.LANCHOR0,. + 0
 1382              	hpcd_USB_OTG_FS:
 1383 0000 00000000 		.space	1032
 1383      00000000 
 1383      00000000 
 1383      00000000 
 1383      00000000 
 1384              		.section	.bss.mem.0,"aw",%nobits
 1385              		.align	2
 1386              		.set	.LANCHOR1,. + 0
 1389              	mem.0:
 1390 0000 00000000 		.space	544
 1390      00000000 
 1390      00000000 
 1390      00000000 
 1390      00000000 
 1391              		.text
 1392              	.Letext0:
 1393              		.file 2 "c:\\arm-none-eabi-gcc\\arm-none-eabi\\include\\machine\\_default_types.h"
 1394              		.file 3 "c:\\arm-none-eabi-gcc\\arm-none-eabi\\include\\sys\\_stdint.h"
 1395              		.file 4 "Drivers/CMSIS/Include/core_cm4.h"
 1396              		.file 5 "Drivers/CMSIS/Device/ST/STM32F4xx/Include/stm32f401xc.h"
 1397              		.file 6 "Drivers/CMSIS/Device/ST/STM32F4xx/Include/stm32f4xx.h"
 1398              		.file 7 "Drivers/STM32F4xx_HAL_Driver/Inc/stm32f4xx_hal_def.h"
 1399              		.file 8 "Drivers/STM32F4xx_HAL_Driver/Inc/stm32f4xx_hal_gpio.h"
 1400              		.file 9 "Drivers/STM32F4xx_HAL_Driver/Inc/stm32f4xx_ll_usb.h"
 1401              		.file 10 "Drivers/STM32F4xx_HAL_Driver/Inc/stm32f4xx_hal_pcd.h"
 1402              		.file 11 "Middlewares/ST/STM32_USB_Device_Library/Core/Inc/usbd_def.h"
 1403              		.file 12 "Drivers/STM32F4xx_HAL_Driver/Inc/stm32f4xx_ll_dma.h"
 1404              		.file 13 "Drivers/STM32F4xx_HAL_Driver/Inc/stm32f4xx_hal.h"
 1405              		.file 14 "Drivers/STM32F4xx_HAL_Driver/Inc/stm32f4xx_hal_pcd_ex.h"
 1406              		.file 15 "Middlewares/ST/STM32_USB_Device_Library/Core/Inc/usbd_core.h"
 1407              		.file 16 "Drivers/STM32F4xx_HAL_Driver/Inc/stm32f4xx_hal_cortex.h"
ARM GAS  C:\Users\7636~1\AppData\Local\Temp\cc5ssthl.s 			page 40

