ARM GAS  C:\Users\7636~1\AppData\Local\Temp\ccdOU2r3.s 			page 1


   1              		.cpu cortex-m4
   2              		.arch armv7e-m
   3              		.fpu fpv4-sp-d16
   4              		.eabi_attribute 27, 1
   5              		.eabi_attribute 28, 1
   6              		.eabi_attribute 20, 1
   7              		.eabi_attribute 21, 1
   8              		.eabi_attribute 23, 3
   9              		.eabi_attribute 24, 1
  10              		.eabi_attribute 25, 1
  11              		.eabi_attribute 26, 1
  12              		.eabi_attribute 30, 1
  13              		.eabi_attribute 34, 1
  14              		.eabi_attribute 18, 4
  15              		.file	"user.cpp"
  16              		.text
  17              		.section	.text._ZL17supervise_indexesPtS_,"ax",%progbits
  18              		.align	1
  19              		.syntax unified
  20              		.thumb
  21              		.thumb_func
  23              	_ZL17supervise_indexesPtS_:
  24              		.fnstart
  25              	.LFB648:
  26              		@ args = 0, pretend = 0, frame = 0
  27              		@ frame_needed = 0, uses_anonymous_args = 0
  28              		@ link register save eliminated.
  29 0000 0288     		ldrh	r2, [r0]
  30 0002 0B88     		ldrh	r3, [r1]
  31 0004 9A42     		cmp	r2, r3
  32 0006 00D0     		beq	.L3
  33              	.L1:
  34 0008 7047     		bx	lr
  35              	.L3:
  36 000a 0023     		movs	r3, #0
  37 000c 0380     		strh	r3, [r0]	@ movhi
  38 000e 0B80     		strh	r3, [r1]	@ movhi
  39 0010 FAE7     		b	.L1
  40              		.cantunwind
  41              		.fnend
  43              		.section	.text._ZL11send_outputj,"ax",%progbits
  44              		.align	1
  45              		.syntax unified
  46              		.thumb
  47              		.thumb_func
  49              	_ZL11send_outputj:
  50              		.fnstart
  51              	.LFB650:
  52              		@ args = 0, pretend = 0, frame = 0
  53              		@ frame_needed = 0, uses_anonymous_args = 0
  54 0000 08B5     		push	{r3, lr}
  55              		.save {r3, lr}
  56 0002 81B2     		uxth	r1, r0
  57 0004 0148     		ldr	r0, .L6
  58 0006 FFF7FEFF 		bl	CDC_Transmit_FS
  59 000a 08BD     		pop	{r3, pc}
  60              	.L7:
ARM GAS  C:\Users\7636~1\AppData\Local\Temp\ccdOU2r3.s 			page 2


  61              		.align	2
  62              	.L6:
  63 000c 00000000 		.word	.LANCHOR0
  64              		.fnend
  66              		.section	.text._Z41__static_initialization_and_destruction_0ii,"ax",%progbits
  67              		.align	1
  68              		.syntax unified
  69              		.thumb
  70              		.thumb_func
  72              	_Z41__static_initialization_and_destruction_0ii:
  73              		.fnstart
  74              	.LFB665:
  75              		@ args = 0, pretend = 0, frame = 0
  76              		@ frame_needed = 0, uses_anonymous_args = 0
  77 0000 0128     		cmp	r0, #1
  78 0002 00D0     		beq	.L14
  79              	.L11:
  80 0004 7047     		bx	lr
  81              	.L14:
  82 0006 4FF6FF73 		movw	r3, #65535
  83 000a 9942     		cmp	r1, r3
  84 000c FAD1     		bne	.L11
  85 000e 10B5     		push	{r4, lr}
  86 0010 094B     		ldr	r3, .L15
  87 0012 0A4A     		ldr	r2, .L15+4
  88 0014 1A60     		str	r2, [r3]
  89 0016 4FF40052 		mov	r2, #8192
  90 001a 5A60     		str	r2, [r3, #4]
  91 001c 40F20440 		movw	r0, #1028
  92 0020 FFF7FEFF 		bl	_Znwj
  93 0024 0446     		mov	r4, r0
  94 0026 40F20442 		movw	r2, #1028
  95 002a 0021     		movs	r1, #0
  96 002c FFF7FEFF 		bl	memset
  97 0030 034B     		ldr	r3, .L15+8
  98 0032 1C60     		str	r4, [r3]
  99 0034 10BD     		pop	{r4, pc}
 100              	.L16:
 101 0036 00BF     		.align	2
 102              	.L15:
 103 0038 00000000 		.word	.LANCHOR1
 104 003c 00080240 		.word	1073874944
 105 0040 00000000 		.word	.LANCHOR2
 106              		.cantunwind
 107              		.fnend
 109              		.section	.rodata._ZN4user5setupEP19__SPI_HandleTypeDefS1_P17I2C_HandleTypeDef.str1.4,"aMS",%progbi
 110              		.align	2
 111              	.LC0:
 112 0000 48656C6C 		.ascii	"Hello World!\012\000"
 112      6F20576F 
 112      726C6421 
 112      0A00
 113 000e 0000     		.align	2
 114              	.LC1:
 115 0010 50726F62 		.ascii	"Probing ADC modules... \000"
 115      696E6720 
 115      41444320 
ARM GAS  C:\Users\7636~1\AppData\Local\Temp\ccdOU2r3.s 			page 3


 115      6D6F6475 
 115      6C65732E 
 116              		.align	2
 117              	.LC2:
 118 0028 50726F62 		.ascii	"Probing DAC modules... \000"
 118      696E6720 
 118      44414320 
 118      6D6F6475 
 118      6C65732E 
 119              		.section	.text._ZN4user5setupEP19__SPI_HandleTypeDefS1_P17I2C_HandleTypeDef,"ax",%progbits
 120              		.align	1
 121              		.global	_ZN4user5setupEP19__SPI_HandleTypeDefS1_P17I2C_HandleTypeDef
 122              		.syntax unified
 123              		.thumb
 124              		.thumb_func
 126              	_ZN4user5setupEP19__SPI_HandleTypeDefS1_P17I2C_HandleTypeDef:
 127              		.fnstart
 128              	.LFB651:
 129              		@ args = 0, pretend = 0, frame = 24
 130              		@ frame_needed = 0, uses_anonymous_args = 0
 131 0000 F0B5     		push	{r4, r5, r6, r7, lr}
 132              		.save {r4, r5, r6, r7, lr}
 133              		.pad #28
 134 0002 87B0     		sub	sp, sp, #28
 135 0004 0546     		mov	r5, r0
 136 0006 0E46     		mov	r6, r1
 137 0008 1746     		mov	r7, r2
 138              	.L18:
 139 000a FFF7FEFF 		bl	CDC_IsConnected
 140 000e 0028     		cmp	r0, #0
 141 0010 FBD1     		bne	.L18
 142 0012 2148     		ldr	r0, .L20
 143 0014 FFF7FEFF 		bl	CDC_Register_RX_Callback
 144 0018 204B     		ldr	r3, .L20+4
 145 001a 6C46     		mov	r4, sp
 146 001c 0FCB     		ldm	r3, {r0, r1, r2, r3}
 147 001e 07C4     		stmia	r4!, {r0, r1, r2}
 148 0020 2380     		strh	r3, [r4]	@ movhi
 149 0022 0E21     		movs	r1, #14
 150 0024 6846     		mov	r0, sp
 151 0026 FFF7FEFF 		bl	CDC_Transmit_FS
 152 002a 2846     		mov	r0, r5
 153 002c FFF7FEFF 		bl	_ZN3adc4initEP19__SPI_HandleTypeDef
 154 0030 6C46     		mov	r4, sp
 155 0032 1B4D     		ldr	r5, .L20+8
 156 0034 0FCD     		ldmia	r5!, {r0, r1, r2, r3}
 157 0036 0FC4     		stmia	r4!, {r0, r1, r2, r3}
 158 0038 95E80300 		ldm	r5, {r0, r1}
 159 003c 84E80300 		stm	r4, {r0, r1}
 160 0040 1821     		movs	r1, #24
 161 0042 6846     		mov	r0, sp
 162 0044 FFF7FEFF 		bl	CDC_Transmit_FS
 163 0048 FFF7FEFF 		bl	_ZN3adc5probeEv
 164 004c 154D     		ldr	r5, .L20+12
 165 004e 4FF48071 		mov	r1, #256
 166 0052 2846     		mov	r0, r5
 167 0054 FFF7FEFF 		bl	_ZN3adc18dump_module_reportEPcj
ARM GAS  C:\Users\7636~1\AppData\Local\Temp\ccdOU2r3.s 			page 4


 168 0058 FFF7FEFF 		bl	_ZL11send_outputj
 169 005c 3946     		mov	r1, r7
 170 005e 3046     		mov	r0, r6
 171 0060 FFF7FEFF 		bl	_ZN3dac4initEP19__SPI_HandleTypeDefP17I2C_HandleTypeDef
 172 0064 EC46     		mov	ip, sp
 173 0066 104C     		ldr	r4, .L20+16
 174 0068 0FCC     		ldmia	r4!, {r0, r1, r2, r3}
 175 006a ACE80F00 		stmia	ip!, {r0, r1, r2, r3}
 176 006e 94E80300 		ldm	r4, {r0, r1}
 177 0072 8CE80300 		stm	ip, {r0, r1}
 178 0076 1821     		movs	r1, #24
 179 0078 6846     		mov	r0, sp
 180 007a FFF7FEFF 		bl	CDC_Transmit_FS
 181 007e FFF7FEFF 		bl	_ZN3dac5probeEv
 182 0082 4FF48071 		mov	r1, #256
 183 0086 2846     		mov	r0, r5
 184 0088 FFF7FEFF 		bl	_ZN3dac18dump_module_reportEPcj
 185 008c FFF7FEFF 		bl	_ZL11send_outputj
 186 0090 FFF7FEFF 		bl	_ZN3adc18increment_and_syncEv
 187 0094 07B0     		add	sp, sp, #28
 188              		@ sp needed
 189 0096 F0BD     		pop	{r4, r5, r6, r7, pc}
 190              	.L21:
 191              		.align	2
 192              	.L20:
 193 0098 00000000 		.word	_ZL11cdc_receivePhPm
 194 009c 00000000 		.word	.LC0
 195 00a0 10000000 		.word	.LC1
 196 00a4 00000000 		.word	.LANCHOR0
 197 00a8 28000000 		.word	.LC2
 198              		.fnend
 200              		.section	.text._ZN4user6Stream9availableEv,"ax",%progbits
 201              		.align	1
 202              		.global	_ZN4user6Stream9availableEv
 203              		.syntax unified
 204              		.thumb
 205              		.thumb_func
 207              	_ZN4user6Stream9availableEv:
 208              		.fnstart
 209              	.LFB653:
 210              		@ args = 0, pretend = 0, frame = 0
 211              		@ frame_needed = 0, uses_anonymous_args = 0
 212 0000 10B5     		push	{r4, lr}
 213 0002 0446     		mov	r4, r0
 214 0004 0146     		mov	r1, r0
 215 0006 0230     		adds	r0, r0, #2
 216 0008 FFF7FEFF 		bl	_ZL17supervise_indexesPtS_
 217 000c 6388     		ldrh	r3, [r4, #2]
 218 000e 2088     		ldrh	r0, [r4]
 219 0010 C01A     		subs	r0, r0, r3
 220 0012 18BF     		it	ne
 221 0014 0120     		movne	r0, #1
 222 0016 10BD     		pop	{r4, pc}
 223              		.cantunwind
 224              		.fnend
 226              		.section	.text._ZN4user6Stream4readEv,"ax",%progbits
 227              		.align	1
ARM GAS  C:\Users\7636~1\AppData\Local\Temp\ccdOU2r3.s 			page 5


 228              		.global	_ZN4user6Stream4readEv
 229              		.syntax unified
 230              		.thumb
 231              		.thumb_func
 233              	_ZN4user6Stream4readEv:
 234              		.fnstart
 235              	.LFB654:
 236              		@ args = 0, pretend = 0, frame = 0
 237              		@ frame_needed = 0, uses_anonymous_args = 0
 238 0000 10B5     		push	{r4, lr}
 239 0002 0388     		ldrh	r3, [r0]
 240 0004 5A1C     		adds	r2, r3, #1
 241 0006 0280     		strh	r2, [r0]	@ movhi
 242 0008 0344     		add	r3, r3, r0
 243 000a 1C79     		ldrb	r4, [r3, #4]	@ zero_extendqisi2
 244 000c 0146     		mov	r1, r0
 245 000e 0230     		adds	r0, r0, #2
 246 0010 FFF7FEFF 		bl	_ZL17supervise_indexesPtS_
 247 0014 2046     		mov	r0, r4
 248 0016 10BD     		pop	{r4, pc}
 249              		.cantunwind
 250              		.fnend
 252              		.section	.text._ZN4user6Stream5writeEPht,"ax",%progbits
 253              		.align	1
 254              		.global	_ZN4user6Stream5writeEPht
 255              		.syntax unified
 256              		.thumb
 257              		.thumb_func
 259              	_ZN4user6Stream5writeEPht:
 260              		.fnstart
 261              	.LFB656:
 262              		@ args = 0, pretend = 0, frame = 0
 263              		@ frame_needed = 0, uses_anonymous_args = 0
 264 0000 10B5     		push	{r4, lr}
 265              		.save {r4, lr}
 266 0002 0846     		mov	r0, r1
 267 0004 1446     		mov	r4, r2
 268 0006 1146     		mov	r1, r2
 269 0008 FFF7FEFF 		bl	CDC_Transmit_FS
 270 000c 08B1     		cbz	r0, .L28
 271 000e 0020     		movs	r0, #0
 272              	.L27:
 273 0010 10BD     		pop	{r4, pc}
 274              	.L28:
 275 0012 2046     		mov	r0, r4
 276 0014 FCE7     		b	.L27
 277              		.fnend
 279              		.section	.text._ZN4user6Stream17availableForWriteEv,"ax",%progbits
 280              		.align	1
 281              		.global	_ZN4user6Stream17availableForWriteEv
 282              		.syntax unified
 283              		.thumb
 284              		.thumb_func
 286              	_ZN4user6Stream17availableForWriteEv:
 287              		.fnstart
 288              	.LFB657:
 289              		@ args = 0, pretend = 0, frame = 0
ARM GAS  C:\Users\7636~1\AppData\Local\Temp\ccdOU2r3.s 			page 6


 290              		@ frame_needed = 0, uses_anonymous_args = 0
 291 0000 08B5     		push	{r3, lr}
 292              		.save {r3, lr}
 293 0002 FFF7FEFF 		bl	CDC_Can_Transmit
 294 0006 08B9     		cbnz	r0, .L34
 295 0008 0020     		movs	r0, #0
 296              	.L31:
 297 000a 08BD     		pop	{r3, pc}
 298              	.L34:
 299 000c 4FF40070 		mov	r0, #512
 300 0010 FBE7     		b	.L31
 301              		.fnend
 303              		.section	.text._ZN4user6microsEv,"ax",%progbits
 304              		.align	1
 305              		.global	_ZN4user6microsEv
 306              		.syntax unified
 307              		.thumb
 308              		.thumb_func
 310              	_ZN4user6microsEv:
 311              		.fnstart
 312              	.LFB659:
 313              		@ args = 0, pretend = 0, frame = 0
 314              		@ frame_needed = 0, uses_anonymous_args = 0
 315              		@ link register save eliminated.
 316 0000 014B     		ldr	r3, .L36
 317 0002 586A     		ldr	r0, [r3, #36]
 318 0004 7047     		bx	lr
 319              	.L37:
 320 0006 00BF     		.align	2
 321              	.L36:
 322 0008 000C0040 		.word	1073744896
 323              		.cantunwind
 324              		.fnend
 326              		.global	__aeabi_f2d
 327              		.global	__aeabi_dadd
 328              		.global	__aeabi_d2f
 329              		.section	.text._ZN4user4mainEv,"ax",%progbits
 330              		.align	1
 331              		.global	_ZN4user4mainEv
 332              		.syntax unified
 333              		.thumb
 334              		.thumb_func
 336              	_ZN4user4mainEv:
 337              		.fnstart
 338              	.LFB652:
 339              		@ args = 0, pretend = 0, frame = 0
 340              		@ frame_needed = 0, uses_anonymous_args = 0
 341 0000 10B5     		push	{r4, lr}
 342              		.save {r4, lr}
 343 0002 FFF7FEFF 		bl	_ZN4user6microsEv
 344 0006 FFF7FEFF 		bl	_ZN3adc10drdy_checkEv
 345 000a 2D4B     		ldr	r3, .L47+8
 346 000c 1B78     		ldrb	r3, [r3]	@ zero_extendqisi2
 347 000e DBB2     		uxtb	r3, r3
 348 0010 022B     		cmp	r3, #2
 349 0012 1ED0     		beq	.L45
 350              	.L39:
ARM GAS  C:\Users\7636~1\AppData\Local\Temp\ccdOU2r3.s 			page 7


 351 0014 FFF7FEFF 		bl	_ZN4user6microsEv
 352 0018 0446     		mov	r4, r0
 353 001a 2A4B     		ldr	r3, .L47+12
 354 001c 1B68     		ldr	r3, [r3]
 355 001e C31A     		subs	r3, r0, r3
 356 0020 294A     		ldr	r2, .L47+16
 357 0022 9342     		cmp	r3, r2
 358 0024 21D8     		bhi	.L46
 359              	.L40:
 360 0026 FFF7FEFF 		bl	_ZN4user6microsEv
 361 002a 284B     		ldr	r3, .L47+20
 362 002c 1B68     		ldr	r3, [r3]
 363 002e C31A     		subs	r3, r0, r3
 364 0030 274A     		ldr	r2, .L47+24
 365 0032 9342     		cmp	r3, r2
 366 0034 0CD9     		bls	.L38
 367 0036 274B     		ldr	r3, .L47+28
 368 0038 1A68     		ldr	r2, [r3]
 369 003a 5B68     		ldr	r3, [r3, #4]
 370 003c 5169     		ldr	r1, [r2, #20]
 371 003e 03EA0104 		and	r4, r3, r1
 372 0042 23EA0103 		bic	r3, r3, r1
 373 0046 43EA0443 		orr	r3, r3, r4, lsl #16
 374 004a 9361     		str	r3, [r2, #24]
 375 004c 1F4B     		ldr	r3, .L47+20
 376 004e 1860     		str	r0, [r3]
 377              	.L38:
 378 0050 10BD     		pop	{r4, pc}
 379              	.L45:
 380 0052 FFF7FEFF 		bl	_ZN3adc4readEv
 381 0056 FFF7FEFF 		bl	_ZN3adc18increment_and_syncEv
 382 005a 4FF48071 		mov	r1, #256
 383 005e 1E48     		ldr	r0, .L47+32
 384 0060 FFF7FEFF 		bl	_ZN3adc14dump_last_dataEPcj
 385 0064 FFF7FEFF 		bl	_ZL11send_outputj
 386 0068 D4E7     		b	.L39
 387              	.L46:
 388 006a FFF7FEFF 		bl	_ZN3dac12read_currentEv
 389 006e 4FF48071 		mov	r1, #256
 390 0072 1948     		ldr	r0, .L47+32
 391 0074 FFF7FEFF 		bl	_ZN3dac18dump_last_currentsEPcj
 392 0078 FFF7FEFF 		bl	_ZL11send_outputj
 393 007c 174B     		ldr	r3, .L47+36
 394 007e 5869     		ldr	r0, [r3, #20]	@ float
 395 0080 FFF7FEFF 		bl	__aeabi_f2d
 396 0084 0CA3     		adr	r3, .L47
 397 0086 D3E90023 		ldrd	r2, [r3]
 398 008a FFF7FEFF 		bl	__aeabi_dadd
 399 008e FFF7FEFF 		bl	__aeabi_d2f
 400 0092 00EE100A 		vmov	s0, r0
 401 0096 F0EE047A 		vmov.f32	s15, #2.5e+0
 402 009a B4EEE70A 		vcmpe.f32	s0, s15
 403 009e F1EE10FA 		vmrs	APSR_nzcv, FPSCR
 404 00a2 01DD     		ble	.L41
 405 00a4 9FED0E0A 		vldr.32	s0, .L47+40
 406              	.L41:
 407 00a8 FFF7FEFF 		bl	_ZN3dac7set_allEf
ARM GAS  C:\Users\7636~1\AppData\Local\Temp\ccdOU2r3.s 			page 8


 408 00ac 054B     		ldr	r3, .L47+12
 409 00ae 1C60     		str	r4, [r3]
 410 00b0 B9E7     		b	.L40
 411              	.L48:
 412 00b2 00BFAFF3 		.align	3
 412      0080
 413              	.L47:
 414 00b8 9A999999 		.word	-1717986918
 415 00bc 9999C93F 		.word	1070176665
 416 00c0 00000000 		.word	_ZN3adc6statusE
 417 00c4 00000000 		.word	.LANCHOR3
 418 00c8 80969800 		.word	10000000
 419 00cc 00000000 		.word	.LANCHOR4
 420 00d0 40420F00 		.word	1000000
 421 00d4 00000000 		.word	.LANCHOR1
 422 00d8 00000000 		.word	.LANCHOR0
 423 00dc 00000000 		.word	_ZN3dac7modulesE
 424 00e0 00000000 		.word	0
 425              		.fnend
 427              		.section	.text._ZN4user12digitalWriteENS_5pin_tEh,"ax",%progbits
 428              		.align	1
 429              		.global	_ZN4user12digitalWriteENS_5pin_tEh
 430              		.syntax unified
 431              		.thumb
 432              		.thumb_func
 434              	_ZN4user12digitalWriteENS_5pin_tEh:
 435              		.fnstart
 436              	.LFB660:
 437              		@ args = 0, pretend = 0, frame = 8
 438              		@ frame_needed = 0, uses_anonymous_args = 0
 439              		@ link register save eliminated.
 440 0000 82B0     		sub	sp, sp, #8
 441 0002 02AB     		add	r3, sp, #8
 442 0004 03E90300 		stmdb	r3, {r0, r1}
 443 0008 12B1     		cbz	r2, .L50
 444 000a 8161     		str	r1, [r0, #24]
 445              	.L49:
 446 000c 02B0     		add	sp, sp, #8
 447              		@ sp needed
 448 000e 7047     		bx	lr
 449              	.L50:
 450 0010 019B     		ldr	r3, [sp, #4]
 451 0012 1B04     		lsls	r3, r3, #16
 452 0014 009A     		ldr	r2, [sp]
 453 0016 9361     		str	r3, [r2, #24]
 454 0018 F8E7     		b	.L49
 455              		.cantunwind
 456              		.fnend
 458              		.section	.text._ZN4user7pinModeENS_5pin_tEh,"ax",%progbits
 459              		.align	1
 460              		.global	_ZN4user7pinModeENS_5pin_tEh
 461              		.syntax unified
 462              		.thumb
 463              		.thumb_func
 465              	_ZN4user7pinModeENS_5pin_tEh:
 466              		.fnstart
 467              	.LFB661:
ARM GAS  C:\Users\7636~1\AppData\Local\Temp\ccdOU2r3.s 			page 9


 468              		@ args = 0, pretend = 0, frame = 8
 469              		@ frame_needed = 0, uses_anonymous_args = 0
 470              		@ link register save eliminated.
 471 0000 82B0     		sub	sp, sp, #8
 472 0002 02AB     		add	r3, sp, #8
 473 0004 03E90300 		stmdb	r3, {r0, r1}
 474 0008 012A     		cmp	r2, #1
 475 000a 01D0     		beq	.L56
 476              	.L53:
 477 000c 02B0     		add	sp, sp, #8
 478              		@ sp needed
 479 000e 7047     		bx	lr
 480              	.L56:
 481 0010 0B46     		mov	r3, r1
 482 0012 0268     		ldr	r2, [r0]
 483              		.syntax unified
 484              	@ 988 "Drivers/CMSIS/Include/cmsis_gcc.h" 1
 485 0014 91FAA1F1 		rbit r1, r1
 486              	@ 0 "" 2
 487              		.thumb
 488              		.syntax unified
 489 0018 B1FA81F1 		clz	r1, r1
 490 001c 4900     		lsls	r1, r1, #1
 491 001e 4FF0030C 		mov	ip, #3
 492 0022 0CFA01F1 		lsl	r1, ip, r1
 493 0026 22EA0102 		bic	r2, r2, r1
 494              		.syntax unified
 495              	@ 988 "Drivers/CMSIS/Include/cmsis_gcc.h" 1
 496 002a 93FAA3F3 		rbit r3, r3
 497              	@ 0 "" 2
 498              		.thumb
 499              		.syntax unified
 500 002e B3FA83F3 		clz	r3, r3
 501 0032 5B00     		lsls	r3, r3, #1
 502 0034 0121     		movs	r1, #1
 503 0036 01FA03F3 		lsl	r3, r1, r3
 504 003a 1343     		orrs	r3, r3, r2
 505 003c 0360     		str	r3, [r0]
 506 003e E5E7     		b	.L53
 507              		.cantunwind
 508              		.fnend
 510              		.section	.text._ZN4user3minEii,"ax",%progbits
 511              		.align	1
 512              		.global	_ZN4user3minEii
 513              		.syntax unified
 514              		.thumb
 515              		.thumb_func
 517              	_ZN4user3minEii:
 518              		.fnstart
 519              	.LFB662:
 520              		@ args = 0, pretend = 0, frame = 0
 521              		@ frame_needed = 0, uses_anonymous_args = 0
 522              		@ link register save eliminated.
 523 0000 0346     		mov	r3, r0
 524 0002 0846     		mov	r0, r1
 525 0004 8B42     		cmp	r3, r1
 526 0006 00DA     		bge	.L58
ARM GAS  C:\Users\7636~1\AppData\Local\Temp\ccdOU2r3.s 			page 10


 527 0008 1846     		mov	r0, r3
 528              	.L58:
 529 000a 7047     		bx	lr
 530              		.cantunwind
 531              		.fnend
 533              		.section	.text._ZN4user6Stream9readBytesEPht,"ax",%progbits
 534              		.align	1
 535              		.global	_ZN4user6Stream9readBytesEPht
 536              		.syntax unified
 537              		.thumb
 538              		.thumb_func
 540              	_ZN4user6Stream9readBytesEPht:
 541              		.fnstart
 542              	.LFB655:
 543              		@ args = 0, pretend = 0, frame = 0
 544              		@ frame_needed = 0, uses_anonymous_args = 0
 545 0000 70B5     		push	{r4, r5, r6, lr}
 546 0002 0446     		mov	r4, r0
 547 0004 0D46     		mov	r5, r1
 548 0006 4188     		ldrh	r1, [r0, #2]
 549 0008 0388     		ldrh	r3, [r0]
 550 000a C91A     		subs	r1, r1, r3
 551 000c 1046     		mov	r0, r2
 552 000e FFF7FEFF 		bl	_ZN4user3minEii
 553 0012 86B2     		uxth	r6, r0
 554 0014 0022     		movs	r2, #0
 555 0016 06E0     		b	.L61
 556              	.L63:
 557 0018 2388     		ldrh	r3, [r4]
 558 001a 591C     		adds	r1, r3, #1
 559 001c 2180     		strh	r1, [r4]	@ movhi
 560 001e 2344     		add	r3, r3, r4
 561 0020 1B79     		ldrb	r3, [r3, #4]	@ zero_extendqisi2
 562 0022 AB54     		strb	r3, [r5, r2]
 563 0024 0132     		adds	r2, r2, #1
 564              	.L61:
 565 0026 83B2     		uxth	r3, r0
 566 0028 9342     		cmp	r3, r2
 567 002a F5D8     		bhi	.L63
 568 002c 2146     		mov	r1, r4
 569 002e A01C     		adds	r0, r4, #2
 570 0030 FFF7FEFF 		bl	_ZL17supervise_indexesPtS_
 571 0034 3046     		mov	r0, r6
 572 0036 70BD     		pop	{r4, r5, r6, pc}
 573              		.cantunwind
 574              		.fnend
 576              		.section	.text._ZN4user6Stream7receiveEPht,"ax",%progbits
 577              		.align	1
 578              		.global	_ZN4user6Stream7receiveEPht
 579              		.syntax unified
 580              		.thumb
 581              		.thumb_func
 583              	_ZN4user6Stream7receiveEPht:
 584              		.fnstart
 585              	.LFB658:
 586              		@ args = 0, pretend = 0, frame = 0
 587              		@ frame_needed = 0, uses_anonymous_args = 0
ARM GAS  C:\Users\7636~1\AppData\Local\Temp\ccdOU2r3.s 			page 11


 588 0000 70B5     		push	{r4, r5, r6, lr}
 589 0002 0446     		mov	r4, r0
 590 0004 0D46     		mov	r5, r1
 591 0006 1646     		mov	r6, r2
 592 0008 0146     		mov	r1, r0
 593 000a 0230     		adds	r0, r0, #2
 594 000c FFF7FEFF 		bl	_ZL17supervise_indexesPtS_
 595 0010 6188     		ldrh	r1, [r4, #2]
 596 0012 C1F58061 		rsb	r1, r1, #1024
 597 0016 3046     		mov	r0, r6
 598 0018 FFF7FEFF 		bl	_ZN4user3minEii
 599 001c 0022     		movs	r2, #0
 600 001e 0AE0     		b	.L66
 601              	.L68:
 602 0020 6388     		ldrh	r3, [r4, #2]
 603 0022 03F1010C 		add	ip, r3, #1
 604 0026 A4F802C0 		strh	ip, [r4, #2]	@ movhi
 605 002a 15F802C0 		ldrb	ip, [r5, r2]	@ zero_extendqisi2
 606 002e 2344     		add	r3, r3, r4
 607 0030 83F804C0 		strb	ip, [r3, #4]
 608 0034 0132     		adds	r2, r2, #1
 609              	.L66:
 610 0036 83B2     		uxth	r3, r0
 611 0038 9342     		cmp	r3, r2
 612 003a F1D8     		bhi	.L68
 613 003c 70BD     		pop	{r4, r5, r6, pc}
 614              		.cantunwind
 615              		.fnend
 617              		.section	.text._ZL11cdc_receivePhPm,"ax",%progbits
 618              		.align	1
 619              		.syntax unified
 620              		.thumb
 621              		.thumb_func
 623              	_ZL11cdc_receivePhPm:
 624              		.fnstart
 625              	.LFB649:
 626              		@ args = 0, pretend = 0, frame = 0
 627              		@ frame_needed = 0, uses_anonymous_args = 0
 628 0000 08B5     		push	{r3, lr}
 629 0002 0A88     		ldrh	r2, [r1]
 630 0004 0146     		mov	r1, r0
 631 0006 024B     		ldr	r3, .L71
 632 0008 1868     		ldr	r0, [r3]
 633 000a FFF7FEFF 		bl	_ZN4user6Stream7receiveEPht
 634 000e 08BD     		pop	{r3, pc}
 635              	.L72:
 636              		.align	2
 637              	.L71:
 638 0010 00000000 		.word	.LANCHOR2
 639              		.cantunwind
 640              		.fnend
 642              		.section	.text._ZN4user4wordEhh,"ax",%progbits
 643              		.align	1
 644              		.global	_ZN4user4wordEhh
 645              		.syntax unified
 646              		.thumb
 647              		.thumb_func
ARM GAS  C:\Users\7636~1\AppData\Local\Temp\ccdOU2r3.s 			page 12


 649              	_ZN4user4wordEhh:
 650              		.fnstart
 651              	.LFB663:
 652              		@ args = 0, pretend = 0, frame = 0
 653              		@ frame_needed = 0, uses_anonymous_args = 0
 654              		@ link register save eliminated.
 655 0000 41EA0020 		orr	r0, r1, r0, lsl #8
 656 0004 7047     		bx	lr
 657              		.cantunwind
 658              		.fnend
 660              		.section	.text._GLOBAL__sub_I_output_buf,"ax",%progbits
 661              		.align	1
 662              		.syntax unified
 663              		.thumb
 664              		.thumb_func
 666              	_GLOBAL__sub_I_output_buf:
 667              		.fnstart
 668              	.LFB666:
 669              		@ args = 0, pretend = 0, frame = 0
 670              		@ frame_needed = 0, uses_anonymous_args = 0
 671 0000 08B5     		push	{r3, lr}
 672 0002 4FF6FF71 		movw	r1, #65535
 673 0006 0120     		movs	r0, #1
 674 0008 FFF7FEFF 		bl	_Z41__static_initialization_and_destruction_0ii
 675 000c 08BD     		pop	{r3, pc}
 676              		.cantunwind
 677              		.fnend
 679              		.section	.init_array,"aw",%init_array
 680              		.align	2
 681 0000 00000000 		.word	_GLOBAL__sub_I_output_buf(target1)
 682              		.global	dac_last_ticks
 683              		.global	heartbeat_last_ticks
 684              		.global	output_buf
 685              		.section	.bss._ZL10cdc_stream,"aw",%nobits
 686              		.align	2
 687              		.set	.LANCHOR2,. + 0
 690              	_ZL10cdc_stream:
 691 0000 00000000 		.space	4
 692              		.section	.bss._ZL7led_pin,"aw",%nobits
 693              		.align	2
 694              		.set	.LANCHOR1,. + 0
 697              	_ZL7led_pin:
 698 0000 00000000 		.space	8
 698      00000000 
 699              		.section	.bss.dac_last_ticks,"aw",%nobits
 700              		.align	2
 701              		.set	.LANCHOR3,. + 0
 704              	dac_last_ticks:
 705 0000 00000000 		.space	4
 706              		.section	.bss.heartbeat_last_ticks,"aw",%nobits
 707              		.align	2
 708              		.set	.LANCHOR4,. + 0
 711              	heartbeat_last_ticks:
 712 0000 00000000 		.space	4
 713              		.section	.bss.output_buf,"aw",%nobits
 714              		.align	2
 715              		.set	.LANCHOR0,. + 0
ARM GAS  C:\Users\7636~1\AppData\Local\Temp\ccdOU2r3.s 			page 13


 718              	output_buf:
 719 0000 00000000 		.space	256
 719      00000000 
 719      00000000 
 719      00000000 
 719      00000000 
 720              		.ident	"GCC: (xPack GNU Arm Embedded GCC i386) 10.3.1 20210824 (release)"
ARM GAS  C:\Users\7636~1\AppData\Local\Temp\ccdOU2r3.s 			page 14


DEFINED SYMBOLS
                            *ABS*:00000000 user.cpp
C:\Users\7636~1\AppData\Local\Temp\ccdOU2r3.s:18     .text._ZL17supervise_indexesPtS_:00000000 $t
C:\Users\7636~1\AppData\Local\Temp\ccdOU2r3.s:23     .text._ZL17supervise_indexesPtS_:00000000 _ZL17supervise_indexesPtS_
.ARM.exidx.text._ZL17supervise_indexesPtS_:00000000 $d
C:\Users\7636~1\AppData\Local\Temp\ccdOU2r3.s:44     .text._ZL11send_outputj:00000000 $t
C:\Users\7636~1\AppData\Local\Temp\ccdOU2r3.s:49     .text._ZL11send_outputj:00000000 _ZL11send_outputj
C:\Users\7636~1\AppData\Local\Temp\ccdOU2r3.s:63     .text._ZL11send_outputj:0000000c $d
.ARM.extab.text._ZL11send_outputj:00000000 $d
.ARM.exidx.text._ZL11send_outputj:00000000 $d
C:\Users\7636~1\AppData\Local\Temp\ccdOU2r3.s:67     .text._Z41__static_initialization_and_destruction_0ii:00000000 $t
C:\Users\7636~1\AppData\Local\Temp\ccdOU2r3.s:72     .text._Z41__static_initialization_and_destruction_0ii:00000000 _Z41__static_initialization_and_destruction_0ii
C:\Users\7636~1\AppData\Local\Temp\ccdOU2r3.s:103    .text._Z41__static_initialization_and_destruction_0ii:00000038 $d
.ARM.exidx.text._Z41__static_initialization_and_destruction_0ii:00000000 $d
C:\Users\7636~1\AppData\Local\Temp\ccdOU2r3.s:110    .rodata._ZN4user5setupEP19__SPI_HandleTypeDefS1_P17I2C_HandleTypeDef.str1.4:00000000 $d
C:\Users\7636~1\AppData\Local\Temp\ccdOU2r3.s:120    .text._ZN4user5setupEP19__SPI_HandleTypeDefS1_P17I2C_HandleTypeDef:00000000 $t
C:\Users\7636~1\AppData\Local\Temp\ccdOU2r3.s:126    .text._ZN4user5setupEP19__SPI_HandleTypeDefS1_P17I2C_HandleTypeDef:00000000 _ZN4user5setupEP19__SPI_HandleTypeDefS1_P17I2C_HandleTypeDef
C:\Users\7636~1\AppData\Local\Temp\ccdOU2r3.s:193    .text._ZN4user5setupEP19__SPI_HandleTypeDefS1_P17I2C_HandleTypeDef:00000098 $d
C:\Users\7636~1\AppData\Local\Temp\ccdOU2r3.s:623    .text._ZL11cdc_receivePhPm:00000000 _ZL11cdc_receivePhPm
.ARM.exidx.text._ZN4user5setupEP19__SPI_HandleTypeDefS1_P17I2C_HandleTypeDef:00000000 $d
C:\Users\7636~1\AppData\Local\Temp\ccdOU2r3.s:201    .text._ZN4user6Stream9availableEv:00000000 $t
C:\Users\7636~1\AppData\Local\Temp\ccdOU2r3.s:207    .text._ZN4user6Stream9availableEv:00000000 _ZN4user6Stream9availableEv
.ARM.exidx.text._ZN4user6Stream9availableEv:00000000 $d
C:\Users\7636~1\AppData\Local\Temp\ccdOU2r3.s:227    .text._ZN4user6Stream4readEv:00000000 $t
C:\Users\7636~1\AppData\Local\Temp\ccdOU2r3.s:233    .text._ZN4user6Stream4readEv:00000000 _ZN4user6Stream4readEv
.ARM.exidx.text._ZN4user6Stream4readEv:00000000 $d
C:\Users\7636~1\AppData\Local\Temp\ccdOU2r3.s:253    .text._ZN4user6Stream5writeEPht:00000000 $t
C:\Users\7636~1\AppData\Local\Temp\ccdOU2r3.s:259    .text._ZN4user6Stream5writeEPht:00000000 _ZN4user6Stream5writeEPht
.ARM.exidx.text._ZN4user6Stream5writeEPht:00000000 $d
C:\Users\7636~1\AppData\Local\Temp\ccdOU2r3.s:280    .text._ZN4user6Stream17availableForWriteEv:00000000 $t
C:\Users\7636~1\AppData\Local\Temp\ccdOU2r3.s:286    .text._ZN4user6Stream17availableForWriteEv:00000000 _ZN4user6Stream17availableForWriteEv
.ARM.extab.text._ZN4user6Stream17availableForWriteEv:00000000 $d
.ARM.exidx.text._ZN4user6Stream17availableForWriteEv:00000000 $d
C:\Users\7636~1\AppData\Local\Temp\ccdOU2r3.s:304    .text._ZN4user6microsEv:00000000 $t
C:\Users\7636~1\AppData\Local\Temp\ccdOU2r3.s:310    .text._ZN4user6microsEv:00000000 _ZN4user6microsEv
C:\Users\7636~1\AppData\Local\Temp\ccdOU2r3.s:322    .text._ZN4user6microsEv:00000008 $d
.ARM.exidx.text._ZN4user6microsEv:00000000 $d
C:\Users\7636~1\AppData\Local\Temp\ccdOU2r3.s:330    .text._ZN4user4mainEv:00000000 $t
C:\Users\7636~1\AppData\Local\Temp\ccdOU2r3.s:336    .text._ZN4user4mainEv:00000000 _ZN4user4mainEv
C:\Users\7636~1\AppData\Local\Temp\ccdOU2r3.s:414    .text._ZN4user4mainEv:000000b8 $d
  .ARM.exidx.text._ZN4user4mainEv:00000000 $d
C:\Users\7636~1\AppData\Local\Temp\ccdOU2r3.s:428    .text._ZN4user12digitalWriteENS_5pin_tEh:00000000 $t
C:\Users\7636~1\AppData\Local\Temp\ccdOU2r3.s:434    .text._ZN4user12digitalWriteENS_5pin_tEh:00000000 _ZN4user12digitalWriteENS_5pin_tEh
.ARM.exidx.text._ZN4user12digitalWriteENS_5pin_tEh:00000000 $d
C:\Users\7636~1\AppData\Local\Temp\ccdOU2r3.s:459    .text._ZN4user7pinModeENS_5pin_tEh:00000000 $t
C:\Users\7636~1\AppData\Local\Temp\ccdOU2r3.s:465    .text._ZN4user7pinModeENS_5pin_tEh:00000000 _ZN4user7pinModeENS_5pin_tEh
.ARM.exidx.text._ZN4user7pinModeENS_5pin_tEh:00000000 $d
C:\Users\7636~1\AppData\Local\Temp\ccdOU2r3.s:511    .text._ZN4user3minEii:00000000 $t
C:\Users\7636~1\AppData\Local\Temp\ccdOU2r3.s:517    .text._ZN4user3minEii:00000000 _ZN4user3minEii
  .ARM.exidx.text._ZN4user3minEii:00000000 $d
C:\Users\7636~1\AppData\Local\Temp\ccdOU2r3.s:534    .text._ZN4user6Stream9readBytesEPht:00000000 $t
C:\Users\7636~1\AppData\Local\Temp\ccdOU2r3.s:540    .text._ZN4user6Stream9readBytesEPht:00000000 _ZN4user6Stream9readBytesEPht
.ARM.exidx.text._ZN4user6Stream9readBytesEPht:00000000 $d
C:\Users\7636~1\AppData\Local\Temp\ccdOU2r3.s:577    .text._ZN4user6Stream7receiveEPht:00000000 $t
C:\Users\7636~1\AppData\Local\Temp\ccdOU2r3.s:583    .text._ZN4user6Stream7receiveEPht:00000000 _ZN4user6Stream7receiveEPht
.ARM.exidx.text._ZN4user6Stream7receiveEPht:00000000 $d
C:\Users\7636~1\AppData\Local\Temp\ccdOU2r3.s:618    .text._ZL11cdc_receivePhPm:00000000 $t
ARM GAS  C:\Users\7636~1\AppData\Local\Temp\ccdOU2r3.s 			page 15


C:\Users\7636~1\AppData\Local\Temp\ccdOU2r3.s:638    .text._ZL11cdc_receivePhPm:00000010 $d
.ARM.exidx.text._ZL11cdc_receivePhPm:00000000 $d
C:\Users\7636~1\AppData\Local\Temp\ccdOU2r3.s:643    .text._ZN4user4wordEhh:00000000 $t
C:\Users\7636~1\AppData\Local\Temp\ccdOU2r3.s:649    .text._ZN4user4wordEhh:00000000 _ZN4user4wordEhh
 .ARM.exidx.text._ZN4user4wordEhh:00000000 $d
C:\Users\7636~1\AppData\Local\Temp\ccdOU2r3.s:661    .text._GLOBAL__sub_I_output_buf:00000000 $t
C:\Users\7636~1\AppData\Local\Temp\ccdOU2r3.s:666    .text._GLOBAL__sub_I_output_buf:00000000 _GLOBAL__sub_I_output_buf
.ARM.exidx.text._GLOBAL__sub_I_output_buf:00000000 $d
C:\Users\7636~1\AppData\Local\Temp\ccdOU2r3.s:680    .init_array:00000000 $d
C:\Users\7636~1\AppData\Local\Temp\ccdOU2r3.s:704    .bss.dac_last_ticks:00000000 dac_last_ticks
C:\Users\7636~1\AppData\Local\Temp\ccdOU2r3.s:711    .bss.heartbeat_last_ticks:00000000 heartbeat_last_ticks
C:\Users\7636~1\AppData\Local\Temp\ccdOU2r3.s:718    .bss.output_buf:00000000 output_buf
C:\Users\7636~1\AppData\Local\Temp\ccdOU2r3.s:686    .bss._ZL10cdc_stream:00000000 $d
C:\Users\7636~1\AppData\Local\Temp\ccdOU2r3.s:690    .bss._ZL10cdc_stream:00000000 _ZL10cdc_stream
C:\Users\7636~1\AppData\Local\Temp\ccdOU2r3.s:693    .bss._ZL7led_pin:00000000 $d
C:\Users\7636~1\AppData\Local\Temp\ccdOU2r3.s:697    .bss._ZL7led_pin:00000000 _ZL7led_pin
C:\Users\7636~1\AppData\Local\Temp\ccdOU2r3.s:700    .bss.dac_last_ticks:00000000 $d
C:\Users\7636~1\AppData\Local\Temp\ccdOU2r3.s:707    .bss.heartbeat_last_ticks:00000000 $d
C:\Users\7636~1\AppData\Local\Temp\ccdOU2r3.s:714    .bss.output_buf:00000000 $d

UNDEFINED SYMBOLS
CDC_Transmit_FS
__aeabi_unwind_cpp_pr1
_Znwj
memset
CDC_IsConnected
CDC_Register_RX_Callback
_ZN3adc4initEP19__SPI_HandleTypeDef
_ZN3adc5probeEv
_ZN3adc18dump_module_reportEPcj
_ZN3dac4initEP19__SPI_HandleTypeDefP17I2C_HandleTypeDef
_ZN3dac5probeEv
_ZN3dac18dump_module_reportEPcj
_ZN3adc18increment_and_syncEv
__aeabi_unwind_cpp_pr0
CDC_Can_Transmit
__aeabi_f2d
__aeabi_dadd
__aeabi_d2f
_ZN3adc10drdy_checkEv
_ZN3adc4readEv
_ZN3adc14dump_last_dataEPcj
_ZN3dac12read_currentEv
_ZN3dac18dump_last_currentsEPcj
_ZN3dac7set_allEf
_ZN3adc6statusE
_ZN3dac7modulesE
