ARM GAS  C:\Users\7636~1\AppData\Local\Temp\ccvkKJjb.s 			page 1


   1              		.cpu cortex-m4
   2              		.arch armv7e-m
   3              		.fpu fpv4-sp-d16
   4              		.eabi_attribute 27, 1
   5              		.eabi_attribute 28, 1
   6              		.eabi_attribute 20, 1
   7              		.eabi_attribute 21, 1
   8              		.eabi_attribute 23, 3
   9              		.eabi_attribute 24, 1
  10              		.eabi_attribute 25, 1
  11              		.eabi_attribute 26, 1
  12              		.eabi_attribute 30, 1
  13              		.eabi_attribute 34, 1
  14              		.eabi_attribute 18, 4
  15              		.file	"user.cpp"
  16              		.text
  17              		.section	.text._ZL17supervise_indexesPtS_,"ax",%progbits
  18              		.align	1
  19              		.syntax unified
  20              		.thumb
  21              		.thumb_func
  23              	_ZL17supervise_indexesPtS_:
  24              		.fnstart
  25              	.LFB649:
  26              		@ args = 0, pretend = 0, frame = 0
  27              		@ frame_needed = 0, uses_anonymous_args = 0
  28              		@ link register save eliminated.
  29 0000 0288     		ldrh	r2, [r0]
  30 0002 0B88     		ldrh	r3, [r1]
  31 0004 9A42     		cmp	r2, r3
  32 0006 00D0     		beq	.L3
  33              	.L1:
  34 0008 7047     		bx	lr
  35              	.L3:
  36 000a 0023     		movs	r3, #0
  37 000c 0380     		strh	r3, [r0]	@ movhi
  38 000e 0B80     		strh	r3, [r1]	@ movhi
  39 0010 FAE7     		b	.L1
  40              		.cantunwind
  41              		.fnend
  43              		.section	.text._Z41__static_initialization_and_destruction_0ii,"ax",%progbits
  44              		.align	1
  45              		.syntax unified
  46              		.thumb
  47              		.thumb_func
  49              	_Z41__static_initialization_and_destruction_0ii:
  50              		.fnstart
  51              	.LFB667:
  52              		@ args = 0, pretend = 0, frame = 0
  53              		@ frame_needed = 0, uses_anonymous_args = 0
  54 0000 0128     		cmp	r0, #1
  55 0002 00D0     		beq	.L10
  56              	.L7:
  57 0004 7047     		bx	lr
  58              	.L10:
  59 0006 4FF6FF73 		movw	r3, #65535
  60 000a 9942     		cmp	r1, r3
ARM GAS  C:\Users\7636~1\AppData\Local\Temp\ccvkKJjb.s 			page 2


  61 000c FAD1     		bne	.L7
  62 000e 10B5     		push	{r4, lr}
  63 0010 094B     		ldr	r3, .L11
  64 0012 0A4A     		ldr	r2, .L11+4
  65 0014 1A60     		str	r2, [r3]
  66 0016 4FF40052 		mov	r2, #8192
  67 001a 5A60     		str	r2, [r3, #4]
  68 001c 40F20440 		movw	r0, #1028
  69 0020 FFF7FEFF 		bl	_Znwj
  70 0024 0446     		mov	r4, r0
  71 0026 40F20442 		movw	r2, #1028
  72 002a 0021     		movs	r1, #0
  73 002c FFF7FEFF 		bl	memset
  74 0030 034B     		ldr	r3, .L11+8
  75 0032 1C60     		str	r4, [r3]
  76 0034 10BD     		pop	{r4, pc}
  77              	.L12:
  78 0036 00BF     		.align	2
  79              	.L11:
  80 0038 00000000 		.word	.LANCHOR0
  81 003c 00080240 		.word	1073874944
  82 0040 00000000 		.word	.LANCHOR1
  83              		.cantunwind
  84              		.fnend
  86              		.section	.text._Z21cdc_transmit_blockingPht,"ax",%progbits
  87              		.align	1
  88              		.global	_Z21cdc_transmit_blockingPht
  89              		.syntax unified
  90              		.thumb
  91              		.thumb_func
  93              	_Z21cdc_transmit_blockingPht:
  94              		.fnstart
  95              	.LFB648:
  96              		@ args = 0, pretend = 0, frame = 0
  97              		@ frame_needed = 0, uses_anonymous_args = 0
  98 0000 38B5     		push	{r3, r4, r5, lr}
  99              		.save {r3, r4, r5, lr}
 100 0002 0446     		mov	r4, r0
 101 0004 0D46     		mov	r5, r1
 102              	.L14:
 103 0006 FFF7FEFF 		bl	CDC_Can_Transmit
 104 000a 0028     		cmp	r0, #0
 105 000c FBD1     		bne	.L14
 106 000e 2946     		mov	r1, r5
 107 0010 2046     		mov	r0, r4
 108 0012 FFF7FEFF 		bl	CDC_Transmit_FS
 109 0016 38BD     		pop	{r3, r4, r5, pc}
 110              		.fnend
 112              		.section	.text._ZL11send_outputj,"ax",%progbits
 113              		.align	1
 114              		.syntax unified
 115              		.thumb
 116              		.thumb_func
 118              	_ZL11send_outputj:
 119              		.fnstart
 120              	.LFB651:
 121              		@ args = 0, pretend = 0, frame = 0
ARM GAS  C:\Users\7636~1\AppData\Local\Temp\ccvkKJjb.s 			page 3


 122              		@ frame_needed = 0, uses_anonymous_args = 0
 123 0000 08B5     		push	{r3, lr}
 124              		.save {r3, lr}
 125 0002 81B2     		uxth	r1, r0
 126 0004 0148     		ldr	r0, .L18
 127 0006 FFF7FEFF 		bl	_Z21cdc_transmit_blockingPht
 128 000a 08BD     		pop	{r3, pc}
 129              	.L19:
 130              		.align	2
 131              	.L18:
 132 000c 00000000 		.word	.LANCHOR2
 133              		.fnend
 135              		.section	.text._ZN4user6Stream9availableEv,"ax",%progbits
 136              		.align	1
 137              		.global	_ZN4user6Stream9availableEv
 138              		.syntax unified
 139              		.thumb
 140              		.thumb_func
 142              	_ZN4user6Stream9availableEv:
 143              		.fnstart
 144              	.LFB655:
 145              		@ args = 0, pretend = 0, frame = 0
 146              		@ frame_needed = 0, uses_anonymous_args = 0
 147 0000 10B5     		push	{r4, lr}
 148 0002 0446     		mov	r4, r0
 149 0004 0146     		mov	r1, r0
 150 0006 0230     		adds	r0, r0, #2
 151 0008 FFF7FEFF 		bl	_ZL17supervise_indexesPtS_
 152 000c 6388     		ldrh	r3, [r4, #2]
 153 000e 2088     		ldrh	r0, [r4]
 154 0010 C01A     		subs	r0, r0, r3
 155 0012 18BF     		it	ne
 156 0014 0120     		movne	r0, #1
 157 0016 10BD     		pop	{r4, pc}
 158              		.cantunwind
 159              		.fnend
 161              		.section	.text._ZN4user6Stream4readEv,"ax",%progbits
 162              		.align	1
 163              		.global	_ZN4user6Stream4readEv
 164              		.syntax unified
 165              		.thumb
 166              		.thumb_func
 168              	_ZN4user6Stream4readEv:
 169              		.fnstart
 170              	.LFB656:
 171              		@ args = 0, pretend = 0, frame = 0
 172              		@ frame_needed = 0, uses_anonymous_args = 0
 173 0000 38B5     		push	{r3, r4, r5, lr}
 174 0002 0446     		mov	r4, r0
 175 0004 FFF7FEFF 		bl	_ZN4user6Stream9availableEv
 176 0008 10B9     		cbnz	r0, .L26
 177 000a 0025     		movs	r5, #0
 178              	.L23:
 179 000c 2846     		mov	r0, r5
 180 000e 38BD     		pop	{r3, r4, r5, pc}
 181              	.L26:
 182 0010 2388     		ldrh	r3, [r4]
ARM GAS  C:\Users\7636~1\AppData\Local\Temp\ccvkKJjb.s 			page 4


 183 0012 5A1C     		adds	r2, r3, #1
 184 0014 2280     		strh	r2, [r4]	@ movhi
 185 0016 2344     		add	r3, r3, r4
 186 0018 1D79     		ldrb	r5, [r3, #4]	@ zero_extendqisi2
 187 001a 2146     		mov	r1, r4
 188 001c A01C     		adds	r0, r4, #2
 189 001e FFF7FEFF 		bl	_ZL17supervise_indexesPtS_
 190 0022 F3E7     		b	.L23
 191              		.cantunwind
 192              		.fnend
 194              		.section	.rodata._ZL14wait_for_inputv.str1.4,"aMS",%progbits,1
 195              		.align	2
 196              	.LC0:
 197 0000 53656E64 		.ascii	"Send anything to continue...\012\000"
 197      20616E79 
 197      7468696E 
 197      6720746F 
 197      20636F6E 
 198 001e 0000     		.align	2
 199              	.LC1:
 200 0020 53746172 		.ascii	"Starting execution.\012\000"
 200      74696E67 
 200      20657865 
 200      63757469 
 200      6F6E2E0A 
 201              		.section	.text._ZL14wait_for_inputv,"ax",%progbits
 202              		.align	1
 203              		.syntax unified
 204              		.thumb
 205              		.thumb_func
 207              	_ZL14wait_for_inputv:
 208              		.fnstart
 209              	.LFB652:
 210              		@ args = 0, pretend = 0, frame = 32
 211              		@ frame_needed = 0, uses_anonymous_args = 0
 212 0000 30B5     		push	{r4, r5, lr}
 213              		.save {r4, r5, lr}
 214              		.pad #36
 215 0002 89B0     		sub	sp, sp, #36
 216 0004 EC46     		mov	ip, sp
 217 0006 184C     		ldr	r4, .L34
 218 0008 0FCC     		ldmia	r4!, {r0, r1, r2, r3}
 219 000a ACE80F00 		stmia	ip!, {r0, r1, r2, r3}
 220 000e 94E80F00 		ldm	r4, {r0, r1, r2, r3}
 221 0012 ACE80700 		stmia	ip!, {r0, r1, r2}
 222 0016 ACF80030 		strh	r3, [ip]	@ movhi
 223 001a 1E21     		movs	r1, #30
 224 001c 6846     		mov	r0, sp
 225 001e FFF7FEFF 		bl	_Z21cdc_transmit_blockingPht
 226 0022 02E0     		b	.L29
 227              	.L32:
 228 0024 0A20     		movs	r0, #10
 229 0026 FFF7FEFF 		bl	LL_mDelay
 230              	.L29:
 231 002a 104B     		ldr	r3, .L34+4
 232 002c 1868     		ldr	r0, [r3]
 233 002e FFF7FEFF 		bl	_ZN4user6Stream9availableEv
ARM GAS  C:\Users\7636~1\AppData\Local\Temp\ccvkKJjb.s 			page 5


 234 0032 0028     		cmp	r0, #0
 235 0034 F6D0     		beq	.L32
 236 0036 02E0     		b	.L28
 237              	.L33:
 238 0038 0120     		movs	r0, #1
 239 003a FFF7FEFF 		bl	LL_mDelay
 240              	.L28:
 241 003e 0B4B     		ldr	r3, .L34+4
 242 0040 1868     		ldr	r0, [r3]
 243 0042 FFF7FEFF 		bl	_ZN4user6Stream4readEv
 244 0046 0028     		cmp	r0, #0
 245 0048 F6D1     		bne	.L33
 246 004a 6C46     		mov	r4, sp
 247 004c 084D     		ldr	r5, .L34+8
 248 004e 0FCD     		ldmia	r5!, {r0, r1, r2, r3}
 249 0050 0FC4     		stmia	r4!, {r0, r1, r2, r3}
 250 0052 95E80300 		ldm	r5, {r0, r1}
 251 0056 44F8040B 		str	r0, [r4], #4
 252 005a 2170     		strb	r1, [r4]
 253 005c 1521     		movs	r1, #21
 254 005e 6846     		mov	r0, sp
 255 0060 FFF7FEFF 		bl	_Z21cdc_transmit_blockingPht
 256 0064 09B0     		add	sp, sp, #36
 257              		@ sp needed
 258 0066 30BD     		pop	{r4, r5, pc}
 259              	.L35:
 260              		.align	2
 261              	.L34:
 262 0068 00000000 		.word	.LC0
 263 006c 00000000 		.word	.LANCHOR1
 264 0070 20000000 		.word	.LC1
 265              		.fnend
 267              		.section	.rodata._ZN4user5setupEP19__SPI_HandleTypeDefS1_P17I2C_HandleTypeDef.str1.4,"aMS",%progbi
 268              		.align	2
 269              	.LC2:
 270 0000 48656C6C 		.ascii	"Hello World!\012\000"
 270      6F20576F 
 270      726C6421 
 270      0A00
 271 000e 0000     		.align	2
 272              	.LC3:
 273 0010 50726F62 		.ascii	"Probing ADC modules...\012\000"
 273      696E6720 
 273      41444320 
 273      6D6F6475 
 273      6C65732E 
 274              		.align	2
 275              	.LC4:
 276 0028 50726F62 		.ascii	"Probing DAC modules...\012\000"
 276      696E6720 
 276      44414320 
 276      6D6F6475 
 276      6C65732E 
 277              		.section	.text._ZN4user5setupEP19__SPI_HandleTypeDefS1_P17I2C_HandleTypeDef,"ax",%progbits
 278              		.align	1
 279              		.global	_ZN4user5setupEP19__SPI_HandleTypeDefS1_P17I2C_HandleTypeDef
 280              		.syntax unified
ARM GAS  C:\Users\7636~1\AppData\Local\Temp\ccvkKJjb.s 			page 6


 281              		.thumb
 282              		.thumb_func
 284              	_ZN4user5setupEP19__SPI_HandleTypeDefS1_P17I2C_HandleTypeDef:
 285              		.fnstart
 286              	.LFB653:
 287              		@ args = 0, pretend = 0, frame = 24
 288              		@ frame_needed = 0, uses_anonymous_args = 0
 289 0000 F0B5     		push	{r4, r5, r6, r7, lr}
 290              		.save {r4, r5, r6, r7, lr}
 291              		.pad #28
 292 0002 87B0     		sub	sp, sp, #28
 293 0004 0546     		mov	r5, r0
 294 0006 0E46     		mov	r6, r1
 295 0008 1746     		mov	r7, r2
 296              	.L37:
 297 000a FFF7FEFF 		bl	CDC_IsConnected
 298 000e 0028     		cmp	r0, #0
 299 0010 FBD1     		bne	.L37
 300 0012 2848     		ldr	r0, .L39
 301 0014 FFF7FEFF 		bl	CDC_Register_RX_Callback
 302 0018 274B     		ldr	r3, .L39+4
 303 001a 6C46     		mov	r4, sp
 304 001c 0FCB     		ldm	r3, {r0, r1, r2, r3}
 305 001e 07C4     		stmia	r4!, {r0, r1, r2}
 306 0020 2380     		strh	r3, [r4]	@ movhi
 307 0022 0E21     		movs	r1, #14
 308 0024 6846     		mov	r0, sp
 309 0026 FFF7FEFF 		bl	_Z21cdc_transmit_blockingPht
 310 002a FFF7FEFF 		bl	_ZL14wait_for_inputv
 311 002e 2846     		mov	r0, r5
 312 0030 FFF7FEFF 		bl	_ZN3adc4initEP19__SPI_HandleTypeDef
 313 0034 4FF47A70 		mov	r0, #1000
 314 0038 FFF7FEFF 		bl	LL_mDelay
 315 003c 6C46     		mov	r4, sp
 316 003e 1F4D     		ldr	r5, .L39+8
 317 0040 0FCD     		ldmia	r5!, {r0, r1, r2, r3}
 318 0042 0FC4     		stmia	r4!, {r0, r1, r2, r3}
 319 0044 95E80300 		ldm	r5, {r0, r1}
 320 0048 84E80300 		stm	r4, {r0, r1}
 321 004c 1821     		movs	r1, #24
 322 004e 6846     		mov	r0, sp
 323 0050 FFF7FEFF 		bl	_Z21cdc_transmit_blockingPht
 324 0054 FFF7FEFF 		bl	_ZN3adc5probeEv
 325 0058 194D     		ldr	r5, .L39+12
 326 005a 4FF48071 		mov	r1, #256
 327 005e 2846     		mov	r0, r5
 328 0060 FFF7FEFF 		bl	_ZN3adc18dump_module_reportEPcj
 329 0064 FFF7FEFF 		bl	_ZL11send_outputj
 330 0068 FFF7FEFF 		bl	_ZL14wait_for_inputv
 331 006c 3946     		mov	r1, r7
 332 006e 3046     		mov	r0, r6
 333 0070 FFF7FEFF 		bl	_ZN3dac4initEP19__SPI_HandleTypeDefP17I2C_HandleTypeDef
 334 0074 4FF47A70 		mov	r0, #1000
 335 0078 FFF7FEFF 		bl	LL_mDelay
 336 007c EC46     		mov	ip, sp
 337 007e 114C     		ldr	r4, .L39+16
 338 0080 0FCC     		ldmia	r4!, {r0, r1, r2, r3}
ARM GAS  C:\Users\7636~1\AppData\Local\Temp\ccvkKJjb.s 			page 7


 339 0082 ACE80F00 		stmia	ip!, {r0, r1, r2, r3}
 340 0086 94E80300 		ldm	r4, {r0, r1}
 341 008a 8CE80300 		stm	ip, {r0, r1}
 342 008e 1821     		movs	r1, #24
 343 0090 6846     		mov	r0, sp
 344 0092 FFF7FEFF 		bl	_Z21cdc_transmit_blockingPht
 345 0096 FFF7FEFF 		bl	_ZN3dac5probeEv
 346 009a 4FF48071 		mov	r1, #256
 347 009e 2846     		mov	r0, r5
 348 00a0 FFF7FEFF 		bl	_ZN3dac18dump_module_reportEPcj
 349 00a4 FFF7FEFF 		bl	_ZL11send_outputj
 350 00a8 FFF7FEFF 		bl	_ZL14wait_for_inputv
 351 00ac FFF7FEFF 		bl	_ZN3adc18increment_and_syncEv
 352 00b0 07B0     		add	sp, sp, #28
 353              		@ sp needed
 354 00b2 F0BD     		pop	{r4, r5, r6, r7, pc}
 355              	.L40:
 356              		.align	2
 357              	.L39:
 358 00b4 00000000 		.word	_ZL11cdc_receivePhPm
 359 00b8 00000000 		.word	.LC2
 360 00bc 10000000 		.word	.LC3
 361 00c0 00000000 		.word	.LANCHOR2
 362 00c4 28000000 		.word	.LC4
 363              		.fnend
 365              		.global	__aeabi_f2d
 366              		.global	__aeabi_dadd
 367              		.global	__aeabi_d2f
 368              		.section	.rodata._ZN4user4mainEv.str1.4,"aMS",%progbits,1
 369              		.align	2
 370              	.LC5:
 371 0000 4379636C 		.ascii	"Cycle completed.\012\000"
 371      6520636F 
 371      6D706C65 
 371      7465642E 
 371      0A00
 372              		.section	.text._ZN4user4mainEv,"ax",%progbits
 373              		.align	1
 374              		.global	_ZN4user4mainEv
 375              		.syntax unified
 376              		.thumb
 377              		.thumb_func
 379              	_ZN4user4mainEv:
 380              		.fnstart
 381              	.LFB654:
 382              		@ args = 0, pretend = 0, frame = 24
 383              		@ frame_needed = 0, uses_anonymous_args = 0
 384 0000 10B5     		push	{r4, lr}
 385              		.save {r4, lr}
 386              		.pad #24
 387 0002 86B0     		sub	sp, sp, #24
 388 0004 FFF7FEFF 		bl	_ZN3adc10drdy_checkEv
 389 0008 294B     		ldr	r3, .L47+8
 390 000a 1B78     		ldrb	r3, [r3]	@ zero_extendqisi2
 391 000c DBB2     		uxtb	r3, r3
 392 000e 022B     		cmp	r3, #2
 393 0010 3CD0     		beq	.L46
ARM GAS  C:\Users\7636~1\AppData\Local\Temp\ccvkKJjb.s 			page 8


 394              	.L42:
 395 0012 FFF7FEFF 		bl	_ZN3dac12read_currentEv
 396 0016 4FF48071 		mov	r1, #256
 397 001a 2648     		ldr	r0, .L47+12
 398 001c FFF7FEFF 		bl	_ZN3dac18dump_last_currentsEPcj
 399 0020 FFF7FEFF 		bl	_ZL11send_outputj
 400 0024 244B     		ldr	r3, .L47+16
 401 0026 5869     		ldr	r0, [r3, #20]	@ float
 402 0028 FFF7FEFF 		bl	__aeabi_f2d
 403 002c 1EA3     		adr	r3, .L47
 404 002e D3E90023 		ldrd	r2, [r3]
 405 0032 FFF7FEFF 		bl	__aeabi_dadd
 406 0036 FFF7FEFF 		bl	__aeabi_d2f
 407 003a 00EE100A 		vmov	s0, r0
 408 003e F0EE047A 		vmov.f32	s15, #2.5e+0
 409 0042 B4EEE70A 		vcmpe.f32	s0, s15
 410 0046 F1EE10FA 		vmrs	APSR_nzcv, FPSCR
 411 004a 01DD     		ble	.L43
 412 004c 9FED1B0A 		vldr.32	s0, .L47+20
 413              	.L43:
 414 0050 FFF7FEFF 		bl	_ZN3dac7set_allEf
 415 0054 1A4B     		ldr	r3, .L47+24
 416 0056 1A68     		ldr	r2, [r3]
 417 0058 5B68     		ldr	r3, [r3, #4]
 418 005a 5169     		ldr	r1, [r2, #20]
 419 005c 03EA0100 		and	r0, r3, r1
 420 0060 23EA0103 		bic	r3, r3, r1
 421 0064 43EA0043 		orr	r3, r3, r0, lsl #16
 422 0068 9361     		str	r3, [r2, #24]
 423 006a 0DF1040C 		add	ip, sp, #4
 424 006e 154C     		ldr	r4, .L47+28
 425 0070 0FCC     		ldmia	r4!, {r0, r1, r2, r3}
 426 0072 ACE80F00 		stmia	ip!, {r0, r1, r2, r3}
 427 0076 2368     		ldr	r3, [r4]
 428 0078 ACF80030 		strh	r3, [ip]	@ movhi
 429 007c 1221     		movs	r1, #18
 430 007e 01A8     		add	r0, sp, #4
 431 0080 FFF7FEFF 		bl	_Z21cdc_transmit_blockingPht
 432 0084 FFF7FEFF 		bl	_ZL14wait_for_inputv
 433 0088 06B0     		add	sp, sp, #24
 434              		@ sp needed
 435 008a 10BD     		pop	{r4, pc}
 436              	.L46:
 437 008c FFF7FEFF 		bl	_ZN3adc4readEv
 438 0090 FFF7FEFF 		bl	_ZN3adc18increment_and_syncEv
 439 0094 4FF48071 		mov	r1, #256
 440 0098 0648     		ldr	r0, .L47+12
 441 009a FFF7FEFF 		bl	_ZN3adc14dump_last_dataEPcj
 442 009e FFF7FEFF 		bl	_ZL11send_outputj
 443 00a2 B6E7     		b	.L42
 444              	.L48:
 445 00a4 AFF30080 		.align	3
 446              	.L47:
 447 00a8 9A999999 		.word	-1717986918
 448 00ac 9999C93F 		.word	1070176665
 449 00b0 00000000 		.word	_ZN3adc6statusE
 450 00b4 00000000 		.word	.LANCHOR2
ARM GAS  C:\Users\7636~1\AppData\Local\Temp\ccvkKJjb.s 			page 9


 451 00b8 00000000 		.word	_ZN3dac7modulesE
 452 00bc 00000000 		.word	0
 453 00c0 00000000 		.word	.LANCHOR0
 454 00c4 00000000 		.word	.LC5
 455              		.fnend
 457              		.section	.text._ZN4user6Stream5writeEPht,"ax",%progbits
 458              		.align	1
 459              		.global	_ZN4user6Stream5writeEPht
 460              		.syntax unified
 461              		.thumb
 462              		.thumb_func
 464              	_ZN4user6Stream5writeEPht:
 465              		.fnstart
 466              	.LFB658:
 467              		@ args = 0, pretend = 0, frame = 0
 468              		@ frame_needed = 0, uses_anonymous_args = 0
 469 0000 10B5     		push	{r4, lr}
 470              		.save {r4, lr}
 471 0002 0846     		mov	r0, r1
 472 0004 1446     		mov	r4, r2
 473 0006 1146     		mov	r1, r2
 474 0008 FFF7FEFF 		bl	CDC_Transmit_FS
 475 000c 08B1     		cbz	r0, .L51
 476 000e 0020     		movs	r0, #0
 477              	.L50:
 478 0010 10BD     		pop	{r4, pc}
 479              	.L51:
 480 0012 2046     		mov	r0, r4
 481 0014 FCE7     		b	.L50
 482              		.fnend
 484              		.section	.text._ZN4user6Stream17availableForWriteEv,"ax",%progbits
 485              		.align	1
 486              		.global	_ZN4user6Stream17availableForWriteEv
 487              		.syntax unified
 488              		.thumb
 489              		.thumb_func
 491              	_ZN4user6Stream17availableForWriteEv:
 492              		.fnstart
 493              	.LFB659:
 494              		@ args = 0, pretend = 0, frame = 0
 495              		@ frame_needed = 0, uses_anonymous_args = 0
 496 0000 08B5     		push	{r3, lr}
 497              		.save {r3, lr}
 498 0002 FFF7FEFF 		bl	CDC_Can_Transmit
 499 0006 08B9     		cbnz	r0, .L57
 500 0008 0020     		movs	r0, #0
 501              	.L54:
 502 000a 08BD     		pop	{r3, pc}
 503              	.L57:
 504 000c 4FF40070 		mov	r0, #512
 505 0010 FBE7     		b	.L54
 506              		.fnend
 508              		.section	.text._ZN4user6microsEv,"ax",%progbits
 509              		.align	1
 510              		.global	_ZN4user6microsEv
 511              		.syntax unified
 512              		.thumb
ARM GAS  C:\Users\7636~1\AppData\Local\Temp\ccvkKJjb.s 			page 10


 513              		.thumb_func
 515              	_ZN4user6microsEv:
 516              		.fnstart
 517              	.LFB661:
 518              		@ args = 0, pretend = 0, frame = 0
 519              		@ frame_needed = 0, uses_anonymous_args = 0
 520              		@ link register save eliminated.
 521 0000 014B     		ldr	r3, .L59
 522 0002 586A     		ldr	r0, [r3, #36]
 523 0004 7047     		bx	lr
 524              	.L60:
 525 0006 00BF     		.align	2
 526              	.L59:
 527 0008 000C0040 		.word	1073744896
 528              		.cantunwind
 529              		.fnend
 531              		.section	.text._ZN4user12digitalWriteENS_5pin_tEh,"ax",%progbits
 532              		.align	1
 533              		.global	_ZN4user12digitalWriteENS_5pin_tEh
 534              		.syntax unified
 535              		.thumb
 536              		.thumb_func
 538              	_ZN4user12digitalWriteENS_5pin_tEh:
 539              		.fnstart
 540              	.LFB662:
 541              		@ args = 0, pretend = 0, frame = 8
 542              		@ frame_needed = 0, uses_anonymous_args = 0
 543              		@ link register save eliminated.
 544 0000 82B0     		sub	sp, sp, #8
 545 0002 02AB     		add	r3, sp, #8
 546 0004 03E90300 		stmdb	r3, {r0, r1}
 547 0008 12B1     		cbz	r2, .L62
 548 000a 8161     		str	r1, [r0, #24]
 549              	.L61:
 550 000c 02B0     		add	sp, sp, #8
 551              		@ sp needed
 552 000e 7047     		bx	lr
 553              	.L62:
 554 0010 019B     		ldr	r3, [sp, #4]
 555 0012 1B04     		lsls	r3, r3, #16
 556 0014 009A     		ldr	r2, [sp]
 557 0016 9361     		str	r3, [r2, #24]
 558 0018 F8E7     		b	.L61
 559              		.cantunwind
 560              		.fnend
 562              		.section	.text._ZN4user7pinModeENS_5pin_tEh,"ax",%progbits
 563              		.align	1
 564              		.global	_ZN4user7pinModeENS_5pin_tEh
 565              		.syntax unified
 566              		.thumb
 567              		.thumb_func
 569              	_ZN4user7pinModeENS_5pin_tEh:
 570              		.fnstart
 571              	.LFB663:
 572              		@ args = 0, pretend = 0, frame = 8
 573              		@ frame_needed = 0, uses_anonymous_args = 0
 574              		@ link register save eliminated.
ARM GAS  C:\Users\7636~1\AppData\Local\Temp\ccvkKJjb.s 			page 11


 575 0000 82B0     		sub	sp, sp, #8
 576 0002 02AB     		add	r3, sp, #8
 577 0004 03E90300 		stmdb	r3, {r0, r1}
 578 0008 012A     		cmp	r2, #1
 579 000a 01D0     		beq	.L68
 580              	.L65:
 581 000c 02B0     		add	sp, sp, #8
 582              		@ sp needed
 583 000e 7047     		bx	lr
 584              	.L68:
 585 0010 0B46     		mov	r3, r1
 586 0012 0268     		ldr	r2, [r0]
 587              		.syntax unified
 588              	@ 988 "Drivers/CMSIS/Include/cmsis_gcc.h" 1
 589 0014 91FAA1F1 		rbit r1, r1
 590              	@ 0 "" 2
 591              		.thumb
 592              		.syntax unified
 593 0018 B1FA81F1 		clz	r1, r1
 594 001c 4900     		lsls	r1, r1, #1
 595 001e 4FF0030C 		mov	ip, #3
 596 0022 0CFA01F1 		lsl	r1, ip, r1
 597 0026 22EA0102 		bic	r2, r2, r1
 598              		.syntax unified
 599              	@ 988 "Drivers/CMSIS/Include/cmsis_gcc.h" 1
 600 002a 93FAA3F3 		rbit r3, r3
 601              	@ 0 "" 2
 602              		.thumb
 603              		.syntax unified
 604 002e B3FA83F3 		clz	r3, r3
 605 0032 5B00     		lsls	r3, r3, #1
 606 0034 0121     		movs	r1, #1
 607 0036 01FA03F3 		lsl	r3, r1, r3
 608 003a 1343     		orrs	r3, r3, r2
 609 003c 0360     		str	r3, [r0]
 610 003e E5E7     		b	.L65
 611              		.cantunwind
 612              		.fnend
 614              		.section	.text._ZN4user3minEii,"ax",%progbits
 615              		.align	1
 616              		.global	_ZN4user3minEii
 617              		.syntax unified
 618              		.thumb
 619              		.thumb_func
 621              	_ZN4user3minEii:
 622              		.fnstart
 623              	.LFB664:
 624              		@ args = 0, pretend = 0, frame = 0
 625              		@ frame_needed = 0, uses_anonymous_args = 0
 626              		@ link register save eliminated.
 627 0000 0346     		mov	r3, r0
 628 0002 0846     		mov	r0, r1
 629 0004 8B42     		cmp	r3, r1
 630 0006 00DA     		bge	.L70
 631 0008 1846     		mov	r0, r3
 632              	.L70:
 633 000a 7047     		bx	lr
ARM GAS  C:\Users\7636~1\AppData\Local\Temp\ccvkKJjb.s 			page 12


 634              		.cantunwind
 635              		.fnend
 637              		.section	.text._ZN4user6Stream9readBytesEPht,"ax",%progbits
 638              		.align	1
 639              		.global	_ZN4user6Stream9readBytesEPht
 640              		.syntax unified
 641              		.thumb
 642              		.thumb_func
 644              	_ZN4user6Stream9readBytesEPht:
 645              		.fnstart
 646              	.LFB657:
 647              		@ args = 0, pretend = 0, frame = 0
 648              		@ frame_needed = 0, uses_anonymous_args = 0
 649 0000 70B5     		push	{r4, r5, r6, lr}
 650 0002 0446     		mov	r4, r0
 651 0004 0D46     		mov	r5, r1
 652 0006 4188     		ldrh	r1, [r0, #2]
 653 0008 0388     		ldrh	r3, [r0]
 654 000a C91A     		subs	r1, r1, r3
 655 000c 1046     		mov	r0, r2
 656 000e FFF7FEFF 		bl	_ZN4user3minEii
 657 0012 86B2     		uxth	r6, r0
 658 0014 0022     		movs	r2, #0
 659 0016 06E0     		b	.L73
 660              	.L75:
 661 0018 2388     		ldrh	r3, [r4]
 662 001a 591C     		adds	r1, r3, #1
 663 001c 2180     		strh	r1, [r4]	@ movhi
 664 001e 2344     		add	r3, r3, r4
 665 0020 1B79     		ldrb	r3, [r3, #4]	@ zero_extendqisi2
 666 0022 AB54     		strb	r3, [r5, r2]
 667 0024 0132     		adds	r2, r2, #1
 668              	.L73:
 669 0026 83B2     		uxth	r3, r0
 670 0028 9342     		cmp	r3, r2
 671 002a F5D8     		bhi	.L75
 672 002c 2146     		mov	r1, r4
 673 002e A01C     		adds	r0, r4, #2
 674 0030 FFF7FEFF 		bl	_ZL17supervise_indexesPtS_
 675 0034 3046     		mov	r0, r6
 676 0036 70BD     		pop	{r4, r5, r6, pc}
 677              		.cantunwind
 678              		.fnend
 680              		.section	.text._ZN4user6Stream7receiveEPht,"ax",%progbits
 681              		.align	1
 682              		.global	_ZN4user6Stream7receiveEPht
 683              		.syntax unified
 684              		.thumb
 685              		.thumb_func
 687              	_ZN4user6Stream7receiveEPht:
 688              		.fnstart
 689              	.LFB660:
 690              		@ args = 0, pretend = 0, frame = 0
 691              		@ frame_needed = 0, uses_anonymous_args = 0
 692 0000 70B5     		push	{r4, r5, r6, lr}
 693 0002 0446     		mov	r4, r0
 694 0004 0D46     		mov	r5, r1
ARM GAS  C:\Users\7636~1\AppData\Local\Temp\ccvkKJjb.s 			page 13


 695 0006 1646     		mov	r6, r2
 696 0008 0146     		mov	r1, r0
 697 000a 0230     		adds	r0, r0, #2
 698 000c FFF7FEFF 		bl	_ZL17supervise_indexesPtS_
 699 0010 6188     		ldrh	r1, [r4, #2]
 700 0012 C1F58061 		rsb	r1, r1, #1024
 701 0016 3046     		mov	r0, r6
 702 0018 FFF7FEFF 		bl	_ZN4user3minEii
 703 001c 0022     		movs	r2, #0
 704 001e 0AE0     		b	.L78
 705              	.L80:
 706 0020 6388     		ldrh	r3, [r4, #2]
 707 0022 03F1010C 		add	ip, r3, #1
 708 0026 A4F802C0 		strh	ip, [r4, #2]	@ movhi
 709 002a 15F802C0 		ldrb	ip, [r5, r2]	@ zero_extendqisi2
 710 002e 2344     		add	r3, r3, r4
 711 0030 83F804C0 		strb	ip, [r3, #4]
 712 0034 0132     		adds	r2, r2, #1
 713              	.L78:
 714 0036 83B2     		uxth	r3, r0
 715 0038 9342     		cmp	r3, r2
 716 003a F1D8     		bhi	.L80
 717 003c 70BD     		pop	{r4, r5, r6, pc}
 718              		.cantunwind
 719              		.fnend
 721              		.section	.text._ZL11cdc_receivePhPm,"ax",%progbits
 722              		.align	1
 723              		.syntax unified
 724              		.thumb
 725              		.thumb_func
 727              	_ZL11cdc_receivePhPm:
 728              		.fnstart
 729              	.LFB650:
 730              		@ args = 0, pretend = 0, frame = 0
 731              		@ frame_needed = 0, uses_anonymous_args = 0
 732 0000 08B5     		push	{r3, lr}
 733 0002 0A88     		ldrh	r2, [r1]
 734 0004 0146     		mov	r1, r0
 735 0006 024B     		ldr	r3, .L83
 736 0008 1868     		ldr	r0, [r3]
 737 000a FFF7FEFF 		bl	_ZN4user6Stream7receiveEPht
 738 000e 08BD     		pop	{r3, pc}
 739              	.L84:
 740              		.align	2
 741              	.L83:
 742 0010 00000000 		.word	.LANCHOR1
 743              		.cantunwind
 744              		.fnend
 746              		.section	.text._ZN4user4wordEhh,"ax",%progbits
 747              		.align	1
 748              		.global	_ZN4user4wordEhh
 749              		.syntax unified
 750              		.thumb
 751              		.thumb_func
 753              	_ZN4user4wordEhh:
 754              		.fnstart
 755              	.LFB665:
ARM GAS  C:\Users\7636~1\AppData\Local\Temp\ccvkKJjb.s 			page 14


 756              		@ args = 0, pretend = 0, frame = 0
 757              		@ frame_needed = 0, uses_anonymous_args = 0
 758              		@ link register save eliminated.
 759 0000 41EA0020 		orr	r0, r1, r0, lsl #8
 760 0004 7047     		bx	lr
 761              		.cantunwind
 762              		.fnend
 764              		.section	.text._GLOBAL__sub_I_output_buf,"ax",%progbits
 765              		.align	1
 766              		.syntax unified
 767              		.thumb
 768              		.thumb_func
 770              	_GLOBAL__sub_I_output_buf:
 771              		.fnstart
 772              	.LFB668:
 773              		@ args = 0, pretend = 0, frame = 0
 774              		@ frame_needed = 0, uses_anonymous_args = 0
 775 0000 08B5     		push	{r3, lr}
 776 0002 4FF6FF71 		movw	r1, #65535
 777 0006 0120     		movs	r0, #1
 778 0008 FFF7FEFF 		bl	_Z41__static_initialization_and_destruction_0ii
 779 000c 08BD     		pop	{r3, pc}
 780              		.cantunwind
 781              		.fnend
 783              		.section	.init_array,"aw",%init_array
 784              		.align	2
 785 0000 00000000 		.word	_GLOBAL__sub_I_output_buf(target1)
 786              		.global	output_buf
 787              		.section	.bss._ZL10cdc_stream,"aw",%nobits
 788              		.align	2
 789              		.set	.LANCHOR1,. + 0
 792              	_ZL10cdc_stream:
 793 0000 00000000 		.space	4
 794              		.section	.bss._ZL7led_pin,"aw",%nobits
 795              		.align	2
 796              		.set	.LANCHOR0,. + 0
 799              	_ZL7led_pin:
 800 0000 00000000 		.space	8
 800      00000000 
 801              		.section	.bss.output_buf,"aw",%nobits
 802              		.align	2
 803              		.set	.LANCHOR2,. + 0
 806              	output_buf:
 807 0000 00000000 		.space	256
 807      00000000 
 807      00000000 
 807      00000000 
 807      00000000 
 808              		.ident	"GCC: (xPack GNU Arm Embedded GCC i386) 10.3.1 20210824 (release)"
ARM GAS  C:\Users\7636~1\AppData\Local\Temp\ccvkKJjb.s 			page 15


DEFINED SYMBOLS
                            *ABS*:00000000 user.cpp
C:\Users\7636~1\AppData\Local\Temp\ccvkKJjb.s:18     .text._ZL17supervise_indexesPtS_:00000000 $t
C:\Users\7636~1\AppData\Local\Temp\ccvkKJjb.s:23     .text._ZL17supervise_indexesPtS_:00000000 _ZL17supervise_indexesPtS_
.ARM.exidx.text._ZL17supervise_indexesPtS_:00000000 $d
C:\Users\7636~1\AppData\Local\Temp\ccvkKJjb.s:44     .text._Z41__static_initialization_and_destruction_0ii:00000000 $t
C:\Users\7636~1\AppData\Local\Temp\ccvkKJjb.s:49     .text._Z41__static_initialization_and_destruction_0ii:00000000 _Z41__static_initialization_and_destruction_0ii
C:\Users\7636~1\AppData\Local\Temp\ccvkKJjb.s:80     .text._Z41__static_initialization_and_destruction_0ii:00000038 $d
.ARM.exidx.text._Z41__static_initialization_and_destruction_0ii:00000000 $d
C:\Users\7636~1\AppData\Local\Temp\ccvkKJjb.s:87     .text._Z21cdc_transmit_blockingPht:00000000 $t
C:\Users\7636~1\AppData\Local\Temp\ccvkKJjb.s:93     .text._Z21cdc_transmit_blockingPht:00000000 _Z21cdc_transmit_blockingPht
.ARM.exidx.text._Z21cdc_transmit_blockingPht:00000000 $d
C:\Users\7636~1\AppData\Local\Temp\ccvkKJjb.s:113    .text._ZL11send_outputj:00000000 $t
C:\Users\7636~1\AppData\Local\Temp\ccvkKJjb.s:118    .text._ZL11send_outputj:00000000 _ZL11send_outputj
C:\Users\7636~1\AppData\Local\Temp\ccvkKJjb.s:132    .text._ZL11send_outputj:0000000c $d
.ARM.extab.text._ZL11send_outputj:00000000 $d
.ARM.exidx.text._ZL11send_outputj:00000000 $d
C:\Users\7636~1\AppData\Local\Temp\ccvkKJjb.s:136    .text._ZN4user6Stream9availableEv:00000000 $t
C:\Users\7636~1\AppData\Local\Temp\ccvkKJjb.s:142    .text._ZN4user6Stream9availableEv:00000000 _ZN4user6Stream9availableEv
.ARM.exidx.text._ZN4user6Stream9availableEv:00000000 $d
C:\Users\7636~1\AppData\Local\Temp\ccvkKJjb.s:162    .text._ZN4user6Stream4readEv:00000000 $t
C:\Users\7636~1\AppData\Local\Temp\ccvkKJjb.s:168    .text._ZN4user6Stream4readEv:00000000 _ZN4user6Stream4readEv
.ARM.exidx.text._ZN4user6Stream4readEv:00000000 $d
C:\Users\7636~1\AppData\Local\Temp\ccvkKJjb.s:195    .rodata._ZL14wait_for_inputv.str1.4:00000000 $d
C:\Users\7636~1\AppData\Local\Temp\ccvkKJjb.s:202    .text._ZL14wait_for_inputv:00000000 $t
C:\Users\7636~1\AppData\Local\Temp\ccvkKJjb.s:207    .text._ZL14wait_for_inputv:00000000 _ZL14wait_for_inputv
C:\Users\7636~1\AppData\Local\Temp\ccvkKJjb.s:262    .text._ZL14wait_for_inputv:00000068 $d
.ARM.exidx.text._ZL14wait_for_inputv:00000000 $d
C:\Users\7636~1\AppData\Local\Temp\ccvkKJjb.s:268    .rodata._ZN4user5setupEP19__SPI_HandleTypeDefS1_P17I2C_HandleTypeDef.str1.4:00000000 $d
C:\Users\7636~1\AppData\Local\Temp\ccvkKJjb.s:278    .text._ZN4user5setupEP19__SPI_HandleTypeDefS1_P17I2C_HandleTypeDef:00000000 $t
C:\Users\7636~1\AppData\Local\Temp\ccvkKJjb.s:284    .text._ZN4user5setupEP19__SPI_HandleTypeDefS1_P17I2C_HandleTypeDef:00000000 _ZN4user5setupEP19__SPI_HandleTypeDefS1_P17I2C_HandleTypeDef
C:\Users\7636~1\AppData\Local\Temp\ccvkKJjb.s:358    .text._ZN4user5setupEP19__SPI_HandleTypeDefS1_P17I2C_HandleTypeDef:000000b4 $d
C:\Users\7636~1\AppData\Local\Temp\ccvkKJjb.s:727    .text._ZL11cdc_receivePhPm:00000000 _ZL11cdc_receivePhPm
.ARM.exidx.text._ZN4user5setupEP19__SPI_HandleTypeDefS1_P17I2C_HandleTypeDef:00000000 $d
C:\Users\7636~1\AppData\Local\Temp\ccvkKJjb.s:369    .rodata._ZN4user4mainEv.str1.4:00000000 $d
C:\Users\7636~1\AppData\Local\Temp\ccvkKJjb.s:373    .text._ZN4user4mainEv:00000000 $t
C:\Users\7636~1\AppData\Local\Temp\ccvkKJjb.s:379    .text._ZN4user4mainEv:00000000 _ZN4user4mainEv
C:\Users\7636~1\AppData\Local\Temp\ccvkKJjb.s:447    .text._ZN4user4mainEv:000000a8 $d
  .ARM.exidx.text._ZN4user4mainEv:00000000 $d
C:\Users\7636~1\AppData\Local\Temp\ccvkKJjb.s:458    .text._ZN4user6Stream5writeEPht:00000000 $t
C:\Users\7636~1\AppData\Local\Temp\ccvkKJjb.s:464    .text._ZN4user6Stream5writeEPht:00000000 _ZN4user6Stream5writeEPht
.ARM.exidx.text._ZN4user6Stream5writeEPht:00000000 $d
C:\Users\7636~1\AppData\Local\Temp\ccvkKJjb.s:485    .text._ZN4user6Stream17availableForWriteEv:00000000 $t
C:\Users\7636~1\AppData\Local\Temp\ccvkKJjb.s:491    .text._ZN4user6Stream17availableForWriteEv:00000000 _ZN4user6Stream17availableForWriteEv
.ARM.extab.text._ZN4user6Stream17availableForWriteEv:00000000 $d
.ARM.exidx.text._ZN4user6Stream17availableForWriteEv:00000000 $d
C:\Users\7636~1\AppData\Local\Temp\ccvkKJjb.s:509    .text._ZN4user6microsEv:00000000 $t
C:\Users\7636~1\AppData\Local\Temp\ccvkKJjb.s:515    .text._ZN4user6microsEv:00000000 _ZN4user6microsEv
C:\Users\7636~1\AppData\Local\Temp\ccvkKJjb.s:527    .text._ZN4user6microsEv:00000008 $d
.ARM.exidx.text._ZN4user6microsEv:00000000 $d
C:\Users\7636~1\AppData\Local\Temp\ccvkKJjb.s:532    .text._ZN4user12digitalWriteENS_5pin_tEh:00000000 $t
C:\Users\7636~1\AppData\Local\Temp\ccvkKJjb.s:538    .text._ZN4user12digitalWriteENS_5pin_tEh:00000000 _ZN4user12digitalWriteENS_5pin_tEh
.ARM.exidx.text._ZN4user12digitalWriteENS_5pin_tEh:00000000 $d
C:\Users\7636~1\AppData\Local\Temp\ccvkKJjb.s:563    .text._ZN4user7pinModeENS_5pin_tEh:00000000 $t
C:\Users\7636~1\AppData\Local\Temp\ccvkKJjb.s:569    .text._ZN4user7pinModeENS_5pin_tEh:00000000 _ZN4user7pinModeENS_5pin_tEh
.ARM.exidx.text._ZN4user7pinModeENS_5pin_tEh:00000000 $d
C:\Users\7636~1\AppData\Local\Temp\ccvkKJjb.s:615    .text._ZN4user3minEii:00000000 $t
ARM GAS  C:\Users\7636~1\AppData\Local\Temp\ccvkKJjb.s 			page 16


C:\Users\7636~1\AppData\Local\Temp\ccvkKJjb.s:621    .text._ZN4user3minEii:00000000 _ZN4user3minEii
  .ARM.exidx.text._ZN4user3minEii:00000000 $d
C:\Users\7636~1\AppData\Local\Temp\ccvkKJjb.s:638    .text._ZN4user6Stream9readBytesEPht:00000000 $t
C:\Users\7636~1\AppData\Local\Temp\ccvkKJjb.s:644    .text._ZN4user6Stream9readBytesEPht:00000000 _ZN4user6Stream9readBytesEPht
.ARM.exidx.text._ZN4user6Stream9readBytesEPht:00000000 $d
C:\Users\7636~1\AppData\Local\Temp\ccvkKJjb.s:681    .text._ZN4user6Stream7receiveEPht:00000000 $t
C:\Users\7636~1\AppData\Local\Temp\ccvkKJjb.s:687    .text._ZN4user6Stream7receiveEPht:00000000 _ZN4user6Stream7receiveEPht
.ARM.exidx.text._ZN4user6Stream7receiveEPht:00000000 $d
C:\Users\7636~1\AppData\Local\Temp\ccvkKJjb.s:722    .text._ZL11cdc_receivePhPm:00000000 $t
C:\Users\7636~1\AppData\Local\Temp\ccvkKJjb.s:742    .text._ZL11cdc_receivePhPm:00000010 $d
.ARM.exidx.text._ZL11cdc_receivePhPm:00000000 $d
C:\Users\7636~1\AppData\Local\Temp\ccvkKJjb.s:747    .text._ZN4user4wordEhh:00000000 $t
C:\Users\7636~1\AppData\Local\Temp\ccvkKJjb.s:753    .text._ZN4user4wordEhh:00000000 _ZN4user4wordEhh
 .ARM.exidx.text._ZN4user4wordEhh:00000000 $d
C:\Users\7636~1\AppData\Local\Temp\ccvkKJjb.s:765    .text._GLOBAL__sub_I_output_buf:00000000 $t
C:\Users\7636~1\AppData\Local\Temp\ccvkKJjb.s:770    .text._GLOBAL__sub_I_output_buf:00000000 _GLOBAL__sub_I_output_buf
.ARM.exidx.text._GLOBAL__sub_I_output_buf:00000000 $d
C:\Users\7636~1\AppData\Local\Temp\ccvkKJjb.s:784    .init_array:00000000 $d
C:\Users\7636~1\AppData\Local\Temp\ccvkKJjb.s:806    .bss.output_buf:00000000 output_buf
C:\Users\7636~1\AppData\Local\Temp\ccvkKJjb.s:788    .bss._ZL10cdc_stream:00000000 $d
C:\Users\7636~1\AppData\Local\Temp\ccvkKJjb.s:792    .bss._ZL10cdc_stream:00000000 _ZL10cdc_stream
C:\Users\7636~1\AppData\Local\Temp\ccvkKJjb.s:795    .bss._ZL7led_pin:00000000 $d
C:\Users\7636~1\AppData\Local\Temp\ccvkKJjb.s:799    .bss._ZL7led_pin:00000000 _ZL7led_pin
C:\Users\7636~1\AppData\Local\Temp\ccvkKJjb.s:802    .bss.output_buf:00000000 $d

UNDEFINED SYMBOLS
_Znwj
memset
CDC_Can_Transmit
CDC_Transmit_FS
__aeabi_unwind_cpp_pr0
__aeabi_unwind_cpp_pr1
LL_mDelay
CDC_IsConnected
CDC_Register_RX_Callback
_ZN3adc4initEP19__SPI_HandleTypeDef
_ZN3adc5probeEv
_ZN3adc18dump_module_reportEPcj
_ZN3dac4initEP19__SPI_HandleTypeDefP17I2C_HandleTypeDef
_ZN3dac5probeEv
_ZN3dac18dump_module_reportEPcj
_ZN3adc18increment_and_syncEv
__aeabi_f2d
__aeabi_dadd
__aeabi_d2f
_ZN3adc10drdy_checkEv
_ZN3dac12read_currentEv
_ZN3dac18dump_last_currentsEPcj
_ZN3dac7set_allEf
_ZN3adc4readEv
_ZN3adc14dump_last_dataEPcj
_ZN3adc6statusE
_ZN3dac7modulesE
